ARM GAS  C:\Users\pw705\AppData\Local\Temp\ccDqpBzc.s 			page 1


   1              		.cpu cortex-m4
   2              		.arch armv7e-m
   3              		.fpu fpv4-sp-d16
   4              		.eabi_attribute 27, 1
   5              		.eabi_attribute 28, 1
   6              		.eabi_attribute 20, 1
   7              		.eabi_attribute 21, 1
   8              		.eabi_attribute 23, 3
   9              		.eabi_attribute 24, 1
  10              		.eabi_attribute 25, 1
  11              		.eabi_attribute 26, 1
  12              		.eabi_attribute 30, 2
  13              		.eabi_attribute 34, 1
  14              		.eabi_attribute 18, 4
  15              		.file	"sd_diskio.c"
  16              		.text
  17              	.Ltext0:
  18              		.cfi_sections	.debug_frame
  19              		.file 1 "Src/sd_diskio.c"
  20              		.section	.text.SD_initialize,"ax",%progbits
  21              		.align	1
  22              		.p2align 2,,3
  23              		.global	SD_initialize
  24              		.syntax unified
  25              		.thumb
  26              		.thumb_func
  28              	SD_initialize:
  29              	.LVL0:
  30              	.LFB131:
   1:Src/sd_diskio.c **** /* USER CODE BEGIN Header */
   2:Src/sd_diskio.c **** /**
   3:Src/sd_diskio.c ****   ******************************************************************************
   4:Src/sd_diskio.c ****   * @file    sd_diskio.c
   5:Src/sd_diskio.c ****   * @brief   SD Disk I/O driver
   6:Src/sd_diskio.c ****   ******************************************************************************
   7:Src/sd_diskio.c ****   * @attention
   8:Src/sd_diskio.c ****   *
   9:Src/sd_diskio.c ****   * Copyright (c) 2024 STMicroelectronics.
  10:Src/sd_diskio.c ****   * All rights reserved.
  11:Src/sd_diskio.c ****   *
  12:Src/sd_diskio.c ****   * This software is licensed under terms that can be found in the LICENSE file
  13:Src/sd_diskio.c ****   * in the root directory of this software component.
  14:Src/sd_diskio.c ****   * If no LICENSE file comes with this software, it is provided AS-IS.
  15:Src/sd_diskio.c ****   *
  16:Src/sd_diskio.c ****   ******************************************************************************
  17:Src/sd_diskio.c ****   */
  18:Src/sd_diskio.c **** /* USER CODE END Header */
  19:Src/sd_diskio.c **** 
  20:Src/sd_diskio.c **** /* Note: code generation based on sd_diskio_template_bspv1.c v2.1.4
  21:Src/sd_diskio.c ****    as "Use dma template" is disabled. */
  22:Src/sd_diskio.c **** 
  23:Src/sd_diskio.c **** /* USER CODE BEGIN firstSection */
  24:Src/sd_diskio.c **** /* can be used to modify / undefine following code or add new definitions */
  25:Src/sd_diskio.c **** /* USER CODE END firstSection*/
  26:Src/sd_diskio.c **** 
  27:Src/sd_diskio.c **** /* Includes ------------------------------------------------------------------*/
  28:Src/sd_diskio.c **** #include "ff_gen_drv.h"
ARM GAS  C:\Users\pw705\AppData\Local\Temp\ccDqpBzc.s 			page 2


  29:Src/sd_diskio.c **** #include "sd_diskio.h"
  30:Src/sd_diskio.c **** 
  31:Src/sd_diskio.c **** /* Private typedef -----------------------------------------------------------*/
  32:Src/sd_diskio.c **** /* Private define ------------------------------------------------------------*/
  33:Src/sd_diskio.c **** /* use the default SD timout as defined in the platform BSP driver*/
  34:Src/sd_diskio.c **** #if defined(SDMMC_DATATIMEOUT)
  35:Src/sd_diskio.c **** #define SD_TIMEOUT SDMMC_DATATIMEOUT
  36:Src/sd_diskio.c **** #elif defined(SD_DATATIMEOUT)
  37:Src/sd_diskio.c **** #define SD_TIMEOUT SD_DATATIMEOUT
  38:Src/sd_diskio.c **** #else
  39:Src/sd_diskio.c **** #define SD_TIMEOUT 30 * 1000
  40:Src/sd_diskio.c **** #endif
  41:Src/sd_diskio.c **** 
  42:Src/sd_diskio.c **** #define SD_DEFAULT_BLOCK_SIZE 512
  43:Src/sd_diskio.c **** 
  44:Src/sd_diskio.c **** /*
  45:Src/sd_diskio.c ****  * Depending on the use case, the SD card initialization could be done at the
  46:Src/sd_diskio.c ****  * application level: if it is the case define the flag below to disable
  47:Src/sd_diskio.c ****  * the BSP_SD_Init() call in the SD_Initialize() and add a call to
  48:Src/sd_diskio.c ****  * BSP_SD_Init() elsewhere in the application.
  49:Src/sd_diskio.c ****  */
  50:Src/sd_diskio.c **** /* USER CODE BEGIN disableSDInit */
  51:Src/sd_diskio.c **** /* #define DISABLE_SD_INIT */
  52:Src/sd_diskio.c **** /* USER CODE END disableSDInit */
  53:Src/sd_diskio.c **** 
  54:Src/sd_diskio.c **** /* Private variables ---------------------------------------------------------*/
  55:Src/sd_diskio.c **** /* Disk status */
  56:Src/sd_diskio.c **** static volatile DSTATUS Stat = STA_NOINIT;
  57:Src/sd_diskio.c **** 
  58:Src/sd_diskio.c **** /* Private function prototypes -----------------------------------------------*/
  59:Src/sd_diskio.c **** static DSTATUS SD_CheckStatus(BYTE lun);
  60:Src/sd_diskio.c **** DSTATUS SD_initialize (BYTE);
  61:Src/sd_diskio.c **** DSTATUS SD_status (BYTE);
  62:Src/sd_diskio.c **** DRESULT SD_read (BYTE, BYTE*, DWORD, UINT);
  63:Src/sd_diskio.c **** #if _USE_WRITE == 1
  64:Src/sd_diskio.c **** DRESULT SD_write (BYTE, const BYTE*, DWORD, UINT);
  65:Src/sd_diskio.c **** #endif /* _USE_WRITE == 1 */
  66:Src/sd_diskio.c **** #if _USE_IOCTL == 1
  67:Src/sd_diskio.c **** DRESULT SD_ioctl (BYTE, BYTE, void*);
  68:Src/sd_diskio.c **** #endif  /* _USE_IOCTL == 1 */
  69:Src/sd_diskio.c **** 
  70:Src/sd_diskio.c **** const Diskio_drvTypeDef  SD_Driver =
  71:Src/sd_diskio.c **** {
  72:Src/sd_diskio.c ****   SD_initialize,
  73:Src/sd_diskio.c ****   SD_status,
  74:Src/sd_diskio.c ****   SD_read,
  75:Src/sd_diskio.c **** #if  _USE_WRITE == 1
  76:Src/sd_diskio.c ****   SD_write,
  77:Src/sd_diskio.c **** #endif /* _USE_WRITE == 1 */
  78:Src/sd_diskio.c **** 
  79:Src/sd_diskio.c **** #if  _USE_IOCTL == 1
  80:Src/sd_diskio.c ****   SD_ioctl,
  81:Src/sd_diskio.c **** #endif /* _USE_IOCTL == 1 */
  82:Src/sd_diskio.c **** };
  83:Src/sd_diskio.c **** 
  84:Src/sd_diskio.c **** /* USER CODE BEGIN beforeFunctionSection */
  85:Src/sd_diskio.c **** /* can be used to modify / undefine following code or add new code */
ARM GAS  C:\Users\pw705\AppData\Local\Temp\ccDqpBzc.s 			page 3


  86:Src/sd_diskio.c **** /* USER CODE END beforeFunctionSection */
  87:Src/sd_diskio.c **** 
  88:Src/sd_diskio.c **** /* Private functions ---------------------------------------------------------*/
  89:Src/sd_diskio.c **** 
  90:Src/sd_diskio.c **** static DSTATUS SD_CheckStatus(BYTE lun)
  91:Src/sd_diskio.c **** {
  92:Src/sd_diskio.c ****   Stat = STA_NOINIT;
  93:Src/sd_diskio.c **** 
  94:Src/sd_diskio.c ****   if(BSP_SD_GetCardState() == MSD_OK)
  95:Src/sd_diskio.c ****   {
  96:Src/sd_diskio.c ****     Stat &= ~STA_NOINIT;
  97:Src/sd_diskio.c ****   }
  98:Src/sd_diskio.c **** 
  99:Src/sd_diskio.c ****   return Stat;
 100:Src/sd_diskio.c **** }
 101:Src/sd_diskio.c **** 
 102:Src/sd_diskio.c **** /**
 103:Src/sd_diskio.c ****   * @brief  Initializes a Drive
 104:Src/sd_diskio.c ****   * @param  lun : not used
 105:Src/sd_diskio.c ****   * @retval DSTATUS: Operation status
 106:Src/sd_diskio.c ****   */
 107:Src/sd_diskio.c **** DSTATUS SD_initialize(BYTE lun)
 108:Src/sd_diskio.c **** {
  31              		.loc 1 108 1 view -0
  32              		.cfi_startproc
  33              		@ args = 0, pretend = 0, frame = 0
  34              		@ frame_needed = 0, uses_anonymous_args = 0
 109:Src/sd_diskio.c **** Stat = STA_NOINIT;
  35              		.loc 1 109 1 view .LVU1
 108:Src/sd_diskio.c **** Stat = STA_NOINIT;
  36              		.loc 1 108 1 is_stmt 0 view .LVU2
  37 0000 38B5     		push	{r3, r4, r5, lr}
  38              		.cfi_def_cfa_offset 16
  39              		.cfi_offset 3, -16
  40              		.cfi_offset 4, -12
  41              		.cfi_offset 5, -8
  42              		.cfi_offset 14, -4
  43              		.loc 1 109 6 view .LVU3
  44 0002 0A4C     		ldr	r4, .L7
  45 0004 0125     		movs	r5, #1
  46 0006 2570     		strb	r5, [r4]
 110:Src/sd_diskio.c **** 
 111:Src/sd_diskio.c **** #if !defined(DISABLE_SD_INIT)
 112:Src/sd_diskio.c **** 
 113:Src/sd_diskio.c ****   if(BSP_SD_Init() == MSD_OK)
  47              		.loc 1 113 3 is_stmt 1 view .LVU4
  48              		.loc 1 113 6 is_stmt 0 view .LVU5
  49 0008 FFF7FEFF 		bl	BSP_SD_Init
  50              	.LVL1:
  51              		.loc 1 113 5 view .LVU6
  52 000c 08B1     		cbz	r0, .L6
 114:Src/sd_diskio.c ****   {
 115:Src/sd_diskio.c ****     Stat = SD_CheckStatus(lun);
 116:Src/sd_diskio.c ****   }
 117:Src/sd_diskio.c **** 
 118:Src/sd_diskio.c **** #else
 119:Src/sd_diskio.c ****   Stat = SD_CheckStatus(lun);
ARM GAS  C:\Users\pw705\AppData\Local\Temp\ccDqpBzc.s 			page 4


 120:Src/sd_diskio.c **** #endif
 121:Src/sd_diskio.c **** 
 122:Src/sd_diskio.c ****   return Stat;
  53              		.loc 1 122 3 is_stmt 1 view .LVU7
  54              		.loc 1 122 10 is_stmt 0 view .LVU8
  55 000e 2078     		ldrb	r0, [r4]	@ zero_extendqisi2
 123:Src/sd_diskio.c **** }
  56              		.loc 1 123 1 view .LVU9
  57 0010 38BD     		pop	{r3, r4, r5, pc}
  58              	.L6:
 115:Src/sd_diskio.c ****   }
  59              		.loc 1 115 5 is_stmt 1 view .LVU10
  60              	.LVL2:
  61              	.LBB6:
  62              	.LBI6:
  90:Src/sd_diskio.c **** {
  63              		.loc 1 90 16 view .LVU11
  64              	.LBB7:
  92:Src/sd_diskio.c **** 
  65              		.loc 1 92 3 view .LVU12
  92:Src/sd_diskio.c **** 
  66              		.loc 1 92 8 is_stmt 0 view .LVU13
  67 0012 2570     		strb	r5, [r4]
  94:Src/sd_diskio.c ****   {
  68              		.loc 1 94 3 is_stmt 1 view .LVU14
  94:Src/sd_diskio.c ****   {
  69              		.loc 1 94 6 is_stmt 0 view .LVU15
  70 0014 FFF7FEFF 		bl	BSP_SD_GetCardState
  71              	.LVL3:
  94:Src/sd_diskio.c ****   {
  72              		.loc 1 94 5 view .LVU16
  73 0018 18B9     		cbnz	r0, .L3
  96:Src/sd_diskio.c ****   }
  74              		.loc 1 96 5 is_stmt 1 view .LVU17
  96:Src/sd_diskio.c ****   }
  75              		.loc 1 96 10 is_stmt 0 view .LVU18
  76 001a 2378     		ldrb	r3, [r4]	@ zero_extendqisi2
  77 001c 03F0FE03 		and	r3, r3, #254
  78 0020 2370     		strb	r3, [r4]
  79              	.L3:
  99:Src/sd_diskio.c **** }
  80              		.loc 1 99 3 is_stmt 1 view .LVU19
  99:Src/sd_diskio.c **** }
  81              		.loc 1 99 10 is_stmt 0 view .LVU20
  82 0022 2378     		ldrb	r3, [r4]	@ zero_extendqisi2
  83 0024 DBB2     		uxtb	r3, r3
  84              	.LVL4:
  99:Src/sd_diskio.c **** }
  85              		.loc 1 99 10 view .LVU21
  86              	.LBE7:
  87              	.LBE6:
 115:Src/sd_diskio.c ****   }
  88              		.loc 1 115 10 view .LVU22
  89 0026 2370     		strb	r3, [r4]
 122:Src/sd_diskio.c **** }
  90              		.loc 1 122 3 is_stmt 1 view .LVU23
 122:Src/sd_diskio.c **** }
ARM GAS  C:\Users\pw705\AppData\Local\Temp\ccDqpBzc.s 			page 5


  91              		.loc 1 122 10 is_stmt 0 view .LVU24
  92 0028 2078     		ldrb	r0, [r4]	@ zero_extendqisi2
  93              		.loc 1 123 1 view .LVU25
  94 002a 38BD     		pop	{r3, r4, r5, pc}
  95              	.L8:
  96              		.align	2
  97              	.L7:
  98 002c 00000000 		.word	Stat
  99              		.cfi_endproc
 100              	.LFE131:
 102              		.section	.text.SD_status,"ax",%progbits
 103              		.align	1
 104              		.p2align 2,,3
 105              		.global	SD_status
 106              		.syntax unified
 107              		.thumb
 108              		.thumb_func
 110              	SD_status:
 111              	.LVL5:
 112              	.LFB132:
 124:Src/sd_diskio.c **** 
 125:Src/sd_diskio.c **** /**
 126:Src/sd_diskio.c ****   * @brief  Gets Disk Status
 127:Src/sd_diskio.c ****   * @param  lun : not used
 128:Src/sd_diskio.c ****   * @retval DSTATUS: Operation status
 129:Src/sd_diskio.c ****   */
 130:Src/sd_diskio.c **** DSTATUS SD_status(BYTE lun)
 131:Src/sd_diskio.c **** {
 113              		.loc 1 131 1 is_stmt 1 view -0
 114              		.cfi_startproc
 115              		@ args = 0, pretend = 0, frame = 0
 116              		@ frame_needed = 0, uses_anonymous_args = 0
 132:Src/sd_diskio.c ****   return SD_CheckStatus(lun);
 117              		.loc 1 132 3 view .LVU27
 118              	.LBB8:
 119              	.LBI8:
  90:Src/sd_diskio.c **** {
 120              		.loc 1 90 16 view .LVU28
 121              	.LBB9:
  92:Src/sd_diskio.c **** 
 122              		.loc 1 92 3 view .LVU29
 123              	.LBE9:
 124              	.LBE8:
 131:Src/sd_diskio.c ****   return SD_CheckStatus(lun);
 125              		.loc 1 131 1 is_stmt 0 view .LVU30
 126 0000 10B5     		push	{r4, lr}
 127              		.cfi_def_cfa_offset 8
 128              		.cfi_offset 4, -8
 129              		.cfi_offset 14, -4
 130              	.LBB11:
 131              	.LBB10:
  92:Src/sd_diskio.c **** 
 132              		.loc 1 92 8 view .LVU31
 133 0002 064C     		ldr	r4, .L12
 134 0004 0123     		movs	r3, #1
 135 0006 2370     		strb	r3, [r4]
  94:Src/sd_diskio.c ****   {
ARM GAS  C:\Users\pw705\AppData\Local\Temp\ccDqpBzc.s 			page 6


 136              		.loc 1 94 3 is_stmt 1 view .LVU32
  94:Src/sd_diskio.c ****   {
 137              		.loc 1 94 6 is_stmt 0 view .LVU33
 138 0008 FFF7FEFF 		bl	BSP_SD_GetCardState
 139              	.LVL6:
  94:Src/sd_diskio.c ****   {
 140              		.loc 1 94 5 view .LVU34
 141 000c 18B9     		cbnz	r0, .L10
  96:Src/sd_diskio.c ****   }
 142              		.loc 1 96 5 is_stmt 1 view .LVU35
  96:Src/sd_diskio.c ****   }
 143              		.loc 1 96 10 is_stmt 0 view .LVU36
 144 000e 2378     		ldrb	r3, [r4]	@ zero_extendqisi2
 145 0010 03F0FE03 		and	r3, r3, #254
 146 0014 2370     		strb	r3, [r4]
 147              	.L10:
  99:Src/sd_diskio.c **** }
 148              		.loc 1 99 3 is_stmt 1 view .LVU37
 149              	.LVL7:
  99:Src/sd_diskio.c **** }
 150              		.loc 1 99 10 is_stmt 0 view .LVU38
 151 0016 2078     		ldrb	r0, [r4]	@ zero_extendqisi2
 152              	.LBE10:
 153              	.LBE11:
 133:Src/sd_diskio.c **** }
 154              		.loc 1 133 1 view .LVU39
 155 0018 10BD     		pop	{r4, pc}
 156              	.L13:
 157 001a 00BF     		.align	2
 158              	.L12:
 159 001c 00000000 		.word	Stat
 160              		.cfi_endproc
 161              	.LFE132:
 163              		.section	.text.SD_ioctl,"ax",%progbits
 164              		.align	1
 165              		.p2align 2,,3
 166              		.global	SD_ioctl
 167              		.syntax unified
 168              		.thumb
 169              		.thumb_func
 171              	SD_ioctl:
 172              	.LVL8:
 173              	.LFB135:
 134:Src/sd_diskio.c **** 
 135:Src/sd_diskio.c **** /* USER CODE BEGIN beforeReadSection */
 136:Src/sd_diskio.c **** /* can be used to modify previous code / undefine following code / add new code */
 137:Src/sd_diskio.c **** /* USER CODE END beforeReadSection */
 138:Src/sd_diskio.c **** /**
 139:Src/sd_diskio.c ****   * @brief  Reads Sector(s)
 140:Src/sd_diskio.c ****   * @param  lun : not used
 141:Src/sd_diskio.c ****   * @param  *buff: Data buffer to store read data
 142:Src/sd_diskio.c ****   * @param  sector: Sector address (LBA)
 143:Src/sd_diskio.c ****   * @param  count: Number of sectors to read (1..128)
 144:Src/sd_diskio.c ****   * @retval DRESULT: Operation result
 145:Src/sd_diskio.c ****   */
 146:Src/sd_diskio.c **** 
 147:Src/sd_diskio.c **** DRESULT SD_read(BYTE lun, BYTE *buff, DWORD sector, UINT count)
ARM GAS  C:\Users\pw705\AppData\Local\Temp\ccDqpBzc.s 			page 7


 148:Src/sd_diskio.c **** {
 149:Src/sd_diskio.c ****   DRESULT res = RES_ERROR;
 150:Src/sd_diskio.c **** 
 151:Src/sd_diskio.c ****   if(BSP_SD_ReadBlocks((uint32_t*)buff,
 152:Src/sd_diskio.c ****                        (uint32_t) (sector),
 153:Src/sd_diskio.c ****                        count, SD_TIMEOUT) == MSD_OK)
 154:Src/sd_diskio.c ****   {
 155:Src/sd_diskio.c ****     /* wait until the read operation is finished */
 156:Src/sd_diskio.c ****     while(BSP_SD_GetCardState()!= MSD_OK)
 157:Src/sd_diskio.c ****     {
 158:Src/sd_diskio.c ****     }
 159:Src/sd_diskio.c ****     res = RES_OK;
 160:Src/sd_diskio.c ****   }
 161:Src/sd_diskio.c **** 
 162:Src/sd_diskio.c ****   return res;
 163:Src/sd_diskio.c **** }
 164:Src/sd_diskio.c **** 
 165:Src/sd_diskio.c **** /* USER CODE BEGIN beforeWriteSection */
 166:Src/sd_diskio.c **** /* can be used to modify previous code / undefine following code / add new code */
 167:Src/sd_diskio.c **** /* USER CODE END beforeWriteSection */
 168:Src/sd_diskio.c **** /**
 169:Src/sd_diskio.c ****   * @brief  Writes Sector(s)
 170:Src/sd_diskio.c ****   * @param  lun : not used
 171:Src/sd_diskio.c ****   * @param  *buff: Data to be written
 172:Src/sd_diskio.c ****   * @param  sector: Sector address (LBA)
 173:Src/sd_diskio.c ****   * @param  count: Number of sectors to write (1..128)
 174:Src/sd_diskio.c ****   * @retval DRESULT: Operation result
 175:Src/sd_diskio.c ****   */
 176:Src/sd_diskio.c **** #if _USE_WRITE == 1
 177:Src/sd_diskio.c **** 
 178:Src/sd_diskio.c **** DRESULT SD_write(BYTE lun, const BYTE *buff, DWORD sector, UINT count)
 179:Src/sd_diskio.c **** {
 180:Src/sd_diskio.c ****   DRESULT res = RES_ERROR;
 181:Src/sd_diskio.c **** 
 182:Src/sd_diskio.c ****   if(BSP_SD_WriteBlocks((uint32_t*)buff,
 183:Src/sd_diskio.c ****                         (uint32_t)(sector),
 184:Src/sd_diskio.c ****                         count, SD_TIMEOUT) == MSD_OK)
 185:Src/sd_diskio.c ****   {
 186:Src/sd_diskio.c **** 	/* wait until the Write operation is finished */
 187:Src/sd_diskio.c ****     while(BSP_SD_GetCardState() != MSD_OK)
 188:Src/sd_diskio.c ****     {
 189:Src/sd_diskio.c ****     }
 190:Src/sd_diskio.c ****     res = RES_OK;
 191:Src/sd_diskio.c ****   }
 192:Src/sd_diskio.c **** 
 193:Src/sd_diskio.c ****   return res;
 194:Src/sd_diskio.c **** }
 195:Src/sd_diskio.c **** #endif /* _USE_WRITE == 1 */
 196:Src/sd_diskio.c **** 
 197:Src/sd_diskio.c **** /* USER CODE BEGIN beforeIoctlSection */
 198:Src/sd_diskio.c **** /* can be used to modify previous code / undefine following code / add new code */
 199:Src/sd_diskio.c **** /* USER CODE END beforeIoctlSection */
 200:Src/sd_diskio.c **** /**
 201:Src/sd_diskio.c ****   * @brief  I/O control operation
 202:Src/sd_diskio.c ****   * @param  lun : not used
 203:Src/sd_diskio.c ****   * @param  cmd: Control code
 204:Src/sd_diskio.c ****   * @param  *buff: Buffer to send/receive control data
ARM GAS  C:\Users\pw705\AppData\Local\Temp\ccDqpBzc.s 			page 8


 205:Src/sd_diskio.c ****   * @retval DRESULT: Operation result
 206:Src/sd_diskio.c ****   */
 207:Src/sd_diskio.c **** #if _USE_IOCTL == 1
 208:Src/sd_diskio.c **** DRESULT SD_ioctl(BYTE lun, BYTE cmd, void *buff)
 209:Src/sd_diskio.c **** {
 174              		.loc 1 209 1 is_stmt 1 view -0
 175              		.cfi_startproc
 176              		@ args = 0, pretend = 0, frame = 32
 177              		@ frame_needed = 0, uses_anonymous_args = 0
 210:Src/sd_diskio.c ****   DRESULT res = RES_ERROR;
 178              		.loc 1 210 3 view .LVU41
 211:Src/sd_diskio.c ****   BSP_SD_CardInfo CardInfo;
 179              		.loc 1 211 3 view .LVU42
 212:Src/sd_diskio.c **** 
 213:Src/sd_diskio.c ****   if (Stat & STA_NOINIT) return RES_NOTRDY;
 180              		.loc 1 213 3 view .LVU43
 209:Src/sd_diskio.c ****   DRESULT res = RES_ERROR;
 181              		.loc 1 209 1 is_stmt 0 view .LVU44
 182 0000 30B5     		push	{r4, r5, lr}
 183              		.cfi_def_cfa_offset 12
 184              		.cfi_offset 4, -12
 185              		.cfi_offset 5, -8
 186              		.cfi_offset 14, -4
 187              		.loc 1 213 12 view .LVU45
 188 0002 164B     		ldr	r3, .L25
 189 0004 1878     		ldrb	r0, [r3]	@ zero_extendqisi2
 190              	.LVL9:
 191              		.loc 1 213 6 view .LVU46
 192 0006 10F00104 		ands	r4, r0, #1
 209:Src/sd_diskio.c ****   DRESULT res = RES_ERROR;
 193              		.loc 1 209 1 view .LVU47
 194 000a 89B0     		sub	sp, sp, #36
 195              		.cfi_def_cfa_offset 48
 196              		.loc 1 213 6 view .LVU48
 197 000c 06D1     		bne	.L21
 198 000e 1546     		mov	r5, r2
 214:Src/sd_diskio.c **** 
 215:Src/sd_diskio.c ****   switch (cmd)
 199              		.loc 1 215 3 is_stmt 1 view .LVU49
 200 0010 0329     		cmp	r1, #3
 201 0012 20D8     		bhi	.L22
 202 0014 DFE801F0 		tbb	[pc, r1]
 203              	.L17:
 204 0018 03       		.byte	(.L15-.L17)/2
 205 0019 0F       		.byte	(.L19-.L17)/2
 206 001a 17       		.byte	(.L18-.L17)/2
 207 001b 06       		.byte	(.L16-.L17)/2
 208              		.p2align 1
 209              	.L21:
 213:Src/sd_diskio.c **** 
 210              		.loc 1 213 33 is_stmt 0 view .LVU50
 211 001c 0324     		movs	r4, #3
 212              	.L15:
 213              	.LVL10:
 216:Src/sd_diskio.c ****   {
 217:Src/sd_diskio.c ****   /* Make sure that no pending write process */
 218:Src/sd_diskio.c ****   case CTRL_SYNC :
ARM GAS  C:\Users\pw705\AppData\Local\Temp\ccDqpBzc.s 			page 9


 219:Src/sd_diskio.c ****     res = RES_OK;
 220:Src/sd_diskio.c ****     break;
 221:Src/sd_diskio.c **** 
 222:Src/sd_diskio.c ****   /* Get number of sectors on the disk (DWORD) */
 223:Src/sd_diskio.c ****   case GET_SECTOR_COUNT :
 224:Src/sd_diskio.c ****     BSP_SD_GetCardInfo(&CardInfo);
 225:Src/sd_diskio.c ****     *(DWORD*)buff = CardInfo.LogBlockNbr;
 226:Src/sd_diskio.c ****     res = RES_OK;
 227:Src/sd_diskio.c ****     break;
 228:Src/sd_diskio.c **** 
 229:Src/sd_diskio.c ****   /* Get R/W sector size (WORD) */
 230:Src/sd_diskio.c ****   case GET_SECTOR_SIZE :
 231:Src/sd_diskio.c ****     BSP_SD_GetCardInfo(&CardInfo);
 232:Src/sd_diskio.c ****     *(WORD*)buff = CardInfo.LogBlockSize;
 233:Src/sd_diskio.c ****     res = RES_OK;
 234:Src/sd_diskio.c ****     break;
 235:Src/sd_diskio.c **** 
 236:Src/sd_diskio.c ****   /* Get erase block size in unit of sector (DWORD) */
 237:Src/sd_diskio.c ****   case GET_BLOCK_SIZE :
 238:Src/sd_diskio.c ****     BSP_SD_GetCardInfo(&CardInfo);
 239:Src/sd_diskio.c ****     *(DWORD*)buff = CardInfo.LogBlockSize / SD_DEFAULT_BLOCK_SIZE;
 240:Src/sd_diskio.c ****     res = RES_OK;
 241:Src/sd_diskio.c ****     break;
 242:Src/sd_diskio.c **** 
 243:Src/sd_diskio.c ****   default:
 244:Src/sd_diskio.c ****     res = RES_PARERR;
 245:Src/sd_diskio.c ****   }
 246:Src/sd_diskio.c **** 
 247:Src/sd_diskio.c ****   return res;
 248:Src/sd_diskio.c **** }
 214              		.loc 1 248 1 view .LVU51
 215 001e 2046     		mov	r0, r4
 216 0020 09B0     		add	sp, sp, #36
 217              		.cfi_remember_state
 218              		.cfi_def_cfa_offset 12
 219              		@ sp needed
 220 0022 30BD     		pop	{r4, r5, pc}
 221              	.LVL11:
 222              	.L16:
 223              		.cfi_restore_state
 238:Src/sd_diskio.c ****     *(DWORD*)buff = CardInfo.LogBlockSize / SD_DEFAULT_BLOCK_SIZE;
 224              		.loc 1 238 5 is_stmt 1 view .LVU52
 225 0024 6846     		mov	r0, sp
 226 0026 FFF7FEFF 		bl	BSP_SD_GetCardInfo
 227              	.LVL12:
 239:Src/sd_diskio.c ****     res = RES_OK;
 228              		.loc 1 239 5 view .LVU53
 239:Src/sd_diskio.c ****     res = RES_OK;
 229              		.loc 1 239 43 is_stmt 0 view .LVU54
 230 002a 079B     		ldr	r3, [sp, #28]
 231              		.loc 1 248 1 view .LVU55
 232 002c 2046     		mov	r0, r4
 239:Src/sd_diskio.c ****     res = RES_OK;
 233              		.loc 1 239 43 view .LVU56
 234 002e 5B0A     		lsrs	r3, r3, #9
 239:Src/sd_diskio.c ****     res = RES_OK;
 235              		.loc 1 239 19 view .LVU57
ARM GAS  C:\Users\pw705\AppData\Local\Temp\ccDqpBzc.s 			page 10


 236 0030 2B60     		str	r3, [r5]
 240:Src/sd_diskio.c ****     break;
 237              		.loc 1 240 5 is_stmt 1 view .LVU58
 238              	.LVL13:
 241:Src/sd_diskio.c **** 
 239              		.loc 1 241 5 view .LVU59
 240              		.loc 1 248 1 is_stmt 0 view .LVU60
 241 0032 09B0     		add	sp, sp, #36
 242              		.cfi_remember_state
 243              		.cfi_def_cfa_offset 12
 244              		@ sp needed
 245 0034 30BD     		pop	{r4, r5, pc}
 246              	.LVL14:
 247              	.L19:
 248              		.cfi_restore_state
 224:Src/sd_diskio.c ****     *(DWORD*)buff = CardInfo.LogBlockNbr;
 249              		.loc 1 224 5 is_stmt 1 view .LVU61
 250 0036 6846     		mov	r0, sp
 251 0038 FFF7FEFF 		bl	BSP_SD_GetCardInfo
 252              	.LVL15:
 225:Src/sd_diskio.c ****     res = RES_OK;
 253              		.loc 1 225 5 view .LVU62
 225:Src/sd_diskio.c ****     res = RES_OK;
 254              		.loc 1 225 19 is_stmt 0 view .LVU63
 255 003c 069B     		ldr	r3, [sp, #24]
 256 003e 2B60     		str	r3, [r5]
 226:Src/sd_diskio.c ****     break;
 257              		.loc 1 226 5 is_stmt 1 view .LVU64
 258              	.LVL16:
 227:Src/sd_diskio.c **** 
 259              		.loc 1 227 5 view .LVU65
 260              		.loc 1 248 1 is_stmt 0 view .LVU66
 261 0040 2046     		mov	r0, r4
 262 0042 09B0     		add	sp, sp, #36
 263              		.cfi_remember_state
 264              		.cfi_def_cfa_offset 12
 265              		@ sp needed
 266 0044 30BD     		pop	{r4, r5, pc}
 267              	.LVL17:
 268              	.L18:
 269              		.cfi_restore_state
 231:Src/sd_diskio.c ****     *(WORD*)buff = CardInfo.LogBlockSize;
 270              		.loc 1 231 5 is_stmt 1 view .LVU67
 271 0046 6846     		mov	r0, sp
 272 0048 FFF7FEFF 		bl	BSP_SD_GetCardInfo
 273              	.LVL18:
 232:Src/sd_diskio.c ****     res = RES_OK;
 274              		.loc 1 232 5 view .LVU68
 232:Src/sd_diskio.c ****     res = RES_OK;
 275              		.loc 1 232 18 is_stmt 0 view .LVU69
 276 004c 079B     		ldr	r3, [sp, #28]
 277 004e 2B80     		strh	r3, [r5]	@ movhi
 233:Src/sd_diskio.c ****     break;
 278              		.loc 1 233 5 is_stmt 1 view .LVU70
 279              	.LVL19:
 234:Src/sd_diskio.c **** 
 280              		.loc 1 234 5 view .LVU71
ARM GAS  C:\Users\pw705\AppData\Local\Temp\ccDqpBzc.s 			page 11


 281              		.loc 1 248 1 is_stmt 0 view .LVU72
 282 0050 2046     		mov	r0, r4
 283 0052 09B0     		add	sp, sp, #36
 284              		.cfi_remember_state
 285              		.cfi_def_cfa_offset 12
 286              		@ sp needed
 287 0054 30BD     		pop	{r4, r5, pc}
 288              	.LVL20:
 289              	.L22:
 290              		.cfi_restore_state
 244:Src/sd_diskio.c ****   }
 291              		.loc 1 244 9 view .LVU73
 292 0056 0424     		movs	r4, #4
 293 0058 E1E7     		b	.L15
 294              	.L26:
 295 005a 00BF     		.align	2
 296              	.L25:
 297 005c 00000000 		.word	Stat
 298              		.cfi_endproc
 299              	.LFE135:
 301              		.section	.text.SD_read,"ax",%progbits
 302              		.align	1
 303              		.p2align 2,,3
 304              		.global	SD_read
 305              		.syntax unified
 306              		.thumb
 307              		.thumb_func
 309              	SD_read:
 310              	.LVL21:
 311              	.LFB133:
 148:Src/sd_diskio.c ****   DRESULT res = RES_ERROR;
 312              		.loc 1 148 1 is_stmt 1 view -0
 313              		.cfi_startproc
 314              		@ args = 0, pretend = 0, frame = 0
 315              		@ frame_needed = 0, uses_anonymous_args = 0
 149:Src/sd_diskio.c **** 
 316              		.loc 1 149 3 view .LVU75
 151:Src/sd_diskio.c ****                        (uint32_t) (sector),
 317              		.loc 1 151 3 view .LVU76
 148:Src/sd_diskio.c ****   DRESULT res = RES_ERROR;
 318              		.loc 1 148 1 is_stmt 0 view .LVU77
 319 0000 08B5     		push	{r3, lr}
 320              		.cfi_def_cfa_offset 8
 321              		.cfi_offset 3, -8
 322              		.cfi_offset 14, -4
 148:Src/sd_diskio.c ****   DRESULT res = RES_ERROR;
 323              		.loc 1 148 1 view .LVU78
 324 0002 0846     		mov	r0, r1
 325              	.LVL22:
 148:Src/sd_diskio.c ****   DRESULT res = RES_ERROR;
 326              		.loc 1 148 1 view .LVU79
 327 0004 1146     		mov	r1, r2
 328              	.LVL23:
 151:Src/sd_diskio.c ****                        (uint32_t) (sector),
 329              		.loc 1 151 6 view .LVU80
 330 0006 1A46     		mov	r2, r3
 331              	.LVL24:
ARM GAS  C:\Users\pw705\AppData\Local\Temp\ccDqpBzc.s 			page 12


 151:Src/sd_diskio.c ****                        (uint32_t) (sector),
 332              		.loc 1 151 6 view .LVU81
 333 0008 4FF0FF33 		mov	r3, #-1
 334              	.LVL25:
 151:Src/sd_diskio.c ****                        (uint32_t) (sector),
 335              		.loc 1 151 6 view .LVU82
 336 000c FFF7FEFF 		bl	BSP_SD_ReadBlocks
 337              	.LVL26:
 151:Src/sd_diskio.c ****                        (uint32_t) (sector),
 338              		.loc 1 151 5 view .LVU83
 339 0010 08B1     		cbz	r0, .L29
 149:Src/sd_diskio.c **** 
 340              		.loc 1 149 11 view .LVU84
 341 0012 0120     		movs	r0, #1
 342              	.L28:
 343              	.LVL27:
 162:Src/sd_diskio.c **** }
 344              		.loc 1 162 3 is_stmt 1 view .LVU85
 163:Src/sd_diskio.c **** 
 345              		.loc 1 163 1 is_stmt 0 view .LVU86
 346 0014 08BD     		pop	{r3, pc}
 347              	.LVL28:
 348              	.L29:
 349              	.LBB14:
 350              	.LBB15:
 158:Src/sd_diskio.c ****     res = RES_OK;
 351              		.loc 1 158 5 is_stmt 1 view .LVU87
 156:Src/sd_diskio.c ****     {
 352              		.loc 1 156 32 view .LVU88
 156:Src/sd_diskio.c ****     {
 353              		.loc 1 156 11 is_stmt 0 view .LVU89
 354 0016 FFF7FEFF 		bl	BSP_SD_GetCardState
 355              	.LVL29:
 156:Src/sd_diskio.c ****     {
 356              		.loc 1 156 32 view .LVU90
 357 001a 0028     		cmp	r0, #0
 358 001c FAD0     		beq	.L28
 158:Src/sd_diskio.c ****     res = RES_OK;
 359              		.loc 1 158 5 is_stmt 1 view .LVU91
 156:Src/sd_diskio.c ****     {
 360              		.loc 1 156 32 view .LVU92
 156:Src/sd_diskio.c ****     {
 361              		.loc 1 156 11 is_stmt 0 view .LVU93
 362 001e FFF7FEFF 		bl	BSP_SD_GetCardState
 363              	.LVL30:
 156:Src/sd_diskio.c ****     {
 364              		.loc 1 156 32 view .LVU94
 365 0022 0028     		cmp	r0, #0
 366 0024 F7D1     		bne	.L29
 367 0026 F5E7     		b	.L28
 368              	.LBE15:
 369              	.LBE14:
 370              		.cfi_endproc
 371              	.LFE133:
 373              		.section	.text.SD_write,"ax",%progbits
 374              		.align	1
 375              		.p2align 2,,3
ARM GAS  C:\Users\pw705\AppData\Local\Temp\ccDqpBzc.s 			page 13


 376              		.global	SD_write
 377              		.syntax unified
 378              		.thumb
 379              		.thumb_func
 381              	SD_write:
 382              	.LVL31:
 383              	.LFB134:
 179:Src/sd_diskio.c ****   DRESULT res = RES_ERROR;
 384              		.loc 1 179 1 is_stmt 1 view -0
 385              		.cfi_startproc
 386              		@ args = 0, pretend = 0, frame = 0
 387              		@ frame_needed = 0, uses_anonymous_args = 0
 180:Src/sd_diskio.c **** 
 388              		.loc 1 180 3 view .LVU96
 182:Src/sd_diskio.c ****                         (uint32_t)(sector),
 389              		.loc 1 182 3 view .LVU97
 179:Src/sd_diskio.c ****   DRESULT res = RES_ERROR;
 390              		.loc 1 179 1 is_stmt 0 view .LVU98
 391 0000 08B5     		push	{r3, lr}
 392              		.cfi_def_cfa_offset 8
 393              		.cfi_offset 3, -8
 394              		.cfi_offset 14, -4
 179:Src/sd_diskio.c ****   DRESULT res = RES_ERROR;
 395              		.loc 1 179 1 view .LVU99
 396 0002 0846     		mov	r0, r1
 397              	.LVL32:
 179:Src/sd_diskio.c ****   DRESULT res = RES_ERROR;
 398              		.loc 1 179 1 view .LVU100
 399 0004 1146     		mov	r1, r2
 400              	.LVL33:
 182:Src/sd_diskio.c ****                         (uint32_t)(sector),
 401              		.loc 1 182 6 view .LVU101
 402 0006 1A46     		mov	r2, r3
 403              	.LVL34:
 182:Src/sd_diskio.c ****                         (uint32_t)(sector),
 404              		.loc 1 182 6 view .LVU102
 405 0008 4FF0FF33 		mov	r3, #-1
 406              	.LVL35:
 182:Src/sd_diskio.c ****                         (uint32_t)(sector),
 407              		.loc 1 182 6 view .LVU103
 408 000c FFF7FEFF 		bl	BSP_SD_WriteBlocks
 409              	.LVL36:
 182:Src/sd_diskio.c ****                         (uint32_t)(sector),
 410              		.loc 1 182 5 view .LVU104
 411 0010 08B1     		cbz	r0, .L36
 180:Src/sd_diskio.c **** 
 412              		.loc 1 180 11 view .LVU105
 413 0012 0120     		movs	r0, #1
 414              	.L35:
 415              	.LVL37:
 193:Src/sd_diskio.c **** }
 416              		.loc 1 193 3 is_stmt 1 view .LVU106
 194:Src/sd_diskio.c **** #endif /* _USE_WRITE == 1 */
 417              		.loc 1 194 1 is_stmt 0 view .LVU107
 418 0014 08BD     		pop	{r3, pc}
 419              	.LVL38:
 420              	.L36:
ARM GAS  C:\Users\pw705\AppData\Local\Temp\ccDqpBzc.s 			page 14


 421              	.LBB18:
 422              	.LBB19:
 158:Src/sd_diskio.c ****     res = RES_OK;
 423              		.loc 1 158 5 is_stmt 1 view .LVU108
 156:Src/sd_diskio.c ****     {
 424              		.loc 1 156 32 view .LVU109
 156:Src/sd_diskio.c ****     {
 425              		.loc 1 156 11 is_stmt 0 view .LVU110
 426 0016 FFF7FEFF 		bl	BSP_SD_GetCardState
 427              	.LVL39:
 156:Src/sd_diskio.c ****     {
 428              		.loc 1 156 32 view .LVU111
 429 001a 0028     		cmp	r0, #0
 430 001c FAD0     		beq	.L35
 158:Src/sd_diskio.c ****     res = RES_OK;
 431              		.loc 1 158 5 is_stmt 1 view .LVU112
 156:Src/sd_diskio.c ****     {
 432              		.loc 1 156 32 view .LVU113
 156:Src/sd_diskio.c ****     {
 433              		.loc 1 156 11 is_stmt 0 view .LVU114
 434 001e FFF7FEFF 		bl	BSP_SD_GetCardState
 435              	.LVL40:
 156:Src/sd_diskio.c ****     {
 436              		.loc 1 156 32 view .LVU115
 437 0022 0028     		cmp	r0, #0
 438 0024 F7D1     		bne	.L36
 439 0026 F5E7     		b	.L35
 440              	.LBE19:
 441              	.LBE18:
 442              		.cfi_endproc
 443              	.LFE134:
 445              		.global	SD_Driver
 446              		.section	.rodata.SD_Driver,"a"
 447              		.align	2
 450              	SD_Driver:
 451 0000 00000000 		.word	SD_initialize
 452 0004 00000000 		.word	SD_status
 453 0008 00000000 		.word	SD_read
 454 000c 00000000 		.word	SD_write
 455 0010 00000000 		.word	SD_ioctl
 456              		.section	.data.Stat,"aw"
 459              	Stat:
 460 0000 01       		.byte	1
 461              		.text
 462              	.Letext0:
 463              		.file 2 "Middlewares/Third_Party/FatFs/src/integer.h"
 464              		.file 3 "Middlewares/Third_Party/FatFs/src/diskio.h"
 465              		.file 4 "c:\\users\\pw705\\appdata\\roaming\\code\\user\\globalstorage\\bmd.stm32-for-vscode\\@xpa
 466              		.file 5 "c:\\users\\pw705\\appdata\\roaming\\code\\user\\globalstorage\\bmd.stm32-for-vscode\\@xpa
 467              		.file 6 "Drivers/STM32F4xx_HAL_Driver/Inc/stm32f4xx_hal_sd.h"
 468              		.file 7 "Middlewares/Third_Party/FatFs/src/ff_gen_drv.h"
 469              		.file 8 "Inc/bsp_driver_sd.h"
 470              		.file 9 "Inc/sd_diskio.h"
ARM GAS  C:\Users\pw705\AppData\Local\Temp\ccDqpBzc.s 			page 15

