ARM GAS  C:\Users\pw705\AppData\Local\Temp\ccjI74Hg.s 			page 1


   1              		.cpu cortex-m4
   2              		.arch armv7e-m
   3              		.fpu fpv4-sp-d16
   4              		.eabi_attribute 27, 1
   5              		.eabi_attribute 28, 1
   6              		.eabi_attribute 20, 1
   7              		.eabi_attribute 21, 1
   8              		.eabi_attribute 23, 3
   9              		.eabi_attribute 24, 1
  10              		.eabi_attribute 25, 1
  11              		.eabi_attribute 26, 1
  12              		.eabi_attribute 30, 2
  13              		.eabi_attribute 34, 1
  14              		.eabi_attribute 18, 4
  15              		.file	"sdio.c"
  16              		.text
  17              	.Ltext0:
  18              		.cfi_sections	.debug_frame
  19              		.file 1 "Src/sdio.c"
  20              		.section	.text.MX_SDIO_SD_Init,"ax",%progbits
  21              		.align	1
  22              		.p2align 2,,3
  23              		.global	MX_SDIO_SD_Init
  24              		.syntax unified
  25              		.thumb
  26              		.thumb_func
  28              	MX_SDIO_SD_Init:
  29              	.LFB130:
   1:Src/sdio.c    **** /* USER CODE BEGIN Header */
   2:Src/sdio.c    **** /**
   3:Src/sdio.c    ****   ******************************************************************************
   4:Src/sdio.c    ****   * @file    sdio.c
   5:Src/sdio.c    ****   * @brief   This file provides code for the configuration
   6:Src/sdio.c    ****   *          of the SDIO instances.
   7:Src/sdio.c    ****   ******************************************************************************
   8:Src/sdio.c    ****   * @attention
   9:Src/sdio.c    ****   *
  10:Src/sdio.c    ****   * Copyright (c) 2024 STMicroelectronics.
  11:Src/sdio.c    ****   * All rights reserved.
  12:Src/sdio.c    ****   *
  13:Src/sdio.c    ****   * This software is licensed under terms that can be found in the LICENSE file
  14:Src/sdio.c    ****   * in the root directory of this software component.
  15:Src/sdio.c    ****   * If no LICENSE file comes with this software, it is provided AS-IS.
  16:Src/sdio.c    ****   *
  17:Src/sdio.c    ****   ******************************************************************************
  18:Src/sdio.c    ****   */
  19:Src/sdio.c    **** /* USER CODE END Header */
  20:Src/sdio.c    **** /* Includes ------------------------------------------------------------------*/
  21:Src/sdio.c    **** #include "sdio.h"
  22:Src/sdio.c    **** 
  23:Src/sdio.c    **** /* USER CODE BEGIN 0 */
  24:Src/sdio.c    **** 
  25:Src/sdio.c    **** /* USER CODE END 0 */
  26:Src/sdio.c    **** 
  27:Src/sdio.c    **** SD_HandleTypeDef hsd;
  28:Src/sdio.c    **** 
  29:Src/sdio.c    **** /* SDIO init function */
ARM GAS  C:\Users\pw705\AppData\Local\Temp\ccjI74Hg.s 			page 2


  30:Src/sdio.c    **** 
  31:Src/sdio.c    **** void MX_SDIO_SD_Init(void)
  32:Src/sdio.c    **** {
  30              		.loc 1 32 1 view -0
  31              		.cfi_startproc
  32              		@ args = 0, pretend = 0, frame = 0
  33              		@ frame_needed = 0, uses_anonymous_args = 0
  34              		@ link register save eliminated.
  33:Src/sdio.c    **** 
  34:Src/sdio.c    ****   /* USER CODE BEGIN SDIO_Init 0 */
  35:Src/sdio.c    **** 
  36:Src/sdio.c    ****   /* USER CODE END SDIO_Init 0 */
  37:Src/sdio.c    **** 
  38:Src/sdio.c    ****   /* USER CODE BEGIN SDIO_Init 1 */
  39:Src/sdio.c    **** 
  40:Src/sdio.c    ****   /* USER CODE END SDIO_Init 1 */
  41:Src/sdio.c    ****   hsd.Instance = SDIO;
  35              		.loc 1 41 3 view .LVU1
  36              		.loc 1 41 16 is_stmt 0 view .LVU2
  37 0000 064B     		ldr	r3, .L3
  38 0002 0748     		ldr	r0, .L3+4
  42:Src/sdio.c    ****   hsd.Init.ClockEdge = SDIO_CLOCK_EDGE_RISING;
  39              		.loc 1 42 22 view .LVU3
  40 0004 0022     		movs	r2, #0
  43:Src/sdio.c    ****   hsd.Init.ClockBypass = SDIO_CLOCK_BYPASS_DISABLE;
  44:Src/sdio.c    ****   hsd.Init.ClockPowerSave = SDIO_CLOCK_POWER_SAVE_DISABLE;
  45:Src/sdio.c    ****   hsd.Init.BusWide = SDIO_BUS_WIDE_4B;
  41              		.loc 1 45 20 view .LVU4
  42 0006 4FF40061 		mov	r1, #2048
  42:Src/sdio.c    ****   hsd.Init.ClockEdge = SDIO_CLOCK_EDGE_RISING;
  43              		.loc 1 42 22 view .LVU5
  44 000a C3E90002 		strd	r0, r2, [r3]
  43:Src/sdio.c    ****   hsd.Init.ClockBypass = SDIO_CLOCK_BYPASS_DISABLE;
  45              		.loc 1 43 3 is_stmt 1 view .LVU6
  44:Src/sdio.c    ****   hsd.Init.BusWide = SDIO_BUS_WIDE_4B;
  46              		.loc 1 44 27 is_stmt 0 view .LVU7
  47 000e C3E90222 		strd	r2, r2, [r3, #8]
  48              		.loc 1 45 3 is_stmt 1 view .LVU8
  49              		.loc 1 45 20 is_stmt 0 view .LVU9
  50 0012 1961     		str	r1, [r3, #16]
  46:Src/sdio.c    ****   hsd.Init.HardwareFlowControl = SDIO_HARDWARE_FLOW_CONTROL_DISABLE;
  51              		.loc 1 46 3 is_stmt 1 view .LVU10
  47:Src/sdio.c    ****   hsd.Init.ClockDiv = 0;
  52              		.loc 1 47 3 view .LVU11
  46:Src/sdio.c    ****   hsd.Init.HardwareFlowControl = SDIO_HARDWARE_FLOW_CONTROL_DISABLE;
  53              		.loc 1 46 32 is_stmt 0 view .LVU12
  54 0014 5A61     		str	r2, [r3, #20]	@ unaligned
  55 0016 9A61     		str	r2, [r3, #24]	@ unaligned
  48:Src/sdio.c    ****   /* USER CODE BEGIN SDIO_Init 2 */
  49:Src/sdio.c    **** 
  50:Src/sdio.c    ****   /* USER CODE END SDIO_Init 2 */
  51:Src/sdio.c    **** 
  52:Src/sdio.c    **** }
  56              		.loc 1 52 1 view .LVU13
  57 0018 7047     		bx	lr
  58              	.L4:
  59 001a 00BF     		.align	2
ARM GAS  C:\Users\pw705\AppData\Local\Temp\ccjI74Hg.s 			page 3


  60              	.L3:
  61 001c 00000000 		.word	hsd
  62 0020 002C0140 		.word	1073818624
  63              		.cfi_endproc
  64              	.LFE130:
  66              		.section	.text.HAL_SD_MspInit,"ax",%progbits
  67              		.align	1
  68              		.p2align 2,,3
  69              		.global	HAL_SD_MspInit
  70              		.syntax unified
  71              		.thumb
  72              		.thumb_func
  74              	HAL_SD_MspInit:
  75              	.LVL0:
  76              	.LFB131:
  53:Src/sdio.c    **** 
  54:Src/sdio.c    **** void HAL_SD_MspInit(SD_HandleTypeDef* sdHandle)
  55:Src/sdio.c    **** {
  77              		.loc 1 55 1 is_stmt 1 view -0
  78              		.cfi_startproc
  79              		@ args = 0, pretend = 0, frame = 40
  80              		@ frame_needed = 0, uses_anonymous_args = 0
  56:Src/sdio.c    **** 
  57:Src/sdio.c    ****   GPIO_InitTypeDef GPIO_InitStruct = {0};
  81              		.loc 1 57 3 view .LVU15
  55:Src/sdio.c    **** 
  82              		.loc 1 55 1 is_stmt 0 view .LVU16
  83 0000 70B5     		push	{r4, r5, r6, lr}
  84              		.cfi_def_cfa_offset 16
  85              		.cfi_offset 4, -16
  86              		.cfi_offset 5, -12
  87              		.cfi_offset 6, -8
  88              		.cfi_offset 14, -4
  58:Src/sdio.c    ****   if(sdHandle->Instance==SDIO)
  89              		.loc 1 58 5 view .LVU17
  90 0002 274B     		ldr	r3, .L9
  91 0004 0268     		ldr	r2, [r0]
  55:Src/sdio.c    **** 
  92              		.loc 1 55 1 view .LVU18
  93 0006 8AB0     		sub	sp, sp, #40
  94              		.cfi_def_cfa_offset 56
  57:Src/sdio.c    ****   if(sdHandle->Instance==SDIO)
  95              		.loc 1 57 20 view .LVU19
  96 0008 0024     		movs	r4, #0
  97              		.loc 1 58 5 view .LVU20
  98 000a 9A42     		cmp	r2, r3
  57:Src/sdio.c    ****   if(sdHandle->Instance==SDIO)
  99              		.loc 1 57 20 view .LVU21
 100 000c CDE90444 		strd	r4, r4, [sp, #16]
 101 0010 CDE90644 		strd	r4, r4, [sp, #24]
 102 0014 0894     		str	r4, [sp, #32]
 103              		.loc 1 58 3 is_stmt 1 view .LVU22
 104              		.loc 1 58 5 is_stmt 0 view .LVU23
 105 0016 01D0     		beq	.L8
  59:Src/sdio.c    ****   {
  60:Src/sdio.c    ****   /* USER CODE BEGIN SDIO_MspInit 0 */
  61:Src/sdio.c    **** 
ARM GAS  C:\Users\pw705\AppData\Local\Temp\ccjI74Hg.s 			page 4


  62:Src/sdio.c    ****   /* USER CODE END SDIO_MspInit 0 */
  63:Src/sdio.c    ****     /* SDIO clock enable */
  64:Src/sdio.c    ****     __HAL_RCC_SDIO_CLK_ENABLE();
  65:Src/sdio.c    **** 
  66:Src/sdio.c    ****     __HAL_RCC_GPIOC_CLK_ENABLE();
  67:Src/sdio.c    ****     __HAL_RCC_GPIOD_CLK_ENABLE();
  68:Src/sdio.c    ****     /**SDIO GPIO Configuration
  69:Src/sdio.c    ****     PC12     ------> SDIO_CK
  70:Src/sdio.c    ****     PC11     ------> SDIO_D3
  71:Src/sdio.c    ****     PC10     ------> SDIO_D2
  72:Src/sdio.c    ****     PD2     ------> SDIO_CMD
  73:Src/sdio.c    ****     PC9     ------> SDIO_D1
  74:Src/sdio.c    ****     PC8     ------> SDIO_D0
  75:Src/sdio.c    ****     */
  76:Src/sdio.c    ****     GPIO_InitStruct.Pin = GPIO_PIN_12|GPIO_PIN_11|GPIO_PIN_10|GPIO_PIN_9
  77:Src/sdio.c    ****                           |GPIO_PIN_8;
  78:Src/sdio.c    ****     GPIO_InitStruct.Mode = GPIO_MODE_AF_PP;
  79:Src/sdio.c    ****     GPIO_InitStruct.Pull = GPIO_NOPULL;
  80:Src/sdio.c    ****     GPIO_InitStruct.Speed = GPIO_SPEED_FREQ_VERY_HIGH;
  81:Src/sdio.c    ****     GPIO_InitStruct.Alternate = GPIO_AF12_SDIO;
  82:Src/sdio.c    ****     HAL_GPIO_Init(GPIOC, &GPIO_InitStruct);
  83:Src/sdio.c    **** 
  84:Src/sdio.c    ****     GPIO_InitStruct.Pin = GPIO_PIN_2;
  85:Src/sdio.c    ****     GPIO_InitStruct.Mode = GPIO_MODE_AF_PP;
  86:Src/sdio.c    ****     GPIO_InitStruct.Pull = GPIO_NOPULL;
  87:Src/sdio.c    ****     GPIO_InitStruct.Speed = GPIO_SPEED_FREQ_VERY_HIGH;
  88:Src/sdio.c    ****     GPIO_InitStruct.Alternate = GPIO_AF12_SDIO;
  89:Src/sdio.c    ****     HAL_GPIO_Init(GPIOD, &GPIO_InitStruct);
  90:Src/sdio.c    **** 
  91:Src/sdio.c    ****     /* SDIO interrupt Init */
  92:Src/sdio.c    ****     HAL_NVIC_SetPriority(SDIO_IRQn, 0, 0);
  93:Src/sdio.c    ****     HAL_NVIC_EnableIRQ(SDIO_IRQn);
  94:Src/sdio.c    ****   /* USER CODE BEGIN SDIO_MspInit 1 */
  95:Src/sdio.c    **** 
  96:Src/sdio.c    ****   /* USER CODE END SDIO_MspInit 1 */
  97:Src/sdio.c    ****   }
  98:Src/sdio.c    **** }
 106              		.loc 1 98 1 view .LVU24
 107 0018 0AB0     		add	sp, sp, #40
 108              		.cfi_remember_state
 109              		.cfi_def_cfa_offset 16
 110              		@ sp needed
 111 001a 70BD     		pop	{r4, r5, r6, pc}
 112              	.L8:
 113              		.cfi_restore_state
  64:Src/sdio.c    **** 
 114              		.loc 1 64 5 is_stmt 1 view .LVU25
 115              	.LBB2:
  64:Src/sdio.c    **** 
 116              		.loc 1 64 5 view .LVU26
 117 001c 03F58633 		add	r3, r3, #68608
 118 0020 0194     		str	r4, [sp, #4]
  64:Src/sdio.c    **** 
 119              		.loc 1 64 5 view .LVU27
 120 0022 5A6C     		ldr	r2, [r3, #68]
 121              	.LBE2:
  82:Src/sdio.c    **** 
ARM GAS  C:\Users\pw705\AppData\Local\Temp\ccjI74Hg.s 			page 5


 122              		.loc 1 82 5 is_stmt 0 view .LVU28
 123 0024 1F48     		ldr	r0, .L9+4
 124              	.LVL1:
 125              	.LBB3:
  64:Src/sdio.c    **** 
 126              		.loc 1 64 5 view .LVU29
 127 0026 42F40062 		orr	r2, r2, #2048
 128 002a 5A64     		str	r2, [r3, #68]
  64:Src/sdio.c    **** 
 129              		.loc 1 64 5 is_stmt 1 view .LVU30
 130 002c 5A6C     		ldr	r2, [r3, #68]
 131 002e 02F40062 		and	r2, r2, #2048
 132 0032 0192     		str	r2, [sp, #4]
  64:Src/sdio.c    **** 
 133              		.loc 1 64 5 view .LVU31
 134 0034 019A     		ldr	r2, [sp, #4]
 135              	.LBE3:
  64:Src/sdio.c    **** 
 136              		.loc 1 64 5 view .LVU32
  66:Src/sdio.c    ****     __HAL_RCC_GPIOD_CLK_ENABLE();
 137              		.loc 1 66 5 view .LVU33
 138              	.LBB4:
  66:Src/sdio.c    ****     __HAL_RCC_GPIOD_CLK_ENABLE();
 139              		.loc 1 66 5 view .LVU34
 140 0036 0294     		str	r4, [sp, #8]
  66:Src/sdio.c    ****     __HAL_RCC_GPIOD_CLK_ENABLE();
 141              		.loc 1 66 5 view .LVU35
 142 0038 1A6B     		ldr	r2, [r3, #48]
 143 003a 42F00402 		orr	r2, r2, #4
 144 003e 1A63     		str	r2, [r3, #48]
  66:Src/sdio.c    ****     __HAL_RCC_GPIOD_CLK_ENABLE();
 145              		.loc 1 66 5 view .LVU36
 146 0040 1A6B     		ldr	r2, [r3, #48]
 147 0042 02F00402 		and	r2, r2, #4
 148 0046 0292     		str	r2, [sp, #8]
  66:Src/sdio.c    ****     __HAL_RCC_GPIOD_CLK_ENABLE();
 149              		.loc 1 66 5 view .LVU37
 150 0048 029A     		ldr	r2, [sp, #8]
 151              	.LBE4:
  66:Src/sdio.c    ****     __HAL_RCC_GPIOD_CLK_ENABLE();
 152              		.loc 1 66 5 view .LVU38
  67:Src/sdio.c    ****     /**SDIO GPIO Configuration
 153              		.loc 1 67 5 view .LVU39
 154              	.LBB5:
  67:Src/sdio.c    ****     /**SDIO GPIO Configuration
 155              		.loc 1 67 5 view .LVU40
 156 004a 0394     		str	r4, [sp, #12]
  67:Src/sdio.c    ****     /**SDIO GPIO Configuration
 157              		.loc 1 67 5 view .LVU41
 158 004c 1A6B     		ldr	r2, [r3, #48]
 159 004e 42F00802 		orr	r2, r2, #8
 160 0052 1A63     		str	r2, [r3, #48]
  67:Src/sdio.c    ****     /**SDIO GPIO Configuration
 161              		.loc 1 67 5 view .LVU42
 162 0054 1B6B     		ldr	r3, [r3, #48]
 163 0056 03F00803 		and	r3, r3, #8
 164 005a 0393     		str	r3, [sp, #12]
ARM GAS  C:\Users\pw705\AppData\Local\Temp\ccjI74Hg.s 			page 6


  67:Src/sdio.c    ****     /**SDIO GPIO Configuration
 165              		.loc 1 67 5 view .LVU43
 166              	.LBE5:
  76:Src/sdio.c    ****                           |GPIO_PIN_8;
 167              		.loc 1 76 25 is_stmt 0 view .LVU44
 168 005c 4FF4F852 		mov	r2, #7936
  80:Src/sdio.c    ****     GPIO_InitStruct.Alternate = GPIO_AF12_SDIO;
 169              		.loc 1 80 27 view .LVU45
 170 0060 0326     		movs	r6, #3
 171 0062 0C25     		movs	r5, #12
  82:Src/sdio.c    **** 
 172              		.loc 1 82 5 view .LVU46
 173 0064 04A9     		add	r1, sp, #16
  76:Src/sdio.c    ****                           |GPIO_PIN_8;
 174              		.loc 1 76 25 view .LVU47
 175 0066 0223     		movs	r3, #2
 176 0068 CDE90423 		strd	r2, [sp, #16]
  80:Src/sdio.c    ****     GPIO_InitStruct.Alternate = GPIO_AF12_SDIO;
 177              		.loc 1 80 27 view .LVU48
 178 006c 0796     		str	r6, [sp, #28]	@ unaligned
 179              	.LBB6:
  67:Src/sdio.c    ****     /**SDIO GPIO Configuration
 180              		.loc 1 67 5 view .LVU49
 181 006e 039B     		ldr	r3, [sp, #12]
 182              	.LBE6:
  67:Src/sdio.c    ****     /**SDIO GPIO Configuration
 183              		.loc 1 67 5 is_stmt 1 view .LVU50
  76:Src/sdio.c    ****                           |GPIO_PIN_8;
 184              		.loc 1 76 5 view .LVU51
  78:Src/sdio.c    ****     GPIO_InitStruct.Pull = GPIO_NOPULL;
 185              		.loc 1 78 5 view .LVU52
  79:Src/sdio.c    ****     GPIO_InitStruct.Speed = GPIO_SPEED_FREQ_VERY_HIGH;
 186              		.loc 1 79 5 view .LVU53
  80:Src/sdio.c    ****     GPIO_InitStruct.Alternate = GPIO_AF12_SDIO;
 187              		.loc 1 80 5 view .LVU54
  81:Src/sdio.c    ****     HAL_GPIO_Init(GPIOC, &GPIO_InitStruct);
 188              		.loc 1 81 5 view .LVU55
  80:Src/sdio.c    ****     GPIO_InitStruct.Alternate = GPIO_AF12_SDIO;
 189              		.loc 1 80 27 is_stmt 0 view .LVU56
 190 0070 0895     		str	r5, [sp, #32]	@ unaligned
  82:Src/sdio.c    **** 
 191              		.loc 1 82 5 is_stmt 1 view .LVU57
 192 0072 FFF7FEFF 		bl	HAL_GPIO_Init
 193              	.LVL2:
  84:Src/sdio.c    ****     GPIO_InitStruct.Mode = GPIO_MODE_AF_PP;
 194              		.loc 1 84 5 view .LVU58
  84:Src/sdio.c    ****     GPIO_InitStruct.Mode = GPIO_MODE_AF_PP;
 195              		.loc 1 84 25 is_stmt 0 view .LVU59
 196 0076 0423     		movs	r3, #4
  89:Src/sdio.c    **** 
 197              		.loc 1 89 5 view .LVU60
 198 0078 04A9     		add	r1, sp, #16
  84:Src/sdio.c    ****     GPIO_InitStruct.Mode = GPIO_MODE_AF_PP;
 199              		.loc 1 84 25 view .LVU61
 200 007a 0493     		str	r3, [sp, #16]
  85:Src/sdio.c    ****     GPIO_InitStruct.Pull = GPIO_NOPULL;
 201              		.loc 1 85 5 is_stmt 1 view .LVU62
ARM GAS  C:\Users\pw705\AppData\Local\Temp\ccjI74Hg.s 			page 7


  89:Src/sdio.c    **** 
 202              		.loc 1 89 5 is_stmt 0 view .LVU63
 203 007c 0A48     		ldr	r0, .L9+8
  88:Src/sdio.c    ****     HAL_GPIO_Init(GPIOD, &GPIO_InitStruct);
 204              		.loc 1 88 31 view .LVU64
 205 007e 0895     		str	r5, [sp, #32]
  85:Src/sdio.c    ****     GPIO_InitStruct.Pull = GPIO_NOPULL;
 206              		.loc 1 85 26 view .LVU65
 207 0080 0223     		movs	r3, #2
 208 0082 0593     		str	r3, [sp, #20]
  86:Src/sdio.c    ****     GPIO_InitStruct.Speed = GPIO_SPEED_FREQ_VERY_HIGH;
 209              		.loc 1 86 5 is_stmt 1 view .LVU66
  87:Src/sdio.c    ****     GPIO_InitStruct.Alternate = GPIO_AF12_SDIO;
 210              		.loc 1 87 27 is_stmt 0 view .LVU67
 211 0084 CDE90646 		strd	r4, r6, [sp, #24]
  88:Src/sdio.c    ****     HAL_GPIO_Init(GPIOD, &GPIO_InitStruct);
 212              		.loc 1 88 5 is_stmt 1 view .LVU68
  89:Src/sdio.c    **** 
 213              		.loc 1 89 5 view .LVU69
 214 0088 FFF7FEFF 		bl	HAL_GPIO_Init
 215              	.LVL3:
  92:Src/sdio.c    ****     HAL_NVIC_EnableIRQ(SDIO_IRQn);
 216              		.loc 1 92 5 view .LVU70
 217 008c 2246     		mov	r2, r4
 218 008e 2146     		mov	r1, r4
 219 0090 3120     		movs	r0, #49
 220 0092 FFF7FEFF 		bl	HAL_NVIC_SetPriority
 221              	.LVL4:
  93:Src/sdio.c    ****   /* USER CODE BEGIN SDIO_MspInit 1 */
 222              		.loc 1 93 5 view .LVU71
 223 0096 3120     		movs	r0, #49
 224 0098 FFF7FEFF 		bl	HAL_NVIC_EnableIRQ
 225              	.LVL5:
 226              		.loc 1 98 1 is_stmt 0 view .LVU72
 227 009c 0AB0     		add	sp, sp, #40
 228              		.cfi_def_cfa_offset 16
 229              		@ sp needed
 230 009e 70BD     		pop	{r4, r5, r6, pc}
 231              	.L10:
 232              		.align	2
 233              	.L9:
 234 00a0 002C0140 		.word	1073818624
 235 00a4 00080240 		.word	1073874944
 236 00a8 000C0240 		.word	1073875968
 237              		.cfi_endproc
 238              	.LFE131:
 240              		.section	.text.HAL_SD_MspDeInit,"ax",%progbits
 241              		.align	1
 242              		.p2align 2,,3
 243              		.global	HAL_SD_MspDeInit
 244              		.syntax unified
 245              		.thumb
 246              		.thumb_func
 248              	HAL_SD_MspDeInit:
 249              	.LVL6:
 250              	.LFB132:
  99:Src/sdio.c    **** 
ARM GAS  C:\Users\pw705\AppData\Local\Temp\ccjI74Hg.s 			page 8


 100:Src/sdio.c    **** void HAL_SD_MspDeInit(SD_HandleTypeDef* sdHandle)
 101:Src/sdio.c    **** {
 251              		.loc 1 101 1 is_stmt 1 view -0
 252              		.cfi_startproc
 253              		@ args = 0, pretend = 0, frame = 0
 254              		@ frame_needed = 0, uses_anonymous_args = 0
 102:Src/sdio.c    **** 
 103:Src/sdio.c    ****   if(sdHandle->Instance==SDIO)
 255              		.loc 1 103 3 view .LVU74
 101:Src/sdio.c    **** 
 256              		.loc 1 101 1 is_stmt 0 view .LVU75
 257 0000 08B5     		push	{r3, lr}
 258              		.cfi_def_cfa_offset 8
 259              		.cfi_offset 3, -8
 260              		.cfi_offset 14, -4
 261              		.loc 1 103 5 view .LVU76
 262 0002 0268     		ldr	r2, [r0]
 263 0004 0B4B     		ldr	r3, .L15
 264 0006 9A42     		cmp	r2, r3
 265 0008 00D0     		beq	.L14
 104:Src/sdio.c    ****   {
 105:Src/sdio.c    ****   /* USER CODE BEGIN SDIO_MspDeInit 0 */
 106:Src/sdio.c    **** 
 107:Src/sdio.c    ****   /* USER CODE END SDIO_MspDeInit 0 */
 108:Src/sdio.c    ****     /* Peripheral clock disable */
 109:Src/sdio.c    ****     __HAL_RCC_SDIO_CLK_DISABLE();
 110:Src/sdio.c    **** 
 111:Src/sdio.c    ****     /**SDIO GPIO Configuration
 112:Src/sdio.c    ****     PC12     ------> SDIO_CK
 113:Src/sdio.c    ****     PC11     ------> SDIO_D3
 114:Src/sdio.c    ****     PC10     ------> SDIO_D2
 115:Src/sdio.c    ****     PD2     ------> SDIO_CMD
 116:Src/sdio.c    ****     PC9     ------> SDIO_D1
 117:Src/sdio.c    ****     PC8     ------> SDIO_D0
 118:Src/sdio.c    ****     */
 119:Src/sdio.c    ****     HAL_GPIO_DeInit(GPIOC, GPIO_PIN_12|GPIO_PIN_11|GPIO_PIN_10|GPIO_PIN_9
 120:Src/sdio.c    ****                           |GPIO_PIN_8);
 121:Src/sdio.c    **** 
 122:Src/sdio.c    ****     HAL_GPIO_DeInit(GPIOD, GPIO_PIN_2);
 123:Src/sdio.c    **** 
 124:Src/sdio.c    ****     /* SDIO interrupt Deinit */
 125:Src/sdio.c    ****     HAL_NVIC_DisableIRQ(SDIO_IRQn);
 126:Src/sdio.c    ****   /* USER CODE BEGIN SDIO_MspDeInit 1 */
 127:Src/sdio.c    **** 
 128:Src/sdio.c    ****   /* USER CODE END SDIO_MspDeInit 1 */
 129:Src/sdio.c    ****   }
 130:Src/sdio.c    **** }
 266              		.loc 1 130 1 view .LVU77
 267 000a 08BD     		pop	{r3, pc}
 268              	.L14:
 109:Src/sdio.c    **** 
 269              		.loc 1 109 5 is_stmt 1 view .LVU78
 270 000c 0A4A     		ldr	r2, .L15+4
 119:Src/sdio.c    ****                           |GPIO_PIN_8);
 271              		.loc 1 119 5 is_stmt 0 view .LVU79
 272 000e 0B48     		ldr	r0, .L15+8
 273              	.LVL7:
ARM GAS  C:\Users\pw705\AppData\Local\Temp\ccjI74Hg.s 			page 9


 109:Src/sdio.c    **** 
 274              		.loc 1 109 5 view .LVU80
 275 0010 536C     		ldr	r3, [r2, #68]
 276 0012 23F40063 		bic	r3, r3, #2048
 277 0016 5364     		str	r3, [r2, #68]
 119:Src/sdio.c    ****                           |GPIO_PIN_8);
 278              		.loc 1 119 5 is_stmt 1 view .LVU81
 279 0018 4FF4F851 		mov	r1, #7936
 280 001c FFF7FEFF 		bl	HAL_GPIO_DeInit
 281              	.LVL8:
 122:Src/sdio.c    **** 
 282              		.loc 1 122 5 view .LVU82
 283 0020 0748     		ldr	r0, .L15+12
 284 0022 0421     		movs	r1, #4
 285 0024 FFF7FEFF 		bl	HAL_GPIO_DeInit
 286              	.LVL9:
 125:Src/sdio.c    ****   /* USER CODE BEGIN SDIO_MspDeInit 1 */
 287              		.loc 1 125 5 view .LVU83
 288              		.loc 1 130 1 is_stmt 0 view .LVU84
 289 0028 BDE80840 		pop	{r3, lr}
 290              		.cfi_restore 14
 291              		.cfi_restore 3
 292              		.cfi_def_cfa_offset 0
 125:Src/sdio.c    ****   /* USER CODE BEGIN SDIO_MspDeInit 1 */
 293              		.loc 1 125 5 view .LVU85
 294 002c 3120     		movs	r0, #49
 295 002e FFF7FEBF 		b	HAL_NVIC_DisableIRQ
 296              	.LVL10:
 297              	.L16:
 298 0032 00BF     		.align	2
 299              	.L15:
 300 0034 002C0140 		.word	1073818624
 301 0038 00380240 		.word	1073887232
 302 003c 00080240 		.word	1073874944
 303 0040 000C0240 		.word	1073875968
 304              		.cfi_endproc
 305              	.LFE132:
 307              		.global	hsd
 308              		.section	.bss.hsd,"aw",%nobits
 309              		.align	3
 312              	hsd:
 313 0000 00000000 		.space	132
 313      00000000 
 313      00000000 
 313      00000000 
 313      00000000 
 314              		.text
 315              	.Letext0:
 316              		.file 2 "Drivers/CMSIS/Device/ST/STM32F4xx/Include/stm32f427xx.h"
 317              		.file 3 "c:\\users\\pw705\\appdata\\roaming\\code\\user\\globalstorage\\bmd.stm32-for-vscode\\@xpa
 318              		.file 4 "c:\\users\\pw705\\appdata\\roaming\\code\\user\\globalstorage\\bmd.stm32-for-vscode\\@xpa
 319              		.file 5 "Drivers/STM32F4xx_HAL_Driver/Inc/stm32f4xx_hal_def.h"
 320              		.file 6 "Drivers/STM32F4xx_HAL_Driver/Inc/stm32f4xx_hal_gpio.h"
 321              		.file 7 "Drivers/STM32F4xx_HAL_Driver/Inc/stm32f4xx_hal_dma.h"
 322              		.file 8 "Drivers/STM32F4xx_HAL_Driver/Inc/stm32f4xx_ll_sdmmc.h"
 323              		.file 9 "Drivers/STM32F4xx_HAL_Driver/Inc/stm32f4xx_hal_sd.h"
 324              		.file 10 "Drivers/STM32F4xx_HAL_Driver/Inc/stm32f4xx_hal_cortex.h"
ARM GAS  C:\Users\pw705\AppData\Local\Temp\ccjI74Hg.s 			page 10


 325              		.file 11 "Inc/sdio.h"
ARM GAS  C:\Users\pw705\AppData\Local\Temp\ccjI74Hg.s 			page 11

