ARM GAS  C:\Users\pw705\AppData\Local\Temp\cceieKfF.s 			page 1


   1              		.cpu cortex-m4
   2              		.arch armv7e-m
   3              		.fpu fpv4-sp-d16
   4              		.eabi_attribute 27, 1
   5              		.eabi_attribute 28, 1
   6              		.eabi_attribute 20, 1
   7              		.eabi_attribute 21, 1
   8              		.eabi_attribute 23, 3
   9              		.eabi_attribute 24, 1
  10              		.eabi_attribute 25, 1
  11              		.eabi_attribute 26, 1
  12              		.eabi_attribute 30, 2
  13              		.eabi_attribute 34, 1
  14              		.eabi_attribute 18, 4
  15              		.file	"stm32f4xx_ll_sdmmc.c"
  16              		.text
  17              	.Ltext0:
  18              		.cfi_sections	.debug_frame
  19              		.file 1 "Drivers/STM32F4xx_HAL_Driver/Src/stm32f4xx_ll_sdmmc.c"
  20              		.section	.text.SDIO_Init,"ax",%progbits
  21              		.align	1
  22              		.p2align 2,,3
  23              		.global	SDIO_Init
  24              		.syntax unified
  25              		.thumb
  26              		.thumb_func
  28              	SDIO_Init:
  29              	.LVL0:
  30              	.LFB130:
   1:Drivers/STM32F4xx_HAL_Driver/Src/stm32f4xx_ll_sdmmc.c **** /**
   2:Drivers/STM32F4xx_HAL_Driver/Src/stm32f4xx_ll_sdmmc.c ****   ******************************************************************************
   3:Drivers/STM32F4xx_HAL_Driver/Src/stm32f4xx_ll_sdmmc.c ****   * @file    stm32f4xx_ll_sdmmc.c
   4:Drivers/STM32F4xx_HAL_Driver/Src/stm32f4xx_ll_sdmmc.c ****   * @author  MCD Application Team
   5:Drivers/STM32F4xx_HAL_Driver/Src/stm32f4xx_ll_sdmmc.c ****   * @brief   SDMMC Low Layer HAL module driver.
   6:Drivers/STM32F4xx_HAL_Driver/Src/stm32f4xx_ll_sdmmc.c ****   *
   7:Drivers/STM32F4xx_HAL_Driver/Src/stm32f4xx_ll_sdmmc.c ****   *          This file provides firmware functions to manage the following
   8:Drivers/STM32F4xx_HAL_Driver/Src/stm32f4xx_ll_sdmmc.c ****   *          functionalities of the SDMMC peripheral:
   9:Drivers/STM32F4xx_HAL_Driver/Src/stm32f4xx_ll_sdmmc.c ****   *           + Initialization/de-initialization functions
  10:Drivers/STM32F4xx_HAL_Driver/Src/stm32f4xx_ll_sdmmc.c ****   *           + I/O operation functions
  11:Drivers/STM32F4xx_HAL_Driver/Src/stm32f4xx_ll_sdmmc.c ****   *           + Peripheral Control functions
  12:Drivers/STM32F4xx_HAL_Driver/Src/stm32f4xx_ll_sdmmc.c ****   *           + Peripheral State functions
  13:Drivers/STM32F4xx_HAL_Driver/Src/stm32f4xx_ll_sdmmc.c ****   *
  14:Drivers/STM32F4xx_HAL_Driver/Src/stm32f4xx_ll_sdmmc.c ****   ******************************************************************************
  15:Drivers/STM32F4xx_HAL_Driver/Src/stm32f4xx_ll_sdmmc.c ****   * @attention
  16:Drivers/STM32F4xx_HAL_Driver/Src/stm32f4xx_ll_sdmmc.c ****   *
  17:Drivers/STM32F4xx_HAL_Driver/Src/stm32f4xx_ll_sdmmc.c ****   * Copyright (c) 2016 STMicroelectronics.
  18:Drivers/STM32F4xx_HAL_Driver/Src/stm32f4xx_ll_sdmmc.c ****   * All rights reserved.
  19:Drivers/STM32F4xx_HAL_Driver/Src/stm32f4xx_ll_sdmmc.c ****   *
  20:Drivers/STM32F4xx_HAL_Driver/Src/stm32f4xx_ll_sdmmc.c ****   * This software is licensed under terms that can be found in the LICENSE file
  21:Drivers/STM32F4xx_HAL_Driver/Src/stm32f4xx_ll_sdmmc.c ****   * in the root directory of this software component.
  22:Drivers/STM32F4xx_HAL_Driver/Src/stm32f4xx_ll_sdmmc.c ****   * If no LICENSE file comes with this software, it is provided AS-IS.
  23:Drivers/STM32F4xx_HAL_Driver/Src/stm32f4xx_ll_sdmmc.c ****   *
  24:Drivers/STM32F4xx_HAL_Driver/Src/stm32f4xx_ll_sdmmc.c ****   ******************************************************************************
  25:Drivers/STM32F4xx_HAL_Driver/Src/stm32f4xx_ll_sdmmc.c ****   @verbatim
  26:Drivers/STM32F4xx_HAL_Driver/Src/stm32f4xx_ll_sdmmc.c ****   ==============================================================================
  27:Drivers/STM32F4xx_HAL_Driver/Src/stm32f4xx_ll_sdmmc.c ****                        ##### SDMMC peripheral features #####
  28:Drivers/STM32F4xx_HAL_Driver/Src/stm32f4xx_ll_sdmmc.c ****   ==============================================================================
ARM GAS  C:\Users\pw705\AppData\Local\Temp\cceieKfF.s 			page 2


  29:Drivers/STM32F4xx_HAL_Driver/Src/stm32f4xx_ll_sdmmc.c ****     [..] The SD/SDMMC MMC card host interface (SDMMC) provides an interface between the AHB
  30:Drivers/STM32F4xx_HAL_Driver/Src/stm32f4xx_ll_sdmmc.c ****          peripheral bus and MultiMedia cards (MMCs), SD memory cards, SDMMC cards and CE-ATA
  31:Drivers/STM32F4xx_HAL_Driver/Src/stm32f4xx_ll_sdmmc.c ****          devices.
  32:Drivers/STM32F4xx_HAL_Driver/Src/stm32f4xx_ll_sdmmc.c **** 
  33:Drivers/STM32F4xx_HAL_Driver/Src/stm32f4xx_ll_sdmmc.c ****     [..] The SDMMC features include the following:
  34:Drivers/STM32F4xx_HAL_Driver/Src/stm32f4xx_ll_sdmmc.c ****          (+) Full compliance with MultiMedia Card System Specification Version 4.2. Card support
  35:Drivers/STM32F4xx_HAL_Driver/Src/stm32f4xx_ll_sdmmc.c ****              for three different databus modes: 1-bit (default), 4-bit and 8-bit
  36:Drivers/STM32F4xx_HAL_Driver/Src/stm32f4xx_ll_sdmmc.c ****          (+) Full compatibility with previous versions of MultiMedia Cards (forward compatibility)
  37:Drivers/STM32F4xx_HAL_Driver/Src/stm32f4xx_ll_sdmmc.c ****          (+) Full compliance with SD Memory Card Specifications Version 2.0
  38:Drivers/STM32F4xx_HAL_Driver/Src/stm32f4xx_ll_sdmmc.c ****          (+) Full compliance with SD I/O Card Specification Version 2.0: card support for two
  39:Drivers/STM32F4xx_HAL_Driver/Src/stm32f4xx_ll_sdmmc.c ****              different data bus modes: 1-bit (default) and 4-bit
  40:Drivers/STM32F4xx_HAL_Driver/Src/stm32f4xx_ll_sdmmc.c ****          (+) Full support of the CE-ATA features (full compliance with CE-ATA digital protocol
  41:Drivers/STM32F4xx_HAL_Driver/Src/stm32f4xx_ll_sdmmc.c ****              Rev1.1)
  42:Drivers/STM32F4xx_HAL_Driver/Src/stm32f4xx_ll_sdmmc.c ****          (+) Data transfer up to 48 MHz for the 8 bit mode
  43:Drivers/STM32F4xx_HAL_Driver/Src/stm32f4xx_ll_sdmmc.c ****          (+) Data and command output enable signals to control external bidirectional drivers
  44:Drivers/STM32F4xx_HAL_Driver/Src/stm32f4xx_ll_sdmmc.c **** 
  45:Drivers/STM32F4xx_HAL_Driver/Src/stm32f4xx_ll_sdmmc.c ****                            ##### How to use this driver #####
  46:Drivers/STM32F4xx_HAL_Driver/Src/stm32f4xx_ll_sdmmc.c ****   ==============================================================================
  47:Drivers/STM32F4xx_HAL_Driver/Src/stm32f4xx_ll_sdmmc.c ****     [..]
  48:Drivers/STM32F4xx_HAL_Driver/Src/stm32f4xx_ll_sdmmc.c ****       This driver is a considered as a driver of service for external devices drivers
  49:Drivers/STM32F4xx_HAL_Driver/Src/stm32f4xx_ll_sdmmc.c ****       that interfaces with the SDMMC peripheral.
  50:Drivers/STM32F4xx_HAL_Driver/Src/stm32f4xx_ll_sdmmc.c ****       According to the device used (SD card/ MMC card / SDMMC card ...), a set of APIs
  51:Drivers/STM32F4xx_HAL_Driver/Src/stm32f4xx_ll_sdmmc.c ****       is used in the device's driver to perform SDMMC operations and functionalities.
  52:Drivers/STM32F4xx_HAL_Driver/Src/stm32f4xx_ll_sdmmc.c **** 
  53:Drivers/STM32F4xx_HAL_Driver/Src/stm32f4xx_ll_sdmmc.c ****       This driver is almost transparent for the final user, it is only used to implement other
  54:Drivers/STM32F4xx_HAL_Driver/Src/stm32f4xx_ll_sdmmc.c ****       functionalities of the external device.
  55:Drivers/STM32F4xx_HAL_Driver/Src/stm32f4xx_ll_sdmmc.c **** 
  56:Drivers/STM32F4xx_HAL_Driver/Src/stm32f4xx_ll_sdmmc.c ****     [..]
  57:Drivers/STM32F4xx_HAL_Driver/Src/stm32f4xx_ll_sdmmc.c ****       (+) The SDMMC clock (SDMMCCLK = 48 MHz) is coming from a specific output (MSI, PLLUSB1CLK,
  58:Drivers/STM32F4xx_HAL_Driver/Src/stm32f4xx_ll_sdmmc.c ****           PLLUSB2CLK). Before start working with SDMMC peripheral make sure that the
  59:Drivers/STM32F4xx_HAL_Driver/Src/stm32f4xx_ll_sdmmc.c ****           PLL is well configured.
  60:Drivers/STM32F4xx_HAL_Driver/Src/stm32f4xx_ll_sdmmc.c ****           The SDMMC peripheral uses two clock signals:
  61:Drivers/STM32F4xx_HAL_Driver/Src/stm32f4xx_ll_sdmmc.c ****           (++) SDMMC adapter clock (SDMMCCLK = 48 MHz)
  62:Drivers/STM32F4xx_HAL_Driver/Src/stm32f4xx_ll_sdmmc.c ****           (++) APB2 bus clock (PCLK2)
  63:Drivers/STM32F4xx_HAL_Driver/Src/stm32f4xx_ll_sdmmc.c **** 
  64:Drivers/STM32F4xx_HAL_Driver/Src/stm32f4xx_ll_sdmmc.c ****           -@@- PCLK2 and SDMMC_CK clock frequencies must respect the following condition:
  65:Drivers/STM32F4xx_HAL_Driver/Src/stm32f4xx_ll_sdmmc.c ****                Frequency(PCLK2) >= (3 / 8 x Frequency(SDMMC_CK))
  66:Drivers/STM32F4xx_HAL_Driver/Src/stm32f4xx_ll_sdmmc.c **** 
  67:Drivers/STM32F4xx_HAL_Driver/Src/stm32f4xx_ll_sdmmc.c ****       (+) Enable/Disable peripheral clock using RCC peripheral macros related to SDMMC
  68:Drivers/STM32F4xx_HAL_Driver/Src/stm32f4xx_ll_sdmmc.c ****           peripheral.
  69:Drivers/STM32F4xx_HAL_Driver/Src/stm32f4xx_ll_sdmmc.c **** 
  70:Drivers/STM32F4xx_HAL_Driver/Src/stm32f4xx_ll_sdmmc.c ****       (+) Enable the Power ON State using the SDIO_PowerState_ON()
  71:Drivers/STM32F4xx_HAL_Driver/Src/stm32f4xx_ll_sdmmc.c ****           function and disable it using the function SDIO_PowerState_OFF().
  72:Drivers/STM32F4xx_HAL_Driver/Src/stm32f4xx_ll_sdmmc.c **** 
  73:Drivers/STM32F4xx_HAL_Driver/Src/stm32f4xx_ll_sdmmc.c ****       (+) Enable/Disable the clock using the __SDIO_ENABLE()/__SDIO_DISABLE() macros.
  74:Drivers/STM32F4xx_HAL_Driver/Src/stm32f4xx_ll_sdmmc.c **** 
  75:Drivers/STM32F4xx_HAL_Driver/Src/stm32f4xx_ll_sdmmc.c ****       (+) Enable/Disable the peripheral interrupts using the macros __SDIO_ENABLE_IT()
  76:Drivers/STM32F4xx_HAL_Driver/Src/stm32f4xx_ll_sdmmc.c ****           and __SDIO_DISABLE_IT() if you need to use interrupt mode.
  77:Drivers/STM32F4xx_HAL_Driver/Src/stm32f4xx_ll_sdmmc.c **** 
  78:Drivers/STM32F4xx_HAL_Driver/Src/stm32f4xx_ll_sdmmc.c ****       (+) When using the DMA mode
  79:Drivers/STM32F4xx_HAL_Driver/Src/stm32f4xx_ll_sdmmc.c ****           (++) Configure the DMA in the MSP layer of the external device
  80:Drivers/STM32F4xx_HAL_Driver/Src/stm32f4xx_ll_sdmmc.c ****           (++) Active the needed channel Request
  81:Drivers/STM32F4xx_HAL_Driver/Src/stm32f4xx_ll_sdmmc.c ****           (++) Enable the DMA using __SDIO_DMA_ENABLE() macro or Disable it using the macro
  82:Drivers/STM32F4xx_HAL_Driver/Src/stm32f4xx_ll_sdmmc.c ****                __SDIO_DMA_DISABLE().
  83:Drivers/STM32F4xx_HAL_Driver/Src/stm32f4xx_ll_sdmmc.c **** 
  84:Drivers/STM32F4xx_HAL_Driver/Src/stm32f4xx_ll_sdmmc.c ****       (+) To control the CPSM (Command Path State Machine) and send
  85:Drivers/STM32F4xx_HAL_Driver/Src/stm32f4xx_ll_sdmmc.c ****           commands to the card use the SDIO_SendCommand(),
ARM GAS  C:\Users\pw705\AppData\Local\Temp\cceieKfF.s 			page 3


  86:Drivers/STM32F4xx_HAL_Driver/Src/stm32f4xx_ll_sdmmc.c ****           SDIO_GetCommandResponse() and SDIO_GetResponse() functions. First, user has
  87:Drivers/STM32F4xx_HAL_Driver/Src/stm32f4xx_ll_sdmmc.c ****           to fill the command structure (pointer to SDIO_CmdInitTypeDef) according
  88:Drivers/STM32F4xx_HAL_Driver/Src/stm32f4xx_ll_sdmmc.c ****           to the selected command to be sent.
  89:Drivers/STM32F4xx_HAL_Driver/Src/stm32f4xx_ll_sdmmc.c ****           The parameters that should be filled are:
  90:Drivers/STM32F4xx_HAL_Driver/Src/stm32f4xx_ll_sdmmc.c ****            (++) Command Argument
  91:Drivers/STM32F4xx_HAL_Driver/Src/stm32f4xx_ll_sdmmc.c ****            (++) Command Index
  92:Drivers/STM32F4xx_HAL_Driver/Src/stm32f4xx_ll_sdmmc.c ****            (++) Command Response type
  93:Drivers/STM32F4xx_HAL_Driver/Src/stm32f4xx_ll_sdmmc.c ****            (++) Command Wait
  94:Drivers/STM32F4xx_HAL_Driver/Src/stm32f4xx_ll_sdmmc.c ****            (++) CPSM Status (Enable or Disable).
  95:Drivers/STM32F4xx_HAL_Driver/Src/stm32f4xx_ll_sdmmc.c **** 
  96:Drivers/STM32F4xx_HAL_Driver/Src/stm32f4xx_ll_sdmmc.c ****           -@@- To check if the command is well received, read the SDIO_CMDRESP
  97:Drivers/STM32F4xx_HAL_Driver/Src/stm32f4xx_ll_sdmmc.c ****               register using the SDIO_GetCommandResponse().
  98:Drivers/STM32F4xx_HAL_Driver/Src/stm32f4xx_ll_sdmmc.c ****               The SDMMC responses registers (SDIO_RESP1 to SDIO_RESP2), use the
  99:Drivers/STM32F4xx_HAL_Driver/Src/stm32f4xx_ll_sdmmc.c ****               SDIO_GetResponse() function.
 100:Drivers/STM32F4xx_HAL_Driver/Src/stm32f4xx_ll_sdmmc.c **** 
 101:Drivers/STM32F4xx_HAL_Driver/Src/stm32f4xx_ll_sdmmc.c ****       (+) To control the DPSM (Data Path State Machine) and send/receive
 102:Drivers/STM32F4xx_HAL_Driver/Src/stm32f4xx_ll_sdmmc.c ****            data to/from the card use the SDIO_DataConfig(), SDIO_GetDataCounter(),
 103:Drivers/STM32F4xx_HAL_Driver/Src/stm32f4xx_ll_sdmmc.c ****           SDIO_ReadFIFO(), SDIO_WriteFIFO() and SDIO_GetFIFOCount() functions.
 104:Drivers/STM32F4xx_HAL_Driver/Src/stm32f4xx_ll_sdmmc.c **** 
 105:Drivers/STM32F4xx_HAL_Driver/Src/stm32f4xx_ll_sdmmc.c ****     *** Read Operations ***
 106:Drivers/STM32F4xx_HAL_Driver/Src/stm32f4xx_ll_sdmmc.c ****     =======================
 107:Drivers/STM32F4xx_HAL_Driver/Src/stm32f4xx_ll_sdmmc.c ****     [..]
 108:Drivers/STM32F4xx_HAL_Driver/Src/stm32f4xx_ll_sdmmc.c ****       (#) First, user has to fill the data structure (pointer to
 109:Drivers/STM32F4xx_HAL_Driver/Src/stm32f4xx_ll_sdmmc.c ****           SDIO_DataInitTypeDef) according to the selected data type to be received.
 110:Drivers/STM32F4xx_HAL_Driver/Src/stm32f4xx_ll_sdmmc.c ****           The parameters that should be filled are:
 111:Drivers/STM32F4xx_HAL_Driver/Src/stm32f4xx_ll_sdmmc.c ****            (++) Data TimeOut
 112:Drivers/STM32F4xx_HAL_Driver/Src/stm32f4xx_ll_sdmmc.c ****            (++) Data Length
 113:Drivers/STM32F4xx_HAL_Driver/Src/stm32f4xx_ll_sdmmc.c ****            (++) Data Block size
 114:Drivers/STM32F4xx_HAL_Driver/Src/stm32f4xx_ll_sdmmc.c ****            (++) Data Transfer direction: should be from card (To SDMMC)
 115:Drivers/STM32F4xx_HAL_Driver/Src/stm32f4xx_ll_sdmmc.c ****            (++) Data Transfer mode
 116:Drivers/STM32F4xx_HAL_Driver/Src/stm32f4xx_ll_sdmmc.c ****            (++) DPSM Status (Enable or Disable)
 117:Drivers/STM32F4xx_HAL_Driver/Src/stm32f4xx_ll_sdmmc.c **** 
 118:Drivers/STM32F4xx_HAL_Driver/Src/stm32f4xx_ll_sdmmc.c ****       (#) Configure the SDMMC resources to receive the data from the card
 119:Drivers/STM32F4xx_HAL_Driver/Src/stm32f4xx_ll_sdmmc.c ****           according to selected transfer mode (Refer to Step 8, 9 and 10).
 120:Drivers/STM32F4xx_HAL_Driver/Src/stm32f4xx_ll_sdmmc.c **** 
 121:Drivers/STM32F4xx_HAL_Driver/Src/stm32f4xx_ll_sdmmc.c ****       (#) Send the selected Read command (refer to step 11).
 122:Drivers/STM32F4xx_HAL_Driver/Src/stm32f4xx_ll_sdmmc.c **** 
 123:Drivers/STM32F4xx_HAL_Driver/Src/stm32f4xx_ll_sdmmc.c ****       (#) Use the SDIO flags/interrupts to check the transfer status.
 124:Drivers/STM32F4xx_HAL_Driver/Src/stm32f4xx_ll_sdmmc.c **** 
 125:Drivers/STM32F4xx_HAL_Driver/Src/stm32f4xx_ll_sdmmc.c ****     *** Write Operations ***
 126:Drivers/STM32F4xx_HAL_Driver/Src/stm32f4xx_ll_sdmmc.c ****     ========================
 127:Drivers/STM32F4xx_HAL_Driver/Src/stm32f4xx_ll_sdmmc.c ****     [..]
 128:Drivers/STM32F4xx_HAL_Driver/Src/stm32f4xx_ll_sdmmc.c ****      (#) First, user has to fill the data structure (pointer to
 129:Drivers/STM32F4xx_HAL_Driver/Src/stm32f4xx_ll_sdmmc.c ****          SDIO_DataInitTypeDef) according to the selected data type to be received.
 130:Drivers/STM32F4xx_HAL_Driver/Src/stm32f4xx_ll_sdmmc.c ****          The parameters that should be filled are:
 131:Drivers/STM32F4xx_HAL_Driver/Src/stm32f4xx_ll_sdmmc.c ****           (++) Data TimeOut
 132:Drivers/STM32F4xx_HAL_Driver/Src/stm32f4xx_ll_sdmmc.c ****           (++) Data Length
 133:Drivers/STM32F4xx_HAL_Driver/Src/stm32f4xx_ll_sdmmc.c ****           (++) Data Block size
 134:Drivers/STM32F4xx_HAL_Driver/Src/stm32f4xx_ll_sdmmc.c ****           (++) Data Transfer direction:  should be to card (To CARD)
 135:Drivers/STM32F4xx_HAL_Driver/Src/stm32f4xx_ll_sdmmc.c ****           (++) Data Transfer mode
 136:Drivers/STM32F4xx_HAL_Driver/Src/stm32f4xx_ll_sdmmc.c ****           (++) DPSM Status (Enable or Disable)
 137:Drivers/STM32F4xx_HAL_Driver/Src/stm32f4xx_ll_sdmmc.c **** 
 138:Drivers/STM32F4xx_HAL_Driver/Src/stm32f4xx_ll_sdmmc.c ****      (#) Configure the SDMMC resources to send the data to the card according to
 139:Drivers/STM32F4xx_HAL_Driver/Src/stm32f4xx_ll_sdmmc.c ****          selected transfer mode.
 140:Drivers/STM32F4xx_HAL_Driver/Src/stm32f4xx_ll_sdmmc.c **** 
 141:Drivers/STM32F4xx_HAL_Driver/Src/stm32f4xx_ll_sdmmc.c ****      (#) Send the selected Write command.
 142:Drivers/STM32F4xx_HAL_Driver/Src/stm32f4xx_ll_sdmmc.c **** 
ARM GAS  C:\Users\pw705\AppData\Local\Temp\cceieKfF.s 			page 4


 143:Drivers/STM32F4xx_HAL_Driver/Src/stm32f4xx_ll_sdmmc.c ****      (#) Use the SDIO flags/interrupts to check the transfer status.
 144:Drivers/STM32F4xx_HAL_Driver/Src/stm32f4xx_ll_sdmmc.c **** 
 145:Drivers/STM32F4xx_HAL_Driver/Src/stm32f4xx_ll_sdmmc.c ****     *** Command management operations ***
 146:Drivers/STM32F4xx_HAL_Driver/Src/stm32f4xx_ll_sdmmc.c ****     =====================================
 147:Drivers/STM32F4xx_HAL_Driver/Src/stm32f4xx_ll_sdmmc.c ****     [..]
 148:Drivers/STM32F4xx_HAL_Driver/Src/stm32f4xx_ll_sdmmc.c ****      (#) The commands used for Read/Write/Erase operations are managed in
 149:Drivers/STM32F4xx_HAL_Driver/Src/stm32f4xx_ll_sdmmc.c ****          separate functions.
 150:Drivers/STM32F4xx_HAL_Driver/Src/stm32f4xx_ll_sdmmc.c ****          Each function allows to send the needed command with the related argument,
 151:Drivers/STM32F4xx_HAL_Driver/Src/stm32f4xx_ll_sdmmc.c ****          then check the response.
 152:Drivers/STM32F4xx_HAL_Driver/Src/stm32f4xx_ll_sdmmc.c ****          By the same approach, you could implement a command and check the response.
 153:Drivers/STM32F4xx_HAL_Driver/Src/stm32f4xx_ll_sdmmc.c **** 
 154:Drivers/STM32F4xx_HAL_Driver/Src/stm32f4xx_ll_sdmmc.c ****   @endverbatim
 155:Drivers/STM32F4xx_HAL_Driver/Src/stm32f4xx_ll_sdmmc.c ****   ******************************************************************************
 156:Drivers/STM32F4xx_HAL_Driver/Src/stm32f4xx_ll_sdmmc.c ****   */
 157:Drivers/STM32F4xx_HAL_Driver/Src/stm32f4xx_ll_sdmmc.c **** 
 158:Drivers/STM32F4xx_HAL_Driver/Src/stm32f4xx_ll_sdmmc.c **** /* Includes ------------------------------------------------------------------*/
 159:Drivers/STM32F4xx_HAL_Driver/Src/stm32f4xx_ll_sdmmc.c **** #include "stm32f4xx_hal.h"
 160:Drivers/STM32F4xx_HAL_Driver/Src/stm32f4xx_ll_sdmmc.c **** 
 161:Drivers/STM32F4xx_HAL_Driver/Src/stm32f4xx_ll_sdmmc.c **** #if defined(SDIO)
 162:Drivers/STM32F4xx_HAL_Driver/Src/stm32f4xx_ll_sdmmc.c **** 
 163:Drivers/STM32F4xx_HAL_Driver/Src/stm32f4xx_ll_sdmmc.c **** /** @addtogroup STM32F4xx_HAL_Driver
 164:Drivers/STM32F4xx_HAL_Driver/Src/stm32f4xx_ll_sdmmc.c ****  * @{
 165:Drivers/STM32F4xx_HAL_Driver/Src/stm32f4xx_ll_sdmmc.c ****  */
 166:Drivers/STM32F4xx_HAL_Driver/Src/stm32f4xx_ll_sdmmc.c **** 
 167:Drivers/STM32F4xx_HAL_Driver/Src/stm32f4xx_ll_sdmmc.c **** /** @defgroup SDMMC_LL SDMMC Low Layer
 168:Drivers/STM32F4xx_HAL_Driver/Src/stm32f4xx_ll_sdmmc.c ****  * @brief Low layer module for SD
 169:Drivers/STM32F4xx_HAL_Driver/Src/stm32f4xx_ll_sdmmc.c ****  * @{
 170:Drivers/STM32F4xx_HAL_Driver/Src/stm32f4xx_ll_sdmmc.c ****  */
 171:Drivers/STM32F4xx_HAL_Driver/Src/stm32f4xx_ll_sdmmc.c **** 
 172:Drivers/STM32F4xx_HAL_Driver/Src/stm32f4xx_ll_sdmmc.c **** #if defined(HAL_SD_MODULE_ENABLED) || defined(HAL_MMC_MODULE_ENABLED)
 173:Drivers/STM32F4xx_HAL_Driver/Src/stm32f4xx_ll_sdmmc.c **** 
 174:Drivers/STM32F4xx_HAL_Driver/Src/stm32f4xx_ll_sdmmc.c **** /* Private typedef -----------------------------------------------------------*/
 175:Drivers/STM32F4xx_HAL_Driver/Src/stm32f4xx_ll_sdmmc.c **** /* Private define ------------------------------------------------------------*/
 176:Drivers/STM32F4xx_HAL_Driver/Src/stm32f4xx_ll_sdmmc.c **** /* Private macro -------------------------------------------------------------*/
 177:Drivers/STM32F4xx_HAL_Driver/Src/stm32f4xx_ll_sdmmc.c **** /* Private variables ---------------------------------------------------------*/
 178:Drivers/STM32F4xx_HAL_Driver/Src/stm32f4xx_ll_sdmmc.c **** /* Private function prototypes -----------------------------------------------*/
 179:Drivers/STM32F4xx_HAL_Driver/Src/stm32f4xx_ll_sdmmc.c **** static uint32_t SDMMC_GetCmdError(SDIO_TypeDef *SDIOx);
 180:Drivers/STM32F4xx_HAL_Driver/Src/stm32f4xx_ll_sdmmc.c **** 
 181:Drivers/STM32F4xx_HAL_Driver/Src/stm32f4xx_ll_sdmmc.c **** /* Exported functions --------------------------------------------------------*/
 182:Drivers/STM32F4xx_HAL_Driver/Src/stm32f4xx_ll_sdmmc.c **** 
 183:Drivers/STM32F4xx_HAL_Driver/Src/stm32f4xx_ll_sdmmc.c **** /** @defgroup SDMMC_LL_Exported_Functions SDMMC Low Layer Exported Functions
 184:Drivers/STM32F4xx_HAL_Driver/Src/stm32f4xx_ll_sdmmc.c ****  * @{
 185:Drivers/STM32F4xx_HAL_Driver/Src/stm32f4xx_ll_sdmmc.c ****  */
 186:Drivers/STM32F4xx_HAL_Driver/Src/stm32f4xx_ll_sdmmc.c **** 
 187:Drivers/STM32F4xx_HAL_Driver/Src/stm32f4xx_ll_sdmmc.c **** /** @defgroup HAL_SDMMC_LL_Group1 Initialization de-initialization functions
 188:Drivers/STM32F4xx_HAL_Driver/Src/stm32f4xx_ll_sdmmc.c ****  *  @brief    Initialization and Configuration functions
 189:Drivers/STM32F4xx_HAL_Driver/Src/stm32f4xx_ll_sdmmc.c ****  *
 190:Drivers/STM32F4xx_HAL_Driver/Src/stm32f4xx_ll_sdmmc.c **** @verbatim
 191:Drivers/STM32F4xx_HAL_Driver/Src/stm32f4xx_ll_sdmmc.c ****  ===============================================================================
 192:Drivers/STM32F4xx_HAL_Driver/Src/stm32f4xx_ll_sdmmc.c ****               ##### Initialization/de-initialization functions #####
 193:Drivers/STM32F4xx_HAL_Driver/Src/stm32f4xx_ll_sdmmc.c ****  ===============================================================================
 194:Drivers/STM32F4xx_HAL_Driver/Src/stm32f4xx_ll_sdmmc.c ****     [..]  This section provides functions allowing to:
 195:Drivers/STM32F4xx_HAL_Driver/Src/stm32f4xx_ll_sdmmc.c **** 
 196:Drivers/STM32F4xx_HAL_Driver/Src/stm32f4xx_ll_sdmmc.c **** @endverbatim
 197:Drivers/STM32F4xx_HAL_Driver/Src/stm32f4xx_ll_sdmmc.c ****   * @{
 198:Drivers/STM32F4xx_HAL_Driver/Src/stm32f4xx_ll_sdmmc.c ****   */
 199:Drivers/STM32F4xx_HAL_Driver/Src/stm32f4xx_ll_sdmmc.c **** 
ARM GAS  C:\Users\pw705\AppData\Local\Temp\cceieKfF.s 			page 5


 200:Drivers/STM32F4xx_HAL_Driver/Src/stm32f4xx_ll_sdmmc.c **** /**
 201:Drivers/STM32F4xx_HAL_Driver/Src/stm32f4xx_ll_sdmmc.c ****  * @brief  Initializes the SDMMC according to the specified
 202:Drivers/STM32F4xx_HAL_Driver/Src/stm32f4xx_ll_sdmmc.c ****  *         parameters in the SDMMC_InitTypeDef and create the associated handle.
 203:Drivers/STM32F4xx_HAL_Driver/Src/stm32f4xx_ll_sdmmc.c ****  * @param  SDIOx: Pointer to SDMMC register base
 204:Drivers/STM32F4xx_HAL_Driver/Src/stm32f4xx_ll_sdmmc.c ****  * @param  Init: SDMMC initialization structure
 205:Drivers/STM32F4xx_HAL_Driver/Src/stm32f4xx_ll_sdmmc.c ****  * @retval HAL status
 206:Drivers/STM32F4xx_HAL_Driver/Src/stm32f4xx_ll_sdmmc.c ****  */
 207:Drivers/STM32F4xx_HAL_Driver/Src/stm32f4xx_ll_sdmmc.c **** HAL_StatusTypeDef SDIO_Init(SDIO_TypeDef *SDIOx, SDIO_InitTypeDef Init)
 208:Drivers/STM32F4xx_HAL_Driver/Src/stm32f4xx_ll_sdmmc.c **** {
  31              		.loc 1 208 1 view -0
  32              		.cfi_startproc
  33              		@ args = 28, pretend = 16, frame = 0
  34              		@ frame_needed = 0, uses_anonymous_args = 0
  35              		@ link register save eliminated.
 209:Drivers/STM32F4xx_HAL_Driver/Src/stm32f4xx_ll_sdmmc.c ****   uint32_t tmpreg = 0;
  36              		.loc 1 209 3 view .LVU1
 210:Drivers/STM32F4xx_HAL_Driver/Src/stm32f4xx_ll_sdmmc.c **** 
 211:Drivers/STM32F4xx_HAL_Driver/Src/stm32f4xx_ll_sdmmc.c ****   /* Check the parameters */
 212:Drivers/STM32F4xx_HAL_Driver/Src/stm32f4xx_ll_sdmmc.c ****   assert_param(IS_SDIO_ALL_INSTANCE(SDIOx));
  37              		.loc 1 212 3 view .LVU2
 213:Drivers/STM32F4xx_HAL_Driver/Src/stm32f4xx_ll_sdmmc.c ****   assert_param(IS_SDIO_CLOCK_EDGE(Init.ClockEdge));
  38              		.loc 1 213 3 view .LVU3
 214:Drivers/STM32F4xx_HAL_Driver/Src/stm32f4xx_ll_sdmmc.c ****   assert_param(IS_SDIO_CLOCK_BYPASS(Init.ClockBypass));
  39              		.loc 1 214 3 view .LVU4
 215:Drivers/STM32F4xx_HAL_Driver/Src/stm32f4xx_ll_sdmmc.c ****   assert_param(IS_SDIO_CLOCK_POWER_SAVE(Init.ClockPowerSave));
  40              		.loc 1 215 3 view .LVU5
 216:Drivers/STM32F4xx_HAL_Driver/Src/stm32f4xx_ll_sdmmc.c ****   assert_param(IS_SDIO_BUS_WIDE(Init.BusWide));
  41              		.loc 1 216 3 view .LVU6
 217:Drivers/STM32F4xx_HAL_Driver/Src/stm32f4xx_ll_sdmmc.c ****   assert_param(IS_SDIO_HARDWARE_FLOW_CONTROL(Init.HardwareFlowControl));
  42              		.loc 1 217 3 view .LVU7
 218:Drivers/STM32F4xx_HAL_Driver/Src/stm32f4xx_ll_sdmmc.c ****   assert_param(IS_SDIO_CLKDIV(Init.ClockDiv));
  43              		.loc 1 218 3 view .LVU8
 219:Drivers/STM32F4xx_HAL_Driver/Src/stm32f4xx_ll_sdmmc.c **** 
 220:Drivers/STM32F4xx_HAL_Driver/Src/stm32f4xx_ll_sdmmc.c ****   /* Set SDMMC configuration parameters */
 221:Drivers/STM32F4xx_HAL_Driver/Src/stm32f4xx_ll_sdmmc.c ****   tmpreg |= (Init.ClockEdge |
  44              		.loc 1 221 3 view .LVU9
 208:Drivers/STM32F4xx_HAL_Driver/Src/stm32f4xx_ll_sdmmc.c ****   uint32_t tmpreg = 0;
  45              		.loc 1 208 1 is_stmt 0 view .LVU10
  46 0000 84B0     		sub	sp, sp, #16
  47              		.cfi_def_cfa_offset 16
  48 0002 10B4     		push	{r4}
  49              		.cfi_def_cfa_offset 20
  50              		.cfi_offset 4, -20
  51              	.LVL1:
 222:Drivers/STM32F4xx_HAL_Driver/Src/stm32f4xx_ll_sdmmc.c ****              Init.ClockBypass |
 223:Drivers/STM32F4xx_HAL_Driver/Src/stm32f4xx_ll_sdmmc.c ****              Init.ClockPowerSave |
 224:Drivers/STM32F4xx_HAL_Driver/Src/stm32f4xx_ll_sdmmc.c ****              Init.BusWide |
 225:Drivers/STM32F4xx_HAL_Driver/Src/stm32f4xx_ll_sdmmc.c ****              Init.HardwareFlowControl |
 226:Drivers/STM32F4xx_HAL_Driver/Src/stm32f4xx_ll_sdmmc.c ****              Init.ClockDiv);
 227:Drivers/STM32F4xx_HAL_Driver/Src/stm32f4xx_ll_sdmmc.c **** 
 228:Drivers/STM32F4xx_HAL_Driver/Src/stm32f4xx_ll_sdmmc.c ****   /* Write to SDMMC CLKCR */
 229:Drivers/STM32F4xx_HAL_Driver/Src/stm32f4xx_ll_sdmmc.c ****   MODIFY_REG(SDIOx->CLKCR, CLKCR_CLEAR_MASK, tmpreg);
  52              		.loc 1 229 3 is_stmt 1 view .LVU11
 208:Drivers/STM32F4xx_HAL_Driver/Src/stm32f4xx_ll_sdmmc.c ****   uint32_t tmpreg = 0;
  53              		.loc 1 208 1 is_stmt 0 view .LVU12
  54 0004 0DF1080C 		add	ip, sp, #8
  55              	.LVL2:
ARM GAS  C:\Users\pw705\AppData\Local\Temp\cceieKfF.s 			page 6


 208:Drivers/STM32F4xx_HAL_Driver/Src/stm32f4xx_ll_sdmmc.c ****   uint32_t tmpreg = 0;
  56              		.loc 1 208 1 view .LVU13
  57 0008 8CE80E00 		stm	ip, {r1, r2, r3}
  58              	.LVL3:
 221:Drivers/STM32F4xx_HAL_Driver/Src/stm32f4xx_ll_sdmmc.c ****              Init.ClockBypass |
  59              		.loc 1 221 29 view .LVU14
  60 000c 0B46     		mov	r3, r1
 222:Drivers/STM32F4xx_HAL_Driver/Src/stm32f4xx_ll_sdmmc.c ****              Init.ClockBypass |
  61              		.loc 1 222 31 view .LVU15
  62 000e 0499     		ldr	r1, [sp, #16]
 221:Drivers/STM32F4xx_HAL_Driver/Src/stm32f4xx_ll_sdmmc.c ****              Init.ClockBypass |
  63              		.loc 1 221 29 view .LVU16
  64 0010 1343     		orrs	r3, r3, r2
 222:Drivers/STM32F4xx_HAL_Driver/Src/stm32f4xx_ll_sdmmc.c ****              Init.ClockBypass |
  65              		.loc 1 222 31 view .LVU17
  66 0012 0B43     		orrs	r3, r3, r1
 223:Drivers/STM32F4xx_HAL_Driver/Src/stm32f4xx_ll_sdmmc.c ****              Init.BusWide |
  67              		.loc 1 223 34 view .LVU18
  68 0014 DDE90541 		ldrd	r4, r1, [sp, #20]
  69              		.loc 1 229 3 view .LVU19
  70 0018 4268     		ldr	r2, [r0, #4]
 223:Drivers/STM32F4xx_HAL_Driver/Src/stm32f4xx_ll_sdmmc.c ****              Init.BusWide |
  71              		.loc 1 223 34 view .LVU20
  72 001a 2343     		orrs	r3, r3, r4
 224:Drivers/STM32F4xx_HAL_Driver/Src/stm32f4xx_ll_sdmmc.c ****              Init.HardwareFlowControl |
  73              		.loc 1 224 27 view .LVU21
  74 001c 0B43     		orrs	r3, r3, r1
 225:Drivers/STM32F4xx_HAL_Driver/Src/stm32f4xx_ll_sdmmc.c ****              Init.ClockDiv);
  75              		.loc 1 225 39 view .LVU22
  76 001e 0799     		ldr	r1, [sp, #28]
 230:Drivers/STM32F4xx_HAL_Driver/Src/stm32f4xx_ll_sdmmc.c **** 
 231:Drivers/STM32F4xx_HAL_Driver/Src/stm32f4xx_ll_sdmmc.c ****   return HAL_OK;
 232:Drivers/STM32F4xx_HAL_Driver/Src/stm32f4xx_ll_sdmmc.c **** }
  77              		.loc 1 232 1 view .LVU23
  78 0020 5DF8044B 		ldr	r4, [sp], #4
  79              		.cfi_restore 4
  80              		.cfi_def_cfa_offset 16
 229:Drivers/STM32F4xx_HAL_Driver/Src/stm32f4xx_ll_sdmmc.c **** 
  81              		.loc 1 229 3 view .LVU24
  82 0024 22F4FD42 		bic	r2, r2, #32384
 225:Drivers/STM32F4xx_HAL_Driver/Src/stm32f4xx_ll_sdmmc.c ****              Init.ClockDiv);
  83              		.loc 1 225 39 view .LVU25
  84 0028 0B43     		orrs	r3, r3, r1
 229:Drivers/STM32F4xx_HAL_Driver/Src/stm32f4xx_ll_sdmmc.c **** 
  85              		.loc 1 229 3 view .LVU26
  86 002a 22F07F02 		bic	r2, r2, #127
  87 002e 1343     		orrs	r3, r3, r2
  88 0030 4360     		str	r3, [r0, #4]
 231:Drivers/STM32F4xx_HAL_Driver/Src/stm32f4xx_ll_sdmmc.c **** }
  89              		.loc 1 231 3 is_stmt 1 view .LVU27
  90              		.loc 1 232 1 is_stmt 0 view .LVU28
  91 0032 04B0     		add	sp, sp, #16
  92              		.cfi_def_cfa_offset 0
  93 0034 0020     		movs	r0, #0
  94              	.LVL4:
  95              		.loc 1 232 1 view .LVU29
  96 0036 7047     		bx	lr
ARM GAS  C:\Users\pw705\AppData\Local\Temp\cceieKfF.s 			page 7


  97              		.cfi_endproc
  98              	.LFE130:
 100              		.section	.text.SDIO_ReadFIFO,"ax",%progbits
 101              		.align	1
 102              		.p2align 2,,3
 103              		.global	SDIO_ReadFIFO
 104              		.syntax unified
 105              		.thumb
 106              		.thumb_func
 108              	SDIO_ReadFIFO:
 109              	.LVL5:
 110              	.LFB131:
 233:Drivers/STM32F4xx_HAL_Driver/Src/stm32f4xx_ll_sdmmc.c **** 
 234:Drivers/STM32F4xx_HAL_Driver/Src/stm32f4xx_ll_sdmmc.c **** /**
 235:Drivers/STM32F4xx_HAL_Driver/Src/stm32f4xx_ll_sdmmc.c ****  * @}
 236:Drivers/STM32F4xx_HAL_Driver/Src/stm32f4xx_ll_sdmmc.c ****  */
 237:Drivers/STM32F4xx_HAL_Driver/Src/stm32f4xx_ll_sdmmc.c **** 
 238:Drivers/STM32F4xx_HAL_Driver/Src/stm32f4xx_ll_sdmmc.c **** /** @defgroup HAL_SDMMC_LL_Group2 IO operation functions
 239:Drivers/STM32F4xx_HAL_Driver/Src/stm32f4xx_ll_sdmmc.c ****  *  @brief   Data transfers functions
 240:Drivers/STM32F4xx_HAL_Driver/Src/stm32f4xx_ll_sdmmc.c ****  *
 241:Drivers/STM32F4xx_HAL_Driver/Src/stm32f4xx_ll_sdmmc.c **** @verbatim
 242:Drivers/STM32F4xx_HAL_Driver/Src/stm32f4xx_ll_sdmmc.c ****  ===============================================================================
 243:Drivers/STM32F4xx_HAL_Driver/Src/stm32f4xx_ll_sdmmc.c ****                       ##### I/O operation functions #####
 244:Drivers/STM32F4xx_HAL_Driver/Src/stm32f4xx_ll_sdmmc.c ****  ===============================================================================
 245:Drivers/STM32F4xx_HAL_Driver/Src/stm32f4xx_ll_sdmmc.c ****     [..]
 246:Drivers/STM32F4xx_HAL_Driver/Src/stm32f4xx_ll_sdmmc.c ****     This subsection provides a set of functions allowing to manage the SDMMC data
 247:Drivers/STM32F4xx_HAL_Driver/Src/stm32f4xx_ll_sdmmc.c ****     transfers.
 248:Drivers/STM32F4xx_HAL_Driver/Src/stm32f4xx_ll_sdmmc.c **** 
 249:Drivers/STM32F4xx_HAL_Driver/Src/stm32f4xx_ll_sdmmc.c **** @endverbatim
 250:Drivers/STM32F4xx_HAL_Driver/Src/stm32f4xx_ll_sdmmc.c ****   * @{
 251:Drivers/STM32F4xx_HAL_Driver/Src/stm32f4xx_ll_sdmmc.c ****   */
 252:Drivers/STM32F4xx_HAL_Driver/Src/stm32f4xx_ll_sdmmc.c **** 
 253:Drivers/STM32F4xx_HAL_Driver/Src/stm32f4xx_ll_sdmmc.c **** /**
 254:Drivers/STM32F4xx_HAL_Driver/Src/stm32f4xx_ll_sdmmc.c ****  * @brief  Read data (word) from Rx FIFO in blocking mode (polling)
 255:Drivers/STM32F4xx_HAL_Driver/Src/stm32f4xx_ll_sdmmc.c ****  * @param  SDIOx: Pointer to SDMMC register base
 256:Drivers/STM32F4xx_HAL_Driver/Src/stm32f4xx_ll_sdmmc.c ****  * @retval HAL status
 257:Drivers/STM32F4xx_HAL_Driver/Src/stm32f4xx_ll_sdmmc.c ****  */
 258:Drivers/STM32F4xx_HAL_Driver/Src/stm32f4xx_ll_sdmmc.c **** uint32_t SDIO_ReadFIFO(SDIO_TypeDef *SDIOx)
 259:Drivers/STM32F4xx_HAL_Driver/Src/stm32f4xx_ll_sdmmc.c **** {
 111              		.loc 1 259 1 is_stmt 1 view -0
 112              		.cfi_startproc
 113              		@ args = 0, pretend = 0, frame = 0
 114              		@ frame_needed = 0, uses_anonymous_args = 0
 115              		@ link register save eliminated.
 260:Drivers/STM32F4xx_HAL_Driver/Src/stm32f4xx_ll_sdmmc.c ****   /* Read data from Rx FIFO */
 261:Drivers/STM32F4xx_HAL_Driver/Src/stm32f4xx_ll_sdmmc.c ****   return (SDIOx->FIFO);
 116              		.loc 1 261 3 view .LVU31
 117              		.loc 1 261 16 is_stmt 0 view .LVU32
 118 0000 D0F88000 		ldr	r0, [r0, #128]
 119              	.LVL6:
 262:Drivers/STM32F4xx_HAL_Driver/Src/stm32f4xx_ll_sdmmc.c **** }
 120              		.loc 1 262 1 view .LVU33
 121 0004 7047     		bx	lr
 122              		.cfi_endproc
 123              	.LFE131:
 125 0006 00BF     		.section	.text.SDIO_WriteFIFO,"ax",%progbits
 126              		.align	1
ARM GAS  C:\Users\pw705\AppData\Local\Temp\cceieKfF.s 			page 8


 127              		.p2align 2,,3
 128              		.global	SDIO_WriteFIFO
 129              		.syntax unified
 130              		.thumb
 131              		.thumb_func
 133              	SDIO_WriteFIFO:
 134              	.LVL7:
 135              	.LFB132:
 263:Drivers/STM32F4xx_HAL_Driver/Src/stm32f4xx_ll_sdmmc.c **** 
 264:Drivers/STM32F4xx_HAL_Driver/Src/stm32f4xx_ll_sdmmc.c **** /**
 265:Drivers/STM32F4xx_HAL_Driver/Src/stm32f4xx_ll_sdmmc.c ****  * @brief  Write data (word) to Tx FIFO in blocking mode (polling)
 266:Drivers/STM32F4xx_HAL_Driver/Src/stm32f4xx_ll_sdmmc.c ****  * @param  SDIOx: Pointer to SDMMC register base
 267:Drivers/STM32F4xx_HAL_Driver/Src/stm32f4xx_ll_sdmmc.c ****  * @param  pWriteData: pointer to data to write
 268:Drivers/STM32F4xx_HAL_Driver/Src/stm32f4xx_ll_sdmmc.c ****  * @retval HAL status
 269:Drivers/STM32F4xx_HAL_Driver/Src/stm32f4xx_ll_sdmmc.c ****  */
 270:Drivers/STM32F4xx_HAL_Driver/Src/stm32f4xx_ll_sdmmc.c **** HAL_StatusTypeDef SDIO_WriteFIFO(SDIO_TypeDef *SDIOx, uint32_t *pWriteData)
 271:Drivers/STM32F4xx_HAL_Driver/Src/stm32f4xx_ll_sdmmc.c **** {
 136              		.loc 1 271 1 is_stmt 1 view -0
 137              		.cfi_startproc
 138              		@ args = 0, pretend = 0, frame = 0
 139              		@ frame_needed = 0, uses_anonymous_args = 0
 140              		@ link register save eliminated.
 272:Drivers/STM32F4xx_HAL_Driver/Src/stm32f4xx_ll_sdmmc.c ****   /* Write data to FIFO */
 273:Drivers/STM32F4xx_HAL_Driver/Src/stm32f4xx_ll_sdmmc.c ****   SDIOx->FIFO = *pWriteData;
 141              		.loc 1 273 3 view .LVU35
 142              		.loc 1 273 17 is_stmt 0 view .LVU36
 143 0000 0B68     		ldr	r3, [r1]
 144              		.loc 1 273 15 view .LVU37
 145 0002 C0F88030 		str	r3, [r0, #128]
 274:Drivers/STM32F4xx_HAL_Driver/Src/stm32f4xx_ll_sdmmc.c **** 
 275:Drivers/STM32F4xx_HAL_Driver/Src/stm32f4xx_ll_sdmmc.c ****   return HAL_OK;
 146              		.loc 1 275 3 is_stmt 1 view .LVU38
 276:Drivers/STM32F4xx_HAL_Driver/Src/stm32f4xx_ll_sdmmc.c **** }
 147              		.loc 1 276 1 is_stmt 0 view .LVU39
 148 0006 0020     		movs	r0, #0
 149              	.LVL8:
 150              		.loc 1 276 1 view .LVU40
 151 0008 7047     		bx	lr
 152              		.cfi_endproc
 153              	.LFE132:
 155 000a 00BF     		.section	.text.SDIO_PowerState_ON,"ax",%progbits
 156              		.align	1
 157              		.p2align 2,,3
 158              		.global	SDIO_PowerState_ON
 159              		.syntax unified
 160              		.thumb
 161              		.thumb_func
 163              	SDIO_PowerState_ON:
 164              	.LVL9:
 165              	.LFB133:
 277:Drivers/STM32F4xx_HAL_Driver/Src/stm32f4xx_ll_sdmmc.c **** 
 278:Drivers/STM32F4xx_HAL_Driver/Src/stm32f4xx_ll_sdmmc.c **** /**
 279:Drivers/STM32F4xx_HAL_Driver/Src/stm32f4xx_ll_sdmmc.c ****  * @}
 280:Drivers/STM32F4xx_HAL_Driver/Src/stm32f4xx_ll_sdmmc.c ****  */
 281:Drivers/STM32F4xx_HAL_Driver/Src/stm32f4xx_ll_sdmmc.c **** 
 282:Drivers/STM32F4xx_HAL_Driver/Src/stm32f4xx_ll_sdmmc.c **** /** @defgroup HAL_SDMMC_LL_Group3 Peripheral Control functions
 283:Drivers/STM32F4xx_HAL_Driver/Src/stm32f4xx_ll_sdmmc.c ****  *  @brief   management functions
ARM GAS  C:\Users\pw705\AppData\Local\Temp\cceieKfF.s 			page 9


 284:Drivers/STM32F4xx_HAL_Driver/Src/stm32f4xx_ll_sdmmc.c ****  *
 285:Drivers/STM32F4xx_HAL_Driver/Src/stm32f4xx_ll_sdmmc.c **** @verbatim
 286:Drivers/STM32F4xx_HAL_Driver/Src/stm32f4xx_ll_sdmmc.c ****  ===============================================================================
 287:Drivers/STM32F4xx_HAL_Driver/Src/stm32f4xx_ll_sdmmc.c ****                       ##### Peripheral Control functions #####
 288:Drivers/STM32F4xx_HAL_Driver/Src/stm32f4xx_ll_sdmmc.c ****  ===============================================================================
 289:Drivers/STM32F4xx_HAL_Driver/Src/stm32f4xx_ll_sdmmc.c ****     [..]
 290:Drivers/STM32F4xx_HAL_Driver/Src/stm32f4xx_ll_sdmmc.c ****     This subsection provides a set of functions allowing to control the SDMMC data
 291:Drivers/STM32F4xx_HAL_Driver/Src/stm32f4xx_ll_sdmmc.c ****     transfers.
 292:Drivers/STM32F4xx_HAL_Driver/Src/stm32f4xx_ll_sdmmc.c **** 
 293:Drivers/STM32F4xx_HAL_Driver/Src/stm32f4xx_ll_sdmmc.c **** @endverbatim
 294:Drivers/STM32F4xx_HAL_Driver/Src/stm32f4xx_ll_sdmmc.c ****   * @{
 295:Drivers/STM32F4xx_HAL_Driver/Src/stm32f4xx_ll_sdmmc.c ****   */
 296:Drivers/STM32F4xx_HAL_Driver/Src/stm32f4xx_ll_sdmmc.c **** 
 297:Drivers/STM32F4xx_HAL_Driver/Src/stm32f4xx_ll_sdmmc.c **** /**
 298:Drivers/STM32F4xx_HAL_Driver/Src/stm32f4xx_ll_sdmmc.c ****  * @brief  Set SDMMC Power state to ON.
 299:Drivers/STM32F4xx_HAL_Driver/Src/stm32f4xx_ll_sdmmc.c ****  * @param  SDIOx: Pointer to SDMMC register base
 300:Drivers/STM32F4xx_HAL_Driver/Src/stm32f4xx_ll_sdmmc.c ****  * @retval HAL status
 301:Drivers/STM32F4xx_HAL_Driver/Src/stm32f4xx_ll_sdmmc.c ****  */
 302:Drivers/STM32F4xx_HAL_Driver/Src/stm32f4xx_ll_sdmmc.c **** HAL_StatusTypeDef SDIO_PowerState_ON(SDIO_TypeDef *SDIOx)
 303:Drivers/STM32F4xx_HAL_Driver/Src/stm32f4xx_ll_sdmmc.c **** {
 166              		.loc 1 303 1 is_stmt 1 view -0
 167              		.cfi_startproc
 168              		@ args = 0, pretend = 0, frame = 0
 169              		@ frame_needed = 0, uses_anonymous_args = 0
 170              		@ link register save eliminated.
 304:Drivers/STM32F4xx_HAL_Driver/Src/stm32f4xx_ll_sdmmc.c ****   /* Set power state to ON */
 305:Drivers/STM32F4xx_HAL_Driver/Src/stm32f4xx_ll_sdmmc.c ****   SDIOx->POWER = SDIO_POWER_PWRCTRL;
 171              		.loc 1 305 3 view .LVU42
 172              		.loc 1 305 16 is_stmt 0 view .LVU43
 173 0000 0323     		movs	r3, #3
 174 0002 0360     		str	r3, [r0]
 306:Drivers/STM32F4xx_HAL_Driver/Src/stm32f4xx_ll_sdmmc.c **** 
 307:Drivers/STM32F4xx_HAL_Driver/Src/stm32f4xx_ll_sdmmc.c ****   return HAL_OK;
 175              		.loc 1 307 3 is_stmt 1 view .LVU44
 308:Drivers/STM32F4xx_HAL_Driver/Src/stm32f4xx_ll_sdmmc.c **** }
 176              		.loc 1 308 1 is_stmt 0 view .LVU45
 177 0004 0020     		movs	r0, #0
 178              	.LVL10:
 179              		.loc 1 308 1 view .LVU46
 180 0006 7047     		bx	lr
 181              		.cfi_endproc
 182              	.LFE133:
 184              		.section	.text.SDIO_PowerState_OFF,"ax",%progbits
 185              		.align	1
 186              		.p2align 2,,3
 187              		.global	SDIO_PowerState_OFF
 188              		.syntax unified
 189              		.thumb
 190              		.thumb_func
 192              	SDIO_PowerState_OFF:
 193              	.LVL11:
 194              	.LFB134:
 309:Drivers/STM32F4xx_HAL_Driver/Src/stm32f4xx_ll_sdmmc.c **** 
 310:Drivers/STM32F4xx_HAL_Driver/Src/stm32f4xx_ll_sdmmc.c **** /**
 311:Drivers/STM32F4xx_HAL_Driver/Src/stm32f4xx_ll_sdmmc.c ****  * @brief  Set SDMMC Power state to OFF.
 312:Drivers/STM32F4xx_HAL_Driver/Src/stm32f4xx_ll_sdmmc.c ****  * @param  SDIOx: Pointer to SDMMC register base
 313:Drivers/STM32F4xx_HAL_Driver/Src/stm32f4xx_ll_sdmmc.c ****  * @retval HAL status
ARM GAS  C:\Users\pw705\AppData\Local\Temp\cceieKfF.s 			page 10


 314:Drivers/STM32F4xx_HAL_Driver/Src/stm32f4xx_ll_sdmmc.c ****  */
 315:Drivers/STM32F4xx_HAL_Driver/Src/stm32f4xx_ll_sdmmc.c **** HAL_StatusTypeDef SDIO_PowerState_OFF(SDIO_TypeDef *SDIOx)
 316:Drivers/STM32F4xx_HAL_Driver/Src/stm32f4xx_ll_sdmmc.c **** {
 195              		.loc 1 316 1 is_stmt 1 view -0
 196              		.cfi_startproc
 197              		@ args = 0, pretend = 0, frame = 0
 198              		@ frame_needed = 0, uses_anonymous_args = 0
 199              		@ link register save eliminated.
 317:Drivers/STM32F4xx_HAL_Driver/Src/stm32f4xx_ll_sdmmc.c ****   /* Set power state to OFF */
 318:Drivers/STM32F4xx_HAL_Driver/Src/stm32f4xx_ll_sdmmc.c ****   SDIOx->POWER = (uint32_t)0x00000000;
 200              		.loc 1 318 3 view .LVU48
 316:Drivers/STM32F4xx_HAL_Driver/Src/stm32f4xx_ll_sdmmc.c ****   /* Set power state to OFF */
 201              		.loc 1 316 1 is_stmt 0 view .LVU49
 202 0000 0346     		mov	r3, r0
 203              		.loc 1 318 16 view .LVU50
 204 0002 0020     		movs	r0, #0
 205              	.LVL12:
 206              		.loc 1 318 16 view .LVU51
 207 0004 1860     		str	r0, [r3]
 319:Drivers/STM32F4xx_HAL_Driver/Src/stm32f4xx_ll_sdmmc.c **** 
 320:Drivers/STM32F4xx_HAL_Driver/Src/stm32f4xx_ll_sdmmc.c ****   return HAL_OK;
 208              		.loc 1 320 3 is_stmt 1 view .LVU52
 321:Drivers/STM32F4xx_HAL_Driver/Src/stm32f4xx_ll_sdmmc.c **** }
 209              		.loc 1 321 1 is_stmt 0 view .LVU53
 210 0006 7047     		bx	lr
 211              		.cfi_endproc
 212              	.LFE134:
 214              		.section	.text.SDIO_GetPowerState,"ax",%progbits
 215              		.align	1
 216              		.p2align 2,,3
 217              		.global	SDIO_GetPowerState
 218              		.syntax unified
 219              		.thumb
 220              		.thumb_func
 222              	SDIO_GetPowerState:
 223              	.LVL13:
 224              	.LFB135:
 322:Drivers/STM32F4xx_HAL_Driver/Src/stm32f4xx_ll_sdmmc.c **** 
 323:Drivers/STM32F4xx_HAL_Driver/Src/stm32f4xx_ll_sdmmc.c **** /**
 324:Drivers/STM32F4xx_HAL_Driver/Src/stm32f4xx_ll_sdmmc.c ****  * @brief  Get SDMMC Power state.
 325:Drivers/STM32F4xx_HAL_Driver/Src/stm32f4xx_ll_sdmmc.c ****  * @param  SDIOx: Pointer to SDMMC register base
 326:Drivers/STM32F4xx_HAL_Driver/Src/stm32f4xx_ll_sdmmc.c ****  * @retval Power status of the controller. The returned value can be one of the
 327:Drivers/STM32F4xx_HAL_Driver/Src/stm32f4xx_ll_sdmmc.c ****  *         following values:
 328:Drivers/STM32F4xx_HAL_Driver/Src/stm32f4xx_ll_sdmmc.c ****  *            - 0x00: Power OFF
 329:Drivers/STM32F4xx_HAL_Driver/Src/stm32f4xx_ll_sdmmc.c ****  *            - 0x02: Power UP
 330:Drivers/STM32F4xx_HAL_Driver/Src/stm32f4xx_ll_sdmmc.c ****  *            - 0x03: Power ON
 331:Drivers/STM32F4xx_HAL_Driver/Src/stm32f4xx_ll_sdmmc.c ****  */
 332:Drivers/STM32F4xx_HAL_Driver/Src/stm32f4xx_ll_sdmmc.c **** uint32_t SDIO_GetPowerState(SDIO_TypeDef *SDIOx)
 333:Drivers/STM32F4xx_HAL_Driver/Src/stm32f4xx_ll_sdmmc.c **** {
 225              		.loc 1 333 1 is_stmt 1 view -0
 226              		.cfi_startproc
 227              		@ args = 0, pretend = 0, frame = 0
 228              		@ frame_needed = 0, uses_anonymous_args = 0
 229              		@ link register save eliminated.
 334:Drivers/STM32F4xx_HAL_Driver/Src/stm32f4xx_ll_sdmmc.c ****   return (SDIOx->POWER & SDIO_POWER_PWRCTRL);
 230              		.loc 1 334 3 view .LVU55
 231              		.loc 1 334 16 is_stmt 0 view .LVU56
ARM GAS  C:\Users\pw705\AppData\Local\Temp\cceieKfF.s 			page 11


 232 0000 0068     		ldr	r0, [r0]
 233              	.LVL14:
 335:Drivers/STM32F4xx_HAL_Driver/Src/stm32f4xx_ll_sdmmc.c **** }
 234              		.loc 1 335 1 view .LVU57
 235 0002 00F00300 		and	r0, r0, #3
 236 0006 7047     		bx	lr
 237              		.cfi_endproc
 238              	.LFE135:
 240              		.section	.text.SDIO_SendCommand,"ax",%progbits
 241              		.align	1
 242              		.p2align 2,,3
 243              		.global	SDIO_SendCommand
 244              		.syntax unified
 245              		.thumb
 246              		.thumb_func
 248              	SDIO_SendCommand:
 249              	.LVL15:
 250              	.LFB136:
 336:Drivers/STM32F4xx_HAL_Driver/Src/stm32f4xx_ll_sdmmc.c **** 
 337:Drivers/STM32F4xx_HAL_Driver/Src/stm32f4xx_ll_sdmmc.c **** /**
 338:Drivers/STM32F4xx_HAL_Driver/Src/stm32f4xx_ll_sdmmc.c ****  * @brief  Configure the SDMMC command path according to the specified parameters in
 339:Drivers/STM32F4xx_HAL_Driver/Src/stm32f4xx_ll_sdmmc.c ****  *         SDIO_CmdInitTypeDef structure and send the command
 340:Drivers/STM32F4xx_HAL_Driver/Src/stm32f4xx_ll_sdmmc.c ****  * @param  SDIOx: Pointer to SDMMC register base
 341:Drivers/STM32F4xx_HAL_Driver/Src/stm32f4xx_ll_sdmmc.c ****  * @param  Command: pointer to a SDIO_CmdInitTypeDef structure that contains
 342:Drivers/STM32F4xx_HAL_Driver/Src/stm32f4xx_ll_sdmmc.c ****  *         the configuration information for the SDMMC command
 343:Drivers/STM32F4xx_HAL_Driver/Src/stm32f4xx_ll_sdmmc.c ****  * @retval HAL status
 344:Drivers/STM32F4xx_HAL_Driver/Src/stm32f4xx_ll_sdmmc.c ****  */
 345:Drivers/STM32F4xx_HAL_Driver/Src/stm32f4xx_ll_sdmmc.c **** HAL_StatusTypeDef SDIO_SendCommand(SDIO_TypeDef *SDIOx, SDIO_CmdInitTypeDef *Command)
 346:Drivers/STM32F4xx_HAL_Driver/Src/stm32f4xx_ll_sdmmc.c **** {
 251              		.loc 1 346 1 is_stmt 1 view -0
 252              		.cfi_startproc
 253              		@ args = 0, pretend = 0, frame = 0
 254              		@ frame_needed = 0, uses_anonymous_args = 0
 255              		@ link register save eliminated.
 347:Drivers/STM32F4xx_HAL_Driver/Src/stm32f4xx_ll_sdmmc.c ****   uint32_t tmpreg = 0;
 256              		.loc 1 347 3 view .LVU59
 348:Drivers/STM32F4xx_HAL_Driver/Src/stm32f4xx_ll_sdmmc.c **** 
 349:Drivers/STM32F4xx_HAL_Driver/Src/stm32f4xx_ll_sdmmc.c ****   /* CheSck the parameters */
 350:Drivers/STM32F4xx_HAL_Driver/Src/stm32f4xx_ll_sdmmc.c ****   assert_param(IS_SDIO_CMD_INDEX(Command->CmdIndex));
 257              		.loc 1 350 3 view .LVU60
 351:Drivers/STM32F4xx_HAL_Driver/Src/stm32f4xx_ll_sdmmc.c ****   assert_param(IS_SDIO_RESPONSE(Command->Response));
 258              		.loc 1 351 3 view .LVU61
 352:Drivers/STM32F4xx_HAL_Driver/Src/stm32f4xx_ll_sdmmc.c ****   assert_param(IS_SDIO_WAIT(Command->WaitForInterrupt));
 259              		.loc 1 352 3 view .LVU62
 353:Drivers/STM32F4xx_HAL_Driver/Src/stm32f4xx_ll_sdmmc.c ****   assert_param(IS_SDIO_CPSM(Command->CPSM));
 260              		.loc 1 353 3 view .LVU63
 354:Drivers/STM32F4xx_HAL_Driver/Src/stm32f4xx_ll_sdmmc.c **** 
 355:Drivers/STM32F4xx_HAL_Driver/Src/stm32f4xx_ll_sdmmc.c ****   /* Set the SDMMC Argument value */
 356:Drivers/STM32F4xx_HAL_Driver/Src/stm32f4xx_ll_sdmmc.c ****   SDIOx->ARG = Command->Argument;
 261              		.loc 1 356 3 view .LVU64
 357:Drivers/STM32F4xx_HAL_Driver/Src/stm32f4xx_ll_sdmmc.c **** 
 358:Drivers/STM32F4xx_HAL_Driver/Src/stm32f4xx_ll_sdmmc.c ****   /* Set SDMMC command parameters */
 359:Drivers/STM32F4xx_HAL_Driver/Src/stm32f4xx_ll_sdmmc.c ****   tmpreg |= (uint32_t)(Command->CmdIndex |
 262              		.loc 1 359 42 is_stmt 0 view .LVU65
 263 0000 D1E90023 		ldrd	r2, r3, [r1]
 346:Drivers/STM32F4xx_HAL_Driver/Src/stm32f4xx_ll_sdmmc.c ****   uint32_t tmpreg = 0;
 264              		.loc 1 346 1 view .LVU66
ARM GAS  C:\Users\pw705\AppData\Local\Temp\cceieKfF.s 			page 12


 265 0004 10B4     		push	{r4}
 266              		.cfi_def_cfa_offset 4
 267              		.cfi_offset 4, -4
 268              		.loc 1 359 42 view .LVU67
 269 0006 8C68     		ldr	r4, [r1, #8]
 356:Drivers/STM32F4xx_HAL_Driver/Src/stm32f4xx_ll_sdmmc.c **** 
 270              		.loc 1 356 14 view .LVU68
 271 0008 8260     		str	r2, [r0, #8]
 272              		.loc 1 359 3 is_stmt 1 view .LVU69
 273              	.LVL16:
 360:Drivers/STM32F4xx_HAL_Driver/Src/stm32f4xx_ll_sdmmc.c ****                        Command->Response |
 361:Drivers/STM32F4xx_HAL_Driver/Src/stm32f4xx_ll_sdmmc.c ****                        Command->WaitForInterrupt |
 362:Drivers/STM32F4xx_HAL_Driver/Src/stm32f4xx_ll_sdmmc.c ****                        Command->CPSM);
 363:Drivers/STM32F4xx_HAL_Driver/Src/stm32f4xx_ll_sdmmc.c **** 
 364:Drivers/STM32F4xx_HAL_Driver/Src/stm32f4xx_ll_sdmmc.c ****   /* Write to SDMMC CMD register */
 365:Drivers/STM32F4xx_HAL_Driver/Src/stm32f4xx_ll_sdmmc.c ****   MODIFY_REG(SDIOx->CMD, CMD_CLEAR_MASK, tmpreg);
 274              		.loc 1 365 3 view .LVU70
 359:Drivers/STM32F4xx_HAL_Driver/Src/stm32f4xx_ll_sdmmc.c ****                        Command->Response |
 275              		.loc 1 359 42 is_stmt 0 view .LVU71
 276 000a 2343     		orrs	r3, r3, r4
 361:Drivers/STM32F4xx_HAL_Driver/Src/stm32f4xx_ll_sdmmc.c ****                        Command->CPSM);
 277              		.loc 1 361 50 view .LVU72
 278 000c D1E90341 		ldrd	r4, r1, [r1, #12]
 279              	.LVL17:
 280              		.loc 1 365 3 view .LVU73
 281 0010 C268     		ldr	r2, [r0, #12]
 360:Drivers/STM32F4xx_HAL_Driver/Src/stm32f4xx_ll_sdmmc.c ****                        Command->Response |
 282              		.loc 1 360 42 view .LVU74
 283 0012 2343     		orrs	r3, r3, r4
 284              		.loc 1 365 3 view .LVU75
 285 0014 22F47F62 		bic	r2, r2, #4080
 361:Drivers/STM32F4xx_HAL_Driver/Src/stm32f4xx_ll_sdmmc.c ****                        Command->CPSM);
 286              		.loc 1 361 50 view .LVU76
 287 0018 0B43     		orrs	r3, r3, r1
 288              		.loc 1 365 3 view .LVU77
 289 001a 22F00F02 		bic	r2, r2, #15
 290 001e 1343     		orrs	r3, r3, r2
 291 0020 C360     		str	r3, [r0, #12]
 366:Drivers/STM32F4xx_HAL_Driver/Src/stm32f4xx_ll_sdmmc.c **** 
 367:Drivers/STM32F4xx_HAL_Driver/Src/stm32f4xx_ll_sdmmc.c ****   return HAL_OK;
 292              		.loc 1 367 3 is_stmt 1 view .LVU78
 368:Drivers/STM32F4xx_HAL_Driver/Src/stm32f4xx_ll_sdmmc.c **** }
 293              		.loc 1 368 1 is_stmt 0 view .LVU79
 294 0022 5DF8044B 		ldr	r4, [sp], #4
 295              		.cfi_restore 4
 296              		.cfi_def_cfa_offset 0
 297 0026 0020     		movs	r0, #0
 298              	.LVL18:
 299              		.loc 1 368 1 view .LVU80
 300 0028 7047     		bx	lr
 301              		.cfi_endproc
 302              	.LFE136:
 304 002a 00BF     		.section	.text.SDIO_GetCommandResponse,"ax",%progbits
 305              		.align	1
 306              		.p2align 2,,3
 307              		.global	SDIO_GetCommandResponse
 308              		.syntax unified
ARM GAS  C:\Users\pw705\AppData\Local\Temp\cceieKfF.s 			page 13


 309              		.thumb
 310              		.thumb_func
 312              	SDIO_GetCommandResponse:
 313              	.LVL19:
 314              	.LFB137:
 369:Drivers/STM32F4xx_HAL_Driver/Src/stm32f4xx_ll_sdmmc.c **** 
 370:Drivers/STM32F4xx_HAL_Driver/Src/stm32f4xx_ll_sdmmc.c **** /**
 371:Drivers/STM32F4xx_HAL_Driver/Src/stm32f4xx_ll_sdmmc.c ****  * @brief  Return the command index of last command for which response received
 372:Drivers/STM32F4xx_HAL_Driver/Src/stm32f4xx_ll_sdmmc.c ****  * @param  SDIOx: Pointer to SDMMC register base
 373:Drivers/STM32F4xx_HAL_Driver/Src/stm32f4xx_ll_sdmmc.c ****  * @retval Command index of the last command response received
 374:Drivers/STM32F4xx_HAL_Driver/Src/stm32f4xx_ll_sdmmc.c ****  */
 375:Drivers/STM32F4xx_HAL_Driver/Src/stm32f4xx_ll_sdmmc.c **** uint8_t SDIO_GetCommandResponse(SDIO_TypeDef *SDIOx)
 376:Drivers/STM32F4xx_HAL_Driver/Src/stm32f4xx_ll_sdmmc.c **** {
 315              		.loc 1 376 1 is_stmt 1 view -0
 316              		.cfi_startproc
 317              		@ args = 0, pretend = 0, frame = 0
 318              		@ frame_needed = 0, uses_anonymous_args = 0
 319              		@ link register save eliminated.
 377:Drivers/STM32F4xx_HAL_Driver/Src/stm32f4xx_ll_sdmmc.c ****   return (uint8_t)(SDIOx->RESPCMD);
 320              		.loc 1 377 3 view .LVU82
 321              		.loc 1 377 25 is_stmt 0 view .LVU83
 322 0000 0069     		ldr	r0, [r0, #16]
 323              	.LVL20:
 378:Drivers/STM32F4xx_HAL_Driver/Src/stm32f4xx_ll_sdmmc.c **** }
 324              		.loc 1 378 1 view .LVU84
 325 0002 C0B2     		uxtb	r0, r0
 326 0004 7047     		bx	lr
 327              		.cfi_endproc
 328              	.LFE137:
 330 0006 00BF     		.section	.text.SDIO_GetResponse,"ax",%progbits
 331              		.align	1
 332              		.p2align 2,,3
 333              		.global	SDIO_GetResponse
 334              		.syntax unified
 335              		.thumb
 336              		.thumb_func
 338              	SDIO_GetResponse:
 339              	.LVL21:
 340              	.LFB138:
 379:Drivers/STM32F4xx_HAL_Driver/Src/stm32f4xx_ll_sdmmc.c **** 
 380:Drivers/STM32F4xx_HAL_Driver/Src/stm32f4xx_ll_sdmmc.c **** /**
 381:Drivers/STM32F4xx_HAL_Driver/Src/stm32f4xx_ll_sdmmc.c ****  * @brief  Return the response received from the card for the last command
 382:Drivers/STM32F4xx_HAL_Driver/Src/stm32f4xx_ll_sdmmc.c ****  * @param  SDIOx: Pointer to SDMMC register base
 383:Drivers/STM32F4xx_HAL_Driver/Src/stm32f4xx_ll_sdmmc.c ****  * @param  Response: Specifies the SDMMC response register.
 384:Drivers/STM32F4xx_HAL_Driver/Src/stm32f4xx_ll_sdmmc.c ****  *          This parameter can be one of the following values:
 385:Drivers/STM32F4xx_HAL_Driver/Src/stm32f4xx_ll_sdmmc.c ****  *            @arg SDIO_RESP1: Response Register 1
 386:Drivers/STM32F4xx_HAL_Driver/Src/stm32f4xx_ll_sdmmc.c ****  *            @arg SDIO_RESP2: Response Register 2
 387:Drivers/STM32F4xx_HAL_Driver/Src/stm32f4xx_ll_sdmmc.c ****  *            @arg SDIO_RESP3: Response Register 3
 388:Drivers/STM32F4xx_HAL_Driver/Src/stm32f4xx_ll_sdmmc.c ****  *            @arg SDIO_RESP4: Response Register 4
 389:Drivers/STM32F4xx_HAL_Driver/Src/stm32f4xx_ll_sdmmc.c ****  * @retval The Corresponding response register value
 390:Drivers/STM32F4xx_HAL_Driver/Src/stm32f4xx_ll_sdmmc.c ****  */
 391:Drivers/STM32F4xx_HAL_Driver/Src/stm32f4xx_ll_sdmmc.c **** uint32_t SDIO_GetResponse(SDIO_TypeDef *SDIOx, uint32_t Response)
 392:Drivers/STM32F4xx_HAL_Driver/Src/stm32f4xx_ll_sdmmc.c **** {
 341              		.loc 1 392 1 is_stmt 1 view -0
 342              		.cfi_startproc
 343              		@ args = 0, pretend = 0, frame = 0
 344              		@ frame_needed = 0, uses_anonymous_args = 0
ARM GAS  C:\Users\pw705\AppData\Local\Temp\cceieKfF.s 			page 14


 345              		@ link register save eliminated.
 393:Drivers/STM32F4xx_HAL_Driver/Src/stm32f4xx_ll_sdmmc.c ****   uint32_t tmp;
 346              		.loc 1 393 3 view .LVU86
 394:Drivers/STM32F4xx_HAL_Driver/Src/stm32f4xx_ll_sdmmc.c **** 
 395:Drivers/STM32F4xx_HAL_Driver/Src/stm32f4xx_ll_sdmmc.c ****   /* Check the parameters */
 396:Drivers/STM32F4xx_HAL_Driver/Src/stm32f4xx_ll_sdmmc.c ****   assert_param(IS_SDIO_RESP(Response));
 347              		.loc 1 396 3 view .LVU87
 397:Drivers/STM32F4xx_HAL_Driver/Src/stm32f4xx_ll_sdmmc.c **** 
 398:Drivers/STM32F4xx_HAL_Driver/Src/stm32f4xx_ll_sdmmc.c ****   /* Get the response */
 399:Drivers/STM32F4xx_HAL_Driver/Src/stm32f4xx_ll_sdmmc.c ****   tmp = (uint32_t)(&(SDIOx->RESP1)) + Response;
 348              		.loc 1 399 3 view .LVU88
 400:Drivers/STM32F4xx_HAL_Driver/Src/stm32f4xx_ll_sdmmc.c **** 
 401:Drivers/STM32F4xx_HAL_Driver/Src/stm32f4xx_ll_sdmmc.c ****   return (*(__IO uint32_t *)tmp);
 349              		.loc 1 401 3 view .LVU89
 399:Drivers/STM32F4xx_HAL_Driver/Src/stm32f4xx_ll_sdmmc.c **** 
 350              		.loc 1 399 20 is_stmt 0 view .LVU90
 351 0000 1430     		adds	r0, r0, #20
 352              	.LVL22:
 353              		.loc 1 401 11 view .LVU91
 354 0002 4058     		ldr	r0, [r0, r1]
 355              	.LVL23:
 402:Drivers/STM32F4xx_HAL_Driver/Src/stm32f4xx_ll_sdmmc.c **** }
 356              		.loc 1 402 1 view .LVU92
 357 0004 7047     		bx	lr
 358              		.cfi_endproc
 359              	.LFE138:
 361 0006 00BF     		.section	.text.SDIO_ConfigData,"ax",%progbits
 362              		.align	1
 363              		.p2align 2,,3
 364              		.global	SDIO_ConfigData
 365              		.syntax unified
 366              		.thumb
 367              		.thumb_func
 369              	SDIO_ConfigData:
 370              	.LVL24:
 371              	.LFB139:
 403:Drivers/STM32F4xx_HAL_Driver/Src/stm32f4xx_ll_sdmmc.c **** 
 404:Drivers/STM32F4xx_HAL_Driver/Src/stm32f4xx_ll_sdmmc.c **** /**
 405:Drivers/STM32F4xx_HAL_Driver/Src/stm32f4xx_ll_sdmmc.c ****  * @brief  Configure the SDMMC data path according to the specified
 406:Drivers/STM32F4xx_HAL_Driver/Src/stm32f4xx_ll_sdmmc.c ****  *         parameters in the SDIO_DataInitTypeDef.
 407:Drivers/STM32F4xx_HAL_Driver/Src/stm32f4xx_ll_sdmmc.c ****  * @param  SDIOx: Pointer to SDIO register base
 408:Drivers/STM32F4xx_HAL_Driver/Src/stm32f4xx_ll_sdmmc.c ****  * @param  Data : pointer to a SDIO_DataInitTypeDef structure
 409:Drivers/STM32F4xx_HAL_Driver/Src/stm32f4xx_ll_sdmmc.c ****  *         that contains the configuration information for the SDMMC data.
 410:Drivers/STM32F4xx_HAL_Driver/Src/stm32f4xx_ll_sdmmc.c ****  * @retval HAL status
 411:Drivers/STM32F4xx_HAL_Driver/Src/stm32f4xx_ll_sdmmc.c ****  */
 412:Drivers/STM32F4xx_HAL_Driver/Src/stm32f4xx_ll_sdmmc.c **** HAL_StatusTypeDef SDIO_ConfigData(SDIO_TypeDef *SDIOx, SDIO_DataInitTypeDef *Data)
 413:Drivers/STM32F4xx_HAL_Driver/Src/stm32f4xx_ll_sdmmc.c **** {
 372              		.loc 1 413 1 is_stmt 1 view -0
 373              		.cfi_startproc
 374              		@ args = 0, pretend = 0, frame = 0
 375              		@ frame_needed = 0, uses_anonymous_args = 0
 376              		@ link register save eliminated.
 414:Drivers/STM32F4xx_HAL_Driver/Src/stm32f4xx_ll_sdmmc.c ****   uint32_t tmpreg = 0;
 377              		.loc 1 414 3 view .LVU94
 415:Drivers/STM32F4xx_HAL_Driver/Src/stm32f4xx_ll_sdmmc.c **** 
 416:Drivers/STM32F4xx_HAL_Driver/Src/stm32f4xx_ll_sdmmc.c ****   /* Check the parameters */
 417:Drivers/STM32F4xx_HAL_Driver/Src/stm32f4xx_ll_sdmmc.c ****   assert_param(IS_SDIO_DATA_LENGTH(Data->DataLength));
ARM GAS  C:\Users\pw705\AppData\Local\Temp\cceieKfF.s 			page 15


 378              		.loc 1 417 3 view .LVU95
 418:Drivers/STM32F4xx_HAL_Driver/Src/stm32f4xx_ll_sdmmc.c ****   assert_param(IS_SDIO_BLOCK_SIZE(Data->DataBlockSize));
 379              		.loc 1 418 3 view .LVU96
 419:Drivers/STM32F4xx_HAL_Driver/Src/stm32f4xx_ll_sdmmc.c ****   assert_param(IS_SDIO_TRANSFER_DIR(Data->TransferDir));
 380              		.loc 1 419 3 view .LVU97
 420:Drivers/STM32F4xx_HAL_Driver/Src/stm32f4xx_ll_sdmmc.c ****   assert_param(IS_SDIO_TRANSFER_MODE(Data->TransferMode));
 381              		.loc 1 420 3 view .LVU98
 421:Drivers/STM32F4xx_HAL_Driver/Src/stm32f4xx_ll_sdmmc.c ****   assert_param(IS_SDIO_DPSM(Data->DPSM));
 382              		.loc 1 421 3 view .LVU99
 422:Drivers/STM32F4xx_HAL_Driver/Src/stm32f4xx_ll_sdmmc.c **** 
 423:Drivers/STM32F4xx_HAL_Driver/Src/stm32f4xx_ll_sdmmc.c ****   /* Set the SDMMC Data TimeOut value */
 424:Drivers/STM32F4xx_HAL_Driver/Src/stm32f4xx_ll_sdmmc.c ****   SDIOx->DTIMER = Data->DataTimeOut;
 383              		.loc 1 424 3 view .LVU100
 413:Drivers/STM32F4xx_HAL_Driver/Src/stm32f4xx_ll_sdmmc.c ****   uint32_t tmpreg = 0;
 384              		.loc 1 413 1 is_stmt 0 view .LVU101
 385 0000 10B4     		push	{r4}
 386              		.cfi_def_cfa_offset 4
 387              		.cfi_offset 4, -4
 425:Drivers/STM32F4xx_HAL_Driver/Src/stm32f4xx_ll_sdmmc.c **** 
 426:Drivers/STM32F4xx_HAL_Driver/Src/stm32f4xx_ll_sdmmc.c ****   /* Set the SDMMC DataLength value */
 427:Drivers/STM32F4xx_HAL_Driver/Src/stm32f4xx_ll_sdmmc.c ****   SDIOx->DLEN = Data->DataLength;
 388              		.loc 1 427 21 view .LVU102
 389 0002 D1E90042 		ldrd	r4, r2, [r1]
 428:Drivers/STM32F4xx_HAL_Driver/Src/stm32f4xx_ll_sdmmc.c **** 
 429:Drivers/STM32F4xx_HAL_Driver/Src/stm32f4xx_ll_sdmmc.c ****   /* Set the SDMMC data configuration parameters */
 430:Drivers/STM32F4xx_HAL_Driver/Src/stm32f4xx_ll_sdmmc.c ****   tmpreg |= (uint32_t)(Data->DataBlockSize |
 390              		.loc 1 430 44 view .LVU103
 391 0006 8B68     		ldr	r3, [r1, #8]
 424:Drivers/STM32F4xx_HAL_Driver/Src/stm32f4xx_ll_sdmmc.c **** 
 392              		.loc 1 424 17 view .LVU104
 393 0008 4462     		str	r4, [r0, #36]
 427:Drivers/STM32F4xx_HAL_Driver/Src/stm32f4xx_ll_sdmmc.c **** 
 394              		.loc 1 427 3 is_stmt 1 view .LVU105
 395              		.loc 1 430 44 is_stmt 0 view .LVU106
 396 000a CC68     		ldr	r4, [r1, #12]
 427:Drivers/STM32F4xx_HAL_Driver/Src/stm32f4xx_ll_sdmmc.c **** 
 397              		.loc 1 427 15 view .LVU107
 398 000c 8262     		str	r2, [r0, #40]
 399              		.loc 1 430 3 is_stmt 1 view .LVU108
 400              	.LVL25:
 431:Drivers/STM32F4xx_HAL_Driver/Src/stm32f4xx_ll_sdmmc.c ****                        Data->TransferDir |
 432:Drivers/STM32F4xx_HAL_Driver/Src/stm32f4xx_ll_sdmmc.c ****                        Data->TransferMode |
 433:Drivers/STM32F4xx_HAL_Driver/Src/stm32f4xx_ll_sdmmc.c ****                        Data->DPSM);
 434:Drivers/STM32F4xx_HAL_Driver/Src/stm32f4xx_ll_sdmmc.c **** 
 435:Drivers/STM32F4xx_HAL_Driver/Src/stm32f4xx_ll_sdmmc.c ****   /* Write to SDMMC DCTRL */
 436:Drivers/STM32F4xx_HAL_Driver/Src/stm32f4xx_ll_sdmmc.c ****   MODIFY_REG(SDIOx->DCTRL, DCTRL_CLEAR_MASK, tmpreg);
 401              		.loc 1 436 3 view .LVU109
 430:Drivers/STM32F4xx_HAL_Driver/Src/stm32f4xx_ll_sdmmc.c ****                        Data->TransferDir |
 402              		.loc 1 430 44 is_stmt 0 view .LVU110
 403 000e 2343     		orrs	r3, r3, r4
 432:Drivers/STM32F4xx_HAL_Driver/Src/stm32f4xx_ll_sdmmc.c ****                        Data->DPSM);
 404              		.loc 1 432 43 view .LVU111
 405 0010 D1E90441 		ldrd	r4, r1, [r1, #16]
 406              	.LVL26:
 407              		.loc 1 436 3 view .LVU112
 408 0014 C26A     		ldr	r2, [r0, #44]
 431:Drivers/STM32F4xx_HAL_Driver/Src/stm32f4xx_ll_sdmmc.c ****                        Data->TransferDir |
ARM GAS  C:\Users\pw705\AppData\Local\Temp\cceieKfF.s 			page 16


 409              		.loc 1 431 42 view .LVU113
 410 0016 2343     		orrs	r3, r3, r4
 411              		.loc 1 436 3 view .LVU114
 412 0018 22F0F702 		bic	r2, r2, #247
 432:Drivers/STM32F4xx_HAL_Driver/Src/stm32f4xx_ll_sdmmc.c ****                        Data->DPSM);
 413              		.loc 1 432 43 view .LVU115
 414 001c 0B43     		orrs	r3, r3, r1
 415              		.loc 1 436 3 view .LVU116
 416 001e 1343     		orrs	r3, r3, r2
 417 0020 C362     		str	r3, [r0, #44]
 437:Drivers/STM32F4xx_HAL_Driver/Src/stm32f4xx_ll_sdmmc.c **** 
 438:Drivers/STM32F4xx_HAL_Driver/Src/stm32f4xx_ll_sdmmc.c ****   return HAL_OK;
 418              		.loc 1 438 3 is_stmt 1 view .LVU117
 439:Drivers/STM32F4xx_HAL_Driver/Src/stm32f4xx_ll_sdmmc.c **** }
 419              		.loc 1 439 1 is_stmt 0 view .LVU118
 420 0022 5DF8044B 		ldr	r4, [sp], #4
 421              		.cfi_restore 4
 422              		.cfi_def_cfa_offset 0
 423 0026 0020     		movs	r0, #0
 424              	.LVL27:
 425              		.loc 1 439 1 view .LVU119
 426 0028 7047     		bx	lr
 427              		.cfi_endproc
 428              	.LFE139:
 430 002a 00BF     		.section	.text.SDIO_GetDataCounter,"ax",%progbits
 431              		.align	1
 432              		.p2align 2,,3
 433              		.global	SDIO_GetDataCounter
 434              		.syntax unified
 435              		.thumb
 436              		.thumb_func
 438              	SDIO_GetDataCounter:
 439              	.LVL28:
 440              	.LFB140:
 440:Drivers/STM32F4xx_HAL_Driver/Src/stm32f4xx_ll_sdmmc.c **** 
 441:Drivers/STM32F4xx_HAL_Driver/Src/stm32f4xx_ll_sdmmc.c **** /**
 442:Drivers/STM32F4xx_HAL_Driver/Src/stm32f4xx_ll_sdmmc.c ****  * @brief  Returns number of remaining data bytes to be transferred.
 443:Drivers/STM32F4xx_HAL_Driver/Src/stm32f4xx_ll_sdmmc.c ****  * @param  SDIOx: Pointer to SDIO register base
 444:Drivers/STM32F4xx_HAL_Driver/Src/stm32f4xx_ll_sdmmc.c ****  * @retval Number of remaining data bytes to be transferred
 445:Drivers/STM32F4xx_HAL_Driver/Src/stm32f4xx_ll_sdmmc.c ****  */
 446:Drivers/STM32F4xx_HAL_Driver/Src/stm32f4xx_ll_sdmmc.c **** uint32_t SDIO_GetDataCounter(SDIO_TypeDef *SDIOx)
 447:Drivers/STM32F4xx_HAL_Driver/Src/stm32f4xx_ll_sdmmc.c **** {
 441              		.loc 1 447 1 is_stmt 1 view -0
 442              		.cfi_startproc
 443              		@ args = 0, pretend = 0, frame = 0
 444              		@ frame_needed = 0, uses_anonymous_args = 0
 445              		@ link register save eliminated.
 448:Drivers/STM32F4xx_HAL_Driver/Src/stm32f4xx_ll_sdmmc.c ****   return (SDIOx->DCOUNT);
 446              		.loc 1 448 3 view .LVU121
 447              		.loc 1 448 16 is_stmt 0 view .LVU122
 448 0000 006B     		ldr	r0, [r0, #48]
 449              	.LVL29:
 449:Drivers/STM32F4xx_HAL_Driver/Src/stm32f4xx_ll_sdmmc.c **** }
 450              		.loc 1 449 1 view .LVU123
 451 0002 7047     		bx	lr
 452              		.cfi_endproc
 453              	.LFE140:
ARM GAS  C:\Users\pw705\AppData\Local\Temp\cceieKfF.s 			page 17


 455              		.section	.text.SDIO_GetFIFOCount,"ax",%progbits
 456              		.align	1
 457              		.p2align 2,,3
 458              		.global	SDIO_GetFIFOCount
 459              		.syntax unified
 460              		.thumb
 461              		.thumb_func
 463              	SDIO_GetFIFOCount:
 464              	.LFB182:
 465              		.cfi_startproc
 450:Drivers/STM32F4xx_HAL_Driver/Src/stm32f4xx_ll_sdmmc.c **** 
 451:Drivers/STM32F4xx_HAL_Driver/Src/stm32f4xx_ll_sdmmc.c **** /**
 452:Drivers/STM32F4xx_HAL_Driver/Src/stm32f4xx_ll_sdmmc.c ****  * @brief  Get the FIFO data
 453:Drivers/STM32F4xx_HAL_Driver/Src/stm32f4xx_ll_sdmmc.c ****  * @param  SDIOx: Pointer to SDIO register base
 454:Drivers/STM32F4xx_HAL_Driver/Src/stm32f4xx_ll_sdmmc.c ****  * @retval Data received
 455:Drivers/STM32F4xx_HAL_Driver/Src/stm32f4xx_ll_sdmmc.c ****  */
 456:Drivers/STM32F4xx_HAL_Driver/Src/stm32f4xx_ll_sdmmc.c **** uint32_t SDIO_GetFIFOCount(SDIO_TypeDef *SDIOx)
 466              		.loc 1 456 10 is_stmt 1 view -0
 467              		@ args = 0, pretend = 0, frame = 0
 468              		@ frame_needed = 0, uses_anonymous_args = 0
 469              		@ link register save eliminated.
 470 0000 D0F88000 		ldr	r0, [r0, #128]
 471 0004 7047     		bx	lr
 472              		.cfi_endproc
 473              	.LFE182:
 475 0006 00BF     		.section	.text.SDIO_SetSDMMCReadWaitMode,"ax",%progbits
 476              		.align	1
 477              		.p2align 2,,3
 478              		.global	SDIO_SetSDMMCReadWaitMode
 479              		.syntax unified
 480              		.thumb
 481              		.thumb_func
 483              	SDIO_SetSDMMCReadWaitMode:
 484              	.LVL30:
 485              	.LFB142:
 457:Drivers/STM32F4xx_HAL_Driver/Src/stm32f4xx_ll_sdmmc.c **** {
 458:Drivers/STM32F4xx_HAL_Driver/Src/stm32f4xx_ll_sdmmc.c ****   return (SDIOx->FIFO);
 459:Drivers/STM32F4xx_HAL_Driver/Src/stm32f4xx_ll_sdmmc.c **** }
 460:Drivers/STM32F4xx_HAL_Driver/Src/stm32f4xx_ll_sdmmc.c **** 
 461:Drivers/STM32F4xx_HAL_Driver/Src/stm32f4xx_ll_sdmmc.c **** /**
 462:Drivers/STM32F4xx_HAL_Driver/Src/stm32f4xx_ll_sdmmc.c ****  * @brief  Sets one of the two options of inserting read wait interval.
 463:Drivers/STM32F4xx_HAL_Driver/Src/stm32f4xx_ll_sdmmc.c ****  * @param  SDIOx: Pointer to SDIO register base
 464:Drivers/STM32F4xx_HAL_Driver/Src/stm32f4xx_ll_sdmmc.c ****  * @param  SDIO_ReadWaitMode: SDMMC Read Wait operation mode.
 465:Drivers/STM32F4xx_HAL_Driver/Src/stm32f4xx_ll_sdmmc.c ****  *          This parameter can be:
 466:Drivers/STM32F4xx_HAL_Driver/Src/stm32f4xx_ll_sdmmc.c ****  *            @arg SDIO_READ_WAIT_MODE_CLK: Read Wait control by stopping SDMMCCLK
 467:Drivers/STM32F4xx_HAL_Driver/Src/stm32f4xx_ll_sdmmc.c ****  *            @arg SDIO_READ_WAIT_MODE_DATA2: Read Wait control using SDMMC_DATA2
 468:Drivers/STM32F4xx_HAL_Driver/Src/stm32f4xx_ll_sdmmc.c ****  * @retval None
 469:Drivers/STM32F4xx_HAL_Driver/Src/stm32f4xx_ll_sdmmc.c ****  */
 470:Drivers/STM32F4xx_HAL_Driver/Src/stm32f4xx_ll_sdmmc.c **** HAL_StatusTypeDef SDIO_SetSDMMCReadWaitMode(SDIO_TypeDef *SDIOx, uint32_t SDIO_ReadWaitMode)
 471:Drivers/STM32F4xx_HAL_Driver/Src/stm32f4xx_ll_sdmmc.c **** {
 486              		.loc 1 471 1 view -0
 487              		.cfi_startproc
 488              		@ args = 0, pretend = 0, frame = 0
 489              		@ frame_needed = 0, uses_anonymous_args = 0
 490              		@ link register save eliminated.
 472:Drivers/STM32F4xx_HAL_Driver/Src/stm32f4xx_ll_sdmmc.c ****   /* Check the parameters */
 473:Drivers/STM32F4xx_HAL_Driver/Src/stm32f4xx_ll_sdmmc.c ****   assert_param(IS_SDIO_READWAIT_MODE(SDIO_ReadWaitMode));
ARM GAS  C:\Users\pw705\AppData\Local\Temp\cceieKfF.s 			page 18


 491              		.loc 1 473 3 view .LVU126
 474:Drivers/STM32F4xx_HAL_Driver/Src/stm32f4xx_ll_sdmmc.c **** 
 475:Drivers/STM32F4xx_HAL_Driver/Src/stm32f4xx_ll_sdmmc.c ****   /* Set SDMMC read wait mode */
 476:Drivers/STM32F4xx_HAL_Driver/Src/stm32f4xx_ll_sdmmc.c ****   MODIFY_REG(SDIOx->DCTRL, SDIO_DCTRL_RWMOD, SDIO_ReadWaitMode);
 492              		.loc 1 476 3 view .LVU127
 493 0000 C36A     		ldr	r3, [r0, #44]
 471:Drivers/STM32F4xx_HAL_Driver/Src/stm32f4xx_ll_sdmmc.c ****   /* Check the parameters */
 494              		.loc 1 471 1 is_stmt 0 view .LVU128
 495 0002 0246     		mov	r2, r0
 496              		.loc 1 476 3 view .LVU129
 497 0004 23F48063 		bic	r3, r3, #1024
 498 0008 0B43     		orrs	r3, r3, r1
 477:Drivers/STM32F4xx_HAL_Driver/Src/stm32f4xx_ll_sdmmc.c **** 
 478:Drivers/STM32F4xx_HAL_Driver/Src/stm32f4xx_ll_sdmmc.c ****   return HAL_OK;
 479:Drivers/STM32F4xx_HAL_Driver/Src/stm32f4xx_ll_sdmmc.c **** }
 499              		.loc 1 479 1 view .LVU130
 500 000a 0020     		movs	r0, #0
 501              	.LVL31:
 476:Drivers/STM32F4xx_HAL_Driver/Src/stm32f4xx_ll_sdmmc.c **** 
 502              		.loc 1 476 3 view .LVU131
 503 000c D362     		str	r3, [r2, #44]
 478:Drivers/STM32F4xx_HAL_Driver/Src/stm32f4xx_ll_sdmmc.c **** }
 504              		.loc 1 478 3 is_stmt 1 view .LVU132
 505              		.loc 1 479 1 is_stmt 0 view .LVU133
 506 000e 7047     		bx	lr
 507              		.cfi_endproc
 508              	.LFE142:
 510              		.section	.text.SDMMC_CmdBlockLength,"ax",%progbits
 511              		.align	1
 512              		.p2align 2,,3
 513              		.global	SDMMC_CmdBlockLength
 514              		.syntax unified
 515              		.thumb
 516              		.thumb_func
 518              	SDMMC_CmdBlockLength:
 519              	.LVL32:
 520              	.LFB143:
 480:Drivers/STM32F4xx_HAL_Driver/Src/stm32f4xx_ll_sdmmc.c **** 
 481:Drivers/STM32F4xx_HAL_Driver/Src/stm32f4xx_ll_sdmmc.c **** /**
 482:Drivers/STM32F4xx_HAL_Driver/Src/stm32f4xx_ll_sdmmc.c ****  * @}
 483:Drivers/STM32F4xx_HAL_Driver/Src/stm32f4xx_ll_sdmmc.c ****  */
 484:Drivers/STM32F4xx_HAL_Driver/Src/stm32f4xx_ll_sdmmc.c **** 
 485:Drivers/STM32F4xx_HAL_Driver/Src/stm32f4xx_ll_sdmmc.c **** /** @defgroup HAL_SDMMC_LL_Group4 Command management functions
 486:Drivers/STM32F4xx_HAL_Driver/Src/stm32f4xx_ll_sdmmc.c ****  *  @brief   Data transfers functions
 487:Drivers/STM32F4xx_HAL_Driver/Src/stm32f4xx_ll_sdmmc.c ****  *
 488:Drivers/STM32F4xx_HAL_Driver/Src/stm32f4xx_ll_sdmmc.c **** @verbatim
 489:Drivers/STM32F4xx_HAL_Driver/Src/stm32f4xx_ll_sdmmc.c ****  ===============================================================================
 490:Drivers/STM32F4xx_HAL_Driver/Src/stm32f4xx_ll_sdmmc.c ****                    ##### Commands management functions #####
 491:Drivers/STM32F4xx_HAL_Driver/Src/stm32f4xx_ll_sdmmc.c ****  ===============================================================================
 492:Drivers/STM32F4xx_HAL_Driver/Src/stm32f4xx_ll_sdmmc.c ****     [..]
 493:Drivers/STM32F4xx_HAL_Driver/Src/stm32f4xx_ll_sdmmc.c ****     This subsection provides a set of functions allowing to manage the needed commands.
 494:Drivers/STM32F4xx_HAL_Driver/Src/stm32f4xx_ll_sdmmc.c **** 
 495:Drivers/STM32F4xx_HAL_Driver/Src/stm32f4xx_ll_sdmmc.c **** @endverbatim
 496:Drivers/STM32F4xx_HAL_Driver/Src/stm32f4xx_ll_sdmmc.c ****   * @{
 497:Drivers/STM32F4xx_HAL_Driver/Src/stm32f4xx_ll_sdmmc.c ****   */
 498:Drivers/STM32F4xx_HAL_Driver/Src/stm32f4xx_ll_sdmmc.c **** 
 499:Drivers/STM32F4xx_HAL_Driver/Src/stm32f4xx_ll_sdmmc.c **** /**
ARM GAS  C:\Users\pw705\AppData\Local\Temp\cceieKfF.s 			page 19


 500:Drivers/STM32F4xx_HAL_Driver/Src/stm32f4xx_ll_sdmmc.c ****  * @brief  Send the Data Block Length command and check the response
 501:Drivers/STM32F4xx_HAL_Driver/Src/stm32f4xx_ll_sdmmc.c ****  * @param  SDIOx: Pointer to SDIO register base
 502:Drivers/STM32F4xx_HAL_Driver/Src/stm32f4xx_ll_sdmmc.c ****  * @retval HAL status
 503:Drivers/STM32F4xx_HAL_Driver/Src/stm32f4xx_ll_sdmmc.c ****  */
 504:Drivers/STM32F4xx_HAL_Driver/Src/stm32f4xx_ll_sdmmc.c **** uint32_t SDMMC_CmdBlockLength(SDIO_TypeDef *SDIOx, uint32_t BlockSize)
 505:Drivers/STM32F4xx_HAL_Driver/Src/stm32f4xx_ll_sdmmc.c **** {
 521              		.loc 1 505 1 is_stmt 1 view -0
 522              		.cfi_startproc
 523              		@ args = 0, pretend = 0, frame = 0
 524              		@ frame_needed = 0, uses_anonymous_args = 0
 525              		@ link register save eliminated.
 506:Drivers/STM32F4xx_HAL_Driver/Src/stm32f4xx_ll_sdmmc.c ****   SDIO_CmdInitTypeDef sdmmc_cmdinit;
 526              		.loc 1 506 3 view .LVU135
 507:Drivers/STM32F4xx_HAL_Driver/Src/stm32f4xx_ll_sdmmc.c ****   uint32_t errorstate;
 527              		.loc 1 507 3 view .LVU136
 508:Drivers/STM32F4xx_HAL_Driver/Src/stm32f4xx_ll_sdmmc.c **** 
 509:Drivers/STM32F4xx_HAL_Driver/Src/stm32f4xx_ll_sdmmc.c ****   /* Set Block Size for Card */
 510:Drivers/STM32F4xx_HAL_Driver/Src/stm32f4xx_ll_sdmmc.c ****   sdmmc_cmdinit.Argument = (uint32_t)BlockSize;
 528              		.loc 1 510 3 view .LVU137
 529              	.LBB86:
 530              	.LBB87:
 511:Drivers/STM32F4xx_HAL_Driver/Src/stm32f4xx_ll_sdmmc.c ****   sdmmc_cmdinit.CmdIndex = SDMMC_CMD_SET_BLOCKLEN;
 512:Drivers/STM32F4xx_HAL_Driver/Src/stm32f4xx_ll_sdmmc.c ****   sdmmc_cmdinit.Response = SDIO_RESPONSE_SHORT;
 513:Drivers/STM32F4xx_HAL_Driver/Src/stm32f4xx_ll_sdmmc.c ****   sdmmc_cmdinit.WaitForInterrupt = SDIO_WAIT_NO;
 514:Drivers/STM32F4xx_HAL_Driver/Src/stm32f4xx_ll_sdmmc.c ****   sdmmc_cmdinit.CPSM = SDIO_CPSM_ENABLE;
 515:Drivers/STM32F4xx_HAL_Driver/Src/stm32f4xx_ll_sdmmc.c ****   (void)SDIO_SendCommand(SDIOx, &sdmmc_cmdinit);
 516:Drivers/STM32F4xx_HAL_Driver/Src/stm32f4xx_ll_sdmmc.c **** 
 517:Drivers/STM32F4xx_HAL_Driver/Src/stm32f4xx_ll_sdmmc.c ****   /* Check for error conditions */
 518:Drivers/STM32F4xx_HAL_Driver/Src/stm32f4xx_ll_sdmmc.c ****   errorstate = SDMMC_GetCmdResp1(SDIOx, SDMMC_CMD_SET_BLOCKLEN, SDIO_CMDTIMEOUT);
 519:Drivers/STM32F4xx_HAL_Driver/Src/stm32f4xx_ll_sdmmc.c **** 
 520:Drivers/STM32F4xx_HAL_Driver/Src/stm32f4xx_ll_sdmmc.c ****   return errorstate;
 521:Drivers/STM32F4xx_HAL_Driver/Src/stm32f4xx_ll_sdmmc.c **** }
 522:Drivers/STM32F4xx_HAL_Driver/Src/stm32f4xx_ll_sdmmc.c **** 
 523:Drivers/STM32F4xx_HAL_Driver/Src/stm32f4xx_ll_sdmmc.c **** /**
 524:Drivers/STM32F4xx_HAL_Driver/Src/stm32f4xx_ll_sdmmc.c ****  * @brief  Send the Read Single Block command and check the response
 525:Drivers/STM32F4xx_HAL_Driver/Src/stm32f4xx_ll_sdmmc.c ****  * @param  SDIOx: Pointer to SDIO register base
 526:Drivers/STM32F4xx_HAL_Driver/Src/stm32f4xx_ll_sdmmc.c ****  * @retval HAL status
 527:Drivers/STM32F4xx_HAL_Driver/Src/stm32f4xx_ll_sdmmc.c ****  */
 528:Drivers/STM32F4xx_HAL_Driver/Src/stm32f4xx_ll_sdmmc.c **** uint32_t SDMMC_CmdReadSingleBlock(SDIO_TypeDef *SDIOx, uint32_t ReadAdd)
 529:Drivers/STM32F4xx_HAL_Driver/Src/stm32f4xx_ll_sdmmc.c **** {
 530:Drivers/STM32F4xx_HAL_Driver/Src/stm32f4xx_ll_sdmmc.c ****   SDIO_CmdInitTypeDef sdmmc_cmdinit;
 531:Drivers/STM32F4xx_HAL_Driver/Src/stm32f4xx_ll_sdmmc.c ****   uint32_t errorstate;
 532:Drivers/STM32F4xx_HAL_Driver/Src/stm32f4xx_ll_sdmmc.c **** 
 533:Drivers/STM32F4xx_HAL_Driver/Src/stm32f4xx_ll_sdmmc.c ****   /* Set Block Size for Card */
 534:Drivers/STM32F4xx_HAL_Driver/Src/stm32f4xx_ll_sdmmc.c ****   sdmmc_cmdinit.Argument = (uint32_t)ReadAdd;
 535:Drivers/STM32F4xx_HAL_Driver/Src/stm32f4xx_ll_sdmmc.c ****   sdmmc_cmdinit.CmdIndex = SDMMC_CMD_READ_SINGLE_BLOCK;
 536:Drivers/STM32F4xx_HAL_Driver/Src/stm32f4xx_ll_sdmmc.c ****   sdmmc_cmdinit.Response = SDIO_RESPONSE_SHORT;
 537:Drivers/STM32F4xx_HAL_Driver/Src/stm32f4xx_ll_sdmmc.c ****   sdmmc_cmdinit.WaitForInterrupt = SDIO_WAIT_NO;
 538:Drivers/STM32F4xx_HAL_Driver/Src/stm32f4xx_ll_sdmmc.c ****   sdmmc_cmdinit.CPSM = SDIO_CPSM_ENABLE;
 539:Drivers/STM32F4xx_HAL_Driver/Src/stm32f4xx_ll_sdmmc.c ****   (void)SDIO_SendCommand(SDIOx, &sdmmc_cmdinit);
 540:Drivers/STM32F4xx_HAL_Driver/Src/stm32f4xx_ll_sdmmc.c **** 
 541:Drivers/STM32F4xx_HAL_Driver/Src/stm32f4xx_ll_sdmmc.c ****   /* Check for error conditions */
 542:Drivers/STM32F4xx_HAL_Driver/Src/stm32f4xx_ll_sdmmc.c ****   errorstate = SDMMC_GetCmdResp1(SDIOx, SDMMC_CMD_READ_SINGLE_BLOCK, SDIO_CMDTIMEOUT);
 543:Drivers/STM32F4xx_HAL_Driver/Src/stm32f4xx_ll_sdmmc.c **** 
 544:Drivers/STM32F4xx_HAL_Driver/Src/stm32f4xx_ll_sdmmc.c ****   return errorstate;
 545:Drivers/STM32F4xx_HAL_Driver/Src/stm32f4xx_ll_sdmmc.c **** }
 546:Drivers/STM32F4xx_HAL_Driver/Src/stm32f4xx_ll_sdmmc.c **** 
ARM GAS  C:\Users\pw705\AppData\Local\Temp\cceieKfF.s 			page 20


 547:Drivers/STM32F4xx_HAL_Driver/Src/stm32f4xx_ll_sdmmc.c **** /**
 548:Drivers/STM32F4xx_HAL_Driver/Src/stm32f4xx_ll_sdmmc.c ****  * @brief  Send the Read Multi Block command and check the response
 549:Drivers/STM32F4xx_HAL_Driver/Src/stm32f4xx_ll_sdmmc.c ****  * @param  SDIOx: Pointer to SDIO register base
 550:Drivers/STM32F4xx_HAL_Driver/Src/stm32f4xx_ll_sdmmc.c ****  * @retval HAL status
 551:Drivers/STM32F4xx_HAL_Driver/Src/stm32f4xx_ll_sdmmc.c ****  */
 552:Drivers/STM32F4xx_HAL_Driver/Src/stm32f4xx_ll_sdmmc.c **** uint32_t SDMMC_CmdReadMultiBlock(SDIO_TypeDef *SDIOx, uint32_t ReadAdd)
 553:Drivers/STM32F4xx_HAL_Driver/Src/stm32f4xx_ll_sdmmc.c **** {
 554:Drivers/STM32F4xx_HAL_Driver/Src/stm32f4xx_ll_sdmmc.c ****   SDIO_CmdInitTypeDef sdmmc_cmdinit;
 555:Drivers/STM32F4xx_HAL_Driver/Src/stm32f4xx_ll_sdmmc.c ****   uint32_t errorstate;
 556:Drivers/STM32F4xx_HAL_Driver/Src/stm32f4xx_ll_sdmmc.c **** 
 557:Drivers/STM32F4xx_HAL_Driver/Src/stm32f4xx_ll_sdmmc.c ****   /* Set Block Size for Card */
 558:Drivers/STM32F4xx_HAL_Driver/Src/stm32f4xx_ll_sdmmc.c ****   sdmmc_cmdinit.Argument = (uint32_t)ReadAdd;
 559:Drivers/STM32F4xx_HAL_Driver/Src/stm32f4xx_ll_sdmmc.c ****   sdmmc_cmdinit.CmdIndex = SDMMC_CMD_READ_MULT_BLOCK;
 560:Drivers/STM32F4xx_HAL_Driver/Src/stm32f4xx_ll_sdmmc.c ****   sdmmc_cmdinit.Response = SDIO_RESPONSE_SHORT;
 561:Drivers/STM32F4xx_HAL_Driver/Src/stm32f4xx_ll_sdmmc.c ****   sdmmc_cmdinit.WaitForInterrupt = SDIO_WAIT_NO;
 562:Drivers/STM32F4xx_HAL_Driver/Src/stm32f4xx_ll_sdmmc.c ****   sdmmc_cmdinit.CPSM = SDIO_CPSM_ENABLE;
 563:Drivers/STM32F4xx_HAL_Driver/Src/stm32f4xx_ll_sdmmc.c ****   (void)SDIO_SendCommand(SDIOx, &sdmmc_cmdinit);
 564:Drivers/STM32F4xx_HAL_Driver/Src/stm32f4xx_ll_sdmmc.c **** 
 565:Drivers/STM32F4xx_HAL_Driver/Src/stm32f4xx_ll_sdmmc.c ****   /* Check for error conditions */
 566:Drivers/STM32F4xx_HAL_Driver/Src/stm32f4xx_ll_sdmmc.c ****   errorstate = SDMMC_GetCmdResp1(SDIOx, SDMMC_CMD_READ_MULT_BLOCK, SDIO_CMDTIMEOUT);
 567:Drivers/STM32F4xx_HAL_Driver/Src/stm32f4xx_ll_sdmmc.c **** 
 568:Drivers/STM32F4xx_HAL_Driver/Src/stm32f4xx_ll_sdmmc.c ****   return errorstate;
 569:Drivers/STM32F4xx_HAL_Driver/Src/stm32f4xx_ll_sdmmc.c **** }
 570:Drivers/STM32F4xx_HAL_Driver/Src/stm32f4xx_ll_sdmmc.c **** 
 571:Drivers/STM32F4xx_HAL_Driver/Src/stm32f4xx_ll_sdmmc.c **** /**
 572:Drivers/STM32F4xx_HAL_Driver/Src/stm32f4xx_ll_sdmmc.c ****  * @brief  Send the Write Single Block command and check the response
 573:Drivers/STM32F4xx_HAL_Driver/Src/stm32f4xx_ll_sdmmc.c ****  * @param  SDIOx: Pointer to SDIO register base
 574:Drivers/STM32F4xx_HAL_Driver/Src/stm32f4xx_ll_sdmmc.c ****  * @retval HAL status
 575:Drivers/STM32F4xx_HAL_Driver/Src/stm32f4xx_ll_sdmmc.c ****  */
 576:Drivers/STM32F4xx_HAL_Driver/Src/stm32f4xx_ll_sdmmc.c **** uint32_t SDMMC_CmdWriteSingleBlock(SDIO_TypeDef *SDIOx, uint32_t WriteAdd)
 577:Drivers/STM32F4xx_HAL_Driver/Src/stm32f4xx_ll_sdmmc.c **** {
 578:Drivers/STM32F4xx_HAL_Driver/Src/stm32f4xx_ll_sdmmc.c ****   SDIO_CmdInitTypeDef sdmmc_cmdinit;
 579:Drivers/STM32F4xx_HAL_Driver/Src/stm32f4xx_ll_sdmmc.c ****   uint32_t errorstate;
 580:Drivers/STM32F4xx_HAL_Driver/Src/stm32f4xx_ll_sdmmc.c **** 
 581:Drivers/STM32F4xx_HAL_Driver/Src/stm32f4xx_ll_sdmmc.c ****   /* Set Block Size for Card */
 582:Drivers/STM32F4xx_HAL_Driver/Src/stm32f4xx_ll_sdmmc.c ****   sdmmc_cmdinit.Argument = (uint32_t)WriteAdd;
 583:Drivers/STM32F4xx_HAL_Driver/Src/stm32f4xx_ll_sdmmc.c ****   sdmmc_cmdinit.CmdIndex = SDMMC_CMD_WRITE_SINGLE_BLOCK;
 584:Drivers/STM32F4xx_HAL_Driver/Src/stm32f4xx_ll_sdmmc.c ****   sdmmc_cmdinit.Response = SDIO_RESPONSE_SHORT;
 585:Drivers/STM32F4xx_HAL_Driver/Src/stm32f4xx_ll_sdmmc.c ****   sdmmc_cmdinit.WaitForInterrupt = SDIO_WAIT_NO;
 586:Drivers/STM32F4xx_HAL_Driver/Src/stm32f4xx_ll_sdmmc.c ****   sdmmc_cmdinit.CPSM = SDIO_CPSM_ENABLE;
 587:Drivers/STM32F4xx_HAL_Driver/Src/stm32f4xx_ll_sdmmc.c ****   (void)SDIO_SendCommand(SDIOx, &sdmmc_cmdinit);
 588:Drivers/STM32F4xx_HAL_Driver/Src/stm32f4xx_ll_sdmmc.c **** 
 589:Drivers/STM32F4xx_HAL_Driver/Src/stm32f4xx_ll_sdmmc.c ****   /* Check for error conditions */
 590:Drivers/STM32F4xx_HAL_Driver/Src/stm32f4xx_ll_sdmmc.c ****   errorstate = SDMMC_GetCmdResp1(SDIOx, SDMMC_CMD_WRITE_SINGLE_BLOCK, SDIO_CMDTIMEOUT);
 591:Drivers/STM32F4xx_HAL_Driver/Src/stm32f4xx_ll_sdmmc.c **** 
 592:Drivers/STM32F4xx_HAL_Driver/Src/stm32f4xx_ll_sdmmc.c ****   return errorstate;
 593:Drivers/STM32F4xx_HAL_Driver/Src/stm32f4xx_ll_sdmmc.c **** }
 594:Drivers/STM32F4xx_HAL_Driver/Src/stm32f4xx_ll_sdmmc.c **** 
 595:Drivers/STM32F4xx_HAL_Driver/Src/stm32f4xx_ll_sdmmc.c **** /**
 596:Drivers/STM32F4xx_HAL_Driver/Src/stm32f4xx_ll_sdmmc.c ****  * @brief  Send the Write Multi Block command and check the response
 597:Drivers/STM32F4xx_HAL_Driver/Src/stm32f4xx_ll_sdmmc.c ****  * @param  SDIOx: Pointer to SDIO register base
 598:Drivers/STM32F4xx_HAL_Driver/Src/stm32f4xx_ll_sdmmc.c ****  * @retval HAL status
 599:Drivers/STM32F4xx_HAL_Driver/Src/stm32f4xx_ll_sdmmc.c ****  */
 600:Drivers/STM32F4xx_HAL_Driver/Src/stm32f4xx_ll_sdmmc.c **** uint32_t SDMMC_CmdWriteMultiBlock(SDIO_TypeDef *SDIOx, uint32_t WriteAdd)
 601:Drivers/STM32F4xx_HAL_Driver/Src/stm32f4xx_ll_sdmmc.c **** {
 602:Drivers/STM32F4xx_HAL_Driver/Src/stm32f4xx_ll_sdmmc.c ****   SDIO_CmdInitTypeDef sdmmc_cmdinit;
 603:Drivers/STM32F4xx_HAL_Driver/Src/stm32f4xx_ll_sdmmc.c ****   uint32_t errorstate;
ARM GAS  C:\Users\pw705\AppData\Local\Temp\cceieKfF.s 			page 21


 604:Drivers/STM32F4xx_HAL_Driver/Src/stm32f4xx_ll_sdmmc.c **** 
 605:Drivers/STM32F4xx_HAL_Driver/Src/stm32f4xx_ll_sdmmc.c ****   /* Set Block Size for Card */
 606:Drivers/STM32F4xx_HAL_Driver/Src/stm32f4xx_ll_sdmmc.c ****   sdmmc_cmdinit.Argument = (uint32_t)WriteAdd;
 607:Drivers/STM32F4xx_HAL_Driver/Src/stm32f4xx_ll_sdmmc.c ****   sdmmc_cmdinit.CmdIndex = SDMMC_CMD_WRITE_MULT_BLOCK;
 608:Drivers/STM32F4xx_HAL_Driver/Src/stm32f4xx_ll_sdmmc.c ****   sdmmc_cmdinit.Response = SDIO_RESPONSE_SHORT;
 609:Drivers/STM32F4xx_HAL_Driver/Src/stm32f4xx_ll_sdmmc.c ****   sdmmc_cmdinit.WaitForInterrupt = SDIO_WAIT_NO;
 610:Drivers/STM32F4xx_HAL_Driver/Src/stm32f4xx_ll_sdmmc.c ****   sdmmc_cmdinit.CPSM = SDIO_CPSM_ENABLE;
 611:Drivers/STM32F4xx_HAL_Driver/Src/stm32f4xx_ll_sdmmc.c ****   (void)SDIO_SendCommand(SDIOx, &sdmmc_cmdinit);
 612:Drivers/STM32F4xx_HAL_Driver/Src/stm32f4xx_ll_sdmmc.c **** 
 613:Drivers/STM32F4xx_HAL_Driver/Src/stm32f4xx_ll_sdmmc.c ****   /* Check for error conditions */
 614:Drivers/STM32F4xx_HAL_Driver/Src/stm32f4xx_ll_sdmmc.c ****   errorstate = SDMMC_GetCmdResp1(SDIOx, SDMMC_CMD_WRITE_MULT_BLOCK, SDIO_CMDTIMEOUT);
 615:Drivers/STM32F4xx_HAL_Driver/Src/stm32f4xx_ll_sdmmc.c **** 
 616:Drivers/STM32F4xx_HAL_Driver/Src/stm32f4xx_ll_sdmmc.c ****   return errorstate;
 617:Drivers/STM32F4xx_HAL_Driver/Src/stm32f4xx_ll_sdmmc.c **** }
 618:Drivers/STM32F4xx_HAL_Driver/Src/stm32f4xx_ll_sdmmc.c **** 
 619:Drivers/STM32F4xx_HAL_Driver/Src/stm32f4xx_ll_sdmmc.c **** /**
 620:Drivers/STM32F4xx_HAL_Driver/Src/stm32f4xx_ll_sdmmc.c ****  * @brief  Send the Start Address Erase command for SD and check the response
 621:Drivers/STM32F4xx_HAL_Driver/Src/stm32f4xx_ll_sdmmc.c ****  * @param  SDIOx: Pointer to SDIO register base
 622:Drivers/STM32F4xx_HAL_Driver/Src/stm32f4xx_ll_sdmmc.c ****  * @retval HAL status
 623:Drivers/STM32F4xx_HAL_Driver/Src/stm32f4xx_ll_sdmmc.c ****  */
 624:Drivers/STM32F4xx_HAL_Driver/Src/stm32f4xx_ll_sdmmc.c **** uint32_t SDMMC_CmdSDEraseStartAdd(SDIO_TypeDef *SDIOx, uint32_t StartAdd)
 625:Drivers/STM32F4xx_HAL_Driver/Src/stm32f4xx_ll_sdmmc.c **** {
 626:Drivers/STM32F4xx_HAL_Driver/Src/stm32f4xx_ll_sdmmc.c ****   SDIO_CmdInitTypeDef sdmmc_cmdinit;
 627:Drivers/STM32F4xx_HAL_Driver/Src/stm32f4xx_ll_sdmmc.c ****   uint32_t errorstate;
 628:Drivers/STM32F4xx_HAL_Driver/Src/stm32f4xx_ll_sdmmc.c **** 
 629:Drivers/STM32F4xx_HAL_Driver/Src/stm32f4xx_ll_sdmmc.c ****   /* Set Block Size for Card */
 630:Drivers/STM32F4xx_HAL_Driver/Src/stm32f4xx_ll_sdmmc.c ****   sdmmc_cmdinit.Argument = (uint32_t)StartAdd;
 631:Drivers/STM32F4xx_HAL_Driver/Src/stm32f4xx_ll_sdmmc.c ****   sdmmc_cmdinit.CmdIndex = SDMMC_CMD_SD_ERASE_GRP_START;
 632:Drivers/STM32F4xx_HAL_Driver/Src/stm32f4xx_ll_sdmmc.c ****   sdmmc_cmdinit.Response = SDIO_RESPONSE_SHORT;
 633:Drivers/STM32F4xx_HAL_Driver/Src/stm32f4xx_ll_sdmmc.c ****   sdmmc_cmdinit.WaitForInterrupt = SDIO_WAIT_NO;
 634:Drivers/STM32F4xx_HAL_Driver/Src/stm32f4xx_ll_sdmmc.c ****   sdmmc_cmdinit.CPSM = SDIO_CPSM_ENABLE;
 635:Drivers/STM32F4xx_HAL_Driver/Src/stm32f4xx_ll_sdmmc.c ****   (void)SDIO_SendCommand(SDIOx, &sdmmc_cmdinit);
 636:Drivers/STM32F4xx_HAL_Driver/Src/stm32f4xx_ll_sdmmc.c **** 
 637:Drivers/STM32F4xx_HAL_Driver/Src/stm32f4xx_ll_sdmmc.c ****   /* Check for error conditions */
 638:Drivers/STM32F4xx_HAL_Driver/Src/stm32f4xx_ll_sdmmc.c ****   errorstate = SDMMC_GetCmdResp1(SDIOx, SDMMC_CMD_SD_ERASE_GRP_START, SDIO_CMDTIMEOUT);
 639:Drivers/STM32F4xx_HAL_Driver/Src/stm32f4xx_ll_sdmmc.c **** 
 640:Drivers/STM32F4xx_HAL_Driver/Src/stm32f4xx_ll_sdmmc.c ****   return errorstate;
 641:Drivers/STM32F4xx_HAL_Driver/Src/stm32f4xx_ll_sdmmc.c **** }
 642:Drivers/STM32F4xx_HAL_Driver/Src/stm32f4xx_ll_sdmmc.c **** 
 643:Drivers/STM32F4xx_HAL_Driver/Src/stm32f4xx_ll_sdmmc.c **** /**
 644:Drivers/STM32F4xx_HAL_Driver/Src/stm32f4xx_ll_sdmmc.c ****  * @brief  Send the End Address Erase command for SD and check the response
 645:Drivers/STM32F4xx_HAL_Driver/Src/stm32f4xx_ll_sdmmc.c ****  * @param  SDIOx: Pointer to SDIO register base
 646:Drivers/STM32F4xx_HAL_Driver/Src/stm32f4xx_ll_sdmmc.c ****  * @retval HAL status
 647:Drivers/STM32F4xx_HAL_Driver/Src/stm32f4xx_ll_sdmmc.c ****  */
 648:Drivers/STM32F4xx_HAL_Driver/Src/stm32f4xx_ll_sdmmc.c **** uint32_t SDMMC_CmdSDEraseEndAdd(SDIO_TypeDef *SDIOx, uint32_t EndAdd)
 649:Drivers/STM32F4xx_HAL_Driver/Src/stm32f4xx_ll_sdmmc.c **** {
 650:Drivers/STM32F4xx_HAL_Driver/Src/stm32f4xx_ll_sdmmc.c ****   SDIO_CmdInitTypeDef sdmmc_cmdinit;
 651:Drivers/STM32F4xx_HAL_Driver/Src/stm32f4xx_ll_sdmmc.c ****   uint32_t errorstate;
 652:Drivers/STM32F4xx_HAL_Driver/Src/stm32f4xx_ll_sdmmc.c **** 
 653:Drivers/STM32F4xx_HAL_Driver/Src/stm32f4xx_ll_sdmmc.c ****   /* Set Block Size for Card */
 654:Drivers/STM32F4xx_HAL_Driver/Src/stm32f4xx_ll_sdmmc.c ****   sdmmc_cmdinit.Argument = (uint32_t)EndAdd;
 655:Drivers/STM32F4xx_HAL_Driver/Src/stm32f4xx_ll_sdmmc.c ****   sdmmc_cmdinit.CmdIndex = SDMMC_CMD_SD_ERASE_GRP_END;
 656:Drivers/STM32F4xx_HAL_Driver/Src/stm32f4xx_ll_sdmmc.c ****   sdmmc_cmdinit.Response = SDIO_RESPONSE_SHORT;
 657:Drivers/STM32F4xx_HAL_Driver/Src/stm32f4xx_ll_sdmmc.c ****   sdmmc_cmdinit.WaitForInterrupt = SDIO_WAIT_NO;
 658:Drivers/STM32F4xx_HAL_Driver/Src/stm32f4xx_ll_sdmmc.c ****   sdmmc_cmdinit.CPSM = SDIO_CPSM_ENABLE;
 659:Drivers/STM32F4xx_HAL_Driver/Src/stm32f4xx_ll_sdmmc.c ****   (void)SDIO_SendCommand(SDIOx, &sdmmc_cmdinit);
 660:Drivers/STM32F4xx_HAL_Driver/Src/stm32f4xx_ll_sdmmc.c **** 
ARM GAS  C:\Users\pw705\AppData\Local\Temp\cceieKfF.s 			page 22


 661:Drivers/STM32F4xx_HAL_Driver/Src/stm32f4xx_ll_sdmmc.c ****   /* Check for error conditions */
 662:Drivers/STM32F4xx_HAL_Driver/Src/stm32f4xx_ll_sdmmc.c ****   errorstate = SDMMC_GetCmdResp1(SDIOx, SDMMC_CMD_SD_ERASE_GRP_END, SDIO_CMDTIMEOUT);
 663:Drivers/STM32F4xx_HAL_Driver/Src/stm32f4xx_ll_sdmmc.c **** 
 664:Drivers/STM32F4xx_HAL_Driver/Src/stm32f4xx_ll_sdmmc.c ****   return errorstate;
 665:Drivers/STM32F4xx_HAL_Driver/Src/stm32f4xx_ll_sdmmc.c **** }
 666:Drivers/STM32F4xx_HAL_Driver/Src/stm32f4xx_ll_sdmmc.c **** 
 667:Drivers/STM32F4xx_HAL_Driver/Src/stm32f4xx_ll_sdmmc.c **** /**
 668:Drivers/STM32F4xx_HAL_Driver/Src/stm32f4xx_ll_sdmmc.c ****  * @brief  Send the Start Address Erase command and check the response
 669:Drivers/STM32F4xx_HAL_Driver/Src/stm32f4xx_ll_sdmmc.c ****  * @param  SDIOx: Pointer to SDIO register base
 670:Drivers/STM32F4xx_HAL_Driver/Src/stm32f4xx_ll_sdmmc.c ****  * @retval HAL status
 671:Drivers/STM32F4xx_HAL_Driver/Src/stm32f4xx_ll_sdmmc.c ****  */
 672:Drivers/STM32F4xx_HAL_Driver/Src/stm32f4xx_ll_sdmmc.c **** uint32_t SDMMC_CmdEraseStartAdd(SDIO_TypeDef *SDIOx, uint32_t StartAdd)
 673:Drivers/STM32F4xx_HAL_Driver/Src/stm32f4xx_ll_sdmmc.c **** {
 674:Drivers/STM32F4xx_HAL_Driver/Src/stm32f4xx_ll_sdmmc.c ****   SDIO_CmdInitTypeDef sdmmc_cmdinit;
 675:Drivers/STM32F4xx_HAL_Driver/Src/stm32f4xx_ll_sdmmc.c ****   uint32_t errorstate;
 676:Drivers/STM32F4xx_HAL_Driver/Src/stm32f4xx_ll_sdmmc.c **** 
 677:Drivers/STM32F4xx_HAL_Driver/Src/stm32f4xx_ll_sdmmc.c ****   /* Set Block Size for Card */
 678:Drivers/STM32F4xx_HAL_Driver/Src/stm32f4xx_ll_sdmmc.c ****   sdmmc_cmdinit.Argument = (uint32_t)StartAdd;
 679:Drivers/STM32F4xx_HAL_Driver/Src/stm32f4xx_ll_sdmmc.c ****   sdmmc_cmdinit.CmdIndex = SDMMC_CMD_ERASE_GRP_START;
 680:Drivers/STM32F4xx_HAL_Driver/Src/stm32f4xx_ll_sdmmc.c ****   sdmmc_cmdinit.Response = SDIO_RESPONSE_SHORT;
 681:Drivers/STM32F4xx_HAL_Driver/Src/stm32f4xx_ll_sdmmc.c ****   sdmmc_cmdinit.WaitForInterrupt = SDIO_WAIT_NO;
 682:Drivers/STM32F4xx_HAL_Driver/Src/stm32f4xx_ll_sdmmc.c ****   sdmmc_cmdinit.CPSM = SDIO_CPSM_ENABLE;
 683:Drivers/STM32F4xx_HAL_Driver/Src/stm32f4xx_ll_sdmmc.c ****   (void)SDIO_SendCommand(SDIOx, &sdmmc_cmdinit);
 684:Drivers/STM32F4xx_HAL_Driver/Src/stm32f4xx_ll_sdmmc.c **** 
 685:Drivers/STM32F4xx_HAL_Driver/Src/stm32f4xx_ll_sdmmc.c ****   /* Check for error conditions */
 686:Drivers/STM32F4xx_HAL_Driver/Src/stm32f4xx_ll_sdmmc.c ****   errorstate = SDMMC_GetCmdResp1(SDIOx, SDMMC_CMD_ERASE_GRP_START, SDIO_CMDTIMEOUT);
 687:Drivers/STM32F4xx_HAL_Driver/Src/stm32f4xx_ll_sdmmc.c **** 
 688:Drivers/STM32F4xx_HAL_Driver/Src/stm32f4xx_ll_sdmmc.c ****   return errorstate;
 689:Drivers/STM32F4xx_HAL_Driver/Src/stm32f4xx_ll_sdmmc.c **** }
 690:Drivers/STM32F4xx_HAL_Driver/Src/stm32f4xx_ll_sdmmc.c **** 
 691:Drivers/STM32F4xx_HAL_Driver/Src/stm32f4xx_ll_sdmmc.c **** /**
 692:Drivers/STM32F4xx_HAL_Driver/Src/stm32f4xx_ll_sdmmc.c ****  * @brief  Send the End Address Erase command and check the response
 693:Drivers/STM32F4xx_HAL_Driver/Src/stm32f4xx_ll_sdmmc.c ****  * @param  SDIOx: Pointer to SDIO register base
 694:Drivers/STM32F4xx_HAL_Driver/Src/stm32f4xx_ll_sdmmc.c ****  * @retval HAL status
 695:Drivers/STM32F4xx_HAL_Driver/Src/stm32f4xx_ll_sdmmc.c ****  */
 696:Drivers/STM32F4xx_HAL_Driver/Src/stm32f4xx_ll_sdmmc.c **** uint32_t SDMMC_CmdEraseEndAdd(SDIO_TypeDef *SDIOx, uint32_t EndAdd)
 697:Drivers/STM32F4xx_HAL_Driver/Src/stm32f4xx_ll_sdmmc.c **** {
 698:Drivers/STM32F4xx_HAL_Driver/Src/stm32f4xx_ll_sdmmc.c ****   SDIO_CmdInitTypeDef sdmmc_cmdinit;
 699:Drivers/STM32F4xx_HAL_Driver/Src/stm32f4xx_ll_sdmmc.c ****   uint32_t errorstate;
 700:Drivers/STM32F4xx_HAL_Driver/Src/stm32f4xx_ll_sdmmc.c **** 
 701:Drivers/STM32F4xx_HAL_Driver/Src/stm32f4xx_ll_sdmmc.c ****   /* Set Block Size for Card */
 702:Drivers/STM32F4xx_HAL_Driver/Src/stm32f4xx_ll_sdmmc.c ****   sdmmc_cmdinit.Argument = (uint32_t)EndAdd;
 703:Drivers/STM32F4xx_HAL_Driver/Src/stm32f4xx_ll_sdmmc.c ****   sdmmc_cmdinit.CmdIndex = SDMMC_CMD_ERASE_GRP_END;
 704:Drivers/STM32F4xx_HAL_Driver/Src/stm32f4xx_ll_sdmmc.c ****   sdmmc_cmdinit.Response = SDIO_RESPONSE_SHORT;
 705:Drivers/STM32F4xx_HAL_Driver/Src/stm32f4xx_ll_sdmmc.c ****   sdmmc_cmdinit.WaitForInterrupt = SDIO_WAIT_NO;
 706:Drivers/STM32F4xx_HAL_Driver/Src/stm32f4xx_ll_sdmmc.c ****   sdmmc_cmdinit.CPSM = SDIO_CPSM_ENABLE;
 707:Drivers/STM32F4xx_HAL_Driver/Src/stm32f4xx_ll_sdmmc.c ****   (void)SDIO_SendCommand(SDIOx, &sdmmc_cmdinit);
 708:Drivers/STM32F4xx_HAL_Driver/Src/stm32f4xx_ll_sdmmc.c **** 
 709:Drivers/STM32F4xx_HAL_Driver/Src/stm32f4xx_ll_sdmmc.c ****   /* Check for error conditions */
 710:Drivers/STM32F4xx_HAL_Driver/Src/stm32f4xx_ll_sdmmc.c ****   errorstate = SDMMC_GetCmdResp1(SDIOx, SDMMC_CMD_ERASE_GRP_END, SDIO_CMDTIMEOUT);
 711:Drivers/STM32F4xx_HAL_Driver/Src/stm32f4xx_ll_sdmmc.c **** 
 712:Drivers/STM32F4xx_HAL_Driver/Src/stm32f4xx_ll_sdmmc.c ****   return errorstate;
 713:Drivers/STM32F4xx_HAL_Driver/Src/stm32f4xx_ll_sdmmc.c **** }
 714:Drivers/STM32F4xx_HAL_Driver/Src/stm32f4xx_ll_sdmmc.c **** 
 715:Drivers/STM32F4xx_HAL_Driver/Src/stm32f4xx_ll_sdmmc.c **** /**
 716:Drivers/STM32F4xx_HAL_Driver/Src/stm32f4xx_ll_sdmmc.c ****  * @brief  Send the Erase command and check the response
 717:Drivers/STM32F4xx_HAL_Driver/Src/stm32f4xx_ll_sdmmc.c ****  * @param  SDIOx: Pointer to SDIO register base
ARM GAS  C:\Users\pw705\AppData\Local\Temp\cceieKfF.s 			page 23


 718:Drivers/STM32F4xx_HAL_Driver/Src/stm32f4xx_ll_sdmmc.c ****  * @retval HAL status
 719:Drivers/STM32F4xx_HAL_Driver/Src/stm32f4xx_ll_sdmmc.c ****  */
 720:Drivers/STM32F4xx_HAL_Driver/Src/stm32f4xx_ll_sdmmc.c **** uint32_t SDMMC_CmdErase(SDIO_TypeDef *SDIOx)
 721:Drivers/STM32F4xx_HAL_Driver/Src/stm32f4xx_ll_sdmmc.c **** {
 722:Drivers/STM32F4xx_HAL_Driver/Src/stm32f4xx_ll_sdmmc.c ****   SDIO_CmdInitTypeDef sdmmc_cmdinit;
 723:Drivers/STM32F4xx_HAL_Driver/Src/stm32f4xx_ll_sdmmc.c ****   uint32_t errorstate;
 724:Drivers/STM32F4xx_HAL_Driver/Src/stm32f4xx_ll_sdmmc.c **** 
 725:Drivers/STM32F4xx_HAL_Driver/Src/stm32f4xx_ll_sdmmc.c ****   /* Set Block Size for Card */
 726:Drivers/STM32F4xx_HAL_Driver/Src/stm32f4xx_ll_sdmmc.c ****   sdmmc_cmdinit.Argument = 0U;
 727:Drivers/STM32F4xx_HAL_Driver/Src/stm32f4xx_ll_sdmmc.c ****   sdmmc_cmdinit.CmdIndex = SDMMC_CMD_ERASE;
 728:Drivers/STM32F4xx_HAL_Driver/Src/stm32f4xx_ll_sdmmc.c ****   sdmmc_cmdinit.Response = SDIO_RESPONSE_SHORT;
 729:Drivers/STM32F4xx_HAL_Driver/Src/stm32f4xx_ll_sdmmc.c ****   sdmmc_cmdinit.WaitForInterrupt = SDIO_WAIT_NO;
 730:Drivers/STM32F4xx_HAL_Driver/Src/stm32f4xx_ll_sdmmc.c ****   sdmmc_cmdinit.CPSM = SDIO_CPSM_ENABLE;
 731:Drivers/STM32F4xx_HAL_Driver/Src/stm32f4xx_ll_sdmmc.c ****   (void)SDIO_SendCommand(SDIOx, &sdmmc_cmdinit);
 732:Drivers/STM32F4xx_HAL_Driver/Src/stm32f4xx_ll_sdmmc.c **** 
 733:Drivers/STM32F4xx_HAL_Driver/Src/stm32f4xx_ll_sdmmc.c ****   /* Check for error conditions */
 734:Drivers/STM32F4xx_HAL_Driver/Src/stm32f4xx_ll_sdmmc.c ****   errorstate = SDMMC_GetCmdResp1(SDIOx, SDMMC_CMD_ERASE, SDIO_MAXERASETIMEOUT);
 735:Drivers/STM32F4xx_HAL_Driver/Src/stm32f4xx_ll_sdmmc.c **** 
 736:Drivers/STM32F4xx_HAL_Driver/Src/stm32f4xx_ll_sdmmc.c ****   return errorstate;
 737:Drivers/STM32F4xx_HAL_Driver/Src/stm32f4xx_ll_sdmmc.c **** }
 738:Drivers/STM32F4xx_HAL_Driver/Src/stm32f4xx_ll_sdmmc.c **** 
 739:Drivers/STM32F4xx_HAL_Driver/Src/stm32f4xx_ll_sdmmc.c **** /**
 740:Drivers/STM32F4xx_HAL_Driver/Src/stm32f4xx_ll_sdmmc.c ****  * @brief  Send the Stop Transfer command and check the response.
 741:Drivers/STM32F4xx_HAL_Driver/Src/stm32f4xx_ll_sdmmc.c ****  * @param  SDIOx: Pointer to SDIO register base
 742:Drivers/STM32F4xx_HAL_Driver/Src/stm32f4xx_ll_sdmmc.c ****  * @retval HAL status
 743:Drivers/STM32F4xx_HAL_Driver/Src/stm32f4xx_ll_sdmmc.c ****  */
 744:Drivers/STM32F4xx_HAL_Driver/Src/stm32f4xx_ll_sdmmc.c **** uint32_t SDMMC_CmdStopTransfer(SDIO_TypeDef *SDIOx)
 745:Drivers/STM32F4xx_HAL_Driver/Src/stm32f4xx_ll_sdmmc.c **** {
 746:Drivers/STM32F4xx_HAL_Driver/Src/stm32f4xx_ll_sdmmc.c ****   SDIO_CmdInitTypeDef sdmmc_cmdinit;
 747:Drivers/STM32F4xx_HAL_Driver/Src/stm32f4xx_ll_sdmmc.c ****   uint32_t errorstate;
 748:Drivers/STM32F4xx_HAL_Driver/Src/stm32f4xx_ll_sdmmc.c **** 
 749:Drivers/STM32F4xx_HAL_Driver/Src/stm32f4xx_ll_sdmmc.c ****   /* Send CMD12 STOP_TRANSMISSION  */
 750:Drivers/STM32F4xx_HAL_Driver/Src/stm32f4xx_ll_sdmmc.c ****   sdmmc_cmdinit.Argument = 0U;
 751:Drivers/STM32F4xx_HAL_Driver/Src/stm32f4xx_ll_sdmmc.c ****   sdmmc_cmdinit.CmdIndex = SDMMC_CMD_STOP_TRANSMISSION;
 752:Drivers/STM32F4xx_HAL_Driver/Src/stm32f4xx_ll_sdmmc.c ****   sdmmc_cmdinit.Response = SDIO_RESPONSE_SHORT;
 753:Drivers/STM32F4xx_HAL_Driver/Src/stm32f4xx_ll_sdmmc.c ****   sdmmc_cmdinit.WaitForInterrupt = SDIO_WAIT_NO;
 754:Drivers/STM32F4xx_HAL_Driver/Src/stm32f4xx_ll_sdmmc.c ****   sdmmc_cmdinit.CPSM = SDIO_CPSM_ENABLE;
 755:Drivers/STM32F4xx_HAL_Driver/Src/stm32f4xx_ll_sdmmc.c ****   (void)SDIO_SendCommand(SDIOx, &sdmmc_cmdinit);
 756:Drivers/STM32F4xx_HAL_Driver/Src/stm32f4xx_ll_sdmmc.c **** 
 757:Drivers/STM32F4xx_HAL_Driver/Src/stm32f4xx_ll_sdmmc.c ****   /* Check for error conditions */
 758:Drivers/STM32F4xx_HAL_Driver/Src/stm32f4xx_ll_sdmmc.c ****   errorstate = SDMMC_GetCmdResp1(SDIOx, SDMMC_CMD_STOP_TRANSMISSION, SDIO_STOPTRANSFERTIMEOUT);
 759:Drivers/STM32F4xx_HAL_Driver/Src/stm32f4xx_ll_sdmmc.c **** 
 760:Drivers/STM32F4xx_HAL_Driver/Src/stm32f4xx_ll_sdmmc.c ****   return errorstate;
 761:Drivers/STM32F4xx_HAL_Driver/Src/stm32f4xx_ll_sdmmc.c **** }
 762:Drivers/STM32F4xx_HAL_Driver/Src/stm32f4xx_ll_sdmmc.c **** 
 763:Drivers/STM32F4xx_HAL_Driver/Src/stm32f4xx_ll_sdmmc.c **** /**
 764:Drivers/STM32F4xx_HAL_Driver/Src/stm32f4xx_ll_sdmmc.c ****  * @brief  Send the Select Deselect command and check the response.
 765:Drivers/STM32F4xx_HAL_Driver/Src/stm32f4xx_ll_sdmmc.c ****  * @param  SDIOx: Pointer to SDIO register base
 766:Drivers/STM32F4xx_HAL_Driver/Src/stm32f4xx_ll_sdmmc.c ****  * @param  addr: Address of the card to be selected
 767:Drivers/STM32F4xx_HAL_Driver/Src/stm32f4xx_ll_sdmmc.c ****  * @retval HAL status
 768:Drivers/STM32F4xx_HAL_Driver/Src/stm32f4xx_ll_sdmmc.c ****  */
 769:Drivers/STM32F4xx_HAL_Driver/Src/stm32f4xx_ll_sdmmc.c **** uint32_t SDMMC_CmdSelDesel(SDIO_TypeDef *SDIOx, uint64_t Addr)
 770:Drivers/STM32F4xx_HAL_Driver/Src/stm32f4xx_ll_sdmmc.c **** {
 771:Drivers/STM32F4xx_HAL_Driver/Src/stm32f4xx_ll_sdmmc.c ****   SDIO_CmdInitTypeDef sdmmc_cmdinit;
 772:Drivers/STM32F4xx_HAL_Driver/Src/stm32f4xx_ll_sdmmc.c ****   uint32_t errorstate;
 773:Drivers/STM32F4xx_HAL_Driver/Src/stm32f4xx_ll_sdmmc.c **** 
 774:Drivers/STM32F4xx_HAL_Driver/Src/stm32f4xx_ll_sdmmc.c ****   /* Send CMD7 SDMMC_SEL_DESEL_CARD */
ARM GAS  C:\Users\pw705\AppData\Local\Temp\cceieKfF.s 			page 24


 775:Drivers/STM32F4xx_HAL_Driver/Src/stm32f4xx_ll_sdmmc.c ****   sdmmc_cmdinit.Argument = (uint32_t)Addr;
 776:Drivers/STM32F4xx_HAL_Driver/Src/stm32f4xx_ll_sdmmc.c ****   sdmmc_cmdinit.CmdIndex = SDMMC_CMD_SEL_DESEL_CARD;
 777:Drivers/STM32F4xx_HAL_Driver/Src/stm32f4xx_ll_sdmmc.c ****   sdmmc_cmdinit.Response = SDIO_RESPONSE_SHORT;
 778:Drivers/STM32F4xx_HAL_Driver/Src/stm32f4xx_ll_sdmmc.c ****   sdmmc_cmdinit.WaitForInterrupt = SDIO_WAIT_NO;
 779:Drivers/STM32F4xx_HAL_Driver/Src/stm32f4xx_ll_sdmmc.c ****   sdmmc_cmdinit.CPSM = SDIO_CPSM_ENABLE;
 780:Drivers/STM32F4xx_HAL_Driver/Src/stm32f4xx_ll_sdmmc.c ****   (void)SDIO_SendCommand(SDIOx, &sdmmc_cmdinit);
 781:Drivers/STM32F4xx_HAL_Driver/Src/stm32f4xx_ll_sdmmc.c **** 
 782:Drivers/STM32F4xx_HAL_Driver/Src/stm32f4xx_ll_sdmmc.c ****   /* Check for error conditions */
 783:Drivers/STM32F4xx_HAL_Driver/Src/stm32f4xx_ll_sdmmc.c ****   errorstate = SDMMC_GetCmdResp1(SDIOx, SDMMC_CMD_SEL_DESEL_CARD, SDIO_CMDTIMEOUT);
 784:Drivers/STM32F4xx_HAL_Driver/Src/stm32f4xx_ll_sdmmc.c **** 
 785:Drivers/STM32F4xx_HAL_Driver/Src/stm32f4xx_ll_sdmmc.c ****   return errorstate;
 786:Drivers/STM32F4xx_HAL_Driver/Src/stm32f4xx_ll_sdmmc.c **** }
 787:Drivers/STM32F4xx_HAL_Driver/Src/stm32f4xx_ll_sdmmc.c **** 
 788:Drivers/STM32F4xx_HAL_Driver/Src/stm32f4xx_ll_sdmmc.c **** /**
 789:Drivers/STM32F4xx_HAL_Driver/Src/stm32f4xx_ll_sdmmc.c ****  * @brief  Send the Go Idle State command and check the response.
 790:Drivers/STM32F4xx_HAL_Driver/Src/stm32f4xx_ll_sdmmc.c ****  * @param  SDIOx: Pointer to SDIO register base
 791:Drivers/STM32F4xx_HAL_Driver/Src/stm32f4xx_ll_sdmmc.c ****  * @retval HAL status
 792:Drivers/STM32F4xx_HAL_Driver/Src/stm32f4xx_ll_sdmmc.c ****  */
 793:Drivers/STM32F4xx_HAL_Driver/Src/stm32f4xx_ll_sdmmc.c **** uint32_t SDMMC_CmdGoIdleState(SDIO_TypeDef *SDIOx)
 794:Drivers/STM32F4xx_HAL_Driver/Src/stm32f4xx_ll_sdmmc.c **** {
 795:Drivers/STM32F4xx_HAL_Driver/Src/stm32f4xx_ll_sdmmc.c ****   SDIO_CmdInitTypeDef sdmmc_cmdinit;
 796:Drivers/STM32F4xx_HAL_Driver/Src/stm32f4xx_ll_sdmmc.c ****   uint32_t errorstate;
 797:Drivers/STM32F4xx_HAL_Driver/Src/stm32f4xx_ll_sdmmc.c **** 
 798:Drivers/STM32F4xx_HAL_Driver/Src/stm32f4xx_ll_sdmmc.c ****   sdmmc_cmdinit.Argument = 0U;
 799:Drivers/STM32F4xx_HAL_Driver/Src/stm32f4xx_ll_sdmmc.c ****   sdmmc_cmdinit.CmdIndex = SDMMC_CMD_GO_IDLE_STATE;
 800:Drivers/STM32F4xx_HAL_Driver/Src/stm32f4xx_ll_sdmmc.c ****   sdmmc_cmdinit.Response = SDIO_RESPONSE_NO;
 801:Drivers/STM32F4xx_HAL_Driver/Src/stm32f4xx_ll_sdmmc.c ****   sdmmc_cmdinit.WaitForInterrupt = SDIO_WAIT_NO;
 802:Drivers/STM32F4xx_HAL_Driver/Src/stm32f4xx_ll_sdmmc.c ****   sdmmc_cmdinit.CPSM = SDIO_CPSM_ENABLE;
 803:Drivers/STM32F4xx_HAL_Driver/Src/stm32f4xx_ll_sdmmc.c ****   (void)SDIO_SendCommand(SDIOx, &sdmmc_cmdinit);
 804:Drivers/STM32F4xx_HAL_Driver/Src/stm32f4xx_ll_sdmmc.c **** 
 805:Drivers/STM32F4xx_HAL_Driver/Src/stm32f4xx_ll_sdmmc.c ****   /* Check for error conditions */
 806:Drivers/STM32F4xx_HAL_Driver/Src/stm32f4xx_ll_sdmmc.c ****   errorstate = SDMMC_GetCmdError(SDIOx);
 807:Drivers/STM32F4xx_HAL_Driver/Src/stm32f4xx_ll_sdmmc.c **** 
 808:Drivers/STM32F4xx_HAL_Driver/Src/stm32f4xx_ll_sdmmc.c ****   return errorstate;
 809:Drivers/STM32F4xx_HAL_Driver/Src/stm32f4xx_ll_sdmmc.c **** }
 810:Drivers/STM32F4xx_HAL_Driver/Src/stm32f4xx_ll_sdmmc.c **** 
 811:Drivers/STM32F4xx_HAL_Driver/Src/stm32f4xx_ll_sdmmc.c **** /**
 812:Drivers/STM32F4xx_HAL_Driver/Src/stm32f4xx_ll_sdmmc.c ****  * @brief  Send the Operating Condition command and check the response.
 813:Drivers/STM32F4xx_HAL_Driver/Src/stm32f4xx_ll_sdmmc.c ****  * @param  SDIOx: Pointer to SDIO register base
 814:Drivers/STM32F4xx_HAL_Driver/Src/stm32f4xx_ll_sdmmc.c ****  * @retval HAL status
 815:Drivers/STM32F4xx_HAL_Driver/Src/stm32f4xx_ll_sdmmc.c ****  */
 816:Drivers/STM32F4xx_HAL_Driver/Src/stm32f4xx_ll_sdmmc.c **** uint32_t SDMMC_CmdOperCond(SDIO_TypeDef *SDIOx)
 817:Drivers/STM32F4xx_HAL_Driver/Src/stm32f4xx_ll_sdmmc.c **** {
 818:Drivers/STM32F4xx_HAL_Driver/Src/stm32f4xx_ll_sdmmc.c ****   SDIO_CmdInitTypeDef sdmmc_cmdinit;
 819:Drivers/STM32F4xx_HAL_Driver/Src/stm32f4xx_ll_sdmmc.c ****   uint32_t errorstate;
 820:Drivers/STM32F4xx_HAL_Driver/Src/stm32f4xx_ll_sdmmc.c **** 
 821:Drivers/STM32F4xx_HAL_Driver/Src/stm32f4xx_ll_sdmmc.c ****   /* Send CMD8 to verify SD card interface operating condition */
 822:Drivers/STM32F4xx_HAL_Driver/Src/stm32f4xx_ll_sdmmc.c ****   /* Argument: - [31:12]: Reserved (shall be set to '0')
 823:Drivers/STM32F4xx_HAL_Driver/Src/stm32f4xx_ll_sdmmc.c ****   - [11:8]: Supply Voltage (VHS) 0x1 (Range: 2.7-3.6 V)
 824:Drivers/STM32F4xx_HAL_Driver/Src/stm32f4xx_ll_sdmmc.c ****   - [7:0]: Check Pattern (recommended 0xAA) */
 825:Drivers/STM32F4xx_HAL_Driver/Src/stm32f4xx_ll_sdmmc.c ****   /* CMD Response: R7 */
 826:Drivers/STM32F4xx_HAL_Driver/Src/stm32f4xx_ll_sdmmc.c ****   sdmmc_cmdinit.Argument = SDMMC_CHECK_PATTERN;
 827:Drivers/STM32F4xx_HAL_Driver/Src/stm32f4xx_ll_sdmmc.c ****   sdmmc_cmdinit.CmdIndex = SDMMC_CMD_HS_SEND_EXT_CSD;
 828:Drivers/STM32F4xx_HAL_Driver/Src/stm32f4xx_ll_sdmmc.c ****   sdmmc_cmdinit.Response = SDIO_RESPONSE_SHORT;
 829:Drivers/STM32F4xx_HAL_Driver/Src/stm32f4xx_ll_sdmmc.c ****   sdmmc_cmdinit.WaitForInterrupt = SDIO_WAIT_NO;
 830:Drivers/STM32F4xx_HAL_Driver/Src/stm32f4xx_ll_sdmmc.c ****   sdmmc_cmdinit.CPSM = SDIO_CPSM_ENABLE;
 831:Drivers/STM32F4xx_HAL_Driver/Src/stm32f4xx_ll_sdmmc.c ****   (void)SDIO_SendCommand(SDIOx, &sdmmc_cmdinit);
ARM GAS  C:\Users\pw705\AppData\Local\Temp\cceieKfF.s 			page 25


 832:Drivers/STM32F4xx_HAL_Driver/Src/stm32f4xx_ll_sdmmc.c **** 
 833:Drivers/STM32F4xx_HAL_Driver/Src/stm32f4xx_ll_sdmmc.c ****   /* Check for error conditions */
 834:Drivers/STM32F4xx_HAL_Driver/Src/stm32f4xx_ll_sdmmc.c ****   errorstate = SDMMC_GetCmdResp7(SDIOx);
 835:Drivers/STM32F4xx_HAL_Driver/Src/stm32f4xx_ll_sdmmc.c **** 
 836:Drivers/STM32F4xx_HAL_Driver/Src/stm32f4xx_ll_sdmmc.c ****   return errorstate;
 837:Drivers/STM32F4xx_HAL_Driver/Src/stm32f4xx_ll_sdmmc.c **** }
 838:Drivers/STM32F4xx_HAL_Driver/Src/stm32f4xx_ll_sdmmc.c **** 
 839:Drivers/STM32F4xx_HAL_Driver/Src/stm32f4xx_ll_sdmmc.c **** /**
 840:Drivers/STM32F4xx_HAL_Driver/Src/stm32f4xx_ll_sdmmc.c ****  * @brief  Send the Application command to verify that that the next command
 841:Drivers/STM32F4xx_HAL_Driver/Src/stm32f4xx_ll_sdmmc.c ****  *         is an application specific com-mand rather than a standard command
 842:Drivers/STM32F4xx_HAL_Driver/Src/stm32f4xx_ll_sdmmc.c ****  *         and check the response.
 843:Drivers/STM32F4xx_HAL_Driver/Src/stm32f4xx_ll_sdmmc.c ****  * @param  SDIOx: Pointer to SDIO register base
 844:Drivers/STM32F4xx_HAL_Driver/Src/stm32f4xx_ll_sdmmc.c ****  * @param  Argument: Command Argument
 845:Drivers/STM32F4xx_HAL_Driver/Src/stm32f4xx_ll_sdmmc.c ****  * @retval HAL status
 846:Drivers/STM32F4xx_HAL_Driver/Src/stm32f4xx_ll_sdmmc.c ****  */
 847:Drivers/STM32F4xx_HAL_Driver/Src/stm32f4xx_ll_sdmmc.c **** uint32_t SDMMC_CmdAppCommand(SDIO_TypeDef *SDIOx, uint32_t Argument)
 848:Drivers/STM32F4xx_HAL_Driver/Src/stm32f4xx_ll_sdmmc.c **** {
 849:Drivers/STM32F4xx_HAL_Driver/Src/stm32f4xx_ll_sdmmc.c ****   SDIO_CmdInitTypeDef sdmmc_cmdinit;
 850:Drivers/STM32F4xx_HAL_Driver/Src/stm32f4xx_ll_sdmmc.c ****   uint32_t errorstate;
 851:Drivers/STM32F4xx_HAL_Driver/Src/stm32f4xx_ll_sdmmc.c **** 
 852:Drivers/STM32F4xx_HAL_Driver/Src/stm32f4xx_ll_sdmmc.c ****   sdmmc_cmdinit.Argument = (uint32_t)Argument;
 853:Drivers/STM32F4xx_HAL_Driver/Src/stm32f4xx_ll_sdmmc.c ****   sdmmc_cmdinit.CmdIndex = SDMMC_CMD_APP_CMD;
 854:Drivers/STM32F4xx_HAL_Driver/Src/stm32f4xx_ll_sdmmc.c ****   sdmmc_cmdinit.Response = SDIO_RESPONSE_SHORT;
 855:Drivers/STM32F4xx_HAL_Driver/Src/stm32f4xx_ll_sdmmc.c ****   sdmmc_cmdinit.WaitForInterrupt = SDIO_WAIT_NO;
 856:Drivers/STM32F4xx_HAL_Driver/Src/stm32f4xx_ll_sdmmc.c ****   sdmmc_cmdinit.CPSM = SDIO_CPSM_ENABLE;
 857:Drivers/STM32F4xx_HAL_Driver/Src/stm32f4xx_ll_sdmmc.c ****   (void)SDIO_SendCommand(SDIOx, &sdmmc_cmdinit);
 858:Drivers/STM32F4xx_HAL_Driver/Src/stm32f4xx_ll_sdmmc.c **** 
 859:Drivers/STM32F4xx_HAL_Driver/Src/stm32f4xx_ll_sdmmc.c ****   /* Check for error conditions */
 860:Drivers/STM32F4xx_HAL_Driver/Src/stm32f4xx_ll_sdmmc.c ****   /* If there is a HAL_ERROR, it is a MMC card, else
 861:Drivers/STM32F4xx_HAL_Driver/Src/stm32f4xx_ll_sdmmc.c ****   it is a SD card: SD card 2.0 (voltage range mismatch)
 862:Drivers/STM32F4xx_HAL_Driver/Src/stm32f4xx_ll_sdmmc.c ****      or SD card 1.x */
 863:Drivers/STM32F4xx_HAL_Driver/Src/stm32f4xx_ll_sdmmc.c ****   errorstate = SDMMC_GetCmdResp1(SDIOx, SDMMC_CMD_APP_CMD, SDIO_CMDTIMEOUT);
 864:Drivers/STM32F4xx_HAL_Driver/Src/stm32f4xx_ll_sdmmc.c **** 
 865:Drivers/STM32F4xx_HAL_Driver/Src/stm32f4xx_ll_sdmmc.c ****   return errorstate;
 866:Drivers/STM32F4xx_HAL_Driver/Src/stm32f4xx_ll_sdmmc.c **** }
 867:Drivers/STM32F4xx_HAL_Driver/Src/stm32f4xx_ll_sdmmc.c **** 
 868:Drivers/STM32F4xx_HAL_Driver/Src/stm32f4xx_ll_sdmmc.c **** /**
 869:Drivers/STM32F4xx_HAL_Driver/Src/stm32f4xx_ll_sdmmc.c ****  * @brief  Send the command asking the accessed card to send its operating
 870:Drivers/STM32F4xx_HAL_Driver/Src/stm32f4xx_ll_sdmmc.c ****  *         condition register (OCR)
 871:Drivers/STM32F4xx_HAL_Driver/Src/stm32f4xx_ll_sdmmc.c ****  * @param  SDIOx: Pointer to SDIO register base
 872:Drivers/STM32F4xx_HAL_Driver/Src/stm32f4xx_ll_sdmmc.c ****  * @param  Argument: Command Argument
 873:Drivers/STM32F4xx_HAL_Driver/Src/stm32f4xx_ll_sdmmc.c ****  * @retval HAL status
 874:Drivers/STM32F4xx_HAL_Driver/Src/stm32f4xx_ll_sdmmc.c ****  */
 875:Drivers/STM32F4xx_HAL_Driver/Src/stm32f4xx_ll_sdmmc.c **** uint32_t SDMMC_CmdAppOperCommand(SDIO_TypeDef *SDIOx, uint32_t Argument)
 876:Drivers/STM32F4xx_HAL_Driver/Src/stm32f4xx_ll_sdmmc.c **** {
 877:Drivers/STM32F4xx_HAL_Driver/Src/stm32f4xx_ll_sdmmc.c ****   SDIO_CmdInitTypeDef sdmmc_cmdinit;
 878:Drivers/STM32F4xx_HAL_Driver/Src/stm32f4xx_ll_sdmmc.c ****   uint32_t errorstate;
 879:Drivers/STM32F4xx_HAL_Driver/Src/stm32f4xx_ll_sdmmc.c **** 
 880:Drivers/STM32F4xx_HAL_Driver/Src/stm32f4xx_ll_sdmmc.c ****   sdmmc_cmdinit.Argument = SDMMC_VOLTAGE_WINDOW_SD | Argument;
 881:Drivers/STM32F4xx_HAL_Driver/Src/stm32f4xx_ll_sdmmc.c ****   sdmmc_cmdinit.CmdIndex = SDMMC_CMD_SD_APP_OP_COND;
 882:Drivers/STM32F4xx_HAL_Driver/Src/stm32f4xx_ll_sdmmc.c ****   sdmmc_cmdinit.Response = SDIO_RESPONSE_SHORT;
 883:Drivers/STM32F4xx_HAL_Driver/Src/stm32f4xx_ll_sdmmc.c ****   sdmmc_cmdinit.WaitForInterrupt = SDIO_WAIT_NO;
 884:Drivers/STM32F4xx_HAL_Driver/Src/stm32f4xx_ll_sdmmc.c ****   sdmmc_cmdinit.CPSM = SDIO_CPSM_ENABLE;
 885:Drivers/STM32F4xx_HAL_Driver/Src/stm32f4xx_ll_sdmmc.c ****   (void)SDIO_SendCommand(SDIOx, &sdmmc_cmdinit);
 886:Drivers/STM32F4xx_HAL_Driver/Src/stm32f4xx_ll_sdmmc.c **** 
 887:Drivers/STM32F4xx_HAL_Driver/Src/stm32f4xx_ll_sdmmc.c ****   /* Check for error conditions */
 888:Drivers/STM32F4xx_HAL_Driver/Src/stm32f4xx_ll_sdmmc.c ****   errorstate = SDMMC_GetCmdResp3(SDIOx);
ARM GAS  C:\Users\pw705\AppData\Local\Temp\cceieKfF.s 			page 26


 889:Drivers/STM32F4xx_HAL_Driver/Src/stm32f4xx_ll_sdmmc.c **** 
 890:Drivers/STM32F4xx_HAL_Driver/Src/stm32f4xx_ll_sdmmc.c ****   return errorstate;
 891:Drivers/STM32F4xx_HAL_Driver/Src/stm32f4xx_ll_sdmmc.c **** }
 892:Drivers/STM32F4xx_HAL_Driver/Src/stm32f4xx_ll_sdmmc.c **** 
 893:Drivers/STM32F4xx_HAL_Driver/Src/stm32f4xx_ll_sdmmc.c **** /**
 894:Drivers/STM32F4xx_HAL_Driver/Src/stm32f4xx_ll_sdmmc.c ****  * @brief  Send the Bus Width command and check the response.
 895:Drivers/STM32F4xx_HAL_Driver/Src/stm32f4xx_ll_sdmmc.c ****  * @param  SDIOx: Pointer to SDIO register base
 896:Drivers/STM32F4xx_HAL_Driver/Src/stm32f4xx_ll_sdmmc.c ****  * @param  BusWidth: BusWidth
 897:Drivers/STM32F4xx_HAL_Driver/Src/stm32f4xx_ll_sdmmc.c ****  * @retval HAL status
 898:Drivers/STM32F4xx_HAL_Driver/Src/stm32f4xx_ll_sdmmc.c ****  */
 899:Drivers/STM32F4xx_HAL_Driver/Src/stm32f4xx_ll_sdmmc.c **** uint32_t SDMMC_CmdBusWidth(SDIO_TypeDef *SDIOx, uint32_t BusWidth)
 900:Drivers/STM32F4xx_HAL_Driver/Src/stm32f4xx_ll_sdmmc.c **** {
 901:Drivers/STM32F4xx_HAL_Driver/Src/stm32f4xx_ll_sdmmc.c ****   SDIO_CmdInitTypeDef sdmmc_cmdinit;
 902:Drivers/STM32F4xx_HAL_Driver/Src/stm32f4xx_ll_sdmmc.c ****   uint32_t errorstate;
 903:Drivers/STM32F4xx_HAL_Driver/Src/stm32f4xx_ll_sdmmc.c **** 
 904:Drivers/STM32F4xx_HAL_Driver/Src/stm32f4xx_ll_sdmmc.c ****   sdmmc_cmdinit.Argument = (uint32_t)BusWidth;
 905:Drivers/STM32F4xx_HAL_Driver/Src/stm32f4xx_ll_sdmmc.c ****   sdmmc_cmdinit.CmdIndex = SDMMC_CMD_APP_SD_SET_BUSWIDTH;
 906:Drivers/STM32F4xx_HAL_Driver/Src/stm32f4xx_ll_sdmmc.c ****   sdmmc_cmdinit.Response = SDIO_RESPONSE_SHORT;
 907:Drivers/STM32F4xx_HAL_Driver/Src/stm32f4xx_ll_sdmmc.c ****   sdmmc_cmdinit.WaitForInterrupt = SDIO_WAIT_NO;
 908:Drivers/STM32F4xx_HAL_Driver/Src/stm32f4xx_ll_sdmmc.c ****   sdmmc_cmdinit.CPSM = SDIO_CPSM_ENABLE;
 909:Drivers/STM32F4xx_HAL_Driver/Src/stm32f4xx_ll_sdmmc.c ****   (void)SDIO_SendCommand(SDIOx, &sdmmc_cmdinit);
 910:Drivers/STM32F4xx_HAL_Driver/Src/stm32f4xx_ll_sdmmc.c **** 
 911:Drivers/STM32F4xx_HAL_Driver/Src/stm32f4xx_ll_sdmmc.c ****   /* Check for error conditions */
 912:Drivers/STM32F4xx_HAL_Driver/Src/stm32f4xx_ll_sdmmc.c ****   errorstate = SDMMC_GetCmdResp1(SDIOx, SDMMC_CMD_APP_SD_SET_BUSWIDTH, SDIO_CMDTIMEOUT);
 913:Drivers/STM32F4xx_HAL_Driver/Src/stm32f4xx_ll_sdmmc.c **** 
 914:Drivers/STM32F4xx_HAL_Driver/Src/stm32f4xx_ll_sdmmc.c ****   return errorstate;
 915:Drivers/STM32F4xx_HAL_Driver/Src/stm32f4xx_ll_sdmmc.c **** }
 916:Drivers/STM32F4xx_HAL_Driver/Src/stm32f4xx_ll_sdmmc.c **** 
 917:Drivers/STM32F4xx_HAL_Driver/Src/stm32f4xx_ll_sdmmc.c **** /**
 918:Drivers/STM32F4xx_HAL_Driver/Src/stm32f4xx_ll_sdmmc.c ****  * @brief  Send the Send SCR command and check the response.
 919:Drivers/STM32F4xx_HAL_Driver/Src/stm32f4xx_ll_sdmmc.c ****  * @param  SDIOx: Pointer to SDIO register base
 920:Drivers/STM32F4xx_HAL_Driver/Src/stm32f4xx_ll_sdmmc.c ****  * @retval HAL status
 921:Drivers/STM32F4xx_HAL_Driver/Src/stm32f4xx_ll_sdmmc.c ****  */
 922:Drivers/STM32F4xx_HAL_Driver/Src/stm32f4xx_ll_sdmmc.c **** uint32_t SDMMC_CmdSendSCR(SDIO_TypeDef *SDIOx)
 923:Drivers/STM32F4xx_HAL_Driver/Src/stm32f4xx_ll_sdmmc.c **** {
 924:Drivers/STM32F4xx_HAL_Driver/Src/stm32f4xx_ll_sdmmc.c ****   SDIO_CmdInitTypeDef sdmmc_cmdinit;
 925:Drivers/STM32F4xx_HAL_Driver/Src/stm32f4xx_ll_sdmmc.c ****   uint32_t errorstate;
 926:Drivers/STM32F4xx_HAL_Driver/Src/stm32f4xx_ll_sdmmc.c **** 
 927:Drivers/STM32F4xx_HAL_Driver/Src/stm32f4xx_ll_sdmmc.c ****   /* Send CMD51 SD_APP_SEND_SCR */
 928:Drivers/STM32F4xx_HAL_Driver/Src/stm32f4xx_ll_sdmmc.c ****   sdmmc_cmdinit.Argument = 0U;
 929:Drivers/STM32F4xx_HAL_Driver/Src/stm32f4xx_ll_sdmmc.c ****   sdmmc_cmdinit.CmdIndex = SDMMC_CMD_SD_APP_SEND_SCR;
 930:Drivers/STM32F4xx_HAL_Driver/Src/stm32f4xx_ll_sdmmc.c ****   sdmmc_cmdinit.Response = SDIO_RESPONSE_SHORT;
 931:Drivers/STM32F4xx_HAL_Driver/Src/stm32f4xx_ll_sdmmc.c ****   sdmmc_cmdinit.WaitForInterrupt = SDIO_WAIT_NO;
 932:Drivers/STM32F4xx_HAL_Driver/Src/stm32f4xx_ll_sdmmc.c ****   sdmmc_cmdinit.CPSM = SDIO_CPSM_ENABLE;
 933:Drivers/STM32F4xx_HAL_Driver/Src/stm32f4xx_ll_sdmmc.c ****   (void)SDIO_SendCommand(SDIOx, &sdmmc_cmdinit);
 934:Drivers/STM32F4xx_HAL_Driver/Src/stm32f4xx_ll_sdmmc.c **** 
 935:Drivers/STM32F4xx_HAL_Driver/Src/stm32f4xx_ll_sdmmc.c ****   /* Check for error conditions */
 936:Drivers/STM32F4xx_HAL_Driver/Src/stm32f4xx_ll_sdmmc.c ****   errorstate = SDMMC_GetCmdResp1(SDIOx, SDMMC_CMD_SD_APP_SEND_SCR, SDIO_CMDTIMEOUT);
 937:Drivers/STM32F4xx_HAL_Driver/Src/stm32f4xx_ll_sdmmc.c **** 
 938:Drivers/STM32F4xx_HAL_Driver/Src/stm32f4xx_ll_sdmmc.c ****   return errorstate;
 939:Drivers/STM32F4xx_HAL_Driver/Src/stm32f4xx_ll_sdmmc.c **** }
 940:Drivers/STM32F4xx_HAL_Driver/Src/stm32f4xx_ll_sdmmc.c **** 
 941:Drivers/STM32F4xx_HAL_Driver/Src/stm32f4xx_ll_sdmmc.c **** /**
 942:Drivers/STM32F4xx_HAL_Driver/Src/stm32f4xx_ll_sdmmc.c ****  * @brief  Send the Send CID command and check the response.
 943:Drivers/STM32F4xx_HAL_Driver/Src/stm32f4xx_ll_sdmmc.c ****  * @param  SDIOx: Pointer to SDIO register base
 944:Drivers/STM32F4xx_HAL_Driver/Src/stm32f4xx_ll_sdmmc.c ****  * @retval HAL status
 945:Drivers/STM32F4xx_HAL_Driver/Src/stm32f4xx_ll_sdmmc.c ****  */
ARM GAS  C:\Users\pw705\AppData\Local\Temp\cceieKfF.s 			page 27


 946:Drivers/STM32F4xx_HAL_Driver/Src/stm32f4xx_ll_sdmmc.c **** uint32_t SDMMC_CmdSendCID(SDIO_TypeDef *SDIOx)
 947:Drivers/STM32F4xx_HAL_Driver/Src/stm32f4xx_ll_sdmmc.c **** {
 948:Drivers/STM32F4xx_HAL_Driver/Src/stm32f4xx_ll_sdmmc.c ****   SDIO_CmdInitTypeDef sdmmc_cmdinit;
 949:Drivers/STM32F4xx_HAL_Driver/Src/stm32f4xx_ll_sdmmc.c ****   uint32_t errorstate;
 950:Drivers/STM32F4xx_HAL_Driver/Src/stm32f4xx_ll_sdmmc.c **** 
 951:Drivers/STM32F4xx_HAL_Driver/Src/stm32f4xx_ll_sdmmc.c ****   /* Send CMD2 ALL_SEND_CID */
 952:Drivers/STM32F4xx_HAL_Driver/Src/stm32f4xx_ll_sdmmc.c ****   sdmmc_cmdinit.Argument = 0U;
 953:Drivers/STM32F4xx_HAL_Driver/Src/stm32f4xx_ll_sdmmc.c ****   sdmmc_cmdinit.CmdIndex = SDMMC_CMD_ALL_SEND_CID;
 954:Drivers/STM32F4xx_HAL_Driver/Src/stm32f4xx_ll_sdmmc.c ****   sdmmc_cmdinit.Response = SDIO_RESPONSE_LONG;
 955:Drivers/STM32F4xx_HAL_Driver/Src/stm32f4xx_ll_sdmmc.c ****   sdmmc_cmdinit.WaitForInterrupt = SDIO_WAIT_NO;
 956:Drivers/STM32F4xx_HAL_Driver/Src/stm32f4xx_ll_sdmmc.c ****   sdmmc_cmdinit.CPSM = SDIO_CPSM_ENABLE;
 957:Drivers/STM32F4xx_HAL_Driver/Src/stm32f4xx_ll_sdmmc.c ****   (void)SDIO_SendCommand(SDIOx, &sdmmc_cmdinit);
 958:Drivers/STM32F4xx_HAL_Driver/Src/stm32f4xx_ll_sdmmc.c **** 
 959:Drivers/STM32F4xx_HAL_Driver/Src/stm32f4xx_ll_sdmmc.c ****   /* Check for error conditions */
 960:Drivers/STM32F4xx_HAL_Driver/Src/stm32f4xx_ll_sdmmc.c ****   errorstate = SDMMC_GetCmdResp2(SDIOx);
 961:Drivers/STM32F4xx_HAL_Driver/Src/stm32f4xx_ll_sdmmc.c **** 
 962:Drivers/STM32F4xx_HAL_Driver/Src/stm32f4xx_ll_sdmmc.c ****   return errorstate;
 963:Drivers/STM32F4xx_HAL_Driver/Src/stm32f4xx_ll_sdmmc.c **** }
 964:Drivers/STM32F4xx_HAL_Driver/Src/stm32f4xx_ll_sdmmc.c **** 
 965:Drivers/STM32F4xx_HAL_Driver/Src/stm32f4xx_ll_sdmmc.c **** /**
 966:Drivers/STM32F4xx_HAL_Driver/Src/stm32f4xx_ll_sdmmc.c ****  * @brief  Send the Send CSD command and check the response.
 967:Drivers/STM32F4xx_HAL_Driver/Src/stm32f4xx_ll_sdmmc.c ****  * @param  SDIOx: Pointer to SDIO register base
 968:Drivers/STM32F4xx_HAL_Driver/Src/stm32f4xx_ll_sdmmc.c ****  * @param  Argument: Command Argument
 969:Drivers/STM32F4xx_HAL_Driver/Src/stm32f4xx_ll_sdmmc.c ****  * @retval HAL status
 970:Drivers/STM32F4xx_HAL_Driver/Src/stm32f4xx_ll_sdmmc.c ****  */
 971:Drivers/STM32F4xx_HAL_Driver/Src/stm32f4xx_ll_sdmmc.c **** uint32_t SDMMC_CmdSendCSD(SDIO_TypeDef *SDIOx, uint32_t Argument)
 972:Drivers/STM32F4xx_HAL_Driver/Src/stm32f4xx_ll_sdmmc.c **** {
 973:Drivers/STM32F4xx_HAL_Driver/Src/stm32f4xx_ll_sdmmc.c ****   SDIO_CmdInitTypeDef sdmmc_cmdinit;
 974:Drivers/STM32F4xx_HAL_Driver/Src/stm32f4xx_ll_sdmmc.c ****   uint32_t errorstate;
 975:Drivers/STM32F4xx_HAL_Driver/Src/stm32f4xx_ll_sdmmc.c **** 
 976:Drivers/STM32F4xx_HAL_Driver/Src/stm32f4xx_ll_sdmmc.c ****   /* Send CMD9 SEND_CSD */
 977:Drivers/STM32F4xx_HAL_Driver/Src/stm32f4xx_ll_sdmmc.c ****   sdmmc_cmdinit.Argument = Argument;
 978:Drivers/STM32F4xx_HAL_Driver/Src/stm32f4xx_ll_sdmmc.c ****   sdmmc_cmdinit.CmdIndex = SDMMC_CMD_SEND_CSD;
 979:Drivers/STM32F4xx_HAL_Driver/Src/stm32f4xx_ll_sdmmc.c ****   sdmmc_cmdinit.Response = SDIO_RESPONSE_LONG;
 980:Drivers/STM32F4xx_HAL_Driver/Src/stm32f4xx_ll_sdmmc.c ****   sdmmc_cmdinit.WaitForInterrupt = SDIO_WAIT_NO;
 981:Drivers/STM32F4xx_HAL_Driver/Src/stm32f4xx_ll_sdmmc.c ****   sdmmc_cmdinit.CPSM = SDIO_CPSM_ENABLE;
 982:Drivers/STM32F4xx_HAL_Driver/Src/stm32f4xx_ll_sdmmc.c ****   (void)SDIO_SendCommand(SDIOx, &sdmmc_cmdinit);
 983:Drivers/STM32F4xx_HAL_Driver/Src/stm32f4xx_ll_sdmmc.c **** 
 984:Drivers/STM32F4xx_HAL_Driver/Src/stm32f4xx_ll_sdmmc.c ****   /* Check for error conditions */
 985:Drivers/STM32F4xx_HAL_Driver/Src/stm32f4xx_ll_sdmmc.c ****   errorstate = SDMMC_GetCmdResp2(SDIOx);
 986:Drivers/STM32F4xx_HAL_Driver/Src/stm32f4xx_ll_sdmmc.c **** 
 987:Drivers/STM32F4xx_HAL_Driver/Src/stm32f4xx_ll_sdmmc.c ****   return errorstate;
 988:Drivers/STM32F4xx_HAL_Driver/Src/stm32f4xx_ll_sdmmc.c **** }
 989:Drivers/STM32F4xx_HAL_Driver/Src/stm32f4xx_ll_sdmmc.c **** 
 990:Drivers/STM32F4xx_HAL_Driver/Src/stm32f4xx_ll_sdmmc.c **** /**
 991:Drivers/STM32F4xx_HAL_Driver/Src/stm32f4xx_ll_sdmmc.c ****  * @brief  Send the Send CSD command and check the response.
 992:Drivers/STM32F4xx_HAL_Driver/Src/stm32f4xx_ll_sdmmc.c ****  * @param  SDIOx: Pointer to SDIO register base
 993:Drivers/STM32F4xx_HAL_Driver/Src/stm32f4xx_ll_sdmmc.c ****  * @param  pRCA: Card RCA
 994:Drivers/STM32F4xx_HAL_Driver/Src/stm32f4xx_ll_sdmmc.c ****  * @retval HAL status
 995:Drivers/STM32F4xx_HAL_Driver/Src/stm32f4xx_ll_sdmmc.c ****  */
 996:Drivers/STM32F4xx_HAL_Driver/Src/stm32f4xx_ll_sdmmc.c **** uint32_t SDMMC_CmdSetRelAdd(SDIO_TypeDef *SDIOx, uint16_t *pRCA)
 997:Drivers/STM32F4xx_HAL_Driver/Src/stm32f4xx_ll_sdmmc.c **** {
 998:Drivers/STM32F4xx_HAL_Driver/Src/stm32f4xx_ll_sdmmc.c ****   SDIO_CmdInitTypeDef sdmmc_cmdinit;
 999:Drivers/STM32F4xx_HAL_Driver/Src/stm32f4xx_ll_sdmmc.c ****   uint32_t errorstate;
1000:Drivers/STM32F4xx_HAL_Driver/Src/stm32f4xx_ll_sdmmc.c **** 
1001:Drivers/STM32F4xx_HAL_Driver/Src/stm32f4xx_ll_sdmmc.c ****   /* Send CMD3 SD_CMD_SET_REL_ADDR */
1002:Drivers/STM32F4xx_HAL_Driver/Src/stm32f4xx_ll_sdmmc.c ****   sdmmc_cmdinit.Argument = 0U;
ARM GAS  C:\Users\pw705\AppData\Local\Temp\cceieKfF.s 			page 28


1003:Drivers/STM32F4xx_HAL_Driver/Src/stm32f4xx_ll_sdmmc.c ****   sdmmc_cmdinit.CmdIndex = SDMMC_CMD_SET_REL_ADDR;
1004:Drivers/STM32F4xx_HAL_Driver/Src/stm32f4xx_ll_sdmmc.c ****   sdmmc_cmdinit.Response = SDIO_RESPONSE_SHORT;
1005:Drivers/STM32F4xx_HAL_Driver/Src/stm32f4xx_ll_sdmmc.c ****   sdmmc_cmdinit.WaitForInterrupt = SDIO_WAIT_NO;
1006:Drivers/STM32F4xx_HAL_Driver/Src/stm32f4xx_ll_sdmmc.c ****   sdmmc_cmdinit.CPSM = SDIO_CPSM_ENABLE;
1007:Drivers/STM32F4xx_HAL_Driver/Src/stm32f4xx_ll_sdmmc.c ****   (void)SDIO_SendCommand(SDIOx, &sdmmc_cmdinit);
1008:Drivers/STM32F4xx_HAL_Driver/Src/stm32f4xx_ll_sdmmc.c **** 
1009:Drivers/STM32F4xx_HAL_Driver/Src/stm32f4xx_ll_sdmmc.c ****   /* Check for error conditions */
1010:Drivers/STM32F4xx_HAL_Driver/Src/stm32f4xx_ll_sdmmc.c ****   errorstate = SDMMC_GetCmdResp6(SDIOx, SDMMC_CMD_SET_REL_ADDR, pRCA);
1011:Drivers/STM32F4xx_HAL_Driver/Src/stm32f4xx_ll_sdmmc.c **** 
1012:Drivers/STM32F4xx_HAL_Driver/Src/stm32f4xx_ll_sdmmc.c ****   return errorstate;
1013:Drivers/STM32F4xx_HAL_Driver/Src/stm32f4xx_ll_sdmmc.c **** }
1014:Drivers/STM32F4xx_HAL_Driver/Src/stm32f4xx_ll_sdmmc.c **** 
1015:Drivers/STM32F4xx_HAL_Driver/Src/stm32f4xx_ll_sdmmc.c **** /**
1016:Drivers/STM32F4xx_HAL_Driver/Src/stm32f4xx_ll_sdmmc.c ****  * @brief  Send the Set Relative Address command to MMC card (not SD card).
1017:Drivers/STM32F4xx_HAL_Driver/Src/stm32f4xx_ll_sdmmc.c ****  * @param  SDIOx Pointer to SDIO register base
1018:Drivers/STM32F4xx_HAL_Driver/Src/stm32f4xx_ll_sdmmc.c ****  * @param  RCA Card RCA
1019:Drivers/STM32F4xx_HAL_Driver/Src/stm32f4xx_ll_sdmmc.c ****  * @retval HAL status
1020:Drivers/STM32F4xx_HAL_Driver/Src/stm32f4xx_ll_sdmmc.c ****  */
1021:Drivers/STM32F4xx_HAL_Driver/Src/stm32f4xx_ll_sdmmc.c **** uint32_t SDMMC_CmdSetRelAddMmc(SDIO_TypeDef *SDIOx, uint16_t RCA)
1022:Drivers/STM32F4xx_HAL_Driver/Src/stm32f4xx_ll_sdmmc.c **** {
1023:Drivers/STM32F4xx_HAL_Driver/Src/stm32f4xx_ll_sdmmc.c ****   SDIO_CmdInitTypeDef sdmmc_cmdinit;
1024:Drivers/STM32F4xx_HAL_Driver/Src/stm32f4xx_ll_sdmmc.c ****   uint32_t errorstate;
1025:Drivers/STM32F4xx_HAL_Driver/Src/stm32f4xx_ll_sdmmc.c **** 
1026:Drivers/STM32F4xx_HAL_Driver/Src/stm32f4xx_ll_sdmmc.c ****   /* Send CMD3 SD_CMD_SET_REL_ADDR */
1027:Drivers/STM32F4xx_HAL_Driver/Src/stm32f4xx_ll_sdmmc.c ****   sdmmc_cmdinit.Argument = ((uint32_t)RCA << 16U);
1028:Drivers/STM32F4xx_HAL_Driver/Src/stm32f4xx_ll_sdmmc.c ****   sdmmc_cmdinit.CmdIndex = SDMMC_CMD_SET_REL_ADDR;
1029:Drivers/STM32F4xx_HAL_Driver/Src/stm32f4xx_ll_sdmmc.c ****   sdmmc_cmdinit.Response = SDIO_RESPONSE_SHORT;
1030:Drivers/STM32F4xx_HAL_Driver/Src/stm32f4xx_ll_sdmmc.c ****   sdmmc_cmdinit.WaitForInterrupt = SDIO_WAIT_NO;
1031:Drivers/STM32F4xx_HAL_Driver/Src/stm32f4xx_ll_sdmmc.c ****   sdmmc_cmdinit.CPSM = SDIO_CPSM_ENABLE;
1032:Drivers/STM32F4xx_HAL_Driver/Src/stm32f4xx_ll_sdmmc.c ****   (void)SDIO_SendCommand(SDIOx, &sdmmc_cmdinit);
1033:Drivers/STM32F4xx_HAL_Driver/Src/stm32f4xx_ll_sdmmc.c **** 
1034:Drivers/STM32F4xx_HAL_Driver/Src/stm32f4xx_ll_sdmmc.c ****   /* Check for error conditions */
1035:Drivers/STM32F4xx_HAL_Driver/Src/stm32f4xx_ll_sdmmc.c ****   errorstate = SDMMC_GetCmdResp1(SDIOx, SDMMC_CMD_SET_REL_ADDR, SDIO_CMDTIMEOUT);
1036:Drivers/STM32F4xx_HAL_Driver/Src/stm32f4xx_ll_sdmmc.c **** 
1037:Drivers/STM32F4xx_HAL_Driver/Src/stm32f4xx_ll_sdmmc.c ****   return errorstate;
1038:Drivers/STM32F4xx_HAL_Driver/Src/stm32f4xx_ll_sdmmc.c **** }
1039:Drivers/STM32F4xx_HAL_Driver/Src/stm32f4xx_ll_sdmmc.c **** 
1040:Drivers/STM32F4xx_HAL_Driver/Src/stm32f4xx_ll_sdmmc.c **** /**
1041:Drivers/STM32F4xx_HAL_Driver/Src/stm32f4xx_ll_sdmmc.c ****  * @brief  Send the Status command and check the response.
1042:Drivers/STM32F4xx_HAL_Driver/Src/stm32f4xx_ll_sdmmc.c ****  * @param  SDIOx: Pointer to SDIO register base
1043:Drivers/STM32F4xx_HAL_Driver/Src/stm32f4xx_ll_sdmmc.c ****  * @param  Argument: Command Argument
1044:Drivers/STM32F4xx_HAL_Driver/Src/stm32f4xx_ll_sdmmc.c ****  * @retval HAL status
1045:Drivers/STM32F4xx_HAL_Driver/Src/stm32f4xx_ll_sdmmc.c ****  */
1046:Drivers/STM32F4xx_HAL_Driver/Src/stm32f4xx_ll_sdmmc.c **** uint32_t SDMMC_CmdSendStatus(SDIO_TypeDef *SDIOx, uint32_t Argument)
1047:Drivers/STM32F4xx_HAL_Driver/Src/stm32f4xx_ll_sdmmc.c **** {
1048:Drivers/STM32F4xx_HAL_Driver/Src/stm32f4xx_ll_sdmmc.c ****   SDIO_CmdInitTypeDef sdmmc_cmdinit;
1049:Drivers/STM32F4xx_HAL_Driver/Src/stm32f4xx_ll_sdmmc.c ****   uint32_t errorstate;
1050:Drivers/STM32F4xx_HAL_Driver/Src/stm32f4xx_ll_sdmmc.c **** 
1051:Drivers/STM32F4xx_HAL_Driver/Src/stm32f4xx_ll_sdmmc.c ****   sdmmc_cmdinit.Argument = Argument;
1052:Drivers/STM32F4xx_HAL_Driver/Src/stm32f4xx_ll_sdmmc.c ****   sdmmc_cmdinit.CmdIndex = SDMMC_CMD_SEND_STATUS;
1053:Drivers/STM32F4xx_HAL_Driver/Src/stm32f4xx_ll_sdmmc.c ****   sdmmc_cmdinit.Response = SDIO_RESPONSE_SHORT;
1054:Drivers/STM32F4xx_HAL_Driver/Src/stm32f4xx_ll_sdmmc.c ****   sdmmc_cmdinit.WaitForInterrupt = SDIO_WAIT_NO;
1055:Drivers/STM32F4xx_HAL_Driver/Src/stm32f4xx_ll_sdmmc.c ****   sdmmc_cmdinit.CPSM = SDIO_CPSM_ENABLE;
1056:Drivers/STM32F4xx_HAL_Driver/Src/stm32f4xx_ll_sdmmc.c ****   (void)SDIO_SendCommand(SDIOx, &sdmmc_cmdinit);
1057:Drivers/STM32F4xx_HAL_Driver/Src/stm32f4xx_ll_sdmmc.c **** 
1058:Drivers/STM32F4xx_HAL_Driver/Src/stm32f4xx_ll_sdmmc.c ****   /* Check for error conditions */
1059:Drivers/STM32F4xx_HAL_Driver/Src/stm32f4xx_ll_sdmmc.c ****   errorstate = SDMMC_GetCmdResp1(SDIOx, SDMMC_CMD_SEND_STATUS, SDIO_CMDTIMEOUT);
ARM GAS  C:\Users\pw705\AppData\Local\Temp\cceieKfF.s 			page 29


1060:Drivers/STM32F4xx_HAL_Driver/Src/stm32f4xx_ll_sdmmc.c **** 
1061:Drivers/STM32F4xx_HAL_Driver/Src/stm32f4xx_ll_sdmmc.c ****   return errorstate;
1062:Drivers/STM32F4xx_HAL_Driver/Src/stm32f4xx_ll_sdmmc.c **** }
1063:Drivers/STM32F4xx_HAL_Driver/Src/stm32f4xx_ll_sdmmc.c **** 
1064:Drivers/STM32F4xx_HAL_Driver/Src/stm32f4xx_ll_sdmmc.c **** /**
1065:Drivers/STM32F4xx_HAL_Driver/Src/stm32f4xx_ll_sdmmc.c ****  * @brief  Send the Status register command and check the response.
1066:Drivers/STM32F4xx_HAL_Driver/Src/stm32f4xx_ll_sdmmc.c ****  * @param  SDIOx: Pointer to SDIO register base
1067:Drivers/STM32F4xx_HAL_Driver/Src/stm32f4xx_ll_sdmmc.c ****  * @retval HAL status
1068:Drivers/STM32F4xx_HAL_Driver/Src/stm32f4xx_ll_sdmmc.c ****  */
1069:Drivers/STM32F4xx_HAL_Driver/Src/stm32f4xx_ll_sdmmc.c **** uint32_t SDMMC_CmdStatusRegister(SDIO_TypeDef *SDIOx)
1070:Drivers/STM32F4xx_HAL_Driver/Src/stm32f4xx_ll_sdmmc.c **** {
1071:Drivers/STM32F4xx_HAL_Driver/Src/stm32f4xx_ll_sdmmc.c ****   SDIO_CmdInitTypeDef sdmmc_cmdinit;
1072:Drivers/STM32F4xx_HAL_Driver/Src/stm32f4xx_ll_sdmmc.c ****   uint32_t errorstate;
1073:Drivers/STM32F4xx_HAL_Driver/Src/stm32f4xx_ll_sdmmc.c **** 
1074:Drivers/STM32F4xx_HAL_Driver/Src/stm32f4xx_ll_sdmmc.c ****   sdmmc_cmdinit.Argument = 0U;
1075:Drivers/STM32F4xx_HAL_Driver/Src/stm32f4xx_ll_sdmmc.c ****   sdmmc_cmdinit.CmdIndex = SDMMC_CMD_SD_APP_STATUS;
1076:Drivers/STM32F4xx_HAL_Driver/Src/stm32f4xx_ll_sdmmc.c ****   sdmmc_cmdinit.Response = SDIO_RESPONSE_SHORT;
1077:Drivers/STM32F4xx_HAL_Driver/Src/stm32f4xx_ll_sdmmc.c ****   sdmmc_cmdinit.WaitForInterrupt = SDIO_WAIT_NO;
1078:Drivers/STM32F4xx_HAL_Driver/Src/stm32f4xx_ll_sdmmc.c ****   sdmmc_cmdinit.CPSM = SDIO_CPSM_ENABLE;
1079:Drivers/STM32F4xx_HAL_Driver/Src/stm32f4xx_ll_sdmmc.c ****   (void)SDIO_SendCommand(SDIOx, &sdmmc_cmdinit);
1080:Drivers/STM32F4xx_HAL_Driver/Src/stm32f4xx_ll_sdmmc.c **** 
1081:Drivers/STM32F4xx_HAL_Driver/Src/stm32f4xx_ll_sdmmc.c ****   /* Check for error conditions */
1082:Drivers/STM32F4xx_HAL_Driver/Src/stm32f4xx_ll_sdmmc.c ****   errorstate = SDMMC_GetCmdResp1(SDIOx, SDMMC_CMD_SD_APP_STATUS, SDIO_CMDTIMEOUT);
1083:Drivers/STM32F4xx_HAL_Driver/Src/stm32f4xx_ll_sdmmc.c **** 
1084:Drivers/STM32F4xx_HAL_Driver/Src/stm32f4xx_ll_sdmmc.c ****   return errorstate;
1085:Drivers/STM32F4xx_HAL_Driver/Src/stm32f4xx_ll_sdmmc.c **** }
1086:Drivers/STM32F4xx_HAL_Driver/Src/stm32f4xx_ll_sdmmc.c **** 
1087:Drivers/STM32F4xx_HAL_Driver/Src/stm32f4xx_ll_sdmmc.c **** /**
1088:Drivers/STM32F4xx_HAL_Driver/Src/stm32f4xx_ll_sdmmc.c ****  * @brief  Sends host capacity support information and activates the card's
1089:Drivers/STM32F4xx_HAL_Driver/Src/stm32f4xx_ll_sdmmc.c ****  *         initialization process. Send SDMMC_CMD_SEND_OP_COND command
1090:Drivers/STM32F4xx_HAL_Driver/Src/stm32f4xx_ll_sdmmc.c ****  * @param  SDIOx: Pointer to SDIO register base
1091:Drivers/STM32F4xx_HAL_Driver/Src/stm32f4xx_ll_sdmmc.c ****  * @parame Argument: Argument used for the command
1092:Drivers/STM32F4xx_HAL_Driver/Src/stm32f4xx_ll_sdmmc.c ****  * @retval HAL status
1093:Drivers/STM32F4xx_HAL_Driver/Src/stm32f4xx_ll_sdmmc.c ****  */
1094:Drivers/STM32F4xx_HAL_Driver/Src/stm32f4xx_ll_sdmmc.c **** uint32_t SDMMC_CmdOpCondition(SDIO_TypeDef *SDIOx, uint32_t Argument)
1095:Drivers/STM32F4xx_HAL_Driver/Src/stm32f4xx_ll_sdmmc.c **** {
1096:Drivers/STM32F4xx_HAL_Driver/Src/stm32f4xx_ll_sdmmc.c ****   SDIO_CmdInitTypeDef sdmmc_cmdinit;
1097:Drivers/STM32F4xx_HAL_Driver/Src/stm32f4xx_ll_sdmmc.c ****   uint32_t errorstate;
1098:Drivers/STM32F4xx_HAL_Driver/Src/stm32f4xx_ll_sdmmc.c **** 
1099:Drivers/STM32F4xx_HAL_Driver/Src/stm32f4xx_ll_sdmmc.c ****   sdmmc_cmdinit.Argument = Argument;
1100:Drivers/STM32F4xx_HAL_Driver/Src/stm32f4xx_ll_sdmmc.c ****   sdmmc_cmdinit.CmdIndex = SDMMC_CMD_SEND_OP_COND;
1101:Drivers/STM32F4xx_HAL_Driver/Src/stm32f4xx_ll_sdmmc.c ****   sdmmc_cmdinit.Response = SDIO_RESPONSE_SHORT;
1102:Drivers/STM32F4xx_HAL_Driver/Src/stm32f4xx_ll_sdmmc.c ****   sdmmc_cmdinit.WaitForInterrupt = SDIO_WAIT_NO;
1103:Drivers/STM32F4xx_HAL_Driver/Src/stm32f4xx_ll_sdmmc.c ****   sdmmc_cmdinit.CPSM = SDIO_CPSM_ENABLE;
1104:Drivers/STM32F4xx_HAL_Driver/Src/stm32f4xx_ll_sdmmc.c ****   (void)SDIO_SendCommand(SDIOx, &sdmmc_cmdinit);
1105:Drivers/STM32F4xx_HAL_Driver/Src/stm32f4xx_ll_sdmmc.c **** 
1106:Drivers/STM32F4xx_HAL_Driver/Src/stm32f4xx_ll_sdmmc.c ****   /* Check for error conditions */
1107:Drivers/STM32F4xx_HAL_Driver/Src/stm32f4xx_ll_sdmmc.c ****   errorstate = SDMMC_GetCmdResp3(SDIOx);
1108:Drivers/STM32F4xx_HAL_Driver/Src/stm32f4xx_ll_sdmmc.c **** 
1109:Drivers/STM32F4xx_HAL_Driver/Src/stm32f4xx_ll_sdmmc.c ****   return errorstate;
1110:Drivers/STM32F4xx_HAL_Driver/Src/stm32f4xx_ll_sdmmc.c **** }
1111:Drivers/STM32F4xx_HAL_Driver/Src/stm32f4xx_ll_sdmmc.c **** 
1112:Drivers/STM32F4xx_HAL_Driver/Src/stm32f4xx_ll_sdmmc.c **** /**
1113:Drivers/STM32F4xx_HAL_Driver/Src/stm32f4xx_ll_sdmmc.c ****  * @brief  Checks switchable function and switch card function. SDMMC_CMD_HS_SWITCH command
1114:Drivers/STM32F4xx_HAL_Driver/Src/stm32f4xx_ll_sdmmc.c ****  * @param  SDIOx: Pointer to SDIO register base
1115:Drivers/STM32F4xx_HAL_Driver/Src/stm32f4xx_ll_sdmmc.c ****  * @parame Argument: Argument used for the command
1116:Drivers/STM32F4xx_HAL_Driver/Src/stm32f4xx_ll_sdmmc.c ****  * @retval HAL status
ARM GAS  C:\Users\pw705\AppData\Local\Temp\cceieKfF.s 			page 30


1117:Drivers/STM32F4xx_HAL_Driver/Src/stm32f4xx_ll_sdmmc.c ****  */
1118:Drivers/STM32F4xx_HAL_Driver/Src/stm32f4xx_ll_sdmmc.c **** uint32_t SDMMC_CmdSwitch(SDIO_TypeDef *SDIOx, uint32_t Argument)
1119:Drivers/STM32F4xx_HAL_Driver/Src/stm32f4xx_ll_sdmmc.c **** {
1120:Drivers/STM32F4xx_HAL_Driver/Src/stm32f4xx_ll_sdmmc.c ****   SDIO_CmdInitTypeDef sdmmc_cmdinit;
1121:Drivers/STM32F4xx_HAL_Driver/Src/stm32f4xx_ll_sdmmc.c ****   uint32_t errorstate;
1122:Drivers/STM32F4xx_HAL_Driver/Src/stm32f4xx_ll_sdmmc.c **** 
1123:Drivers/STM32F4xx_HAL_Driver/Src/stm32f4xx_ll_sdmmc.c ****   /* Send CMD6 to activate SDR50 Mode and Power Limit 1.44W */
1124:Drivers/STM32F4xx_HAL_Driver/Src/stm32f4xx_ll_sdmmc.c ****   /* CMD Response: R1 */
1125:Drivers/STM32F4xx_HAL_Driver/Src/stm32f4xx_ll_sdmmc.c ****   sdmmc_cmdinit.Argument = Argument; /* SDMMC_SDR25_SWITCH_PATTERN */
1126:Drivers/STM32F4xx_HAL_Driver/Src/stm32f4xx_ll_sdmmc.c ****   sdmmc_cmdinit.CmdIndex = SDMMC_CMD_HS_SWITCH;
1127:Drivers/STM32F4xx_HAL_Driver/Src/stm32f4xx_ll_sdmmc.c ****   sdmmc_cmdinit.Response = SDIO_RESPONSE_SHORT;
1128:Drivers/STM32F4xx_HAL_Driver/Src/stm32f4xx_ll_sdmmc.c ****   sdmmc_cmdinit.WaitForInterrupt = SDIO_WAIT_NO;
1129:Drivers/STM32F4xx_HAL_Driver/Src/stm32f4xx_ll_sdmmc.c ****   sdmmc_cmdinit.CPSM = SDIO_CPSM_ENABLE;
1130:Drivers/STM32F4xx_HAL_Driver/Src/stm32f4xx_ll_sdmmc.c ****   (void)SDIO_SendCommand(SDIOx, &sdmmc_cmdinit);
1131:Drivers/STM32F4xx_HAL_Driver/Src/stm32f4xx_ll_sdmmc.c **** 
1132:Drivers/STM32F4xx_HAL_Driver/Src/stm32f4xx_ll_sdmmc.c ****   /* Check for error conditions */
1133:Drivers/STM32F4xx_HAL_Driver/Src/stm32f4xx_ll_sdmmc.c ****   errorstate = SDMMC_GetCmdResp1(SDIOx, SDMMC_CMD_HS_SWITCH, SDIO_CMDTIMEOUT);
1134:Drivers/STM32F4xx_HAL_Driver/Src/stm32f4xx_ll_sdmmc.c **** 
1135:Drivers/STM32F4xx_HAL_Driver/Src/stm32f4xx_ll_sdmmc.c ****   return errorstate;
1136:Drivers/STM32F4xx_HAL_Driver/Src/stm32f4xx_ll_sdmmc.c **** }
1137:Drivers/STM32F4xx_HAL_Driver/Src/stm32f4xx_ll_sdmmc.c **** 
1138:Drivers/STM32F4xx_HAL_Driver/Src/stm32f4xx_ll_sdmmc.c **** /**
1139:Drivers/STM32F4xx_HAL_Driver/Src/stm32f4xx_ll_sdmmc.c ****  * @brief  Send the Send EXT_CSD command and check the response.
1140:Drivers/STM32F4xx_HAL_Driver/Src/stm32f4xx_ll_sdmmc.c ****  * @param  SDIOx Pointer to SDMMC register base
1141:Drivers/STM32F4xx_HAL_Driver/Src/stm32f4xx_ll_sdmmc.c ****  * @param  Argument Command Argument
1142:Drivers/STM32F4xx_HAL_Driver/Src/stm32f4xx_ll_sdmmc.c ****  * @retval HAL status
1143:Drivers/STM32F4xx_HAL_Driver/Src/stm32f4xx_ll_sdmmc.c ****  */
1144:Drivers/STM32F4xx_HAL_Driver/Src/stm32f4xx_ll_sdmmc.c **** uint32_t SDMMC_CmdSendEXTCSD(SDIO_TypeDef *SDIOx, uint32_t Argument)
1145:Drivers/STM32F4xx_HAL_Driver/Src/stm32f4xx_ll_sdmmc.c **** {
1146:Drivers/STM32F4xx_HAL_Driver/Src/stm32f4xx_ll_sdmmc.c ****   SDIO_CmdInitTypeDef sdmmc_cmdinit;
1147:Drivers/STM32F4xx_HAL_Driver/Src/stm32f4xx_ll_sdmmc.c ****   uint32_t errorstate;
1148:Drivers/STM32F4xx_HAL_Driver/Src/stm32f4xx_ll_sdmmc.c **** 
1149:Drivers/STM32F4xx_HAL_Driver/Src/stm32f4xx_ll_sdmmc.c ****   /* Send CMD9 SEND_CSD */
1150:Drivers/STM32F4xx_HAL_Driver/Src/stm32f4xx_ll_sdmmc.c ****   sdmmc_cmdinit.Argument = Argument;
1151:Drivers/STM32F4xx_HAL_Driver/Src/stm32f4xx_ll_sdmmc.c ****   sdmmc_cmdinit.CmdIndex = SDMMC_CMD_HS_SEND_EXT_CSD;
1152:Drivers/STM32F4xx_HAL_Driver/Src/stm32f4xx_ll_sdmmc.c ****   sdmmc_cmdinit.Response = SDIO_RESPONSE_SHORT;
1153:Drivers/STM32F4xx_HAL_Driver/Src/stm32f4xx_ll_sdmmc.c ****   sdmmc_cmdinit.WaitForInterrupt = SDIO_WAIT_NO;
1154:Drivers/STM32F4xx_HAL_Driver/Src/stm32f4xx_ll_sdmmc.c ****   sdmmc_cmdinit.CPSM = SDIO_CPSM_ENABLE;
1155:Drivers/STM32F4xx_HAL_Driver/Src/stm32f4xx_ll_sdmmc.c ****   (void)SDIO_SendCommand(SDIOx, &sdmmc_cmdinit);
1156:Drivers/STM32F4xx_HAL_Driver/Src/stm32f4xx_ll_sdmmc.c **** 
1157:Drivers/STM32F4xx_HAL_Driver/Src/stm32f4xx_ll_sdmmc.c ****   /* Check for error conditions */
1158:Drivers/STM32F4xx_HAL_Driver/Src/stm32f4xx_ll_sdmmc.c ****   errorstate = SDMMC_GetCmdResp1(SDIOx, SDMMC_CMD_HS_SEND_EXT_CSD, SDIO_CMDTIMEOUT);
1159:Drivers/STM32F4xx_HAL_Driver/Src/stm32f4xx_ll_sdmmc.c **** 
1160:Drivers/STM32F4xx_HAL_Driver/Src/stm32f4xx_ll_sdmmc.c ****   return errorstate;
1161:Drivers/STM32F4xx_HAL_Driver/Src/stm32f4xx_ll_sdmmc.c **** }
1162:Drivers/STM32F4xx_HAL_Driver/Src/stm32f4xx_ll_sdmmc.c **** 
1163:Drivers/STM32F4xx_HAL_Driver/Src/stm32f4xx_ll_sdmmc.c **** /**
1164:Drivers/STM32F4xx_HAL_Driver/Src/stm32f4xx_ll_sdmmc.c ****  * @}
1165:Drivers/STM32F4xx_HAL_Driver/Src/stm32f4xx_ll_sdmmc.c ****  */
1166:Drivers/STM32F4xx_HAL_Driver/Src/stm32f4xx_ll_sdmmc.c **** 
1167:Drivers/STM32F4xx_HAL_Driver/Src/stm32f4xx_ll_sdmmc.c **** /** @defgroup HAL_SDMMC_LL_Group5 Responses management functions
1168:Drivers/STM32F4xx_HAL_Driver/Src/stm32f4xx_ll_sdmmc.c ****  *  @brief   Responses functions
1169:Drivers/STM32F4xx_HAL_Driver/Src/stm32f4xx_ll_sdmmc.c ****  *
1170:Drivers/STM32F4xx_HAL_Driver/Src/stm32f4xx_ll_sdmmc.c **** @verbatim
1171:Drivers/STM32F4xx_HAL_Driver/Src/stm32f4xx_ll_sdmmc.c ****  ===============================================================================
1172:Drivers/STM32F4xx_HAL_Driver/Src/stm32f4xx_ll_sdmmc.c ****                    ##### Responses management functions #####
1173:Drivers/STM32F4xx_HAL_Driver/Src/stm32f4xx_ll_sdmmc.c ****  ===============================================================================
ARM GAS  C:\Users\pw705\AppData\Local\Temp\cceieKfF.s 			page 31


1174:Drivers/STM32F4xx_HAL_Driver/Src/stm32f4xx_ll_sdmmc.c ****     [..]
1175:Drivers/STM32F4xx_HAL_Driver/Src/stm32f4xx_ll_sdmmc.c ****     This subsection provides a set of functions allowing to manage the needed responses.
1176:Drivers/STM32F4xx_HAL_Driver/Src/stm32f4xx_ll_sdmmc.c **** 
1177:Drivers/STM32F4xx_HAL_Driver/Src/stm32f4xx_ll_sdmmc.c **** @endverbatim
1178:Drivers/STM32F4xx_HAL_Driver/Src/stm32f4xx_ll_sdmmc.c ****   * @{
1179:Drivers/STM32F4xx_HAL_Driver/Src/stm32f4xx_ll_sdmmc.c ****   */
1180:Drivers/STM32F4xx_HAL_Driver/Src/stm32f4xx_ll_sdmmc.c **** /**
1181:Drivers/STM32F4xx_HAL_Driver/Src/stm32f4xx_ll_sdmmc.c ****  * @brief  Checks for error conditions for R1 response.
1182:Drivers/STM32F4xx_HAL_Driver/Src/stm32f4xx_ll_sdmmc.c ****  * @param  SDIOx Pointer to SDMMC register base
1183:Drivers/STM32F4xx_HAL_Driver/Src/stm32f4xx_ll_sdmmc.c ****  * @param  SD_CMD: The sent command index
1184:Drivers/STM32F4xx_HAL_Driver/Src/stm32f4xx_ll_sdmmc.c ****  * @retval SD Card error state
1185:Drivers/STM32F4xx_HAL_Driver/Src/stm32f4xx_ll_sdmmc.c ****  */
1186:Drivers/STM32F4xx_HAL_Driver/Src/stm32f4xx_ll_sdmmc.c **** uint32_t SDMMC_GetCmdResp1(SDIO_TypeDef *SDIOx, uint8_t SD_CMD, uint32_t Timeout)
1187:Drivers/STM32F4xx_HAL_Driver/Src/stm32f4xx_ll_sdmmc.c **** {
1188:Drivers/STM32F4xx_HAL_Driver/Src/stm32f4xx_ll_sdmmc.c ****   uint32_t response_r1;
1189:Drivers/STM32F4xx_HAL_Driver/Src/stm32f4xx_ll_sdmmc.c ****   uint32_t sta_reg;
1190:Drivers/STM32F4xx_HAL_Driver/Src/stm32f4xx_ll_sdmmc.c **** 
1191:Drivers/STM32F4xx_HAL_Driver/Src/stm32f4xx_ll_sdmmc.c ****   /* 8 is the number of required instructions cycles for the below loop statement.
1192:Drivers/STM32F4xx_HAL_Driver/Src/stm32f4xx_ll_sdmmc.c ****   The Timeout is expressed in ms */
1193:Drivers/STM32F4xx_HAL_Driver/Src/stm32f4xx_ll_sdmmc.c ****   uint32_t count = Timeout * (SystemCoreClock / 8U / 1000U);
 531              		.loc 1 1193 52 is_stmt 0 view .LVU138
 532 0000 4A4A     		ldr	r2, .L56
 533              	.LVL33:
 534              		.loc 1 1193 52 view .LVU139
 535              	.LBE87:
 536              	.LBE86:
 511:Drivers/STM32F4xx_HAL_Driver/Src/stm32f4xx_ll_sdmmc.c ****   sdmmc_cmdinit.CmdIndex = SDMMC_CMD_SET_BLOCKLEN;
 537              		.loc 1 511 3 is_stmt 1 view .LVU140
 512:Drivers/STM32F4xx_HAL_Driver/Src/stm32f4xx_ll_sdmmc.c ****   sdmmc_cmdinit.WaitForInterrupt = SDIO_WAIT_NO;
 538              		.loc 1 512 3 view .LVU141
 513:Drivers/STM32F4xx_HAL_Driver/Src/stm32f4xx_ll_sdmmc.c ****   sdmmc_cmdinit.CPSM = SDIO_CPSM_ENABLE;
 539              		.loc 1 513 3 view .LVU142
 514:Drivers/STM32F4xx_HAL_Driver/Src/stm32f4xx_ll_sdmmc.c ****   (void)SDIO_SendCommand(SDIOx, &sdmmc_cmdinit);
 540              		.loc 1 514 3 view .LVU143
 515:Drivers/STM32F4xx_HAL_Driver/Src/stm32f4xx_ll_sdmmc.c **** 
 541              		.loc 1 515 3 view .LVU144
 542              	.LBB102:
 543              	.LBI102:
 345:Drivers/STM32F4xx_HAL_Driver/Src/stm32f4xx_ll_sdmmc.c **** {
 544              		.loc 1 345 19 view .LVU145
 545              	.LBB103:
 347:Drivers/STM32F4xx_HAL_Driver/Src/stm32f4xx_ll_sdmmc.c **** 
 546              		.loc 1 347 3 view .LVU146
 350:Drivers/STM32F4xx_HAL_Driver/Src/stm32f4xx_ll_sdmmc.c ****   assert_param(IS_SDIO_RESPONSE(Command->Response));
 547              		.loc 1 350 3 view .LVU147
 351:Drivers/STM32F4xx_HAL_Driver/Src/stm32f4xx_ll_sdmmc.c ****   assert_param(IS_SDIO_WAIT(Command->WaitForInterrupt));
 548              		.loc 1 351 3 view .LVU148
 352:Drivers/STM32F4xx_HAL_Driver/Src/stm32f4xx_ll_sdmmc.c ****   assert_param(IS_SDIO_CPSM(Command->CPSM));
 549              		.loc 1 352 3 view .LVU149
 353:Drivers/STM32F4xx_HAL_Driver/Src/stm32f4xx_ll_sdmmc.c **** 
 550              		.loc 1 353 3 view .LVU150
 356:Drivers/STM32F4xx_HAL_Driver/Src/stm32f4xx_ll_sdmmc.c **** 
 551              		.loc 1 356 3 view .LVU151
 356:Drivers/STM32F4xx_HAL_Driver/Src/stm32f4xx_ll_sdmmc.c **** 
 552              		.loc 1 356 14 is_stmt 0 view .LVU152
 553 0002 8160     		str	r1, [r0, #8]
 359:Drivers/STM32F4xx_HAL_Driver/Src/stm32f4xx_ll_sdmmc.c ****                        Command->Response |
ARM GAS  C:\Users\pw705\AppData\Local\Temp\cceieKfF.s 			page 32


 554              		.loc 1 359 3 is_stmt 1 view .LVU153
 555              	.LVL34:
 365:Drivers/STM32F4xx_HAL_Driver/Src/stm32f4xx_ll_sdmmc.c **** 
 556              		.loc 1 365 3 view .LVU154
 557 0004 C368     		ldr	r3, [r0, #12]
 558              	.LBE103:
 559              	.LBE102:
 560              	.LBB108:
 561              	.LBB96:
 562              		.loc 1 1193 52 is_stmt 0 view .LVU155
 563 0006 4A49     		ldr	r1, .L56+4
 564              	.LVL35:
 565              		.loc 1 1193 52 view .LVU156
 566 0008 1268     		ldr	r2, [r2]
 567              	.LBE96:
 568              	.LBE108:
 569              	.LBB109:
 570              	.LBB104:
 365:Drivers/STM32F4xx_HAL_Driver/Src/stm32f4xx_ll_sdmmc.c **** 
 571              		.loc 1 365 3 view .LVU157
 572 000a 23F47F63 		bic	r3, r3, #4080
 573              	.LBE104:
 574              	.LBE109:
 575              	.LBB110:
 576              	.LBB97:
 577              		.loc 1 1193 52 view .LVU158
 578 000e A1FB0212 		umull	r1, r2, r1, r2
 579              	.LBE97:
 580              	.LBE110:
 581              	.LBB111:
 582              	.LBB105:
 365:Drivers/STM32F4xx_HAL_Driver/Src/stm32f4xx_ll_sdmmc.c **** 
 583              		.loc 1 365 3 view .LVU159
 584 0012 23F00F03 		bic	r3, r3, #15
 585              	.LBE105:
 586              	.LBE111:
 587              	.LBB112:
 588              	.LBB98:
 589              		.loc 1 1193 52 view .LVU160
 590 0016 520A     		lsrs	r2, r2, #9
 591              		.loc 1 1193 12 view .LVU161
 592 0018 41F28831 		movw	r1, #5000
 593              	.LBE98:
 594              	.LBE112:
 595              	.LBB113:
 596              	.LBB106:
 365:Drivers/STM32F4xx_HAL_Driver/Src/stm32f4xx_ll_sdmmc.c **** 
 597              		.loc 1 365 3 view .LVU162
 598 001c 43F48A63 		orr	r3, r3, #1104
 599              	.LBE106:
 600              	.LBE113:
 601              	.LBB114:
 602              	.LBB99:
 603              		.loc 1 1193 12 view .LVU163
 604 0020 01FB02F2 		mul	r2, r1, r2
 605              	.LBE99:
 606              	.LBE114:
ARM GAS  C:\Users\pw705\AppData\Local\Temp\cceieKfF.s 			page 33


 607              	.LBB115:
 608              	.LBB107:
 365:Drivers/STM32F4xx_HAL_Driver/Src/stm32f4xx_ll_sdmmc.c **** 
 609              		.loc 1 365 3 view .LVU164
 610 0024 C360     		str	r3, [r0, #12]
 611              	.LVL36:
 367:Drivers/STM32F4xx_HAL_Driver/Src/stm32f4xx_ll_sdmmc.c **** }
 612              		.loc 1 367 3 is_stmt 1 view .LVU165
 367:Drivers/STM32F4xx_HAL_Driver/Src/stm32f4xx_ll_sdmmc.c **** }
 613              		.loc 1 367 3 is_stmt 0 view .LVU166
 614              	.LBE107:
 615              	.LBE115:
 518:Drivers/STM32F4xx_HAL_Driver/Src/stm32f4xx_ll_sdmmc.c **** 
 616              		.loc 1 518 3 is_stmt 1 view .LVU167
 617              	.LBB116:
 618              	.LBI86:
1186:Drivers/STM32F4xx_HAL_Driver/Src/stm32f4xx_ll_sdmmc.c **** {
 619              		.loc 1 1186 10 view .LVU168
 620              	.LBB100:
1188:Drivers/STM32F4xx_HAL_Driver/Src/stm32f4xx_ll_sdmmc.c ****   uint32_t sta_reg;
 621              		.loc 1 1188 3 view .LVU169
1189:Drivers/STM32F4xx_HAL_Driver/Src/stm32f4xx_ll_sdmmc.c **** 
 622              		.loc 1 1189 3 view .LVU170
 623              		.loc 1 1193 3 view .LVU171
1194:Drivers/STM32F4xx_HAL_Driver/Src/stm32f4xx_ll_sdmmc.c **** 
1195:Drivers/STM32F4xx_HAL_Driver/Src/stm32f4xx_ll_sdmmc.c ****   do
 624              		.loc 1 1195 3 view .LVU172
1196:Drivers/STM32F4xx_HAL_Driver/Src/stm32f4xx_ll_sdmmc.c ****   {
1197:Drivers/STM32F4xx_HAL_Driver/Src/stm32f4xx_ll_sdmmc.c ****     if (count-- == 0U)
 625              		.loc 1 1197 5 view .LVU173
 626              		.loc 1 1197 14 is_stmt 0 view .LVU174
 627 0026 531E     		subs	r3, r2, #1
 628              	.LVL37:
 629              		.loc 1 1197 8 view .LVU175
 630 0028 4AB1     		cbz	r2, .L27
 631              	.L20:
1195:Drivers/STM32F4xx_HAL_Driver/Src/stm32f4xx_ll_sdmmc.c ****   {
 632              		.loc 1 1195 3 is_stmt 1 view .LVU176
 633              		.loc 1 1197 5 view .LVU177
1198:Drivers/STM32F4xx_HAL_Driver/Src/stm32f4xx_ll_sdmmc.c ****     {
1199:Drivers/STM32F4xx_HAL_Driver/Src/stm32f4xx_ll_sdmmc.c ****       return SDMMC_ERROR_TIMEOUT;
1200:Drivers/STM32F4xx_HAL_Driver/Src/stm32f4xx_ll_sdmmc.c ****     }
1201:Drivers/STM32F4xx_HAL_Driver/Src/stm32f4xx_ll_sdmmc.c ****     sta_reg = SDIOx->STA;
 634              		.loc 1 1201 5 view .LVU178
 635              		.loc 1 1201 13 is_stmt 0 view .LVU179
 636 002a 426B     		ldr	r2, [r0, #52]
 637              	.LVL38:
1202:Drivers/STM32F4xx_HAL_Driver/Src/stm32f4xx_ll_sdmmc.c ****   } while (((sta_reg & (SDIO_FLAG_CCRCFAIL | SDIO_FLAG_CMDREND | SDIO_FLAG_CTIMEOUT)) == 0U) ||
 638              		.loc 1 1202 94 is_stmt 1 view .LVU180
 639 002c 12F0450F 		tst	r2, #69
1197:Drivers/STM32F4xx_HAL_Driver/Src/stm32f4xx_ll_sdmmc.c ****     {
 640              		.loc 1 1197 14 is_stmt 0 view .LVU181
 641 0030 03F1FF33 		add	r3, r3, #-1
 642              	.LVL39:
 643              		.loc 1 1202 94 view .LVU182
 644 0034 01D0     		beq	.L21
 645 0036 1105     		lsls	r1, r2, #20
ARM GAS  C:\Users\pw705\AppData\Local\Temp\cceieKfF.s 			page 34


 646 0038 04D5     		bpl	.L53
 647              	.L21:
1197:Drivers/STM32F4xx_HAL_Driver/Src/stm32f4xx_ll_sdmmc.c ****     {
 648              		.loc 1 1197 8 view .LVU183
 649 003a 5A1C     		adds	r2, r3, #1
 650              	.LVL40:
1197:Drivers/STM32F4xx_HAL_Driver/Src/stm32f4xx_ll_sdmmc.c ****     {
 651              		.loc 1 1197 8 view .LVU184
 652 003c F5D1     		bne	.L20
 653              	.LVL41:
 654              	.L27:
1199:Drivers/STM32F4xx_HAL_Driver/Src/stm32f4xx_ll_sdmmc.c ****     }
 655              		.loc 1 1199 14 view .LVU185
 656 003e 4FF00040 		mov	r0, #-2147483648
 657              	.LVL42:
1199:Drivers/STM32F4xx_HAL_Driver/Src/stm32f4xx_ll_sdmmc.c ****     }
 658              		.loc 1 1199 14 view .LVU186
 659 0042 7047     		bx	lr
 660              	.LVL43:
 661              	.L53:
1203:Drivers/STM32F4xx_HAL_Driver/Src/stm32f4xx_ll_sdmmc.c ****            ((sta_reg & SDIO_FLAG_CMDACT) != 0U));
1204:Drivers/STM32F4xx_HAL_Driver/Src/stm32f4xx_ll_sdmmc.c **** 
1205:Drivers/STM32F4xx_HAL_Driver/Src/stm32f4xx_ll_sdmmc.c ****   if (__SDIO_GET_FLAG(SDIOx, SDIO_FLAG_CTIMEOUT))
 662              		.loc 1 1205 3 is_stmt 1 view .LVU187
 663              		.loc 1 1205 7 is_stmt 0 view .LVU188
 664 0044 436B     		ldr	r3, [r0, #52]
 665              	.LVL44:
 666              		.loc 1 1205 6 view .LVU189
 667 0046 5A07     		lsls	r2, r3, #29
 668              	.LVL45:
 669              		.loc 1 1205 6 view .LVU190
 670 0048 3ED4     		bmi	.L54
1206:Drivers/STM32F4xx_HAL_Driver/Src/stm32f4xx_ll_sdmmc.c ****   {
1207:Drivers/STM32F4xx_HAL_Driver/Src/stm32f4xx_ll_sdmmc.c ****     __SDIO_CLEAR_FLAG(SDIOx, SDIO_FLAG_CTIMEOUT);
1208:Drivers/STM32F4xx_HAL_Driver/Src/stm32f4xx_ll_sdmmc.c **** 
1209:Drivers/STM32F4xx_HAL_Driver/Src/stm32f4xx_ll_sdmmc.c ****     return SDMMC_ERROR_CMD_RSP_TIMEOUT;
1210:Drivers/STM32F4xx_HAL_Driver/Src/stm32f4xx_ll_sdmmc.c ****   }
1211:Drivers/STM32F4xx_HAL_Driver/Src/stm32f4xx_ll_sdmmc.c ****   else if (__SDIO_GET_FLAG(SDIOx, SDIO_FLAG_CCRCFAIL))
 671              		.loc 1 1211 8 is_stmt 1 view .LVU191
 672              		.loc 1 1211 12 is_stmt 0 view .LVU192
 673 004a 436B     		ldr	r3, [r0, #52]
 674              		.loc 1 1211 11 view .LVU193
 675 004c DB07     		lsls	r3, r3, #31
 676 004e 07D4     		bmi	.L55
1212:Drivers/STM32F4xx_HAL_Driver/Src/stm32f4xx_ll_sdmmc.c ****   {
1213:Drivers/STM32F4xx_HAL_Driver/Src/stm32f4xx_ll_sdmmc.c ****     __SDIO_CLEAR_FLAG(SDIOx, SDIO_FLAG_CCRCFAIL);
1214:Drivers/STM32F4xx_HAL_Driver/Src/stm32f4xx_ll_sdmmc.c **** 
1215:Drivers/STM32F4xx_HAL_Driver/Src/stm32f4xx_ll_sdmmc.c ****     return SDMMC_ERROR_CMD_CRC_FAIL;
1216:Drivers/STM32F4xx_HAL_Driver/Src/stm32f4xx_ll_sdmmc.c ****   }
1217:Drivers/STM32F4xx_HAL_Driver/Src/stm32f4xx_ll_sdmmc.c ****   else
1218:Drivers/STM32F4xx_HAL_Driver/Src/stm32f4xx_ll_sdmmc.c ****   {
1219:Drivers/STM32F4xx_HAL_Driver/Src/stm32f4xx_ll_sdmmc.c ****     /* Nothing to do */
1220:Drivers/STM32F4xx_HAL_Driver/Src/stm32f4xx_ll_sdmmc.c ****   }
 677              		.loc 1 1220 3 is_stmt 1 view .LVU194
1221:Drivers/STM32F4xx_HAL_Driver/Src/stm32f4xx_ll_sdmmc.c **** 
1222:Drivers/STM32F4xx_HAL_Driver/Src/stm32f4xx_ll_sdmmc.c ****   /* Clear all the static flags */
1223:Drivers/STM32F4xx_HAL_Driver/Src/stm32f4xx_ll_sdmmc.c ****   __SDIO_CLEAR_FLAG(SDIOx, SDIO_STATIC_CMD_FLAGS);
ARM GAS  C:\Users\pw705\AppData\Local\Temp\cceieKfF.s 			page 35


 678              		.loc 1 1223 3 view .LVU195
 679 0050 C523     		movs	r3, #197
 680 0052 8363     		str	r3, [r0, #56]
1224:Drivers/STM32F4xx_HAL_Driver/Src/stm32f4xx_ll_sdmmc.c **** 
1225:Drivers/STM32F4xx_HAL_Driver/Src/stm32f4xx_ll_sdmmc.c ****   /* Check response received is of desired command */
1226:Drivers/STM32F4xx_HAL_Driver/Src/stm32f4xx_ll_sdmmc.c ****   if (SDIO_GetCommandResponse(SDIOx) != SD_CMD)
 681              		.loc 1 1226 3 view .LVU196
 682              	.LVL46:
 683              	.LBB88:
 684              	.LBI88:
 375:Drivers/STM32F4xx_HAL_Driver/Src/stm32f4xx_ll_sdmmc.c **** {
 685              		.loc 1 375 9 view .LVU197
 686              	.LBB89:
 377:Drivers/STM32F4xx_HAL_Driver/Src/stm32f4xx_ll_sdmmc.c **** }
 687              		.loc 1 377 3 view .LVU198
 377:Drivers/STM32F4xx_HAL_Driver/Src/stm32f4xx_ll_sdmmc.c **** }
 688              		.loc 1 377 25 is_stmt 0 view .LVU199
 689 0054 0369     		ldr	r3, [r0, #16]
 690              	.LVL47:
 377:Drivers/STM32F4xx_HAL_Driver/Src/stm32f4xx_ll_sdmmc.c **** }
 691              		.loc 1 377 25 view .LVU200
 692              	.LBE89:
 693              	.LBE88:
 694              		.loc 1 1226 6 view .LVU201
 695 0056 DBB2     		uxtb	r3, r3
 696 0058 102B     		cmp	r3, #16
 697 005a 04D0     		beq	.L25
 698              	.L24:
1215:Drivers/STM32F4xx_HAL_Driver/Src/stm32f4xx_ll_sdmmc.c ****   }
 699              		.loc 1 1215 12 view .LVU202
 700 005c 0120     		movs	r0, #1
 701              	.LVL48:
1215:Drivers/STM32F4xx_HAL_Driver/Src/stm32f4xx_ll_sdmmc.c ****   }
 702              		.loc 1 1215 12 view .LVU203
 703 005e 7047     		bx	lr
 704              	.LVL49:
 705              	.L55:
1213:Drivers/STM32F4xx_HAL_Driver/Src/stm32f4xx_ll_sdmmc.c **** 
 706              		.loc 1 1213 5 is_stmt 1 view .LVU204
 707 0060 0123     		movs	r3, #1
 708 0062 8363     		str	r3, [r0, #56]
1215:Drivers/STM32F4xx_HAL_Driver/Src/stm32f4xx_ll_sdmmc.c ****   }
 709              		.loc 1 1215 5 view .LVU205
1215:Drivers/STM32F4xx_HAL_Driver/Src/stm32f4xx_ll_sdmmc.c ****   }
 710              		.loc 1 1215 12 is_stmt 0 view .LVU206
 711 0064 FAE7     		b	.L24
 712              	.L25:
 713              	.LVL50:
 714              	.LBB90:
 715              	.LBI90:
1186:Drivers/STM32F4xx_HAL_Driver/Src/stm32f4xx_ll_sdmmc.c **** {
 716              		.loc 1 1186 10 is_stmt 1 view .LVU207
 717              	.LBB91:
1227:Drivers/STM32F4xx_HAL_Driver/Src/stm32f4xx_ll_sdmmc.c ****   {
1228:Drivers/STM32F4xx_HAL_Driver/Src/stm32f4xx_ll_sdmmc.c ****     return SDMMC_ERROR_CMD_CRC_FAIL;
1229:Drivers/STM32F4xx_HAL_Driver/Src/stm32f4xx_ll_sdmmc.c ****   }
1230:Drivers/STM32F4xx_HAL_Driver/Src/stm32f4xx_ll_sdmmc.c **** 
ARM GAS  C:\Users\pw705\AppData\Local\Temp\cceieKfF.s 			page 36


1231:Drivers/STM32F4xx_HAL_Driver/Src/stm32f4xx_ll_sdmmc.c ****   /* We have received response, retrieve it for analysis  */
1232:Drivers/STM32F4xx_HAL_Driver/Src/stm32f4xx_ll_sdmmc.c ****   response_r1 = SDIO_GetResponse(SDIOx, SDIO_RESP1);
 718              		.loc 1 1232 3 view .LVU208
 719              	.LBB92:
 720              	.LBI92:
 391:Drivers/STM32F4xx_HAL_Driver/Src/stm32f4xx_ll_sdmmc.c **** {
 721              		.loc 1 391 10 view .LVU209
 722              	.LBB93:
 393:Drivers/STM32F4xx_HAL_Driver/Src/stm32f4xx_ll_sdmmc.c **** 
 723              		.loc 1 393 3 view .LVU210
 396:Drivers/STM32F4xx_HAL_Driver/Src/stm32f4xx_ll_sdmmc.c **** 
 724              		.loc 1 396 3 view .LVU211
 399:Drivers/STM32F4xx_HAL_Driver/Src/stm32f4xx_ll_sdmmc.c **** 
 725              		.loc 1 399 3 view .LVU212
 401:Drivers/STM32F4xx_HAL_Driver/Src/stm32f4xx_ll_sdmmc.c **** }
 726              		.loc 1 401 3 view .LVU213
 401:Drivers/STM32F4xx_HAL_Driver/Src/stm32f4xx_ll_sdmmc.c **** }
 727              		.loc 1 401 11 is_stmt 0 view .LVU214
 728 0066 4369     		ldr	r3, [r0, #20]
 729              	.LVL51:
 401:Drivers/STM32F4xx_HAL_Driver/Src/stm32f4xx_ll_sdmmc.c **** }
 730              		.loc 1 401 11 view .LVU215
 731              	.LBE93:
 732              	.LBE92:
1233:Drivers/STM32F4xx_HAL_Driver/Src/stm32f4xx_ll_sdmmc.c **** 
1234:Drivers/STM32F4xx_HAL_Driver/Src/stm32f4xx_ll_sdmmc.c ****   if ((response_r1 & SDMMC_OCR_ERRORBITS) == SDMMC_ALLZERO)
 733              		.loc 1 1234 3 is_stmt 1 view .LVU216
 734              		.loc 1 1234 20 is_stmt 0 view .LVU217
 735 0068 3248     		ldr	r0, .L56+8
 736              	.LVL52:
 737              		.loc 1 1234 20 view .LVU218
 738 006a 1840     		ands	r0, r0, r3
 739              		.loc 1 1234 6 view .LVU219
 740 006c 58B3     		cbz	r0, .L18
1235:Drivers/STM32F4xx_HAL_Driver/Src/stm32f4xx_ll_sdmmc.c ****   {
1236:Drivers/STM32F4xx_HAL_Driver/Src/stm32f4xx_ll_sdmmc.c ****     return SDMMC_ERROR_NONE;
1237:Drivers/STM32F4xx_HAL_Driver/Src/stm32f4xx_ll_sdmmc.c ****   }
1238:Drivers/STM32F4xx_HAL_Driver/Src/stm32f4xx_ll_sdmmc.c ****   else if ((response_r1 & SDMMC_OCR_ADDR_OUT_OF_RANGE) == SDMMC_OCR_ADDR_OUT_OF_RANGE)
 741              		.loc 1 1238 8 is_stmt 1 view .LVU220
 742              		.loc 1 1238 11 is_stmt 0 view .LVU221
 743 006e 002B     		cmp	r3, #0
 744 0070 2EDB     		blt	.L28
1239:Drivers/STM32F4xx_HAL_Driver/Src/stm32f4xx_ll_sdmmc.c ****   {
1240:Drivers/STM32F4xx_HAL_Driver/Src/stm32f4xx_ll_sdmmc.c ****     return SDMMC_ERROR_ADDR_OUT_OF_RANGE;
1241:Drivers/STM32F4xx_HAL_Driver/Src/stm32f4xx_ll_sdmmc.c ****   }
1242:Drivers/STM32F4xx_HAL_Driver/Src/stm32f4xx_ll_sdmmc.c ****   else if ((response_r1 & SDMMC_OCR_ADDR_MISALIGNED) == SDMMC_OCR_ADDR_MISALIGNED)
 745              		.loc 1 1242 8 is_stmt 1 view .LVU222
 746              		.loc 1 1242 11 is_stmt 0 view .LVU223
 747 0072 5900     		lsls	r1, r3, #1
 748 0074 2FD4     		bmi	.L29
1243:Drivers/STM32F4xx_HAL_Driver/Src/stm32f4xx_ll_sdmmc.c ****   {
1244:Drivers/STM32F4xx_HAL_Driver/Src/stm32f4xx_ll_sdmmc.c ****     return SDMMC_ERROR_ADDR_MISALIGNED;
1245:Drivers/STM32F4xx_HAL_Driver/Src/stm32f4xx_ll_sdmmc.c ****   }
1246:Drivers/STM32F4xx_HAL_Driver/Src/stm32f4xx_ll_sdmmc.c ****   else if ((response_r1 & SDMMC_OCR_BLOCK_LEN_ERR) == SDMMC_OCR_BLOCK_LEN_ERR)
 749              		.loc 1 1246 8 is_stmt 1 view .LVU224
 750              		.loc 1 1246 11 is_stmt 0 view .LVU225
 751 0076 9A00     		lsls	r2, r3, #2
ARM GAS  C:\Users\pw705\AppData\Local\Temp\cceieKfF.s 			page 37


 752 0078 2FD4     		bmi	.L30
1247:Drivers/STM32F4xx_HAL_Driver/Src/stm32f4xx_ll_sdmmc.c ****   {
1248:Drivers/STM32F4xx_HAL_Driver/Src/stm32f4xx_ll_sdmmc.c ****     return SDMMC_ERROR_BLOCK_LEN_ERR;
1249:Drivers/STM32F4xx_HAL_Driver/Src/stm32f4xx_ll_sdmmc.c ****   }
1250:Drivers/STM32F4xx_HAL_Driver/Src/stm32f4xx_ll_sdmmc.c ****   else if ((response_r1 & SDMMC_OCR_ERASE_SEQ_ERR) == SDMMC_OCR_ERASE_SEQ_ERR)
 753              		.loc 1 1250 8 is_stmt 1 view .LVU226
 754              		.loc 1 1250 11 is_stmt 0 view .LVU227
 755 007a D900     		lsls	r1, r3, #3
 756 007c 2FD4     		bmi	.L31
1251:Drivers/STM32F4xx_HAL_Driver/Src/stm32f4xx_ll_sdmmc.c ****   {
1252:Drivers/STM32F4xx_HAL_Driver/Src/stm32f4xx_ll_sdmmc.c ****     return SDMMC_ERROR_ERASE_SEQ_ERR;
1253:Drivers/STM32F4xx_HAL_Driver/Src/stm32f4xx_ll_sdmmc.c ****   }
1254:Drivers/STM32F4xx_HAL_Driver/Src/stm32f4xx_ll_sdmmc.c ****   else if ((response_r1 & SDMMC_OCR_BAD_ERASE_PARAM) == SDMMC_OCR_BAD_ERASE_PARAM)
 757              		.loc 1 1254 8 is_stmt 1 view .LVU228
 758              		.loc 1 1254 11 is_stmt 0 view .LVU229
 759 007e 1A01     		lsls	r2, r3, #4
 760 0080 30D4     		bmi	.L32
1255:Drivers/STM32F4xx_HAL_Driver/Src/stm32f4xx_ll_sdmmc.c ****   {
1256:Drivers/STM32F4xx_HAL_Driver/Src/stm32f4xx_ll_sdmmc.c ****     return SDMMC_ERROR_BAD_ERASE_PARAM;
1257:Drivers/STM32F4xx_HAL_Driver/Src/stm32f4xx_ll_sdmmc.c ****   }
1258:Drivers/STM32F4xx_HAL_Driver/Src/stm32f4xx_ll_sdmmc.c ****   else if ((response_r1 & SDMMC_OCR_WRITE_PROT_VIOLATION) == SDMMC_OCR_WRITE_PROT_VIOLATION)
 761              		.loc 1 1258 8 is_stmt 1 view .LVU230
 762              		.loc 1 1258 11 is_stmt 0 view .LVU231
 763 0082 5901     		lsls	r1, r3, #5
 764 0084 31D4     		bmi	.L33
1259:Drivers/STM32F4xx_HAL_Driver/Src/stm32f4xx_ll_sdmmc.c ****   {
1260:Drivers/STM32F4xx_HAL_Driver/Src/stm32f4xx_ll_sdmmc.c ****     return SDMMC_ERROR_WRITE_PROT_VIOLATION;
1261:Drivers/STM32F4xx_HAL_Driver/Src/stm32f4xx_ll_sdmmc.c ****   }
1262:Drivers/STM32F4xx_HAL_Driver/Src/stm32f4xx_ll_sdmmc.c ****   else if ((response_r1 & SDMMC_OCR_LOCK_UNLOCK_FAILED) == SDMMC_OCR_LOCK_UNLOCK_FAILED)
 765              		.loc 1 1262 8 is_stmt 1 view .LVU232
 766              		.loc 1 1262 11 is_stmt 0 view .LVU233
 767 0086 DA01     		lsls	r2, r3, #7
 768 0088 32D4     		bmi	.L34
1263:Drivers/STM32F4xx_HAL_Driver/Src/stm32f4xx_ll_sdmmc.c ****   {
1264:Drivers/STM32F4xx_HAL_Driver/Src/stm32f4xx_ll_sdmmc.c ****     return SDMMC_ERROR_LOCK_UNLOCK_FAILED;
1265:Drivers/STM32F4xx_HAL_Driver/Src/stm32f4xx_ll_sdmmc.c ****   }
1266:Drivers/STM32F4xx_HAL_Driver/Src/stm32f4xx_ll_sdmmc.c ****   else if ((response_r1 & SDMMC_OCR_COM_CRC_FAILED) == SDMMC_OCR_COM_CRC_FAILED)
 769              		.loc 1 1266 8 is_stmt 1 view .LVU234
 770              		.loc 1 1266 11 is_stmt 0 view .LVU235
 771 008a 1902     		lsls	r1, r3, #8
 772 008c 33D4     		bmi	.L35
1267:Drivers/STM32F4xx_HAL_Driver/Src/stm32f4xx_ll_sdmmc.c ****   {
1268:Drivers/STM32F4xx_HAL_Driver/Src/stm32f4xx_ll_sdmmc.c ****     return SDMMC_ERROR_COM_CRC_FAILED;
1269:Drivers/STM32F4xx_HAL_Driver/Src/stm32f4xx_ll_sdmmc.c ****   }
1270:Drivers/STM32F4xx_HAL_Driver/Src/stm32f4xx_ll_sdmmc.c ****   else if ((response_r1 & SDMMC_OCR_ILLEGAL_CMD) == SDMMC_OCR_ILLEGAL_CMD)
 773              		.loc 1 1270 8 is_stmt 1 view .LVU236
 774              		.loc 1 1270 11 is_stmt 0 view .LVU237
 775 008e 5A02     		lsls	r2, r3, #9
 776 0090 34D4     		bmi	.L36
1271:Drivers/STM32F4xx_HAL_Driver/Src/stm32f4xx_ll_sdmmc.c ****   {
1272:Drivers/STM32F4xx_HAL_Driver/Src/stm32f4xx_ll_sdmmc.c ****     return SDMMC_ERROR_ILLEGAL_CMD;
1273:Drivers/STM32F4xx_HAL_Driver/Src/stm32f4xx_ll_sdmmc.c ****   }
1274:Drivers/STM32F4xx_HAL_Driver/Src/stm32f4xx_ll_sdmmc.c ****   else if ((response_r1 & SDMMC_OCR_CARD_ECC_FAILED) == SDMMC_OCR_CARD_ECC_FAILED)
 777              		.loc 1 1274 8 is_stmt 1 view .LVU238
 778              		.loc 1 1274 11 is_stmt 0 view .LVU239
 779 0092 9902     		lsls	r1, r3, #10
 780 0094 3ED4     		bmi	.L37
ARM GAS  C:\Users\pw705\AppData\Local\Temp\cceieKfF.s 			page 38


1275:Drivers/STM32F4xx_HAL_Driver/Src/stm32f4xx_ll_sdmmc.c ****   {
1276:Drivers/STM32F4xx_HAL_Driver/Src/stm32f4xx_ll_sdmmc.c ****     return SDMMC_ERROR_CARD_ECC_FAILED;
1277:Drivers/STM32F4xx_HAL_Driver/Src/stm32f4xx_ll_sdmmc.c ****   }
1278:Drivers/STM32F4xx_HAL_Driver/Src/stm32f4xx_ll_sdmmc.c ****   else if ((response_r1 & SDMMC_OCR_CC_ERROR) == SDMMC_OCR_CC_ERROR)
 781              		.loc 1 1278 8 is_stmt 1 view .LVU240
 782              		.loc 1 1278 11 is_stmt 0 view .LVU241
 783 0096 DA02     		lsls	r2, r3, #11
 784 0098 39D4     		bmi	.L38
1279:Drivers/STM32F4xx_HAL_Driver/Src/stm32f4xx_ll_sdmmc.c ****   {
1280:Drivers/STM32F4xx_HAL_Driver/Src/stm32f4xx_ll_sdmmc.c ****     return SDMMC_ERROR_CC_ERR;
1281:Drivers/STM32F4xx_HAL_Driver/Src/stm32f4xx_ll_sdmmc.c ****   }
1282:Drivers/STM32F4xx_HAL_Driver/Src/stm32f4xx_ll_sdmmc.c ****   else if ((response_r1 & SDMMC_OCR_STREAM_READ_UNDERRUN) == SDMMC_OCR_STREAM_READ_UNDERRUN)
 785              		.loc 1 1282 8 is_stmt 1 view .LVU242
 786              		.loc 1 1282 11 is_stmt 0 view .LVU243
 787 009a 5903     		lsls	r1, r3, #13
 788 009c 34D4     		bmi	.L39
1283:Drivers/STM32F4xx_HAL_Driver/Src/stm32f4xx_ll_sdmmc.c ****   {
1284:Drivers/STM32F4xx_HAL_Driver/Src/stm32f4xx_ll_sdmmc.c ****     return SDMMC_ERROR_STREAM_READ_UNDERRUN;
1285:Drivers/STM32F4xx_HAL_Driver/Src/stm32f4xx_ll_sdmmc.c ****   }
1286:Drivers/STM32F4xx_HAL_Driver/Src/stm32f4xx_ll_sdmmc.c ****   else if ((response_r1 & SDMMC_OCR_STREAM_WRITE_OVERRUN) == SDMMC_OCR_STREAM_WRITE_OVERRUN)
 789              		.loc 1 1286 8 is_stmt 1 view .LVU244
 790              		.loc 1 1286 11 is_stmt 0 view .LVU245
 791 009e 9A03     		lsls	r2, r3, #14
 792 00a0 2FD4     		bmi	.L40
1287:Drivers/STM32F4xx_HAL_Driver/Src/stm32f4xx_ll_sdmmc.c ****   {
1288:Drivers/STM32F4xx_HAL_Driver/Src/stm32f4xx_ll_sdmmc.c ****     return SDMMC_ERROR_STREAM_WRITE_OVERRUN;
1289:Drivers/STM32F4xx_HAL_Driver/Src/stm32f4xx_ll_sdmmc.c ****   }
1290:Drivers/STM32F4xx_HAL_Driver/Src/stm32f4xx_ll_sdmmc.c ****   else if ((response_r1 & SDMMC_OCR_CID_CSD_OVERWRITE) == SDMMC_OCR_CID_CSD_OVERWRITE)
 793              		.loc 1 1290 8 is_stmt 1 view .LVU246
 794              		.loc 1 1290 11 is_stmt 0 view .LVU247
 795 00a2 D903     		lsls	r1, r3, #15
 796 00a4 3FD4     		bmi	.L41
1291:Drivers/STM32F4xx_HAL_Driver/Src/stm32f4xx_ll_sdmmc.c ****   {
1292:Drivers/STM32F4xx_HAL_Driver/Src/stm32f4xx_ll_sdmmc.c ****     return SDMMC_ERROR_CID_CSD_OVERWRITE;
1293:Drivers/STM32F4xx_HAL_Driver/Src/stm32f4xx_ll_sdmmc.c ****   }
1294:Drivers/STM32F4xx_HAL_Driver/Src/stm32f4xx_ll_sdmmc.c ****   else if ((response_r1 & SDMMC_OCR_WP_ERASE_SKIP) == SDMMC_OCR_WP_ERASE_SKIP)
 797              		.loc 1 1294 8 is_stmt 1 view .LVU248
 798              		.loc 1 1294 11 is_stmt 0 view .LVU249
 799 00a6 1A04     		lsls	r2, r3, #16
 800 00a8 3AD4     		bmi	.L42
1295:Drivers/STM32F4xx_HAL_Driver/Src/stm32f4xx_ll_sdmmc.c ****   {
1296:Drivers/STM32F4xx_HAL_Driver/Src/stm32f4xx_ll_sdmmc.c ****     return SDMMC_ERROR_WP_ERASE_SKIP;
1297:Drivers/STM32F4xx_HAL_Driver/Src/stm32f4xx_ll_sdmmc.c ****   }
1298:Drivers/STM32F4xx_HAL_Driver/Src/stm32f4xx_ll_sdmmc.c ****   else if ((response_r1 & SDMMC_OCR_CARD_ECC_DISABLED) == SDMMC_OCR_CARD_ECC_DISABLED)
 801              		.loc 1 1298 8 is_stmt 1 view .LVU250
 802              		.loc 1 1298 11 is_stmt 0 view .LVU251
 803 00aa 5904     		lsls	r1, r3, #17
 804 00ac 35D4     		bmi	.L43
1299:Drivers/STM32F4xx_HAL_Driver/Src/stm32f4xx_ll_sdmmc.c ****   {
1300:Drivers/STM32F4xx_HAL_Driver/Src/stm32f4xx_ll_sdmmc.c ****     return SDMMC_ERROR_CARD_ECC_DISABLED;
1301:Drivers/STM32F4xx_HAL_Driver/Src/stm32f4xx_ll_sdmmc.c ****   }
1302:Drivers/STM32F4xx_HAL_Driver/Src/stm32f4xx_ll_sdmmc.c ****   else if ((response_r1 & SDMMC_OCR_ERASE_RESET) == SDMMC_OCR_ERASE_RESET)
 805              		.loc 1 1302 8 is_stmt 1 view .LVU252
 806              		.loc 1 1302 11 is_stmt 0 view .LVU253
 807 00ae 9A04     		lsls	r2, r3, #18
 808 00b0 07D4     		bmi	.L44
1303:Drivers/STM32F4xx_HAL_Driver/Src/stm32f4xx_ll_sdmmc.c ****   {
ARM GAS  C:\Users\pw705\AppData\Local\Temp\cceieKfF.s 			page 39


1304:Drivers/STM32F4xx_HAL_Driver/Src/stm32f4xx_ll_sdmmc.c ****     return SDMMC_ERROR_ERASE_RESET;
1305:Drivers/STM32F4xx_HAL_Driver/Src/stm32f4xx_ll_sdmmc.c ****   }
1306:Drivers/STM32F4xx_HAL_Driver/Src/stm32f4xx_ll_sdmmc.c ****   else if ((response_r1 & SDMMC_OCR_AKE_SEQ_ERROR) == SDMMC_OCR_AKE_SEQ_ERROR)
 809              		.loc 1 1306 8 is_stmt 1 view .LVU254
1307:Drivers/STM32F4xx_HAL_Driver/Src/stm32f4xx_ll_sdmmc.c ****   {
1308:Drivers/STM32F4xx_HAL_Driver/Src/stm32f4xx_ll_sdmmc.c ****     return SDMMC_ERROR_AKE_SEQ_ERR;
 810              		.loc 1 1308 12 is_stmt 0 view .LVU255
 811 00b2 13F0080F 		tst	r3, #8
 812 00b6 0CBF     		ite	eq
 813 00b8 4FF48030 		moveq	r0, #65536
 814 00bc 4FF40000 		movne	r0, #8388608
 815 00c0 7047     		bx	lr
 816              	.L44:
1304:Drivers/STM32F4xx_HAL_Driver/Src/stm32f4xx_ll_sdmmc.c ****   }
 817              		.loc 1 1304 12 view .LVU256
 818 00c2 4FF48000 		mov	r0, #4194304
 819              	.L18:
1304:Drivers/STM32F4xx_HAL_Driver/Src/stm32f4xx_ll_sdmmc.c ****   }
 820              		.loc 1 1304 12 view .LVU257
 821              	.LBE91:
 822              	.LBE90:
 823              	.LBE100:
 824              	.LBE116:
 521:Drivers/STM32F4xx_HAL_Driver/Src/stm32f4xx_ll_sdmmc.c **** 
 825              		.loc 1 521 1 view .LVU258
 826 00c6 7047     		bx	lr
 827              	.LVL53:
 828              	.L54:
 829              	.LBB117:
 830              	.LBB101:
1207:Drivers/STM32F4xx_HAL_Driver/Src/stm32f4xx_ll_sdmmc.c **** 
 831              		.loc 1 1207 5 is_stmt 1 view .LVU259
 832 00c8 0423     		movs	r3, #4
 833 00ca 8363     		str	r3, [r0, #56]
1209:Drivers/STM32F4xx_HAL_Driver/Src/stm32f4xx_ll_sdmmc.c ****   }
 834              		.loc 1 1209 5 view .LVU260
1209:Drivers/STM32F4xx_HAL_Driver/Src/stm32f4xx_ll_sdmmc.c ****   }
 835              		.loc 1 1209 12 is_stmt 0 view .LVU261
 836 00cc 1846     		mov	r0, r3
 837              	.LVL54:
1209:Drivers/STM32F4xx_HAL_Driver/Src/stm32f4xx_ll_sdmmc.c ****   }
 838              		.loc 1 1209 12 view .LVU262
 839 00ce 7047     		bx	lr
 840              	.LVL55:
 841              	.L28:
 842              	.LBB95:
 843              	.LBB94:
1240:Drivers/STM32F4xx_HAL_Driver/Src/stm32f4xx_ll_sdmmc.c ****   }
 844              		.loc 1 1240 12 view .LVU263
 845 00d0 4FF00070 		mov	r0, #33554432
 846 00d4 7047     		bx	lr
 847              	.L29:
1244:Drivers/STM32F4xx_HAL_Driver/Src/stm32f4xx_ll_sdmmc.c ****   }
 848              		.loc 1 1244 12 view .LVU264
 849 00d6 4020     		movs	r0, #64
 850 00d8 7047     		bx	lr
 851              	.L30:
ARM GAS  C:\Users\pw705\AppData\Local\Temp\cceieKfF.s 			page 40


1248:Drivers/STM32F4xx_HAL_Driver/Src/stm32f4xx_ll_sdmmc.c ****   }
 852              		.loc 1 1248 12 view .LVU265
 853 00da 8020     		movs	r0, #128
 854 00dc 7047     		bx	lr
 855              	.L31:
1252:Drivers/STM32F4xx_HAL_Driver/Src/stm32f4xx_ll_sdmmc.c ****   }
 856              		.loc 1 1252 12 view .LVU266
 857 00de 4FF48070 		mov	r0, #256
 858 00e2 7047     		bx	lr
 859              	.L32:
1256:Drivers/STM32F4xx_HAL_Driver/Src/stm32f4xx_ll_sdmmc.c ****   }
 860              		.loc 1 1256 12 view .LVU267
 861 00e4 4FF40070 		mov	r0, #512
 862 00e8 7047     		bx	lr
 863              	.L33:
1260:Drivers/STM32F4xx_HAL_Driver/Src/stm32f4xx_ll_sdmmc.c ****   }
 864              		.loc 1 1260 12 view .LVU268
 865 00ea 4FF48060 		mov	r0, #1024
 866 00ee 7047     		bx	lr
 867              	.L34:
1264:Drivers/STM32F4xx_HAL_Driver/Src/stm32f4xx_ll_sdmmc.c ****   }
 868              		.loc 1 1264 12 view .LVU269
 869 00f0 4FF40060 		mov	r0, #2048
 870 00f4 7047     		bx	lr
 871              	.L35:
1268:Drivers/STM32F4xx_HAL_Driver/Src/stm32f4xx_ll_sdmmc.c ****   }
 872              		.loc 1 1268 12 view .LVU270
 873 00f6 4FF48050 		mov	r0, #4096
 874 00fa 7047     		bx	lr
 875              	.L36:
1272:Drivers/STM32F4xx_HAL_Driver/Src/stm32f4xx_ll_sdmmc.c ****   }
 876              		.loc 1 1272 12 view .LVU271
 877 00fc 4FF40050 		mov	r0, #8192
 878 0100 7047     		bx	lr
 879              	.L40:
1288:Drivers/STM32F4xx_HAL_Driver/Src/stm32f4xx_ll_sdmmc.c ****   }
 880              		.loc 1 1288 12 view .LVU272
 881 0102 4FF48020 		mov	r0, #262144
 882 0106 7047     		bx	lr
 883              	.L39:
1284:Drivers/STM32F4xx_HAL_Driver/Src/stm32f4xx_ll_sdmmc.c ****   }
 884              		.loc 1 1284 12 view .LVU273
 885 0108 4FF40030 		mov	r0, #131072
 886 010c 7047     		bx	lr
 887              	.L38:
1280:Drivers/STM32F4xx_HAL_Driver/Src/stm32f4xx_ll_sdmmc.c ****   }
 888              		.loc 1 1280 12 view .LVU274
 889 010e 4FF40040 		mov	r0, #32768
 890 0112 7047     		bx	lr
 891              	.L37:
1276:Drivers/STM32F4xx_HAL_Driver/Src/stm32f4xx_ll_sdmmc.c ****   }
 892              		.loc 1 1276 12 view .LVU275
 893 0114 4FF48040 		mov	r0, #16384
 894 0118 7047     		bx	lr
 895              	.L43:
1300:Drivers/STM32F4xx_HAL_Driver/Src/stm32f4xx_ll_sdmmc.c ****   }
 896              		.loc 1 1300 12 view .LVU276
ARM GAS  C:\Users\pw705\AppData\Local\Temp\cceieKfF.s 			page 41


 897 011a 4FF40010 		mov	r0, #2097152
 898 011e 7047     		bx	lr
 899              	.L42:
1296:Drivers/STM32F4xx_HAL_Driver/Src/stm32f4xx_ll_sdmmc.c ****   }
 900              		.loc 1 1296 12 view .LVU277
 901 0120 4FF48010 		mov	r0, #1048576
 902 0124 7047     		bx	lr
 903              	.L41:
1292:Drivers/STM32F4xx_HAL_Driver/Src/stm32f4xx_ll_sdmmc.c ****   }
 904              		.loc 1 1292 12 view .LVU278
 905 0126 4FF40020 		mov	r0, #524288
 906 012a 7047     		bx	lr
 907              	.L57:
 908              		.align	2
 909              	.L56:
 910 012c 00000000 		.word	SystemCoreClock
 911 0130 D34D6210 		.word	274877907
 912 0134 08E0FFFD 		.word	-33562616
 913              	.LBE94:
 914              	.LBE95:
 915              	.LBE101:
 916              	.LBE117:
 917              		.cfi_endproc
 918              	.LFE143:
 920              		.section	.text.SDMMC_CmdReadSingleBlock,"ax",%progbits
 921              		.align	1
 922              		.p2align 2,,3
 923              		.global	SDMMC_CmdReadSingleBlock
 924              		.syntax unified
 925              		.thumb
 926              		.thumb_func
 928              	SDMMC_CmdReadSingleBlock:
 929              	.LVL56:
 930              	.LFB144:
 529:Drivers/STM32F4xx_HAL_Driver/Src/stm32f4xx_ll_sdmmc.c ****   SDIO_CmdInitTypeDef sdmmc_cmdinit;
 931              		.loc 1 529 1 is_stmt 1 view -0
 932              		.cfi_startproc
 933              		@ args = 0, pretend = 0, frame = 0
 934              		@ frame_needed = 0, uses_anonymous_args = 0
 935              		@ link register save eliminated.
 530:Drivers/STM32F4xx_HAL_Driver/Src/stm32f4xx_ll_sdmmc.c ****   uint32_t errorstate;
 936              		.loc 1 530 3 view .LVU280
 531:Drivers/STM32F4xx_HAL_Driver/Src/stm32f4xx_ll_sdmmc.c **** 
 937              		.loc 1 531 3 view .LVU281
 534:Drivers/STM32F4xx_HAL_Driver/Src/stm32f4xx_ll_sdmmc.c ****   sdmmc_cmdinit.CmdIndex = SDMMC_CMD_READ_SINGLE_BLOCK;
 938              		.loc 1 534 3 view .LVU282
 535:Drivers/STM32F4xx_HAL_Driver/Src/stm32f4xx_ll_sdmmc.c ****   sdmmc_cmdinit.Response = SDIO_RESPONSE_SHORT;
 939              		.loc 1 535 3 view .LVU283
 536:Drivers/STM32F4xx_HAL_Driver/Src/stm32f4xx_ll_sdmmc.c ****   sdmmc_cmdinit.WaitForInterrupt = SDIO_WAIT_NO;
 940              		.loc 1 536 3 view .LVU284
 537:Drivers/STM32F4xx_HAL_Driver/Src/stm32f4xx_ll_sdmmc.c ****   sdmmc_cmdinit.CPSM = SDIO_CPSM_ENABLE;
 941              		.loc 1 537 3 view .LVU285
 538:Drivers/STM32F4xx_HAL_Driver/Src/stm32f4xx_ll_sdmmc.c ****   (void)SDIO_SendCommand(SDIOx, &sdmmc_cmdinit);
 942              		.loc 1 538 3 view .LVU286
 539:Drivers/STM32F4xx_HAL_Driver/Src/stm32f4xx_ll_sdmmc.c **** 
 943              		.loc 1 539 3 view .LVU287
 944              	.LBB130:
ARM GAS  C:\Users\pw705\AppData\Local\Temp\cceieKfF.s 			page 42


 945              	.LBI130:
 345:Drivers/STM32F4xx_HAL_Driver/Src/stm32f4xx_ll_sdmmc.c **** {
 946              		.loc 1 345 19 view .LVU288
 947              	.LBB131:
 347:Drivers/STM32F4xx_HAL_Driver/Src/stm32f4xx_ll_sdmmc.c **** 
 948              		.loc 1 347 3 view .LVU289
 350:Drivers/STM32F4xx_HAL_Driver/Src/stm32f4xx_ll_sdmmc.c ****   assert_param(IS_SDIO_RESPONSE(Command->Response));
 949              		.loc 1 350 3 view .LVU290
 351:Drivers/STM32F4xx_HAL_Driver/Src/stm32f4xx_ll_sdmmc.c ****   assert_param(IS_SDIO_WAIT(Command->WaitForInterrupt));
 950              		.loc 1 351 3 view .LVU291
 352:Drivers/STM32F4xx_HAL_Driver/Src/stm32f4xx_ll_sdmmc.c ****   assert_param(IS_SDIO_CPSM(Command->CPSM));
 951              		.loc 1 352 3 view .LVU292
 353:Drivers/STM32F4xx_HAL_Driver/Src/stm32f4xx_ll_sdmmc.c **** 
 952              		.loc 1 353 3 view .LVU293
 356:Drivers/STM32F4xx_HAL_Driver/Src/stm32f4xx_ll_sdmmc.c **** 
 953              		.loc 1 356 3 view .LVU294
 356:Drivers/STM32F4xx_HAL_Driver/Src/stm32f4xx_ll_sdmmc.c **** 
 954              		.loc 1 356 14 is_stmt 0 view .LVU295
 955 0000 8160     		str	r1, [r0, #8]
 359:Drivers/STM32F4xx_HAL_Driver/Src/stm32f4xx_ll_sdmmc.c ****                        Command->Response |
 956              		.loc 1 359 3 is_stmt 1 view .LVU296
 957              	.LVL57:
 365:Drivers/STM32F4xx_HAL_Driver/Src/stm32f4xx_ll_sdmmc.c **** 
 958              		.loc 1 365 3 view .LVU297
 959              	.LBE131:
 960              	.LBE130:
 961              	.LBB137:
 962              	.LBB138:
1193:Drivers/STM32F4xx_HAL_Driver/Src/stm32f4xx_ll_sdmmc.c **** 
 963              		.loc 1 1193 52 is_stmt 0 view .LVU298
 964 0002 4B4A     		ldr	r2, .L96
 965              	.LBE138:
 966              	.LBE137:
 967              	.LBB153:
 968              	.LBB132:
 365:Drivers/STM32F4xx_HAL_Driver/Src/stm32f4xx_ll_sdmmc.c **** 
 969              		.loc 1 365 3 view .LVU299
 970 0004 C368     		ldr	r3, [r0, #12]
 971              	.LBE132:
 972              	.LBE153:
 973              	.LBB154:
 974              	.LBB147:
1193:Drivers/STM32F4xx_HAL_Driver/Src/stm32f4xx_ll_sdmmc.c **** 
 975              		.loc 1 1193 52 view .LVU300
 976 0006 4B49     		ldr	r1, .L96+4
 977              	.LVL58:
1193:Drivers/STM32F4xx_HAL_Driver/Src/stm32f4xx_ll_sdmmc.c **** 
 978              		.loc 1 1193 52 view .LVU301
 979 0008 1268     		ldr	r2, [r2]
 980              	.LBE147:
 981              	.LBE154:
 982              	.LBB155:
 983              	.LBB133:
 365:Drivers/STM32F4xx_HAL_Driver/Src/stm32f4xx_ll_sdmmc.c **** 
 984              		.loc 1 365 3 view .LVU302
 985 000a 23F47F63 		bic	r3, r3, #4080
 986              	.LBE133:
ARM GAS  C:\Users\pw705\AppData\Local\Temp\cceieKfF.s 			page 43


 987              	.LBE155:
 988              	.LBB156:
 989              	.LBB148:
1193:Drivers/STM32F4xx_HAL_Driver/Src/stm32f4xx_ll_sdmmc.c **** 
 990              		.loc 1 1193 52 view .LVU303
 991 000e A1FB0212 		umull	r1, r2, r1, r2
 992              	.LBE148:
 993              	.LBE156:
 994              	.LBB157:
 995              	.LBB134:
 365:Drivers/STM32F4xx_HAL_Driver/Src/stm32f4xx_ll_sdmmc.c **** 
 996              		.loc 1 365 3 view .LVU304
 997 0012 23F00F03 		bic	r3, r3, #15
 998 0016 43F48A63 		orr	r3, r3, #1104
 999              	.LBE134:
 1000              	.LBE157:
 1001              	.LBB158:
 1002              	.LBB149:
1193:Drivers/STM32F4xx_HAL_Driver/Src/stm32f4xx_ll_sdmmc.c **** 
 1003              		.loc 1 1193 52 view .LVU305
 1004 001a 520A     		lsrs	r2, r2, #9
1193:Drivers/STM32F4xx_HAL_Driver/Src/stm32f4xx_ll_sdmmc.c **** 
 1005              		.loc 1 1193 12 view .LVU306
 1006 001c 41F28831 		movw	r1, #5000
 1007              	.LBE149:
 1008              	.LBE158:
 1009              	.LBB159:
 1010              	.LBB135:
 365:Drivers/STM32F4xx_HAL_Driver/Src/stm32f4xx_ll_sdmmc.c **** 
 1011              		.loc 1 365 3 view .LVU307
 1012 0020 43F00103 		orr	r3, r3, #1
 1013              	.LBE135:
 1014              	.LBE159:
 1015              	.LBB160:
 1016              	.LBB150:
1193:Drivers/STM32F4xx_HAL_Driver/Src/stm32f4xx_ll_sdmmc.c **** 
 1017              		.loc 1 1193 12 view .LVU308
 1018 0024 01FB02F2 		mul	r2, r1, r2
 1019              	.LBE150:
 1020              	.LBE160:
 1021              	.LBB161:
 1022              	.LBB136:
 365:Drivers/STM32F4xx_HAL_Driver/Src/stm32f4xx_ll_sdmmc.c **** 
 1023              		.loc 1 365 3 view .LVU309
 1024 0028 C360     		str	r3, [r0, #12]
 1025              	.LVL59:
 367:Drivers/STM32F4xx_HAL_Driver/Src/stm32f4xx_ll_sdmmc.c **** }
 1026              		.loc 1 367 3 is_stmt 1 view .LVU310
 367:Drivers/STM32F4xx_HAL_Driver/Src/stm32f4xx_ll_sdmmc.c **** }
 1027              		.loc 1 367 3 is_stmt 0 view .LVU311
 1028              	.LBE136:
 1029              	.LBE161:
 542:Drivers/STM32F4xx_HAL_Driver/Src/stm32f4xx_ll_sdmmc.c **** 
 1030              		.loc 1 542 3 is_stmt 1 view .LVU312
 1031              	.LBB162:
 1032              	.LBI137:
1186:Drivers/STM32F4xx_HAL_Driver/Src/stm32f4xx_ll_sdmmc.c **** {
ARM GAS  C:\Users\pw705\AppData\Local\Temp\cceieKfF.s 			page 44


 1033              		.loc 1 1186 10 view .LVU313
 1034              	.LBB151:
1188:Drivers/STM32F4xx_HAL_Driver/Src/stm32f4xx_ll_sdmmc.c ****   uint32_t sta_reg;
 1035              		.loc 1 1188 3 view .LVU314
1189:Drivers/STM32F4xx_HAL_Driver/Src/stm32f4xx_ll_sdmmc.c **** 
 1036              		.loc 1 1189 3 view .LVU315
1193:Drivers/STM32F4xx_HAL_Driver/Src/stm32f4xx_ll_sdmmc.c **** 
 1037              		.loc 1 1193 3 view .LVU316
1195:Drivers/STM32F4xx_HAL_Driver/Src/stm32f4xx_ll_sdmmc.c ****   {
 1038              		.loc 1 1195 3 view .LVU317
1197:Drivers/STM32F4xx_HAL_Driver/Src/stm32f4xx_ll_sdmmc.c ****     {
 1039              		.loc 1 1197 5 view .LVU318
1197:Drivers/STM32F4xx_HAL_Driver/Src/stm32f4xx_ll_sdmmc.c ****     {
 1040              		.loc 1 1197 14 is_stmt 0 view .LVU319
 1041 002a 531E     		subs	r3, r2, #1
 1042              	.LVL60:
1197:Drivers/STM32F4xx_HAL_Driver/Src/stm32f4xx_ll_sdmmc.c ****     {
 1043              		.loc 1 1197 8 view .LVU320
 1044 002c 4AB1     		cbz	r2, .L67
 1045              	.L60:
1195:Drivers/STM32F4xx_HAL_Driver/Src/stm32f4xx_ll_sdmmc.c ****   {
 1046              		.loc 1 1195 3 is_stmt 1 view .LVU321
1197:Drivers/STM32F4xx_HAL_Driver/Src/stm32f4xx_ll_sdmmc.c ****     {
 1047              		.loc 1 1197 5 view .LVU322
1201:Drivers/STM32F4xx_HAL_Driver/Src/stm32f4xx_ll_sdmmc.c ****   } while (((sta_reg & (SDIO_FLAG_CCRCFAIL | SDIO_FLAG_CMDREND | SDIO_FLAG_CTIMEOUT)) == 0U) ||
 1048              		.loc 1 1201 5 view .LVU323
1201:Drivers/STM32F4xx_HAL_Driver/Src/stm32f4xx_ll_sdmmc.c ****   } while (((sta_reg & (SDIO_FLAG_CCRCFAIL | SDIO_FLAG_CMDREND | SDIO_FLAG_CTIMEOUT)) == 0U) ||
 1049              		.loc 1 1201 13 is_stmt 0 view .LVU324
 1050 002e 426B     		ldr	r2, [r0, #52]
 1051              	.LVL61:
1202:Drivers/STM32F4xx_HAL_Driver/Src/stm32f4xx_ll_sdmmc.c ****            ((sta_reg & SDIO_FLAG_CMDACT) != 0U));
 1052              		.loc 1 1202 94 is_stmt 1 view .LVU325
 1053 0030 12F0450F 		tst	r2, #69
1197:Drivers/STM32F4xx_HAL_Driver/Src/stm32f4xx_ll_sdmmc.c ****     {
 1054              		.loc 1 1197 14 is_stmt 0 view .LVU326
 1055 0034 03F1FF33 		add	r3, r3, #-1
 1056              	.LVL62:
1202:Drivers/STM32F4xx_HAL_Driver/Src/stm32f4xx_ll_sdmmc.c ****            ((sta_reg & SDIO_FLAG_CMDACT) != 0U));
 1057              		.loc 1 1202 94 view .LVU327
 1058 0038 01D0     		beq	.L61
 1059 003a 1105     		lsls	r1, r2, #20
 1060 003c 04D5     		bpl	.L93
 1061              	.L61:
1197:Drivers/STM32F4xx_HAL_Driver/Src/stm32f4xx_ll_sdmmc.c ****     {
 1062              		.loc 1 1197 8 view .LVU328
 1063 003e 5A1C     		adds	r2, r3, #1
 1064              	.LVL63:
1197:Drivers/STM32F4xx_HAL_Driver/Src/stm32f4xx_ll_sdmmc.c ****     {
 1065              		.loc 1 1197 8 view .LVU329
 1066 0040 F5D1     		bne	.L60
 1067              	.LVL64:
 1068              	.L67:
1199:Drivers/STM32F4xx_HAL_Driver/Src/stm32f4xx_ll_sdmmc.c ****     }
 1069              		.loc 1 1199 14 view .LVU330
 1070 0042 4FF00040 		mov	r0, #-2147483648
 1071              	.LVL65:
1199:Drivers/STM32F4xx_HAL_Driver/Src/stm32f4xx_ll_sdmmc.c ****     }
ARM GAS  C:\Users\pw705\AppData\Local\Temp\cceieKfF.s 			page 45


 1072              		.loc 1 1199 14 view .LVU331
 1073 0046 7047     		bx	lr
 1074              	.LVL66:
 1075              	.L93:
1205:Drivers/STM32F4xx_HAL_Driver/Src/stm32f4xx_ll_sdmmc.c ****   {
 1076              		.loc 1 1205 3 is_stmt 1 view .LVU332
1205:Drivers/STM32F4xx_HAL_Driver/Src/stm32f4xx_ll_sdmmc.c ****   {
 1077              		.loc 1 1205 7 is_stmt 0 view .LVU333
 1078 0048 436B     		ldr	r3, [r0, #52]
 1079              	.LVL67:
1205:Drivers/STM32F4xx_HAL_Driver/Src/stm32f4xx_ll_sdmmc.c ****   {
 1080              		.loc 1 1205 6 view .LVU334
 1081 004a 5A07     		lsls	r2, r3, #29
 1082              	.LVL68:
1205:Drivers/STM32F4xx_HAL_Driver/Src/stm32f4xx_ll_sdmmc.c ****   {
 1083              		.loc 1 1205 6 view .LVU335
 1084 004c 3ED4     		bmi	.L94
1211:Drivers/STM32F4xx_HAL_Driver/Src/stm32f4xx_ll_sdmmc.c ****   {
 1085              		.loc 1 1211 8 is_stmt 1 view .LVU336
1211:Drivers/STM32F4xx_HAL_Driver/Src/stm32f4xx_ll_sdmmc.c ****   {
 1086              		.loc 1 1211 12 is_stmt 0 view .LVU337
 1087 004e 436B     		ldr	r3, [r0, #52]
1211:Drivers/STM32F4xx_HAL_Driver/Src/stm32f4xx_ll_sdmmc.c ****   {
 1088              		.loc 1 1211 11 view .LVU338
 1089 0050 DB07     		lsls	r3, r3, #31
 1090 0052 07D4     		bmi	.L95
1220:Drivers/STM32F4xx_HAL_Driver/Src/stm32f4xx_ll_sdmmc.c **** 
 1091              		.loc 1 1220 3 is_stmt 1 view .LVU339
1223:Drivers/STM32F4xx_HAL_Driver/Src/stm32f4xx_ll_sdmmc.c **** 
 1092              		.loc 1 1223 3 view .LVU340
 1093 0054 C523     		movs	r3, #197
 1094 0056 8363     		str	r3, [r0, #56]
1226:Drivers/STM32F4xx_HAL_Driver/Src/stm32f4xx_ll_sdmmc.c ****   {
 1095              		.loc 1 1226 3 view .LVU341
 1096              	.LVL69:
 1097              	.LBB139:
 1098              	.LBI139:
 375:Drivers/STM32F4xx_HAL_Driver/Src/stm32f4xx_ll_sdmmc.c **** {
 1099              		.loc 1 375 9 view .LVU342
 1100              	.LBB140:
 377:Drivers/STM32F4xx_HAL_Driver/Src/stm32f4xx_ll_sdmmc.c **** }
 1101              		.loc 1 377 3 view .LVU343
 377:Drivers/STM32F4xx_HAL_Driver/Src/stm32f4xx_ll_sdmmc.c **** }
 1102              		.loc 1 377 25 is_stmt 0 view .LVU344
 1103 0058 0369     		ldr	r3, [r0, #16]
 1104              	.LVL70:
 377:Drivers/STM32F4xx_HAL_Driver/Src/stm32f4xx_ll_sdmmc.c **** }
 1105              		.loc 1 377 25 view .LVU345
 1106              	.LBE140:
 1107              	.LBE139:
1226:Drivers/STM32F4xx_HAL_Driver/Src/stm32f4xx_ll_sdmmc.c ****   {
 1108              		.loc 1 1226 6 view .LVU346
 1109 005a DBB2     		uxtb	r3, r3
 1110 005c 112B     		cmp	r3, #17
 1111 005e 04D0     		beq	.L65
 1112              	.L64:
1215:Drivers/STM32F4xx_HAL_Driver/Src/stm32f4xx_ll_sdmmc.c ****   }
ARM GAS  C:\Users\pw705\AppData\Local\Temp\cceieKfF.s 			page 46


 1113              		.loc 1 1215 12 view .LVU347
 1114 0060 0120     		movs	r0, #1
 1115              	.LVL71:
1215:Drivers/STM32F4xx_HAL_Driver/Src/stm32f4xx_ll_sdmmc.c ****   }
 1116              		.loc 1 1215 12 view .LVU348
 1117 0062 7047     		bx	lr
 1118              	.LVL72:
 1119              	.L95:
1213:Drivers/STM32F4xx_HAL_Driver/Src/stm32f4xx_ll_sdmmc.c **** 
 1120              		.loc 1 1213 5 is_stmt 1 view .LVU349
 1121 0064 0123     		movs	r3, #1
 1122 0066 8363     		str	r3, [r0, #56]
1215:Drivers/STM32F4xx_HAL_Driver/Src/stm32f4xx_ll_sdmmc.c ****   }
 1123              		.loc 1 1215 5 view .LVU350
1215:Drivers/STM32F4xx_HAL_Driver/Src/stm32f4xx_ll_sdmmc.c ****   }
 1124              		.loc 1 1215 12 is_stmt 0 view .LVU351
 1125 0068 FAE7     		b	.L64
 1126              	.L65:
 1127              	.LVL73:
 1128              	.LBB141:
 1129              	.LBI141:
1186:Drivers/STM32F4xx_HAL_Driver/Src/stm32f4xx_ll_sdmmc.c **** {
 1130              		.loc 1 1186 10 is_stmt 1 view .LVU352
 1131              	.LBB142:
1232:Drivers/STM32F4xx_HAL_Driver/Src/stm32f4xx_ll_sdmmc.c **** 
 1132              		.loc 1 1232 3 view .LVU353
 1133              	.LBB143:
 1134              	.LBI143:
 391:Drivers/STM32F4xx_HAL_Driver/Src/stm32f4xx_ll_sdmmc.c **** {
 1135              		.loc 1 391 10 view .LVU354
 1136              	.LBB144:
 393:Drivers/STM32F4xx_HAL_Driver/Src/stm32f4xx_ll_sdmmc.c **** 
 1137              		.loc 1 393 3 view .LVU355
 396:Drivers/STM32F4xx_HAL_Driver/Src/stm32f4xx_ll_sdmmc.c **** 
 1138              		.loc 1 396 3 view .LVU356
 399:Drivers/STM32F4xx_HAL_Driver/Src/stm32f4xx_ll_sdmmc.c **** 
 1139              		.loc 1 399 3 view .LVU357
 401:Drivers/STM32F4xx_HAL_Driver/Src/stm32f4xx_ll_sdmmc.c **** }
 1140              		.loc 1 401 3 view .LVU358
 401:Drivers/STM32F4xx_HAL_Driver/Src/stm32f4xx_ll_sdmmc.c **** }
 1141              		.loc 1 401 11 is_stmt 0 view .LVU359
 1142 006a 4369     		ldr	r3, [r0, #20]
 1143              	.LVL74:
 401:Drivers/STM32F4xx_HAL_Driver/Src/stm32f4xx_ll_sdmmc.c **** }
 1144              		.loc 1 401 11 view .LVU360
 1145              	.LBE144:
 1146              	.LBE143:
1234:Drivers/STM32F4xx_HAL_Driver/Src/stm32f4xx_ll_sdmmc.c ****   {
 1147              		.loc 1 1234 3 is_stmt 1 view .LVU361
1234:Drivers/STM32F4xx_HAL_Driver/Src/stm32f4xx_ll_sdmmc.c ****   {
 1148              		.loc 1 1234 20 is_stmt 0 view .LVU362
 1149 006c 3248     		ldr	r0, .L96+8
 1150              	.LVL75:
1234:Drivers/STM32F4xx_HAL_Driver/Src/stm32f4xx_ll_sdmmc.c ****   {
 1151              		.loc 1 1234 20 view .LVU363
 1152 006e 1840     		ands	r0, r0, r3
1234:Drivers/STM32F4xx_HAL_Driver/Src/stm32f4xx_ll_sdmmc.c ****   {
ARM GAS  C:\Users\pw705\AppData\Local\Temp\cceieKfF.s 			page 47


 1153              		.loc 1 1234 6 view .LVU364
 1154 0070 58B3     		cbz	r0, .L58
1238:Drivers/STM32F4xx_HAL_Driver/Src/stm32f4xx_ll_sdmmc.c ****   {
 1155              		.loc 1 1238 8 is_stmt 1 view .LVU365
1238:Drivers/STM32F4xx_HAL_Driver/Src/stm32f4xx_ll_sdmmc.c ****   {
 1156              		.loc 1 1238 11 is_stmt 0 view .LVU366
 1157 0072 002B     		cmp	r3, #0
 1158 0074 2EDB     		blt	.L68
1242:Drivers/STM32F4xx_HAL_Driver/Src/stm32f4xx_ll_sdmmc.c ****   {
 1159              		.loc 1 1242 8 is_stmt 1 view .LVU367
1242:Drivers/STM32F4xx_HAL_Driver/Src/stm32f4xx_ll_sdmmc.c ****   {
 1160              		.loc 1 1242 11 is_stmt 0 view .LVU368
 1161 0076 5900     		lsls	r1, r3, #1
 1162 0078 2FD4     		bmi	.L69
1246:Drivers/STM32F4xx_HAL_Driver/Src/stm32f4xx_ll_sdmmc.c ****   {
 1163              		.loc 1 1246 8 is_stmt 1 view .LVU369
1246:Drivers/STM32F4xx_HAL_Driver/Src/stm32f4xx_ll_sdmmc.c ****   {
 1164              		.loc 1 1246 11 is_stmt 0 view .LVU370
 1165 007a 9A00     		lsls	r2, r3, #2
 1166 007c 2FD4     		bmi	.L70
1250:Drivers/STM32F4xx_HAL_Driver/Src/stm32f4xx_ll_sdmmc.c ****   {
 1167              		.loc 1 1250 8 is_stmt 1 view .LVU371
1250:Drivers/STM32F4xx_HAL_Driver/Src/stm32f4xx_ll_sdmmc.c ****   {
 1168              		.loc 1 1250 11 is_stmt 0 view .LVU372
 1169 007e D900     		lsls	r1, r3, #3
 1170 0080 2FD4     		bmi	.L71
1254:Drivers/STM32F4xx_HAL_Driver/Src/stm32f4xx_ll_sdmmc.c ****   {
 1171              		.loc 1 1254 8 is_stmt 1 view .LVU373
1254:Drivers/STM32F4xx_HAL_Driver/Src/stm32f4xx_ll_sdmmc.c ****   {
 1172              		.loc 1 1254 11 is_stmt 0 view .LVU374
 1173 0082 1A01     		lsls	r2, r3, #4
 1174 0084 30D4     		bmi	.L72
1258:Drivers/STM32F4xx_HAL_Driver/Src/stm32f4xx_ll_sdmmc.c ****   {
 1175              		.loc 1 1258 8 is_stmt 1 view .LVU375
1258:Drivers/STM32F4xx_HAL_Driver/Src/stm32f4xx_ll_sdmmc.c ****   {
 1176              		.loc 1 1258 11 is_stmt 0 view .LVU376
 1177 0086 5901     		lsls	r1, r3, #5
 1178 0088 31D4     		bmi	.L73
1262:Drivers/STM32F4xx_HAL_Driver/Src/stm32f4xx_ll_sdmmc.c ****   {
 1179              		.loc 1 1262 8 is_stmt 1 view .LVU377
1262:Drivers/STM32F4xx_HAL_Driver/Src/stm32f4xx_ll_sdmmc.c ****   {
 1180              		.loc 1 1262 11 is_stmt 0 view .LVU378
 1181 008a DA01     		lsls	r2, r3, #7
 1182 008c 32D4     		bmi	.L74
1266:Drivers/STM32F4xx_HAL_Driver/Src/stm32f4xx_ll_sdmmc.c ****   {
 1183              		.loc 1 1266 8 is_stmt 1 view .LVU379
1266:Drivers/STM32F4xx_HAL_Driver/Src/stm32f4xx_ll_sdmmc.c ****   {
 1184              		.loc 1 1266 11 is_stmt 0 view .LVU380
 1185 008e 1902     		lsls	r1, r3, #8
 1186 0090 33D4     		bmi	.L75
1270:Drivers/STM32F4xx_HAL_Driver/Src/stm32f4xx_ll_sdmmc.c ****   {
 1187              		.loc 1 1270 8 is_stmt 1 view .LVU381
1270:Drivers/STM32F4xx_HAL_Driver/Src/stm32f4xx_ll_sdmmc.c ****   {
 1188              		.loc 1 1270 11 is_stmt 0 view .LVU382
 1189 0092 5A02     		lsls	r2, r3, #9
 1190 0094 34D4     		bmi	.L76
1274:Drivers/STM32F4xx_HAL_Driver/Src/stm32f4xx_ll_sdmmc.c ****   {
ARM GAS  C:\Users\pw705\AppData\Local\Temp\cceieKfF.s 			page 48


 1191              		.loc 1 1274 8 is_stmt 1 view .LVU383
1274:Drivers/STM32F4xx_HAL_Driver/Src/stm32f4xx_ll_sdmmc.c ****   {
 1192              		.loc 1 1274 11 is_stmt 0 view .LVU384
 1193 0096 9902     		lsls	r1, r3, #10
 1194 0098 3ED4     		bmi	.L77
1278:Drivers/STM32F4xx_HAL_Driver/Src/stm32f4xx_ll_sdmmc.c ****   {
 1195              		.loc 1 1278 8 is_stmt 1 view .LVU385
1278:Drivers/STM32F4xx_HAL_Driver/Src/stm32f4xx_ll_sdmmc.c ****   {
 1196              		.loc 1 1278 11 is_stmt 0 view .LVU386
 1197 009a DA02     		lsls	r2, r3, #11
 1198 009c 39D4     		bmi	.L78
1282:Drivers/STM32F4xx_HAL_Driver/Src/stm32f4xx_ll_sdmmc.c ****   {
 1199              		.loc 1 1282 8 is_stmt 1 view .LVU387
1282:Drivers/STM32F4xx_HAL_Driver/Src/stm32f4xx_ll_sdmmc.c ****   {
 1200              		.loc 1 1282 11 is_stmt 0 view .LVU388
 1201 009e 5903     		lsls	r1, r3, #13
 1202 00a0 34D4     		bmi	.L79
1286:Drivers/STM32F4xx_HAL_Driver/Src/stm32f4xx_ll_sdmmc.c ****   {
 1203              		.loc 1 1286 8 is_stmt 1 view .LVU389
1286:Drivers/STM32F4xx_HAL_Driver/Src/stm32f4xx_ll_sdmmc.c ****   {
 1204              		.loc 1 1286 11 is_stmt 0 view .LVU390
 1205 00a2 9A03     		lsls	r2, r3, #14
 1206 00a4 2FD4     		bmi	.L80
1290:Drivers/STM32F4xx_HAL_Driver/Src/stm32f4xx_ll_sdmmc.c ****   {
 1207              		.loc 1 1290 8 is_stmt 1 view .LVU391
1290:Drivers/STM32F4xx_HAL_Driver/Src/stm32f4xx_ll_sdmmc.c ****   {
 1208              		.loc 1 1290 11 is_stmt 0 view .LVU392
 1209 00a6 D903     		lsls	r1, r3, #15
 1210 00a8 3FD4     		bmi	.L81
1294:Drivers/STM32F4xx_HAL_Driver/Src/stm32f4xx_ll_sdmmc.c ****   {
 1211              		.loc 1 1294 8 is_stmt 1 view .LVU393
1294:Drivers/STM32F4xx_HAL_Driver/Src/stm32f4xx_ll_sdmmc.c ****   {
 1212              		.loc 1 1294 11 is_stmt 0 view .LVU394
 1213 00aa 1A04     		lsls	r2, r3, #16
 1214 00ac 3AD4     		bmi	.L82
1298:Drivers/STM32F4xx_HAL_Driver/Src/stm32f4xx_ll_sdmmc.c ****   {
 1215              		.loc 1 1298 8 is_stmt 1 view .LVU395
1298:Drivers/STM32F4xx_HAL_Driver/Src/stm32f4xx_ll_sdmmc.c ****   {
 1216              		.loc 1 1298 11 is_stmt 0 view .LVU396
 1217 00ae 5904     		lsls	r1, r3, #17
 1218 00b0 35D4     		bmi	.L83
1302:Drivers/STM32F4xx_HAL_Driver/Src/stm32f4xx_ll_sdmmc.c ****   {
 1219              		.loc 1 1302 8 is_stmt 1 view .LVU397
1302:Drivers/STM32F4xx_HAL_Driver/Src/stm32f4xx_ll_sdmmc.c ****   {
 1220              		.loc 1 1302 11 is_stmt 0 view .LVU398
 1221 00b2 9A04     		lsls	r2, r3, #18
 1222 00b4 07D4     		bmi	.L84
1306:Drivers/STM32F4xx_HAL_Driver/Src/stm32f4xx_ll_sdmmc.c ****   {
 1223              		.loc 1 1306 8 is_stmt 1 view .LVU399
 1224              		.loc 1 1308 12 is_stmt 0 view .LVU400
 1225 00b6 13F0080F 		tst	r3, #8
 1226 00ba 0CBF     		ite	eq
 1227 00bc 4FF48030 		moveq	r0, #65536
 1228 00c0 4FF40000 		movne	r0, #8388608
 1229 00c4 7047     		bx	lr
 1230              	.L84:
1304:Drivers/STM32F4xx_HAL_Driver/Src/stm32f4xx_ll_sdmmc.c ****   }
ARM GAS  C:\Users\pw705\AppData\Local\Temp\cceieKfF.s 			page 49


 1231              		.loc 1 1304 12 view .LVU401
 1232 00c6 4FF48000 		mov	r0, #4194304
 1233              	.L58:
1304:Drivers/STM32F4xx_HAL_Driver/Src/stm32f4xx_ll_sdmmc.c ****   }
 1234              		.loc 1 1304 12 view .LVU402
 1235              	.LBE142:
 1236              	.LBE141:
 1237              	.LBE151:
 1238              	.LBE162:
 545:Drivers/STM32F4xx_HAL_Driver/Src/stm32f4xx_ll_sdmmc.c **** 
 1239              		.loc 1 545 1 view .LVU403
 1240 00ca 7047     		bx	lr
 1241              	.LVL76:
 1242              	.L94:
 1243              	.LBB163:
 1244              	.LBB152:
1207:Drivers/STM32F4xx_HAL_Driver/Src/stm32f4xx_ll_sdmmc.c **** 
 1245              		.loc 1 1207 5 is_stmt 1 view .LVU404
 1246 00cc 0423     		movs	r3, #4
 1247 00ce 8363     		str	r3, [r0, #56]
1209:Drivers/STM32F4xx_HAL_Driver/Src/stm32f4xx_ll_sdmmc.c ****   }
 1248              		.loc 1 1209 5 view .LVU405
1209:Drivers/STM32F4xx_HAL_Driver/Src/stm32f4xx_ll_sdmmc.c ****   }
 1249              		.loc 1 1209 12 is_stmt 0 view .LVU406
 1250 00d0 1846     		mov	r0, r3
 1251              	.LVL77:
1209:Drivers/STM32F4xx_HAL_Driver/Src/stm32f4xx_ll_sdmmc.c ****   }
 1252              		.loc 1 1209 12 view .LVU407
 1253 00d2 7047     		bx	lr
 1254              	.LVL78:
 1255              	.L68:
 1256              	.LBB146:
 1257              	.LBB145:
1240:Drivers/STM32F4xx_HAL_Driver/Src/stm32f4xx_ll_sdmmc.c ****   }
 1258              		.loc 1 1240 12 view .LVU408
 1259 00d4 4FF00070 		mov	r0, #33554432
 1260 00d8 7047     		bx	lr
 1261              	.L69:
1244:Drivers/STM32F4xx_HAL_Driver/Src/stm32f4xx_ll_sdmmc.c ****   }
 1262              		.loc 1 1244 12 view .LVU409
 1263 00da 4020     		movs	r0, #64
 1264 00dc 7047     		bx	lr
 1265              	.L70:
1248:Drivers/STM32F4xx_HAL_Driver/Src/stm32f4xx_ll_sdmmc.c ****   }
 1266              		.loc 1 1248 12 view .LVU410
 1267 00de 8020     		movs	r0, #128
 1268 00e0 7047     		bx	lr
 1269              	.L71:
1252:Drivers/STM32F4xx_HAL_Driver/Src/stm32f4xx_ll_sdmmc.c ****   }
 1270              		.loc 1 1252 12 view .LVU411
 1271 00e2 4FF48070 		mov	r0, #256
 1272 00e6 7047     		bx	lr
 1273              	.L72:
1256:Drivers/STM32F4xx_HAL_Driver/Src/stm32f4xx_ll_sdmmc.c ****   }
 1274              		.loc 1 1256 12 view .LVU412
 1275 00e8 4FF40070 		mov	r0, #512
 1276 00ec 7047     		bx	lr
ARM GAS  C:\Users\pw705\AppData\Local\Temp\cceieKfF.s 			page 50


 1277              	.L73:
1260:Drivers/STM32F4xx_HAL_Driver/Src/stm32f4xx_ll_sdmmc.c ****   }
 1278              		.loc 1 1260 12 view .LVU413
 1279 00ee 4FF48060 		mov	r0, #1024
 1280 00f2 7047     		bx	lr
 1281              	.L74:
1264:Drivers/STM32F4xx_HAL_Driver/Src/stm32f4xx_ll_sdmmc.c ****   }
 1282              		.loc 1 1264 12 view .LVU414
 1283 00f4 4FF40060 		mov	r0, #2048
 1284 00f8 7047     		bx	lr
 1285              	.L75:
1268:Drivers/STM32F4xx_HAL_Driver/Src/stm32f4xx_ll_sdmmc.c ****   }
 1286              		.loc 1 1268 12 view .LVU415
 1287 00fa 4FF48050 		mov	r0, #4096
 1288 00fe 7047     		bx	lr
 1289              	.L76:
1272:Drivers/STM32F4xx_HAL_Driver/Src/stm32f4xx_ll_sdmmc.c ****   }
 1290              		.loc 1 1272 12 view .LVU416
 1291 0100 4FF40050 		mov	r0, #8192
 1292 0104 7047     		bx	lr
 1293              	.L80:
1288:Drivers/STM32F4xx_HAL_Driver/Src/stm32f4xx_ll_sdmmc.c ****   }
 1294              		.loc 1 1288 12 view .LVU417
 1295 0106 4FF48020 		mov	r0, #262144
 1296 010a 7047     		bx	lr
 1297              	.L79:
1284:Drivers/STM32F4xx_HAL_Driver/Src/stm32f4xx_ll_sdmmc.c ****   }
 1298              		.loc 1 1284 12 view .LVU418
 1299 010c 4FF40030 		mov	r0, #131072
 1300 0110 7047     		bx	lr
 1301              	.L78:
1280:Drivers/STM32F4xx_HAL_Driver/Src/stm32f4xx_ll_sdmmc.c ****   }
 1302              		.loc 1 1280 12 view .LVU419
 1303 0112 4FF40040 		mov	r0, #32768
 1304 0116 7047     		bx	lr
 1305              	.L77:
1276:Drivers/STM32F4xx_HAL_Driver/Src/stm32f4xx_ll_sdmmc.c ****   }
 1306              		.loc 1 1276 12 view .LVU420
 1307 0118 4FF48040 		mov	r0, #16384
 1308 011c 7047     		bx	lr
 1309              	.L83:
1300:Drivers/STM32F4xx_HAL_Driver/Src/stm32f4xx_ll_sdmmc.c ****   }
 1310              		.loc 1 1300 12 view .LVU421
 1311 011e 4FF40010 		mov	r0, #2097152
 1312 0122 7047     		bx	lr
 1313              	.L82:
1296:Drivers/STM32F4xx_HAL_Driver/Src/stm32f4xx_ll_sdmmc.c ****   }
 1314              		.loc 1 1296 12 view .LVU422
 1315 0124 4FF48010 		mov	r0, #1048576
 1316 0128 7047     		bx	lr
 1317              	.L81:
1292:Drivers/STM32F4xx_HAL_Driver/Src/stm32f4xx_ll_sdmmc.c ****   }
 1318              		.loc 1 1292 12 view .LVU423
 1319 012a 4FF40020 		mov	r0, #524288
 1320 012e 7047     		bx	lr
 1321              	.L97:
 1322              		.align	2
ARM GAS  C:\Users\pw705\AppData\Local\Temp\cceieKfF.s 			page 51


 1323              	.L96:
 1324 0130 00000000 		.word	SystemCoreClock
 1325 0134 D34D6210 		.word	274877907
 1326 0138 08E0FFFD 		.word	-33562616
 1327              	.LBE145:
 1328              	.LBE146:
 1329              	.LBE152:
 1330              	.LBE163:
 1331              		.cfi_endproc
 1332              	.LFE144:
 1334              		.section	.text.SDMMC_CmdReadMultiBlock,"ax",%progbits
 1335              		.align	1
 1336              		.p2align 2,,3
 1337              		.global	SDMMC_CmdReadMultiBlock
 1338              		.syntax unified
 1339              		.thumb
 1340              		.thumb_func
 1342              	SDMMC_CmdReadMultiBlock:
 1343              	.LVL79:
 1344              	.LFB145:
 553:Drivers/STM32F4xx_HAL_Driver/Src/stm32f4xx_ll_sdmmc.c ****   SDIO_CmdInitTypeDef sdmmc_cmdinit;
 1345              		.loc 1 553 1 is_stmt 1 view -0
 1346              		.cfi_startproc
 1347              		@ args = 0, pretend = 0, frame = 0
 1348              		@ frame_needed = 0, uses_anonymous_args = 0
 1349              		@ link register save eliminated.
 554:Drivers/STM32F4xx_HAL_Driver/Src/stm32f4xx_ll_sdmmc.c ****   uint32_t errorstate;
 1350              		.loc 1 554 3 view .LVU425
 555:Drivers/STM32F4xx_HAL_Driver/Src/stm32f4xx_ll_sdmmc.c **** 
 1351              		.loc 1 555 3 view .LVU426
 558:Drivers/STM32F4xx_HAL_Driver/Src/stm32f4xx_ll_sdmmc.c ****   sdmmc_cmdinit.CmdIndex = SDMMC_CMD_READ_MULT_BLOCK;
 1352              		.loc 1 558 3 view .LVU427
 559:Drivers/STM32F4xx_HAL_Driver/Src/stm32f4xx_ll_sdmmc.c ****   sdmmc_cmdinit.Response = SDIO_RESPONSE_SHORT;
 1353              		.loc 1 559 3 view .LVU428
 560:Drivers/STM32F4xx_HAL_Driver/Src/stm32f4xx_ll_sdmmc.c ****   sdmmc_cmdinit.WaitForInterrupt = SDIO_WAIT_NO;
 1354              		.loc 1 560 3 view .LVU429
 561:Drivers/STM32F4xx_HAL_Driver/Src/stm32f4xx_ll_sdmmc.c ****   sdmmc_cmdinit.CPSM = SDIO_CPSM_ENABLE;
 1355              		.loc 1 561 3 view .LVU430
 562:Drivers/STM32F4xx_HAL_Driver/Src/stm32f4xx_ll_sdmmc.c ****   (void)SDIO_SendCommand(SDIOx, &sdmmc_cmdinit);
 1356              		.loc 1 562 3 view .LVU431
 563:Drivers/STM32F4xx_HAL_Driver/Src/stm32f4xx_ll_sdmmc.c **** 
 1357              		.loc 1 563 3 view .LVU432
 1358              	.LBB176:
 1359              	.LBI176:
 345:Drivers/STM32F4xx_HAL_Driver/Src/stm32f4xx_ll_sdmmc.c **** {
 1360              		.loc 1 345 19 view .LVU433
 1361              	.LBB177:
 347:Drivers/STM32F4xx_HAL_Driver/Src/stm32f4xx_ll_sdmmc.c **** 
 1362              		.loc 1 347 3 view .LVU434
 350:Drivers/STM32F4xx_HAL_Driver/Src/stm32f4xx_ll_sdmmc.c ****   assert_param(IS_SDIO_RESPONSE(Command->Response));
 1363              		.loc 1 350 3 view .LVU435
 351:Drivers/STM32F4xx_HAL_Driver/Src/stm32f4xx_ll_sdmmc.c ****   assert_param(IS_SDIO_WAIT(Command->WaitForInterrupt));
 1364              		.loc 1 351 3 view .LVU436
 352:Drivers/STM32F4xx_HAL_Driver/Src/stm32f4xx_ll_sdmmc.c ****   assert_param(IS_SDIO_CPSM(Command->CPSM));
 1365              		.loc 1 352 3 view .LVU437
 353:Drivers/STM32F4xx_HAL_Driver/Src/stm32f4xx_ll_sdmmc.c **** 
 1366              		.loc 1 353 3 view .LVU438
ARM GAS  C:\Users\pw705\AppData\Local\Temp\cceieKfF.s 			page 52


 356:Drivers/STM32F4xx_HAL_Driver/Src/stm32f4xx_ll_sdmmc.c **** 
 1367              		.loc 1 356 3 view .LVU439
 356:Drivers/STM32F4xx_HAL_Driver/Src/stm32f4xx_ll_sdmmc.c **** 
 1368              		.loc 1 356 14 is_stmt 0 view .LVU440
 1369 0000 8160     		str	r1, [r0, #8]
 359:Drivers/STM32F4xx_HAL_Driver/Src/stm32f4xx_ll_sdmmc.c ****                        Command->Response |
 1370              		.loc 1 359 3 is_stmt 1 view .LVU441
 1371              	.LVL80:
 365:Drivers/STM32F4xx_HAL_Driver/Src/stm32f4xx_ll_sdmmc.c **** 
 1372              		.loc 1 365 3 view .LVU442
 1373              	.LBE177:
 1374              	.LBE176:
 1375              	.LBB183:
 1376              	.LBB184:
1193:Drivers/STM32F4xx_HAL_Driver/Src/stm32f4xx_ll_sdmmc.c **** 
 1377              		.loc 1 1193 52 is_stmt 0 view .LVU443
 1378 0002 4B4A     		ldr	r2, .L136
 1379              	.LBE184:
 1380              	.LBE183:
 1381              	.LBB199:
 1382              	.LBB178:
 365:Drivers/STM32F4xx_HAL_Driver/Src/stm32f4xx_ll_sdmmc.c **** 
 1383              		.loc 1 365 3 view .LVU444
 1384 0004 C368     		ldr	r3, [r0, #12]
 1385              	.LBE178:
 1386              	.LBE199:
 1387              	.LBB200:
 1388              	.LBB193:
1193:Drivers/STM32F4xx_HAL_Driver/Src/stm32f4xx_ll_sdmmc.c **** 
 1389              		.loc 1 1193 52 view .LVU445
 1390 0006 4B49     		ldr	r1, .L136+4
 1391              	.LVL81:
1193:Drivers/STM32F4xx_HAL_Driver/Src/stm32f4xx_ll_sdmmc.c **** 
 1392              		.loc 1 1193 52 view .LVU446
 1393 0008 1268     		ldr	r2, [r2]
 1394              	.LBE193:
 1395              	.LBE200:
 1396              	.LBB201:
 1397              	.LBB179:
 365:Drivers/STM32F4xx_HAL_Driver/Src/stm32f4xx_ll_sdmmc.c **** 
 1398              		.loc 1 365 3 view .LVU447
 1399 000a 23F47F63 		bic	r3, r3, #4080
 1400              	.LBE179:
 1401              	.LBE201:
 1402              	.LBB202:
 1403              	.LBB194:
1193:Drivers/STM32F4xx_HAL_Driver/Src/stm32f4xx_ll_sdmmc.c **** 
 1404              		.loc 1 1193 52 view .LVU448
 1405 000e A1FB0212 		umull	r1, r2, r1, r2
 1406              	.LBE194:
 1407              	.LBE202:
 1408              	.LBB203:
 1409              	.LBB180:
 365:Drivers/STM32F4xx_HAL_Driver/Src/stm32f4xx_ll_sdmmc.c **** 
 1410              		.loc 1 365 3 view .LVU449
 1411 0012 23F00F03 		bic	r3, r3, #15
 1412 0016 43F48A63 		orr	r3, r3, #1104
ARM GAS  C:\Users\pw705\AppData\Local\Temp\cceieKfF.s 			page 53


 1413              	.LBE180:
 1414              	.LBE203:
 1415              	.LBB204:
 1416              	.LBB195:
1193:Drivers/STM32F4xx_HAL_Driver/Src/stm32f4xx_ll_sdmmc.c **** 
 1417              		.loc 1 1193 52 view .LVU450
 1418 001a 520A     		lsrs	r2, r2, #9
1193:Drivers/STM32F4xx_HAL_Driver/Src/stm32f4xx_ll_sdmmc.c **** 
 1419              		.loc 1 1193 12 view .LVU451
 1420 001c 41F28831 		movw	r1, #5000
 1421              	.LBE195:
 1422              	.LBE204:
 1423              	.LBB205:
 1424              	.LBB181:
 365:Drivers/STM32F4xx_HAL_Driver/Src/stm32f4xx_ll_sdmmc.c **** 
 1425              		.loc 1 365 3 view .LVU452
 1426 0020 43F00203 		orr	r3, r3, #2
 1427              	.LBE181:
 1428              	.LBE205:
 1429              	.LBB206:
 1430              	.LBB196:
1193:Drivers/STM32F4xx_HAL_Driver/Src/stm32f4xx_ll_sdmmc.c **** 
 1431              		.loc 1 1193 12 view .LVU453
 1432 0024 01FB02F2 		mul	r2, r1, r2
 1433              	.LBE196:
 1434              	.LBE206:
 1435              	.LBB207:
 1436              	.LBB182:
 365:Drivers/STM32F4xx_HAL_Driver/Src/stm32f4xx_ll_sdmmc.c **** 
 1437              		.loc 1 365 3 view .LVU454
 1438 0028 C360     		str	r3, [r0, #12]
 1439              	.LVL82:
 367:Drivers/STM32F4xx_HAL_Driver/Src/stm32f4xx_ll_sdmmc.c **** }
 1440              		.loc 1 367 3 is_stmt 1 view .LVU455
 367:Drivers/STM32F4xx_HAL_Driver/Src/stm32f4xx_ll_sdmmc.c **** }
 1441              		.loc 1 367 3 is_stmt 0 view .LVU456
 1442              	.LBE182:
 1443              	.LBE207:
 566:Drivers/STM32F4xx_HAL_Driver/Src/stm32f4xx_ll_sdmmc.c **** 
 1444              		.loc 1 566 3 is_stmt 1 view .LVU457
 1445              	.LBB208:
 1446              	.LBI183:
1186:Drivers/STM32F4xx_HAL_Driver/Src/stm32f4xx_ll_sdmmc.c **** {
 1447              		.loc 1 1186 10 view .LVU458
 1448              	.LBB197:
1188:Drivers/STM32F4xx_HAL_Driver/Src/stm32f4xx_ll_sdmmc.c ****   uint32_t sta_reg;
 1449              		.loc 1 1188 3 view .LVU459
1189:Drivers/STM32F4xx_HAL_Driver/Src/stm32f4xx_ll_sdmmc.c **** 
 1450              		.loc 1 1189 3 view .LVU460
1193:Drivers/STM32F4xx_HAL_Driver/Src/stm32f4xx_ll_sdmmc.c **** 
 1451              		.loc 1 1193 3 view .LVU461
1195:Drivers/STM32F4xx_HAL_Driver/Src/stm32f4xx_ll_sdmmc.c ****   {
 1452              		.loc 1 1195 3 view .LVU462
1197:Drivers/STM32F4xx_HAL_Driver/Src/stm32f4xx_ll_sdmmc.c ****     {
 1453              		.loc 1 1197 5 view .LVU463
1197:Drivers/STM32F4xx_HAL_Driver/Src/stm32f4xx_ll_sdmmc.c ****     {
 1454              		.loc 1 1197 14 is_stmt 0 view .LVU464
ARM GAS  C:\Users\pw705\AppData\Local\Temp\cceieKfF.s 			page 54


 1455 002a 531E     		subs	r3, r2, #1
 1456              	.LVL83:
1197:Drivers/STM32F4xx_HAL_Driver/Src/stm32f4xx_ll_sdmmc.c ****     {
 1457              		.loc 1 1197 8 view .LVU465
 1458 002c 4AB1     		cbz	r2, .L107
 1459              	.L100:
1195:Drivers/STM32F4xx_HAL_Driver/Src/stm32f4xx_ll_sdmmc.c ****   {
 1460              		.loc 1 1195 3 is_stmt 1 view .LVU466
1197:Drivers/STM32F4xx_HAL_Driver/Src/stm32f4xx_ll_sdmmc.c ****     {
 1461              		.loc 1 1197 5 view .LVU467
1201:Drivers/STM32F4xx_HAL_Driver/Src/stm32f4xx_ll_sdmmc.c ****   } while (((sta_reg & (SDIO_FLAG_CCRCFAIL | SDIO_FLAG_CMDREND | SDIO_FLAG_CTIMEOUT)) == 0U) ||
 1462              		.loc 1 1201 5 view .LVU468
1201:Drivers/STM32F4xx_HAL_Driver/Src/stm32f4xx_ll_sdmmc.c ****   } while (((sta_reg & (SDIO_FLAG_CCRCFAIL | SDIO_FLAG_CMDREND | SDIO_FLAG_CTIMEOUT)) == 0U) ||
 1463              		.loc 1 1201 13 is_stmt 0 view .LVU469
 1464 002e 426B     		ldr	r2, [r0, #52]
 1465              	.LVL84:
1202:Drivers/STM32F4xx_HAL_Driver/Src/stm32f4xx_ll_sdmmc.c ****            ((sta_reg & SDIO_FLAG_CMDACT) != 0U));
 1466              		.loc 1 1202 94 is_stmt 1 view .LVU470
 1467 0030 12F0450F 		tst	r2, #69
1197:Drivers/STM32F4xx_HAL_Driver/Src/stm32f4xx_ll_sdmmc.c ****     {
 1468              		.loc 1 1197 14 is_stmt 0 view .LVU471
 1469 0034 03F1FF33 		add	r3, r3, #-1
 1470              	.LVL85:
1202:Drivers/STM32F4xx_HAL_Driver/Src/stm32f4xx_ll_sdmmc.c ****            ((sta_reg & SDIO_FLAG_CMDACT) != 0U));
 1471              		.loc 1 1202 94 view .LVU472
 1472 0038 01D0     		beq	.L101
 1473 003a 1105     		lsls	r1, r2, #20
 1474 003c 04D5     		bpl	.L133
 1475              	.L101:
1197:Drivers/STM32F4xx_HAL_Driver/Src/stm32f4xx_ll_sdmmc.c ****     {
 1476              		.loc 1 1197 8 view .LVU473
 1477 003e 5A1C     		adds	r2, r3, #1
 1478              	.LVL86:
1197:Drivers/STM32F4xx_HAL_Driver/Src/stm32f4xx_ll_sdmmc.c ****     {
 1479              		.loc 1 1197 8 view .LVU474
 1480 0040 F5D1     		bne	.L100
 1481              	.LVL87:
 1482              	.L107:
1199:Drivers/STM32F4xx_HAL_Driver/Src/stm32f4xx_ll_sdmmc.c ****     }
 1483              		.loc 1 1199 14 view .LVU475
 1484 0042 4FF00040 		mov	r0, #-2147483648
 1485              	.LVL88:
1199:Drivers/STM32F4xx_HAL_Driver/Src/stm32f4xx_ll_sdmmc.c ****     }
 1486              		.loc 1 1199 14 view .LVU476
 1487 0046 7047     		bx	lr
 1488              	.LVL89:
 1489              	.L133:
1205:Drivers/STM32F4xx_HAL_Driver/Src/stm32f4xx_ll_sdmmc.c ****   {
 1490              		.loc 1 1205 3 is_stmt 1 view .LVU477
1205:Drivers/STM32F4xx_HAL_Driver/Src/stm32f4xx_ll_sdmmc.c ****   {
 1491              		.loc 1 1205 7 is_stmt 0 view .LVU478
 1492 0048 436B     		ldr	r3, [r0, #52]
 1493              	.LVL90:
1205:Drivers/STM32F4xx_HAL_Driver/Src/stm32f4xx_ll_sdmmc.c ****   {
 1494              		.loc 1 1205 6 view .LVU479
 1495 004a 5A07     		lsls	r2, r3, #29
 1496              	.LVL91:
ARM GAS  C:\Users\pw705\AppData\Local\Temp\cceieKfF.s 			page 55


1205:Drivers/STM32F4xx_HAL_Driver/Src/stm32f4xx_ll_sdmmc.c ****   {
 1497              		.loc 1 1205 6 view .LVU480
 1498 004c 3ED4     		bmi	.L134
1211:Drivers/STM32F4xx_HAL_Driver/Src/stm32f4xx_ll_sdmmc.c ****   {
 1499              		.loc 1 1211 8 is_stmt 1 view .LVU481
1211:Drivers/STM32F4xx_HAL_Driver/Src/stm32f4xx_ll_sdmmc.c ****   {
 1500              		.loc 1 1211 12 is_stmt 0 view .LVU482
 1501 004e 436B     		ldr	r3, [r0, #52]
1211:Drivers/STM32F4xx_HAL_Driver/Src/stm32f4xx_ll_sdmmc.c ****   {
 1502              		.loc 1 1211 11 view .LVU483
 1503 0050 DB07     		lsls	r3, r3, #31
 1504 0052 07D4     		bmi	.L135
1220:Drivers/STM32F4xx_HAL_Driver/Src/stm32f4xx_ll_sdmmc.c **** 
 1505              		.loc 1 1220 3 is_stmt 1 view .LVU484
1223:Drivers/STM32F4xx_HAL_Driver/Src/stm32f4xx_ll_sdmmc.c **** 
 1506              		.loc 1 1223 3 view .LVU485
 1507 0054 C523     		movs	r3, #197
 1508 0056 8363     		str	r3, [r0, #56]
1226:Drivers/STM32F4xx_HAL_Driver/Src/stm32f4xx_ll_sdmmc.c ****   {
 1509              		.loc 1 1226 3 view .LVU486
 1510              	.LVL92:
 1511              	.LBB185:
 1512              	.LBI185:
 375:Drivers/STM32F4xx_HAL_Driver/Src/stm32f4xx_ll_sdmmc.c **** {
 1513              		.loc 1 375 9 view .LVU487
 1514              	.LBB186:
 377:Drivers/STM32F4xx_HAL_Driver/Src/stm32f4xx_ll_sdmmc.c **** }
 1515              		.loc 1 377 3 view .LVU488
 377:Drivers/STM32F4xx_HAL_Driver/Src/stm32f4xx_ll_sdmmc.c **** }
 1516              		.loc 1 377 25 is_stmt 0 view .LVU489
 1517 0058 0369     		ldr	r3, [r0, #16]
 1518              	.LVL93:
 377:Drivers/STM32F4xx_HAL_Driver/Src/stm32f4xx_ll_sdmmc.c **** }
 1519              		.loc 1 377 25 view .LVU490
 1520              	.LBE186:
 1521              	.LBE185:
1226:Drivers/STM32F4xx_HAL_Driver/Src/stm32f4xx_ll_sdmmc.c ****   {
 1522              		.loc 1 1226 6 view .LVU491
 1523 005a DBB2     		uxtb	r3, r3
 1524 005c 122B     		cmp	r3, #18
 1525 005e 04D0     		beq	.L105
 1526              	.L104:
1215:Drivers/STM32F4xx_HAL_Driver/Src/stm32f4xx_ll_sdmmc.c ****   }
 1527              		.loc 1 1215 12 view .LVU492
 1528 0060 0120     		movs	r0, #1
 1529              	.LVL94:
1215:Drivers/STM32F4xx_HAL_Driver/Src/stm32f4xx_ll_sdmmc.c ****   }
 1530              		.loc 1 1215 12 view .LVU493
 1531 0062 7047     		bx	lr
 1532              	.LVL95:
 1533              	.L135:
1213:Drivers/STM32F4xx_HAL_Driver/Src/stm32f4xx_ll_sdmmc.c **** 
 1534              		.loc 1 1213 5 is_stmt 1 view .LVU494
 1535 0064 0123     		movs	r3, #1
 1536 0066 8363     		str	r3, [r0, #56]
1215:Drivers/STM32F4xx_HAL_Driver/Src/stm32f4xx_ll_sdmmc.c ****   }
 1537              		.loc 1 1215 5 view .LVU495
ARM GAS  C:\Users\pw705\AppData\Local\Temp\cceieKfF.s 			page 56


1215:Drivers/STM32F4xx_HAL_Driver/Src/stm32f4xx_ll_sdmmc.c ****   }
 1538              		.loc 1 1215 12 is_stmt 0 view .LVU496
 1539 0068 FAE7     		b	.L104
 1540              	.L105:
 1541              	.LVL96:
 1542              	.LBB187:
 1543              	.LBI187:
1186:Drivers/STM32F4xx_HAL_Driver/Src/stm32f4xx_ll_sdmmc.c **** {
 1544              		.loc 1 1186 10 is_stmt 1 view .LVU497
 1545              	.LBB188:
1232:Drivers/STM32F4xx_HAL_Driver/Src/stm32f4xx_ll_sdmmc.c **** 
 1546              		.loc 1 1232 3 view .LVU498
 1547              	.LBB189:
 1548              	.LBI189:
 391:Drivers/STM32F4xx_HAL_Driver/Src/stm32f4xx_ll_sdmmc.c **** {
 1549              		.loc 1 391 10 view .LVU499
 1550              	.LBB190:
 393:Drivers/STM32F4xx_HAL_Driver/Src/stm32f4xx_ll_sdmmc.c **** 
 1551              		.loc 1 393 3 view .LVU500
 396:Drivers/STM32F4xx_HAL_Driver/Src/stm32f4xx_ll_sdmmc.c **** 
 1552              		.loc 1 396 3 view .LVU501
 399:Drivers/STM32F4xx_HAL_Driver/Src/stm32f4xx_ll_sdmmc.c **** 
 1553              		.loc 1 399 3 view .LVU502
 401:Drivers/STM32F4xx_HAL_Driver/Src/stm32f4xx_ll_sdmmc.c **** }
 1554              		.loc 1 401 3 view .LVU503
 401:Drivers/STM32F4xx_HAL_Driver/Src/stm32f4xx_ll_sdmmc.c **** }
 1555              		.loc 1 401 11 is_stmt 0 view .LVU504
 1556 006a 4369     		ldr	r3, [r0, #20]
 1557              	.LVL97:
 401:Drivers/STM32F4xx_HAL_Driver/Src/stm32f4xx_ll_sdmmc.c **** }
 1558              		.loc 1 401 11 view .LVU505
 1559              	.LBE190:
 1560              	.LBE189:
1234:Drivers/STM32F4xx_HAL_Driver/Src/stm32f4xx_ll_sdmmc.c ****   {
 1561              		.loc 1 1234 3 is_stmt 1 view .LVU506
1234:Drivers/STM32F4xx_HAL_Driver/Src/stm32f4xx_ll_sdmmc.c ****   {
 1562              		.loc 1 1234 20 is_stmt 0 view .LVU507
 1563 006c 3248     		ldr	r0, .L136+8
 1564              	.LVL98:
1234:Drivers/STM32F4xx_HAL_Driver/Src/stm32f4xx_ll_sdmmc.c ****   {
 1565              		.loc 1 1234 20 view .LVU508
 1566 006e 1840     		ands	r0, r0, r3
1234:Drivers/STM32F4xx_HAL_Driver/Src/stm32f4xx_ll_sdmmc.c ****   {
 1567              		.loc 1 1234 6 view .LVU509
 1568 0070 58B3     		cbz	r0, .L98
1238:Drivers/STM32F4xx_HAL_Driver/Src/stm32f4xx_ll_sdmmc.c ****   {
 1569              		.loc 1 1238 8 is_stmt 1 view .LVU510
1238:Drivers/STM32F4xx_HAL_Driver/Src/stm32f4xx_ll_sdmmc.c ****   {
 1570              		.loc 1 1238 11 is_stmt 0 view .LVU511
 1571 0072 002B     		cmp	r3, #0
 1572 0074 2EDB     		blt	.L108
1242:Drivers/STM32F4xx_HAL_Driver/Src/stm32f4xx_ll_sdmmc.c ****   {
 1573              		.loc 1 1242 8 is_stmt 1 view .LVU512
1242:Drivers/STM32F4xx_HAL_Driver/Src/stm32f4xx_ll_sdmmc.c ****   {
 1574              		.loc 1 1242 11 is_stmt 0 view .LVU513
 1575 0076 5900     		lsls	r1, r3, #1
 1576 0078 2FD4     		bmi	.L109
ARM GAS  C:\Users\pw705\AppData\Local\Temp\cceieKfF.s 			page 57


1246:Drivers/STM32F4xx_HAL_Driver/Src/stm32f4xx_ll_sdmmc.c ****   {
 1577              		.loc 1 1246 8 is_stmt 1 view .LVU514
1246:Drivers/STM32F4xx_HAL_Driver/Src/stm32f4xx_ll_sdmmc.c ****   {
 1578              		.loc 1 1246 11 is_stmt 0 view .LVU515
 1579 007a 9A00     		lsls	r2, r3, #2
 1580 007c 2FD4     		bmi	.L110
1250:Drivers/STM32F4xx_HAL_Driver/Src/stm32f4xx_ll_sdmmc.c ****   {
 1581              		.loc 1 1250 8 is_stmt 1 view .LVU516
1250:Drivers/STM32F4xx_HAL_Driver/Src/stm32f4xx_ll_sdmmc.c ****   {
 1582              		.loc 1 1250 11 is_stmt 0 view .LVU517
 1583 007e D900     		lsls	r1, r3, #3
 1584 0080 2FD4     		bmi	.L111
1254:Drivers/STM32F4xx_HAL_Driver/Src/stm32f4xx_ll_sdmmc.c ****   {
 1585              		.loc 1 1254 8 is_stmt 1 view .LVU518
1254:Drivers/STM32F4xx_HAL_Driver/Src/stm32f4xx_ll_sdmmc.c ****   {
 1586              		.loc 1 1254 11 is_stmt 0 view .LVU519
 1587 0082 1A01     		lsls	r2, r3, #4
 1588 0084 30D4     		bmi	.L112
1258:Drivers/STM32F4xx_HAL_Driver/Src/stm32f4xx_ll_sdmmc.c ****   {
 1589              		.loc 1 1258 8 is_stmt 1 view .LVU520
1258:Drivers/STM32F4xx_HAL_Driver/Src/stm32f4xx_ll_sdmmc.c ****   {
 1590              		.loc 1 1258 11 is_stmt 0 view .LVU521
 1591 0086 5901     		lsls	r1, r3, #5
 1592 0088 31D4     		bmi	.L113
1262:Drivers/STM32F4xx_HAL_Driver/Src/stm32f4xx_ll_sdmmc.c ****   {
 1593              		.loc 1 1262 8 is_stmt 1 view .LVU522
1262:Drivers/STM32F4xx_HAL_Driver/Src/stm32f4xx_ll_sdmmc.c ****   {
 1594              		.loc 1 1262 11 is_stmt 0 view .LVU523
 1595 008a DA01     		lsls	r2, r3, #7
 1596 008c 32D4     		bmi	.L114
1266:Drivers/STM32F4xx_HAL_Driver/Src/stm32f4xx_ll_sdmmc.c ****   {
 1597              		.loc 1 1266 8 is_stmt 1 view .LVU524
1266:Drivers/STM32F4xx_HAL_Driver/Src/stm32f4xx_ll_sdmmc.c ****   {
 1598              		.loc 1 1266 11 is_stmt 0 view .LVU525
 1599 008e 1902     		lsls	r1, r3, #8
 1600 0090 33D4     		bmi	.L115
1270:Drivers/STM32F4xx_HAL_Driver/Src/stm32f4xx_ll_sdmmc.c ****   {
 1601              		.loc 1 1270 8 is_stmt 1 view .LVU526
1270:Drivers/STM32F4xx_HAL_Driver/Src/stm32f4xx_ll_sdmmc.c ****   {
 1602              		.loc 1 1270 11 is_stmt 0 view .LVU527
 1603 0092 5A02     		lsls	r2, r3, #9
 1604 0094 34D4     		bmi	.L116
1274:Drivers/STM32F4xx_HAL_Driver/Src/stm32f4xx_ll_sdmmc.c ****   {
 1605              		.loc 1 1274 8 is_stmt 1 view .LVU528
1274:Drivers/STM32F4xx_HAL_Driver/Src/stm32f4xx_ll_sdmmc.c ****   {
 1606              		.loc 1 1274 11 is_stmt 0 view .LVU529
 1607 0096 9902     		lsls	r1, r3, #10
 1608 0098 3ED4     		bmi	.L117
1278:Drivers/STM32F4xx_HAL_Driver/Src/stm32f4xx_ll_sdmmc.c ****   {
 1609              		.loc 1 1278 8 is_stmt 1 view .LVU530
1278:Drivers/STM32F4xx_HAL_Driver/Src/stm32f4xx_ll_sdmmc.c ****   {
 1610              		.loc 1 1278 11 is_stmt 0 view .LVU531
 1611 009a DA02     		lsls	r2, r3, #11
 1612 009c 39D4     		bmi	.L118
1282:Drivers/STM32F4xx_HAL_Driver/Src/stm32f4xx_ll_sdmmc.c ****   {
 1613              		.loc 1 1282 8 is_stmt 1 view .LVU532
1282:Drivers/STM32F4xx_HAL_Driver/Src/stm32f4xx_ll_sdmmc.c ****   {
ARM GAS  C:\Users\pw705\AppData\Local\Temp\cceieKfF.s 			page 58


 1614              		.loc 1 1282 11 is_stmt 0 view .LVU533
 1615 009e 5903     		lsls	r1, r3, #13
 1616 00a0 34D4     		bmi	.L119
1286:Drivers/STM32F4xx_HAL_Driver/Src/stm32f4xx_ll_sdmmc.c ****   {
 1617              		.loc 1 1286 8 is_stmt 1 view .LVU534
1286:Drivers/STM32F4xx_HAL_Driver/Src/stm32f4xx_ll_sdmmc.c ****   {
 1618              		.loc 1 1286 11 is_stmt 0 view .LVU535
 1619 00a2 9A03     		lsls	r2, r3, #14
 1620 00a4 2FD4     		bmi	.L120
1290:Drivers/STM32F4xx_HAL_Driver/Src/stm32f4xx_ll_sdmmc.c ****   {
 1621              		.loc 1 1290 8 is_stmt 1 view .LVU536
1290:Drivers/STM32F4xx_HAL_Driver/Src/stm32f4xx_ll_sdmmc.c ****   {
 1622              		.loc 1 1290 11 is_stmt 0 view .LVU537
 1623 00a6 D903     		lsls	r1, r3, #15
 1624 00a8 3FD4     		bmi	.L121
1294:Drivers/STM32F4xx_HAL_Driver/Src/stm32f4xx_ll_sdmmc.c ****   {
 1625              		.loc 1 1294 8 is_stmt 1 view .LVU538
1294:Drivers/STM32F4xx_HAL_Driver/Src/stm32f4xx_ll_sdmmc.c ****   {
 1626              		.loc 1 1294 11 is_stmt 0 view .LVU539
 1627 00aa 1A04     		lsls	r2, r3, #16
 1628 00ac 3AD4     		bmi	.L122
1298:Drivers/STM32F4xx_HAL_Driver/Src/stm32f4xx_ll_sdmmc.c ****   {
 1629              		.loc 1 1298 8 is_stmt 1 view .LVU540
1298:Drivers/STM32F4xx_HAL_Driver/Src/stm32f4xx_ll_sdmmc.c ****   {
 1630              		.loc 1 1298 11 is_stmt 0 view .LVU541
 1631 00ae 5904     		lsls	r1, r3, #17
 1632 00b0 35D4     		bmi	.L123
1302:Drivers/STM32F4xx_HAL_Driver/Src/stm32f4xx_ll_sdmmc.c ****   {
 1633              		.loc 1 1302 8 is_stmt 1 view .LVU542
1302:Drivers/STM32F4xx_HAL_Driver/Src/stm32f4xx_ll_sdmmc.c ****   {
 1634              		.loc 1 1302 11 is_stmt 0 view .LVU543
 1635 00b2 9A04     		lsls	r2, r3, #18
 1636 00b4 07D4     		bmi	.L124
1306:Drivers/STM32F4xx_HAL_Driver/Src/stm32f4xx_ll_sdmmc.c ****   {
 1637              		.loc 1 1306 8 is_stmt 1 view .LVU544
 1638              		.loc 1 1308 12 is_stmt 0 view .LVU545
 1639 00b6 13F0080F 		tst	r3, #8
 1640 00ba 0CBF     		ite	eq
 1641 00bc 4FF48030 		moveq	r0, #65536
 1642 00c0 4FF40000 		movne	r0, #8388608
 1643 00c4 7047     		bx	lr
 1644              	.L124:
1304:Drivers/STM32F4xx_HAL_Driver/Src/stm32f4xx_ll_sdmmc.c ****   }
 1645              		.loc 1 1304 12 view .LVU546
 1646 00c6 4FF48000 		mov	r0, #4194304
 1647              	.L98:
1304:Drivers/STM32F4xx_HAL_Driver/Src/stm32f4xx_ll_sdmmc.c ****   }
 1648              		.loc 1 1304 12 view .LVU547
 1649              	.LBE188:
 1650              	.LBE187:
 1651              	.LBE197:
 1652              	.LBE208:
 569:Drivers/STM32F4xx_HAL_Driver/Src/stm32f4xx_ll_sdmmc.c **** 
 1653              		.loc 1 569 1 view .LVU548
 1654 00ca 7047     		bx	lr
 1655              	.LVL99:
 1656              	.L134:
ARM GAS  C:\Users\pw705\AppData\Local\Temp\cceieKfF.s 			page 59


 1657              	.LBB209:
 1658              	.LBB198:
1207:Drivers/STM32F4xx_HAL_Driver/Src/stm32f4xx_ll_sdmmc.c **** 
 1659              		.loc 1 1207 5 is_stmt 1 view .LVU549
 1660 00cc 0423     		movs	r3, #4
 1661 00ce 8363     		str	r3, [r0, #56]
1209:Drivers/STM32F4xx_HAL_Driver/Src/stm32f4xx_ll_sdmmc.c ****   }
 1662              		.loc 1 1209 5 view .LVU550
1209:Drivers/STM32F4xx_HAL_Driver/Src/stm32f4xx_ll_sdmmc.c ****   }
 1663              		.loc 1 1209 12 is_stmt 0 view .LVU551
 1664 00d0 1846     		mov	r0, r3
 1665              	.LVL100:
1209:Drivers/STM32F4xx_HAL_Driver/Src/stm32f4xx_ll_sdmmc.c ****   }
 1666              		.loc 1 1209 12 view .LVU552
 1667 00d2 7047     		bx	lr
 1668              	.LVL101:
 1669              	.L108:
 1670              	.LBB192:
 1671              	.LBB191:
1240:Drivers/STM32F4xx_HAL_Driver/Src/stm32f4xx_ll_sdmmc.c ****   }
 1672              		.loc 1 1240 12 view .LVU553
 1673 00d4 4FF00070 		mov	r0, #33554432
 1674 00d8 7047     		bx	lr
 1675              	.L109:
1244:Drivers/STM32F4xx_HAL_Driver/Src/stm32f4xx_ll_sdmmc.c ****   }
 1676              		.loc 1 1244 12 view .LVU554
 1677 00da 4020     		movs	r0, #64
 1678 00dc 7047     		bx	lr
 1679              	.L110:
1248:Drivers/STM32F4xx_HAL_Driver/Src/stm32f4xx_ll_sdmmc.c ****   }
 1680              		.loc 1 1248 12 view .LVU555
 1681 00de 8020     		movs	r0, #128
 1682 00e0 7047     		bx	lr
 1683              	.L111:
1252:Drivers/STM32F4xx_HAL_Driver/Src/stm32f4xx_ll_sdmmc.c ****   }
 1684              		.loc 1 1252 12 view .LVU556
 1685 00e2 4FF48070 		mov	r0, #256
 1686 00e6 7047     		bx	lr
 1687              	.L112:
1256:Drivers/STM32F4xx_HAL_Driver/Src/stm32f4xx_ll_sdmmc.c ****   }
 1688              		.loc 1 1256 12 view .LVU557
 1689 00e8 4FF40070 		mov	r0, #512
 1690 00ec 7047     		bx	lr
 1691              	.L113:
1260:Drivers/STM32F4xx_HAL_Driver/Src/stm32f4xx_ll_sdmmc.c ****   }
 1692              		.loc 1 1260 12 view .LVU558
 1693 00ee 4FF48060 		mov	r0, #1024
 1694 00f2 7047     		bx	lr
 1695              	.L114:
1264:Drivers/STM32F4xx_HAL_Driver/Src/stm32f4xx_ll_sdmmc.c ****   }
 1696              		.loc 1 1264 12 view .LVU559
 1697 00f4 4FF40060 		mov	r0, #2048
 1698 00f8 7047     		bx	lr
 1699              	.L115:
1268:Drivers/STM32F4xx_HAL_Driver/Src/stm32f4xx_ll_sdmmc.c ****   }
 1700              		.loc 1 1268 12 view .LVU560
 1701 00fa 4FF48050 		mov	r0, #4096
ARM GAS  C:\Users\pw705\AppData\Local\Temp\cceieKfF.s 			page 60


 1702 00fe 7047     		bx	lr
 1703              	.L116:
1272:Drivers/STM32F4xx_HAL_Driver/Src/stm32f4xx_ll_sdmmc.c ****   }
 1704              		.loc 1 1272 12 view .LVU561
 1705 0100 4FF40050 		mov	r0, #8192
 1706 0104 7047     		bx	lr
 1707              	.L120:
1288:Drivers/STM32F4xx_HAL_Driver/Src/stm32f4xx_ll_sdmmc.c ****   }
 1708              		.loc 1 1288 12 view .LVU562
 1709 0106 4FF48020 		mov	r0, #262144
 1710 010a 7047     		bx	lr
 1711              	.L119:
1284:Drivers/STM32F4xx_HAL_Driver/Src/stm32f4xx_ll_sdmmc.c ****   }
 1712              		.loc 1 1284 12 view .LVU563
 1713 010c 4FF40030 		mov	r0, #131072
 1714 0110 7047     		bx	lr
 1715              	.L118:
1280:Drivers/STM32F4xx_HAL_Driver/Src/stm32f4xx_ll_sdmmc.c ****   }
 1716              		.loc 1 1280 12 view .LVU564
 1717 0112 4FF40040 		mov	r0, #32768
 1718 0116 7047     		bx	lr
 1719              	.L117:
1276:Drivers/STM32F4xx_HAL_Driver/Src/stm32f4xx_ll_sdmmc.c ****   }
 1720              		.loc 1 1276 12 view .LVU565
 1721 0118 4FF48040 		mov	r0, #16384
 1722 011c 7047     		bx	lr
 1723              	.L123:
1300:Drivers/STM32F4xx_HAL_Driver/Src/stm32f4xx_ll_sdmmc.c ****   }
 1724              		.loc 1 1300 12 view .LVU566
 1725 011e 4FF40010 		mov	r0, #2097152
 1726 0122 7047     		bx	lr
 1727              	.L122:
1296:Drivers/STM32F4xx_HAL_Driver/Src/stm32f4xx_ll_sdmmc.c ****   }
 1728              		.loc 1 1296 12 view .LVU567
 1729 0124 4FF48010 		mov	r0, #1048576
 1730 0128 7047     		bx	lr
 1731              	.L121:
1292:Drivers/STM32F4xx_HAL_Driver/Src/stm32f4xx_ll_sdmmc.c ****   }
 1732              		.loc 1 1292 12 view .LVU568
 1733 012a 4FF40020 		mov	r0, #524288
 1734 012e 7047     		bx	lr
 1735              	.L137:
 1736              		.align	2
 1737              	.L136:
 1738 0130 00000000 		.word	SystemCoreClock
 1739 0134 D34D6210 		.word	274877907
 1740 0138 08E0FFFD 		.word	-33562616
 1741              	.LBE191:
 1742              	.LBE192:
 1743              	.LBE198:
 1744              	.LBE209:
 1745              		.cfi_endproc
 1746              	.LFE145:
 1748              		.section	.text.SDMMC_CmdWriteSingleBlock,"ax",%progbits
 1749              		.align	1
 1750              		.p2align 2,,3
 1751              		.global	SDMMC_CmdWriteSingleBlock
ARM GAS  C:\Users\pw705\AppData\Local\Temp\cceieKfF.s 			page 61


 1752              		.syntax unified
 1753              		.thumb
 1754              		.thumb_func
 1756              	SDMMC_CmdWriteSingleBlock:
 1757              	.LVL102:
 1758              	.LFB146:
 577:Drivers/STM32F4xx_HAL_Driver/Src/stm32f4xx_ll_sdmmc.c ****   SDIO_CmdInitTypeDef sdmmc_cmdinit;
 1759              		.loc 1 577 1 is_stmt 1 view -0
 1760              		.cfi_startproc
 1761              		@ args = 0, pretend = 0, frame = 0
 1762              		@ frame_needed = 0, uses_anonymous_args = 0
 1763              		@ link register save eliminated.
 578:Drivers/STM32F4xx_HAL_Driver/Src/stm32f4xx_ll_sdmmc.c ****   uint32_t errorstate;
 1764              		.loc 1 578 3 view .LVU570
 579:Drivers/STM32F4xx_HAL_Driver/Src/stm32f4xx_ll_sdmmc.c **** 
 1765              		.loc 1 579 3 view .LVU571
 582:Drivers/STM32F4xx_HAL_Driver/Src/stm32f4xx_ll_sdmmc.c ****   sdmmc_cmdinit.CmdIndex = SDMMC_CMD_WRITE_SINGLE_BLOCK;
 1766              		.loc 1 582 3 view .LVU572
 1767              	.LBB222:
 1768              	.LBB223:
1193:Drivers/STM32F4xx_HAL_Driver/Src/stm32f4xx_ll_sdmmc.c **** 
 1769              		.loc 1 1193 52 is_stmt 0 view .LVU573
 1770 0000 4A4A     		ldr	r2, .L176
 1771              	.LVL103:
1193:Drivers/STM32F4xx_HAL_Driver/Src/stm32f4xx_ll_sdmmc.c **** 
 1772              		.loc 1 1193 52 view .LVU574
 1773              	.LBE223:
 1774              	.LBE222:
 583:Drivers/STM32F4xx_HAL_Driver/Src/stm32f4xx_ll_sdmmc.c ****   sdmmc_cmdinit.Response = SDIO_RESPONSE_SHORT;
 1775              		.loc 1 583 3 is_stmt 1 view .LVU575
 584:Drivers/STM32F4xx_HAL_Driver/Src/stm32f4xx_ll_sdmmc.c ****   sdmmc_cmdinit.WaitForInterrupt = SDIO_WAIT_NO;
 1776              		.loc 1 584 3 view .LVU576
 585:Drivers/STM32F4xx_HAL_Driver/Src/stm32f4xx_ll_sdmmc.c ****   sdmmc_cmdinit.CPSM = SDIO_CPSM_ENABLE;
 1777              		.loc 1 585 3 view .LVU577
 586:Drivers/STM32F4xx_HAL_Driver/Src/stm32f4xx_ll_sdmmc.c ****   (void)SDIO_SendCommand(SDIOx, &sdmmc_cmdinit);
 1778              		.loc 1 586 3 view .LVU578
 587:Drivers/STM32F4xx_HAL_Driver/Src/stm32f4xx_ll_sdmmc.c **** 
 1779              		.loc 1 587 3 view .LVU579
 1780              	.LBB238:
 1781              	.LBI238:
 345:Drivers/STM32F4xx_HAL_Driver/Src/stm32f4xx_ll_sdmmc.c **** {
 1782              		.loc 1 345 19 view .LVU580
 1783              	.LBB239:
 347:Drivers/STM32F4xx_HAL_Driver/Src/stm32f4xx_ll_sdmmc.c **** 
 1784              		.loc 1 347 3 view .LVU581
 350:Drivers/STM32F4xx_HAL_Driver/Src/stm32f4xx_ll_sdmmc.c ****   assert_param(IS_SDIO_RESPONSE(Command->Response));
 1785              		.loc 1 350 3 view .LVU582
 351:Drivers/STM32F4xx_HAL_Driver/Src/stm32f4xx_ll_sdmmc.c ****   assert_param(IS_SDIO_WAIT(Command->WaitForInterrupt));
 1786              		.loc 1 351 3 view .LVU583
 352:Drivers/STM32F4xx_HAL_Driver/Src/stm32f4xx_ll_sdmmc.c ****   assert_param(IS_SDIO_CPSM(Command->CPSM));
 1787              		.loc 1 352 3 view .LVU584
 353:Drivers/STM32F4xx_HAL_Driver/Src/stm32f4xx_ll_sdmmc.c **** 
 1788              		.loc 1 353 3 view .LVU585
 356:Drivers/STM32F4xx_HAL_Driver/Src/stm32f4xx_ll_sdmmc.c **** 
 1789              		.loc 1 356 3 view .LVU586
 356:Drivers/STM32F4xx_HAL_Driver/Src/stm32f4xx_ll_sdmmc.c **** 
 1790              		.loc 1 356 14 is_stmt 0 view .LVU587
ARM GAS  C:\Users\pw705\AppData\Local\Temp\cceieKfF.s 			page 62


 1791 0002 8160     		str	r1, [r0, #8]
 359:Drivers/STM32F4xx_HAL_Driver/Src/stm32f4xx_ll_sdmmc.c ****                        Command->Response |
 1792              		.loc 1 359 3 is_stmt 1 view .LVU588
 1793              	.LVL104:
 365:Drivers/STM32F4xx_HAL_Driver/Src/stm32f4xx_ll_sdmmc.c **** 
 1794              		.loc 1 365 3 view .LVU589
 1795 0004 C368     		ldr	r3, [r0, #12]
 1796              	.LBE239:
 1797              	.LBE238:
 1798              	.LBB244:
 1799              	.LBB232:
1193:Drivers/STM32F4xx_HAL_Driver/Src/stm32f4xx_ll_sdmmc.c **** 
 1800              		.loc 1 1193 52 is_stmt 0 view .LVU590
 1801 0006 4A49     		ldr	r1, .L176+4
 1802              	.LVL105:
1193:Drivers/STM32F4xx_HAL_Driver/Src/stm32f4xx_ll_sdmmc.c **** 
 1803              		.loc 1 1193 52 view .LVU591
 1804 0008 1268     		ldr	r2, [r2]
 1805              	.LBE232:
 1806              	.LBE244:
 1807              	.LBB245:
 1808              	.LBB240:
 365:Drivers/STM32F4xx_HAL_Driver/Src/stm32f4xx_ll_sdmmc.c **** 
 1809              		.loc 1 365 3 view .LVU592
 1810 000a 23F47F63 		bic	r3, r3, #4080
 1811              	.LBE240:
 1812              	.LBE245:
 1813              	.LBB246:
 1814              	.LBB233:
1193:Drivers/STM32F4xx_HAL_Driver/Src/stm32f4xx_ll_sdmmc.c **** 
 1815              		.loc 1 1193 52 view .LVU593
 1816 000e A1FB0212 		umull	r1, r2, r1, r2
 1817              	.LBE233:
 1818              	.LBE246:
 1819              	.LBB247:
 1820              	.LBB241:
 365:Drivers/STM32F4xx_HAL_Driver/Src/stm32f4xx_ll_sdmmc.c **** 
 1821              		.loc 1 365 3 view .LVU594
 1822 0012 23F00F03 		bic	r3, r3, #15
 1823              	.LBE241:
 1824              	.LBE247:
 1825              	.LBB248:
 1826              	.LBB234:
1193:Drivers/STM32F4xx_HAL_Driver/Src/stm32f4xx_ll_sdmmc.c **** 
 1827              		.loc 1 1193 52 view .LVU595
 1828 0016 520A     		lsrs	r2, r2, #9
1193:Drivers/STM32F4xx_HAL_Driver/Src/stm32f4xx_ll_sdmmc.c **** 
 1829              		.loc 1 1193 12 view .LVU596
 1830 0018 41F28831 		movw	r1, #5000
 1831              	.LBE234:
 1832              	.LBE248:
 1833              	.LBB249:
 1834              	.LBB242:
 365:Drivers/STM32F4xx_HAL_Driver/Src/stm32f4xx_ll_sdmmc.c **** 
 1835              		.loc 1 365 3 view .LVU597
 1836 001c 43F48B63 		orr	r3, r3, #1112
 1837              	.LBE242:
ARM GAS  C:\Users\pw705\AppData\Local\Temp\cceieKfF.s 			page 63


 1838              	.LBE249:
 1839              	.LBB250:
 1840              	.LBB235:
1193:Drivers/STM32F4xx_HAL_Driver/Src/stm32f4xx_ll_sdmmc.c **** 
 1841              		.loc 1 1193 12 view .LVU598
 1842 0020 01FB02F2 		mul	r2, r1, r2
 1843              	.LBE235:
 1844              	.LBE250:
 1845              	.LBB251:
 1846              	.LBB243:
 365:Drivers/STM32F4xx_HAL_Driver/Src/stm32f4xx_ll_sdmmc.c **** 
 1847              		.loc 1 365 3 view .LVU599
 1848 0024 C360     		str	r3, [r0, #12]
 1849              	.LVL106:
 367:Drivers/STM32F4xx_HAL_Driver/Src/stm32f4xx_ll_sdmmc.c **** }
 1850              		.loc 1 367 3 is_stmt 1 view .LVU600
 367:Drivers/STM32F4xx_HAL_Driver/Src/stm32f4xx_ll_sdmmc.c **** }
 1851              		.loc 1 367 3 is_stmt 0 view .LVU601
 1852              	.LBE243:
 1853              	.LBE251:
 590:Drivers/STM32F4xx_HAL_Driver/Src/stm32f4xx_ll_sdmmc.c **** 
 1854              		.loc 1 590 3 is_stmt 1 view .LVU602
 1855              	.LBB252:
 1856              	.LBI222:
1186:Drivers/STM32F4xx_HAL_Driver/Src/stm32f4xx_ll_sdmmc.c **** {
 1857              		.loc 1 1186 10 view .LVU603
 1858              	.LBB236:
1188:Drivers/STM32F4xx_HAL_Driver/Src/stm32f4xx_ll_sdmmc.c ****   uint32_t sta_reg;
 1859              		.loc 1 1188 3 view .LVU604
1189:Drivers/STM32F4xx_HAL_Driver/Src/stm32f4xx_ll_sdmmc.c **** 
 1860              		.loc 1 1189 3 view .LVU605
1193:Drivers/STM32F4xx_HAL_Driver/Src/stm32f4xx_ll_sdmmc.c **** 
 1861              		.loc 1 1193 3 view .LVU606
1195:Drivers/STM32F4xx_HAL_Driver/Src/stm32f4xx_ll_sdmmc.c ****   {
 1862              		.loc 1 1195 3 view .LVU607
1197:Drivers/STM32F4xx_HAL_Driver/Src/stm32f4xx_ll_sdmmc.c ****     {
 1863              		.loc 1 1197 5 view .LVU608
1197:Drivers/STM32F4xx_HAL_Driver/Src/stm32f4xx_ll_sdmmc.c ****     {
 1864              		.loc 1 1197 14 is_stmt 0 view .LVU609
 1865 0026 531E     		subs	r3, r2, #1
 1866              	.LVL107:
1197:Drivers/STM32F4xx_HAL_Driver/Src/stm32f4xx_ll_sdmmc.c ****     {
 1867              		.loc 1 1197 8 view .LVU610
 1868 0028 4AB1     		cbz	r2, .L147
 1869              	.L140:
1195:Drivers/STM32F4xx_HAL_Driver/Src/stm32f4xx_ll_sdmmc.c ****   {
 1870              		.loc 1 1195 3 is_stmt 1 view .LVU611
1197:Drivers/STM32F4xx_HAL_Driver/Src/stm32f4xx_ll_sdmmc.c ****     {
 1871              		.loc 1 1197 5 view .LVU612
1201:Drivers/STM32F4xx_HAL_Driver/Src/stm32f4xx_ll_sdmmc.c ****   } while (((sta_reg & (SDIO_FLAG_CCRCFAIL | SDIO_FLAG_CMDREND | SDIO_FLAG_CTIMEOUT)) == 0U) ||
 1872              		.loc 1 1201 5 view .LVU613
1201:Drivers/STM32F4xx_HAL_Driver/Src/stm32f4xx_ll_sdmmc.c ****   } while (((sta_reg & (SDIO_FLAG_CCRCFAIL | SDIO_FLAG_CMDREND | SDIO_FLAG_CTIMEOUT)) == 0U) ||
 1873              		.loc 1 1201 13 is_stmt 0 view .LVU614
 1874 002a 426B     		ldr	r2, [r0, #52]
 1875              	.LVL108:
1202:Drivers/STM32F4xx_HAL_Driver/Src/stm32f4xx_ll_sdmmc.c ****            ((sta_reg & SDIO_FLAG_CMDACT) != 0U));
 1876              		.loc 1 1202 94 is_stmt 1 view .LVU615
ARM GAS  C:\Users\pw705\AppData\Local\Temp\cceieKfF.s 			page 64


 1877 002c 12F0450F 		tst	r2, #69
1197:Drivers/STM32F4xx_HAL_Driver/Src/stm32f4xx_ll_sdmmc.c ****     {
 1878              		.loc 1 1197 14 is_stmt 0 view .LVU616
 1879 0030 03F1FF33 		add	r3, r3, #-1
 1880              	.LVL109:
1202:Drivers/STM32F4xx_HAL_Driver/Src/stm32f4xx_ll_sdmmc.c ****            ((sta_reg & SDIO_FLAG_CMDACT) != 0U));
 1881              		.loc 1 1202 94 view .LVU617
 1882 0034 01D0     		beq	.L141
 1883 0036 1105     		lsls	r1, r2, #20
 1884 0038 04D5     		bpl	.L173
 1885              	.L141:
1197:Drivers/STM32F4xx_HAL_Driver/Src/stm32f4xx_ll_sdmmc.c ****     {
 1886              		.loc 1 1197 8 view .LVU618
 1887 003a 5A1C     		adds	r2, r3, #1
 1888              	.LVL110:
1197:Drivers/STM32F4xx_HAL_Driver/Src/stm32f4xx_ll_sdmmc.c ****     {
 1889              		.loc 1 1197 8 view .LVU619
 1890 003c F5D1     		bne	.L140
 1891              	.LVL111:
 1892              	.L147:
1199:Drivers/STM32F4xx_HAL_Driver/Src/stm32f4xx_ll_sdmmc.c ****     }
 1893              		.loc 1 1199 14 view .LVU620
 1894 003e 4FF00040 		mov	r0, #-2147483648
 1895              	.LVL112:
1199:Drivers/STM32F4xx_HAL_Driver/Src/stm32f4xx_ll_sdmmc.c ****     }
 1896              		.loc 1 1199 14 view .LVU621
 1897 0042 7047     		bx	lr
 1898              	.LVL113:
 1899              	.L173:
1205:Drivers/STM32F4xx_HAL_Driver/Src/stm32f4xx_ll_sdmmc.c ****   {
 1900              		.loc 1 1205 3 is_stmt 1 view .LVU622
1205:Drivers/STM32F4xx_HAL_Driver/Src/stm32f4xx_ll_sdmmc.c ****   {
 1901              		.loc 1 1205 7 is_stmt 0 view .LVU623
 1902 0044 436B     		ldr	r3, [r0, #52]
 1903              	.LVL114:
1205:Drivers/STM32F4xx_HAL_Driver/Src/stm32f4xx_ll_sdmmc.c ****   {
 1904              		.loc 1 1205 6 view .LVU624
 1905 0046 5A07     		lsls	r2, r3, #29
 1906              	.LVL115:
1205:Drivers/STM32F4xx_HAL_Driver/Src/stm32f4xx_ll_sdmmc.c ****   {
 1907              		.loc 1 1205 6 view .LVU625
 1908 0048 3ED4     		bmi	.L174
1211:Drivers/STM32F4xx_HAL_Driver/Src/stm32f4xx_ll_sdmmc.c ****   {
 1909              		.loc 1 1211 8 is_stmt 1 view .LVU626
1211:Drivers/STM32F4xx_HAL_Driver/Src/stm32f4xx_ll_sdmmc.c ****   {
 1910              		.loc 1 1211 12 is_stmt 0 view .LVU627
 1911 004a 436B     		ldr	r3, [r0, #52]
1211:Drivers/STM32F4xx_HAL_Driver/Src/stm32f4xx_ll_sdmmc.c ****   {
 1912              		.loc 1 1211 11 view .LVU628
 1913 004c DB07     		lsls	r3, r3, #31
 1914 004e 07D4     		bmi	.L175
1220:Drivers/STM32F4xx_HAL_Driver/Src/stm32f4xx_ll_sdmmc.c **** 
 1915              		.loc 1 1220 3 is_stmt 1 view .LVU629
1223:Drivers/STM32F4xx_HAL_Driver/Src/stm32f4xx_ll_sdmmc.c **** 
 1916              		.loc 1 1223 3 view .LVU630
 1917 0050 C523     		movs	r3, #197
 1918 0052 8363     		str	r3, [r0, #56]
ARM GAS  C:\Users\pw705\AppData\Local\Temp\cceieKfF.s 			page 65


1226:Drivers/STM32F4xx_HAL_Driver/Src/stm32f4xx_ll_sdmmc.c ****   {
 1919              		.loc 1 1226 3 view .LVU631
 1920              	.LVL116:
 1921              	.LBB224:
 1922              	.LBI224:
 375:Drivers/STM32F4xx_HAL_Driver/Src/stm32f4xx_ll_sdmmc.c **** {
 1923              		.loc 1 375 9 view .LVU632
 1924              	.LBB225:
 377:Drivers/STM32F4xx_HAL_Driver/Src/stm32f4xx_ll_sdmmc.c **** }
 1925              		.loc 1 377 3 view .LVU633
 377:Drivers/STM32F4xx_HAL_Driver/Src/stm32f4xx_ll_sdmmc.c **** }
 1926              		.loc 1 377 25 is_stmt 0 view .LVU634
 1927 0054 0369     		ldr	r3, [r0, #16]
 1928              	.LVL117:
 377:Drivers/STM32F4xx_HAL_Driver/Src/stm32f4xx_ll_sdmmc.c **** }
 1929              		.loc 1 377 25 view .LVU635
 1930              	.LBE225:
 1931              	.LBE224:
1226:Drivers/STM32F4xx_HAL_Driver/Src/stm32f4xx_ll_sdmmc.c ****   {
 1932              		.loc 1 1226 6 view .LVU636
 1933 0056 DBB2     		uxtb	r3, r3
 1934 0058 182B     		cmp	r3, #24
 1935 005a 04D0     		beq	.L145
 1936              	.L144:
1215:Drivers/STM32F4xx_HAL_Driver/Src/stm32f4xx_ll_sdmmc.c ****   }
 1937              		.loc 1 1215 12 view .LVU637
 1938 005c 0120     		movs	r0, #1
 1939              	.LVL118:
1215:Drivers/STM32F4xx_HAL_Driver/Src/stm32f4xx_ll_sdmmc.c ****   }
 1940              		.loc 1 1215 12 view .LVU638
 1941 005e 7047     		bx	lr
 1942              	.LVL119:
 1943              	.L175:
1213:Drivers/STM32F4xx_HAL_Driver/Src/stm32f4xx_ll_sdmmc.c **** 
 1944              		.loc 1 1213 5 is_stmt 1 view .LVU639
 1945 0060 0123     		movs	r3, #1
 1946 0062 8363     		str	r3, [r0, #56]
1215:Drivers/STM32F4xx_HAL_Driver/Src/stm32f4xx_ll_sdmmc.c ****   }
 1947              		.loc 1 1215 5 view .LVU640
1215:Drivers/STM32F4xx_HAL_Driver/Src/stm32f4xx_ll_sdmmc.c ****   }
 1948              		.loc 1 1215 12 is_stmt 0 view .LVU641
 1949 0064 FAE7     		b	.L144
 1950              	.L145:
 1951              	.LVL120:
 1952              	.LBB226:
 1953              	.LBI226:
1186:Drivers/STM32F4xx_HAL_Driver/Src/stm32f4xx_ll_sdmmc.c **** {
 1954              		.loc 1 1186 10 is_stmt 1 view .LVU642
 1955              	.LBB227:
1232:Drivers/STM32F4xx_HAL_Driver/Src/stm32f4xx_ll_sdmmc.c **** 
 1956              		.loc 1 1232 3 view .LVU643
 1957              	.LBB228:
 1958              	.LBI228:
 391:Drivers/STM32F4xx_HAL_Driver/Src/stm32f4xx_ll_sdmmc.c **** {
 1959              		.loc 1 391 10 view .LVU644
 1960              	.LBB229:
 393:Drivers/STM32F4xx_HAL_Driver/Src/stm32f4xx_ll_sdmmc.c **** 
ARM GAS  C:\Users\pw705\AppData\Local\Temp\cceieKfF.s 			page 66


 1961              		.loc 1 393 3 view .LVU645
 396:Drivers/STM32F4xx_HAL_Driver/Src/stm32f4xx_ll_sdmmc.c **** 
 1962              		.loc 1 396 3 view .LVU646
 399:Drivers/STM32F4xx_HAL_Driver/Src/stm32f4xx_ll_sdmmc.c **** 
 1963              		.loc 1 399 3 view .LVU647
 401:Drivers/STM32F4xx_HAL_Driver/Src/stm32f4xx_ll_sdmmc.c **** }
 1964              		.loc 1 401 3 view .LVU648
 401:Drivers/STM32F4xx_HAL_Driver/Src/stm32f4xx_ll_sdmmc.c **** }
 1965              		.loc 1 401 11 is_stmt 0 view .LVU649
 1966 0066 4369     		ldr	r3, [r0, #20]
 1967              	.LVL121:
 401:Drivers/STM32F4xx_HAL_Driver/Src/stm32f4xx_ll_sdmmc.c **** }
 1968              		.loc 1 401 11 view .LVU650
 1969              	.LBE229:
 1970              	.LBE228:
1234:Drivers/STM32F4xx_HAL_Driver/Src/stm32f4xx_ll_sdmmc.c ****   {
 1971              		.loc 1 1234 3 is_stmt 1 view .LVU651
1234:Drivers/STM32F4xx_HAL_Driver/Src/stm32f4xx_ll_sdmmc.c ****   {
 1972              		.loc 1 1234 20 is_stmt 0 view .LVU652
 1973 0068 3248     		ldr	r0, .L176+8
 1974              	.LVL122:
1234:Drivers/STM32F4xx_HAL_Driver/Src/stm32f4xx_ll_sdmmc.c ****   {
 1975              		.loc 1 1234 20 view .LVU653
 1976 006a 1840     		ands	r0, r0, r3
1234:Drivers/STM32F4xx_HAL_Driver/Src/stm32f4xx_ll_sdmmc.c ****   {
 1977              		.loc 1 1234 6 view .LVU654
 1978 006c 58B3     		cbz	r0, .L138
1238:Drivers/STM32F4xx_HAL_Driver/Src/stm32f4xx_ll_sdmmc.c ****   {
 1979              		.loc 1 1238 8 is_stmt 1 view .LVU655
1238:Drivers/STM32F4xx_HAL_Driver/Src/stm32f4xx_ll_sdmmc.c ****   {
 1980              		.loc 1 1238 11 is_stmt 0 view .LVU656
 1981 006e 002B     		cmp	r3, #0
 1982 0070 2EDB     		blt	.L148
1242:Drivers/STM32F4xx_HAL_Driver/Src/stm32f4xx_ll_sdmmc.c ****   {
 1983              		.loc 1 1242 8 is_stmt 1 view .LVU657
1242:Drivers/STM32F4xx_HAL_Driver/Src/stm32f4xx_ll_sdmmc.c ****   {
 1984              		.loc 1 1242 11 is_stmt 0 view .LVU658
 1985 0072 5900     		lsls	r1, r3, #1
 1986 0074 2FD4     		bmi	.L149
1246:Drivers/STM32F4xx_HAL_Driver/Src/stm32f4xx_ll_sdmmc.c ****   {
 1987              		.loc 1 1246 8 is_stmt 1 view .LVU659
1246:Drivers/STM32F4xx_HAL_Driver/Src/stm32f4xx_ll_sdmmc.c ****   {
 1988              		.loc 1 1246 11 is_stmt 0 view .LVU660
 1989 0076 9A00     		lsls	r2, r3, #2
 1990 0078 2FD4     		bmi	.L150
1250:Drivers/STM32F4xx_HAL_Driver/Src/stm32f4xx_ll_sdmmc.c ****   {
 1991              		.loc 1 1250 8 is_stmt 1 view .LVU661
1250:Drivers/STM32F4xx_HAL_Driver/Src/stm32f4xx_ll_sdmmc.c ****   {
 1992              		.loc 1 1250 11 is_stmt 0 view .LVU662
 1993 007a D900     		lsls	r1, r3, #3
 1994 007c 2FD4     		bmi	.L151
1254:Drivers/STM32F4xx_HAL_Driver/Src/stm32f4xx_ll_sdmmc.c ****   {
 1995              		.loc 1 1254 8 is_stmt 1 view .LVU663
1254:Drivers/STM32F4xx_HAL_Driver/Src/stm32f4xx_ll_sdmmc.c ****   {
 1996              		.loc 1 1254 11 is_stmt 0 view .LVU664
 1997 007e 1A01     		lsls	r2, r3, #4
 1998 0080 30D4     		bmi	.L152
ARM GAS  C:\Users\pw705\AppData\Local\Temp\cceieKfF.s 			page 67


1258:Drivers/STM32F4xx_HAL_Driver/Src/stm32f4xx_ll_sdmmc.c ****   {
 1999              		.loc 1 1258 8 is_stmt 1 view .LVU665
1258:Drivers/STM32F4xx_HAL_Driver/Src/stm32f4xx_ll_sdmmc.c ****   {
 2000              		.loc 1 1258 11 is_stmt 0 view .LVU666
 2001 0082 5901     		lsls	r1, r3, #5
 2002 0084 31D4     		bmi	.L153
1262:Drivers/STM32F4xx_HAL_Driver/Src/stm32f4xx_ll_sdmmc.c ****   {
 2003              		.loc 1 1262 8 is_stmt 1 view .LVU667
1262:Drivers/STM32F4xx_HAL_Driver/Src/stm32f4xx_ll_sdmmc.c ****   {
 2004              		.loc 1 1262 11 is_stmt 0 view .LVU668
 2005 0086 DA01     		lsls	r2, r3, #7
 2006 0088 32D4     		bmi	.L154
1266:Drivers/STM32F4xx_HAL_Driver/Src/stm32f4xx_ll_sdmmc.c ****   {
 2007              		.loc 1 1266 8 is_stmt 1 view .LVU669
1266:Drivers/STM32F4xx_HAL_Driver/Src/stm32f4xx_ll_sdmmc.c ****   {
 2008              		.loc 1 1266 11 is_stmt 0 view .LVU670
 2009 008a 1902     		lsls	r1, r3, #8
 2010 008c 33D4     		bmi	.L155
1270:Drivers/STM32F4xx_HAL_Driver/Src/stm32f4xx_ll_sdmmc.c ****   {
 2011              		.loc 1 1270 8 is_stmt 1 view .LVU671
1270:Drivers/STM32F4xx_HAL_Driver/Src/stm32f4xx_ll_sdmmc.c ****   {
 2012              		.loc 1 1270 11 is_stmt 0 view .LVU672
 2013 008e 5A02     		lsls	r2, r3, #9
 2014 0090 34D4     		bmi	.L156
1274:Drivers/STM32F4xx_HAL_Driver/Src/stm32f4xx_ll_sdmmc.c ****   {
 2015              		.loc 1 1274 8 is_stmt 1 view .LVU673
1274:Drivers/STM32F4xx_HAL_Driver/Src/stm32f4xx_ll_sdmmc.c ****   {
 2016              		.loc 1 1274 11 is_stmt 0 view .LVU674
 2017 0092 9902     		lsls	r1, r3, #10
 2018 0094 3ED4     		bmi	.L157
1278:Drivers/STM32F4xx_HAL_Driver/Src/stm32f4xx_ll_sdmmc.c ****   {
 2019              		.loc 1 1278 8 is_stmt 1 view .LVU675
1278:Drivers/STM32F4xx_HAL_Driver/Src/stm32f4xx_ll_sdmmc.c ****   {
 2020              		.loc 1 1278 11 is_stmt 0 view .LVU676
 2021 0096 DA02     		lsls	r2, r3, #11
 2022 0098 39D4     		bmi	.L158
1282:Drivers/STM32F4xx_HAL_Driver/Src/stm32f4xx_ll_sdmmc.c ****   {
 2023              		.loc 1 1282 8 is_stmt 1 view .LVU677
1282:Drivers/STM32F4xx_HAL_Driver/Src/stm32f4xx_ll_sdmmc.c ****   {
 2024              		.loc 1 1282 11 is_stmt 0 view .LVU678
 2025 009a 5903     		lsls	r1, r3, #13
 2026 009c 34D4     		bmi	.L159
1286:Drivers/STM32F4xx_HAL_Driver/Src/stm32f4xx_ll_sdmmc.c ****   {
 2027              		.loc 1 1286 8 is_stmt 1 view .LVU679
1286:Drivers/STM32F4xx_HAL_Driver/Src/stm32f4xx_ll_sdmmc.c ****   {
 2028              		.loc 1 1286 11 is_stmt 0 view .LVU680
 2029 009e 9A03     		lsls	r2, r3, #14
 2030 00a0 2FD4     		bmi	.L160
1290:Drivers/STM32F4xx_HAL_Driver/Src/stm32f4xx_ll_sdmmc.c ****   {
 2031              		.loc 1 1290 8 is_stmt 1 view .LVU681
1290:Drivers/STM32F4xx_HAL_Driver/Src/stm32f4xx_ll_sdmmc.c ****   {
 2032              		.loc 1 1290 11 is_stmt 0 view .LVU682
 2033 00a2 D903     		lsls	r1, r3, #15
 2034 00a4 3FD4     		bmi	.L161
1294:Drivers/STM32F4xx_HAL_Driver/Src/stm32f4xx_ll_sdmmc.c ****   {
 2035              		.loc 1 1294 8 is_stmt 1 view .LVU683
1294:Drivers/STM32F4xx_HAL_Driver/Src/stm32f4xx_ll_sdmmc.c ****   {
ARM GAS  C:\Users\pw705\AppData\Local\Temp\cceieKfF.s 			page 68


 2036              		.loc 1 1294 11 is_stmt 0 view .LVU684
 2037 00a6 1A04     		lsls	r2, r3, #16
 2038 00a8 3AD4     		bmi	.L162
1298:Drivers/STM32F4xx_HAL_Driver/Src/stm32f4xx_ll_sdmmc.c ****   {
 2039              		.loc 1 1298 8 is_stmt 1 view .LVU685
1298:Drivers/STM32F4xx_HAL_Driver/Src/stm32f4xx_ll_sdmmc.c ****   {
 2040              		.loc 1 1298 11 is_stmt 0 view .LVU686
 2041 00aa 5904     		lsls	r1, r3, #17
 2042 00ac 35D4     		bmi	.L163
1302:Drivers/STM32F4xx_HAL_Driver/Src/stm32f4xx_ll_sdmmc.c ****   {
 2043              		.loc 1 1302 8 is_stmt 1 view .LVU687
1302:Drivers/STM32F4xx_HAL_Driver/Src/stm32f4xx_ll_sdmmc.c ****   {
 2044              		.loc 1 1302 11 is_stmt 0 view .LVU688
 2045 00ae 9A04     		lsls	r2, r3, #18
 2046 00b0 07D4     		bmi	.L164
1306:Drivers/STM32F4xx_HAL_Driver/Src/stm32f4xx_ll_sdmmc.c ****   {
 2047              		.loc 1 1306 8 is_stmt 1 view .LVU689
 2048              		.loc 1 1308 12 is_stmt 0 view .LVU690
 2049 00b2 13F0080F 		tst	r3, #8
 2050 00b6 0CBF     		ite	eq
 2051 00b8 4FF48030 		moveq	r0, #65536
 2052 00bc 4FF40000 		movne	r0, #8388608
 2053 00c0 7047     		bx	lr
 2054              	.L164:
1304:Drivers/STM32F4xx_HAL_Driver/Src/stm32f4xx_ll_sdmmc.c ****   }
 2055              		.loc 1 1304 12 view .LVU691
 2056 00c2 4FF48000 		mov	r0, #4194304
 2057              	.L138:
1304:Drivers/STM32F4xx_HAL_Driver/Src/stm32f4xx_ll_sdmmc.c ****   }
 2058              		.loc 1 1304 12 view .LVU692
 2059              	.LBE227:
 2060              	.LBE226:
 2061              	.LBE236:
 2062              	.LBE252:
 593:Drivers/STM32F4xx_HAL_Driver/Src/stm32f4xx_ll_sdmmc.c **** 
 2063              		.loc 1 593 1 view .LVU693
 2064 00c6 7047     		bx	lr
 2065              	.LVL123:
 2066              	.L174:
 2067              	.LBB253:
 2068              	.LBB237:
1207:Drivers/STM32F4xx_HAL_Driver/Src/stm32f4xx_ll_sdmmc.c **** 
 2069              		.loc 1 1207 5 is_stmt 1 view .LVU694
 2070 00c8 0423     		movs	r3, #4
 2071 00ca 8363     		str	r3, [r0, #56]
1209:Drivers/STM32F4xx_HAL_Driver/Src/stm32f4xx_ll_sdmmc.c ****   }
 2072              		.loc 1 1209 5 view .LVU695
1209:Drivers/STM32F4xx_HAL_Driver/Src/stm32f4xx_ll_sdmmc.c ****   }
 2073              		.loc 1 1209 12 is_stmt 0 view .LVU696
 2074 00cc 1846     		mov	r0, r3
 2075              	.LVL124:
1209:Drivers/STM32F4xx_HAL_Driver/Src/stm32f4xx_ll_sdmmc.c ****   }
 2076              		.loc 1 1209 12 view .LVU697
 2077 00ce 7047     		bx	lr
 2078              	.LVL125:
 2079              	.L148:
 2080              	.LBB231:
ARM GAS  C:\Users\pw705\AppData\Local\Temp\cceieKfF.s 			page 69


 2081              	.LBB230:
1240:Drivers/STM32F4xx_HAL_Driver/Src/stm32f4xx_ll_sdmmc.c ****   }
 2082              		.loc 1 1240 12 view .LVU698
 2083 00d0 4FF00070 		mov	r0, #33554432
 2084 00d4 7047     		bx	lr
 2085              	.L149:
1244:Drivers/STM32F4xx_HAL_Driver/Src/stm32f4xx_ll_sdmmc.c ****   }
 2086              		.loc 1 1244 12 view .LVU699
 2087 00d6 4020     		movs	r0, #64
 2088 00d8 7047     		bx	lr
 2089              	.L150:
1248:Drivers/STM32F4xx_HAL_Driver/Src/stm32f4xx_ll_sdmmc.c ****   }
 2090              		.loc 1 1248 12 view .LVU700
 2091 00da 8020     		movs	r0, #128
 2092 00dc 7047     		bx	lr
 2093              	.L151:
1252:Drivers/STM32F4xx_HAL_Driver/Src/stm32f4xx_ll_sdmmc.c ****   }
 2094              		.loc 1 1252 12 view .LVU701
 2095 00de 4FF48070 		mov	r0, #256
 2096 00e2 7047     		bx	lr
 2097              	.L152:
1256:Drivers/STM32F4xx_HAL_Driver/Src/stm32f4xx_ll_sdmmc.c ****   }
 2098              		.loc 1 1256 12 view .LVU702
 2099 00e4 4FF40070 		mov	r0, #512
 2100 00e8 7047     		bx	lr
 2101              	.L153:
1260:Drivers/STM32F4xx_HAL_Driver/Src/stm32f4xx_ll_sdmmc.c ****   }
 2102              		.loc 1 1260 12 view .LVU703
 2103 00ea 4FF48060 		mov	r0, #1024
 2104 00ee 7047     		bx	lr
 2105              	.L154:
1264:Drivers/STM32F4xx_HAL_Driver/Src/stm32f4xx_ll_sdmmc.c ****   }
 2106              		.loc 1 1264 12 view .LVU704
 2107 00f0 4FF40060 		mov	r0, #2048
 2108 00f4 7047     		bx	lr
 2109              	.L155:
1268:Drivers/STM32F4xx_HAL_Driver/Src/stm32f4xx_ll_sdmmc.c ****   }
 2110              		.loc 1 1268 12 view .LVU705
 2111 00f6 4FF48050 		mov	r0, #4096
 2112 00fa 7047     		bx	lr
 2113              	.L156:
1272:Drivers/STM32F4xx_HAL_Driver/Src/stm32f4xx_ll_sdmmc.c ****   }
 2114              		.loc 1 1272 12 view .LVU706
 2115 00fc 4FF40050 		mov	r0, #8192
 2116 0100 7047     		bx	lr
 2117              	.L160:
1288:Drivers/STM32F4xx_HAL_Driver/Src/stm32f4xx_ll_sdmmc.c ****   }
 2118              		.loc 1 1288 12 view .LVU707
 2119 0102 4FF48020 		mov	r0, #262144
 2120 0106 7047     		bx	lr
 2121              	.L159:
1284:Drivers/STM32F4xx_HAL_Driver/Src/stm32f4xx_ll_sdmmc.c ****   }
 2122              		.loc 1 1284 12 view .LVU708
 2123 0108 4FF40030 		mov	r0, #131072
 2124 010c 7047     		bx	lr
 2125              	.L158:
1280:Drivers/STM32F4xx_HAL_Driver/Src/stm32f4xx_ll_sdmmc.c ****   }
ARM GAS  C:\Users\pw705\AppData\Local\Temp\cceieKfF.s 			page 70


 2126              		.loc 1 1280 12 view .LVU709
 2127 010e 4FF40040 		mov	r0, #32768
 2128 0112 7047     		bx	lr
 2129              	.L157:
1276:Drivers/STM32F4xx_HAL_Driver/Src/stm32f4xx_ll_sdmmc.c ****   }
 2130              		.loc 1 1276 12 view .LVU710
 2131 0114 4FF48040 		mov	r0, #16384
 2132 0118 7047     		bx	lr
 2133              	.L163:
1300:Drivers/STM32F4xx_HAL_Driver/Src/stm32f4xx_ll_sdmmc.c ****   }
 2134              		.loc 1 1300 12 view .LVU711
 2135 011a 4FF40010 		mov	r0, #2097152
 2136 011e 7047     		bx	lr
 2137              	.L162:
1296:Drivers/STM32F4xx_HAL_Driver/Src/stm32f4xx_ll_sdmmc.c ****   }
 2138              		.loc 1 1296 12 view .LVU712
 2139 0120 4FF48010 		mov	r0, #1048576
 2140 0124 7047     		bx	lr
 2141              	.L161:
1292:Drivers/STM32F4xx_HAL_Driver/Src/stm32f4xx_ll_sdmmc.c ****   }
 2142              		.loc 1 1292 12 view .LVU713
 2143 0126 4FF40020 		mov	r0, #524288
 2144 012a 7047     		bx	lr
 2145              	.L177:
 2146              		.align	2
 2147              	.L176:
 2148 012c 00000000 		.word	SystemCoreClock
 2149 0130 D34D6210 		.word	274877907
 2150 0134 08E0FFFD 		.word	-33562616
 2151              	.LBE230:
 2152              	.LBE231:
 2153              	.LBE237:
 2154              	.LBE253:
 2155              		.cfi_endproc
 2156              	.LFE146:
 2158              		.section	.text.SDMMC_CmdWriteMultiBlock,"ax",%progbits
 2159              		.align	1
 2160              		.p2align 2,,3
 2161              		.global	SDMMC_CmdWriteMultiBlock
 2162              		.syntax unified
 2163              		.thumb
 2164              		.thumb_func
 2166              	SDMMC_CmdWriteMultiBlock:
 2167              	.LVL126:
 2168              	.LFB147:
 601:Drivers/STM32F4xx_HAL_Driver/Src/stm32f4xx_ll_sdmmc.c ****   SDIO_CmdInitTypeDef sdmmc_cmdinit;
 2169              		.loc 1 601 1 is_stmt 1 view -0
 2170              		.cfi_startproc
 2171              		@ args = 0, pretend = 0, frame = 0
 2172              		@ frame_needed = 0, uses_anonymous_args = 0
 2173              		@ link register save eliminated.
 602:Drivers/STM32F4xx_HAL_Driver/Src/stm32f4xx_ll_sdmmc.c ****   uint32_t errorstate;
 2174              		.loc 1 602 3 view .LVU715
 603:Drivers/STM32F4xx_HAL_Driver/Src/stm32f4xx_ll_sdmmc.c **** 
 2175              		.loc 1 603 3 view .LVU716
 606:Drivers/STM32F4xx_HAL_Driver/Src/stm32f4xx_ll_sdmmc.c ****   sdmmc_cmdinit.CmdIndex = SDMMC_CMD_WRITE_MULT_BLOCK;
 2176              		.loc 1 606 3 view .LVU717
ARM GAS  C:\Users\pw705\AppData\Local\Temp\cceieKfF.s 			page 71


 607:Drivers/STM32F4xx_HAL_Driver/Src/stm32f4xx_ll_sdmmc.c ****   sdmmc_cmdinit.Response = SDIO_RESPONSE_SHORT;
 2177              		.loc 1 607 3 view .LVU718
 608:Drivers/STM32F4xx_HAL_Driver/Src/stm32f4xx_ll_sdmmc.c ****   sdmmc_cmdinit.WaitForInterrupt = SDIO_WAIT_NO;
 2178              		.loc 1 608 3 view .LVU719
 609:Drivers/STM32F4xx_HAL_Driver/Src/stm32f4xx_ll_sdmmc.c ****   sdmmc_cmdinit.CPSM = SDIO_CPSM_ENABLE;
 2179              		.loc 1 609 3 view .LVU720
 610:Drivers/STM32F4xx_HAL_Driver/Src/stm32f4xx_ll_sdmmc.c ****   (void)SDIO_SendCommand(SDIOx, &sdmmc_cmdinit);
 2180              		.loc 1 610 3 view .LVU721
 611:Drivers/STM32F4xx_HAL_Driver/Src/stm32f4xx_ll_sdmmc.c **** 
 2181              		.loc 1 611 3 view .LVU722
 2182              	.LBB266:
 2183              	.LBI266:
 345:Drivers/STM32F4xx_HAL_Driver/Src/stm32f4xx_ll_sdmmc.c **** {
 2184              		.loc 1 345 19 view .LVU723
 2185              	.LBB267:
 347:Drivers/STM32F4xx_HAL_Driver/Src/stm32f4xx_ll_sdmmc.c **** 
 2186              		.loc 1 347 3 view .LVU724
 350:Drivers/STM32F4xx_HAL_Driver/Src/stm32f4xx_ll_sdmmc.c ****   assert_param(IS_SDIO_RESPONSE(Command->Response));
 2187              		.loc 1 350 3 view .LVU725
 351:Drivers/STM32F4xx_HAL_Driver/Src/stm32f4xx_ll_sdmmc.c ****   assert_param(IS_SDIO_WAIT(Command->WaitForInterrupt));
 2188              		.loc 1 351 3 view .LVU726
 352:Drivers/STM32F4xx_HAL_Driver/Src/stm32f4xx_ll_sdmmc.c ****   assert_param(IS_SDIO_CPSM(Command->CPSM));
 2189              		.loc 1 352 3 view .LVU727
 353:Drivers/STM32F4xx_HAL_Driver/Src/stm32f4xx_ll_sdmmc.c **** 
 2190              		.loc 1 353 3 view .LVU728
 356:Drivers/STM32F4xx_HAL_Driver/Src/stm32f4xx_ll_sdmmc.c **** 
 2191              		.loc 1 356 3 view .LVU729
 356:Drivers/STM32F4xx_HAL_Driver/Src/stm32f4xx_ll_sdmmc.c **** 
 2192              		.loc 1 356 14 is_stmt 0 view .LVU730
 2193 0000 8160     		str	r1, [r0, #8]
 359:Drivers/STM32F4xx_HAL_Driver/Src/stm32f4xx_ll_sdmmc.c ****                        Command->Response |
 2194              		.loc 1 359 3 is_stmt 1 view .LVU731
 2195              	.LVL127:
 365:Drivers/STM32F4xx_HAL_Driver/Src/stm32f4xx_ll_sdmmc.c **** 
 2196              		.loc 1 365 3 view .LVU732
 2197              	.LBE267:
 2198              	.LBE266:
 2199              	.LBB273:
 2200              	.LBB274:
1193:Drivers/STM32F4xx_HAL_Driver/Src/stm32f4xx_ll_sdmmc.c **** 
 2201              		.loc 1 1193 52 is_stmt 0 view .LVU733
 2202 0002 4B4A     		ldr	r2, .L216
 2203              	.LBE274:
 2204              	.LBE273:
 2205              	.LBB289:
 2206              	.LBB268:
 365:Drivers/STM32F4xx_HAL_Driver/Src/stm32f4xx_ll_sdmmc.c **** 
 2207              		.loc 1 365 3 view .LVU734
 2208 0004 C368     		ldr	r3, [r0, #12]
 2209              	.LBE268:
 2210              	.LBE289:
 2211              	.LBB290:
 2212              	.LBB283:
1193:Drivers/STM32F4xx_HAL_Driver/Src/stm32f4xx_ll_sdmmc.c **** 
 2213              		.loc 1 1193 52 view .LVU735
 2214 0006 4B49     		ldr	r1, .L216+4
 2215              	.LVL128:
ARM GAS  C:\Users\pw705\AppData\Local\Temp\cceieKfF.s 			page 72


1193:Drivers/STM32F4xx_HAL_Driver/Src/stm32f4xx_ll_sdmmc.c **** 
 2216              		.loc 1 1193 52 view .LVU736
 2217 0008 1268     		ldr	r2, [r2]
 2218              	.LBE283:
 2219              	.LBE290:
 2220              	.LBB291:
 2221              	.LBB269:
 365:Drivers/STM32F4xx_HAL_Driver/Src/stm32f4xx_ll_sdmmc.c **** 
 2222              		.loc 1 365 3 view .LVU737
 2223 000a 23F47F63 		bic	r3, r3, #4080
 2224              	.LBE269:
 2225              	.LBE291:
 2226              	.LBB292:
 2227              	.LBB284:
1193:Drivers/STM32F4xx_HAL_Driver/Src/stm32f4xx_ll_sdmmc.c **** 
 2228              		.loc 1 1193 52 view .LVU738
 2229 000e A1FB0212 		umull	r1, r2, r1, r2
 2230              	.LBE284:
 2231              	.LBE292:
 2232              	.LBB293:
 2233              	.LBB270:
 365:Drivers/STM32F4xx_HAL_Driver/Src/stm32f4xx_ll_sdmmc.c **** 
 2234              		.loc 1 365 3 view .LVU739
 2235 0012 23F00F03 		bic	r3, r3, #15
 2236 0016 43F48B63 		orr	r3, r3, #1112
 2237              	.LBE270:
 2238              	.LBE293:
 2239              	.LBB294:
 2240              	.LBB285:
1193:Drivers/STM32F4xx_HAL_Driver/Src/stm32f4xx_ll_sdmmc.c **** 
 2241              		.loc 1 1193 52 view .LVU740
 2242 001a 520A     		lsrs	r2, r2, #9
1193:Drivers/STM32F4xx_HAL_Driver/Src/stm32f4xx_ll_sdmmc.c **** 
 2243              		.loc 1 1193 12 view .LVU741
 2244 001c 41F28831 		movw	r1, #5000
 2245              	.LBE285:
 2246              	.LBE294:
 2247              	.LBB295:
 2248              	.LBB271:
 365:Drivers/STM32F4xx_HAL_Driver/Src/stm32f4xx_ll_sdmmc.c **** 
 2249              		.loc 1 365 3 view .LVU742
 2250 0020 43F00103 		orr	r3, r3, #1
 2251              	.LBE271:
 2252              	.LBE295:
 2253              	.LBB296:
 2254              	.LBB286:
1193:Drivers/STM32F4xx_HAL_Driver/Src/stm32f4xx_ll_sdmmc.c **** 
 2255              		.loc 1 1193 12 view .LVU743
 2256 0024 01FB02F2 		mul	r2, r1, r2
 2257              	.LBE286:
 2258              	.LBE296:
 2259              	.LBB297:
 2260              	.LBB272:
 365:Drivers/STM32F4xx_HAL_Driver/Src/stm32f4xx_ll_sdmmc.c **** 
 2261              		.loc 1 365 3 view .LVU744
 2262 0028 C360     		str	r3, [r0, #12]
 2263              	.LVL129:
ARM GAS  C:\Users\pw705\AppData\Local\Temp\cceieKfF.s 			page 73


 367:Drivers/STM32F4xx_HAL_Driver/Src/stm32f4xx_ll_sdmmc.c **** }
 2264              		.loc 1 367 3 is_stmt 1 view .LVU745
 367:Drivers/STM32F4xx_HAL_Driver/Src/stm32f4xx_ll_sdmmc.c **** }
 2265              		.loc 1 367 3 is_stmt 0 view .LVU746
 2266              	.LBE272:
 2267              	.LBE297:
 614:Drivers/STM32F4xx_HAL_Driver/Src/stm32f4xx_ll_sdmmc.c **** 
 2268              		.loc 1 614 3 is_stmt 1 view .LVU747
 2269              	.LBB298:
 2270              	.LBI273:
1186:Drivers/STM32F4xx_HAL_Driver/Src/stm32f4xx_ll_sdmmc.c **** {
 2271              		.loc 1 1186 10 view .LVU748
 2272              	.LBB287:
1188:Drivers/STM32F4xx_HAL_Driver/Src/stm32f4xx_ll_sdmmc.c ****   uint32_t sta_reg;
 2273              		.loc 1 1188 3 view .LVU749
1189:Drivers/STM32F4xx_HAL_Driver/Src/stm32f4xx_ll_sdmmc.c **** 
 2274              		.loc 1 1189 3 view .LVU750
1193:Drivers/STM32F4xx_HAL_Driver/Src/stm32f4xx_ll_sdmmc.c **** 
 2275              		.loc 1 1193 3 view .LVU751
1195:Drivers/STM32F4xx_HAL_Driver/Src/stm32f4xx_ll_sdmmc.c ****   {
 2276              		.loc 1 1195 3 view .LVU752
1197:Drivers/STM32F4xx_HAL_Driver/Src/stm32f4xx_ll_sdmmc.c ****     {
 2277              		.loc 1 1197 5 view .LVU753
1197:Drivers/STM32F4xx_HAL_Driver/Src/stm32f4xx_ll_sdmmc.c ****     {
 2278              		.loc 1 1197 14 is_stmt 0 view .LVU754
 2279 002a 531E     		subs	r3, r2, #1
 2280              	.LVL130:
1197:Drivers/STM32F4xx_HAL_Driver/Src/stm32f4xx_ll_sdmmc.c ****     {
 2281              		.loc 1 1197 8 view .LVU755
 2282 002c 4AB1     		cbz	r2, .L187
 2283              	.L180:
1195:Drivers/STM32F4xx_HAL_Driver/Src/stm32f4xx_ll_sdmmc.c ****   {
 2284              		.loc 1 1195 3 is_stmt 1 view .LVU756
1197:Drivers/STM32F4xx_HAL_Driver/Src/stm32f4xx_ll_sdmmc.c ****     {
 2285              		.loc 1 1197 5 view .LVU757
1201:Drivers/STM32F4xx_HAL_Driver/Src/stm32f4xx_ll_sdmmc.c ****   } while (((sta_reg & (SDIO_FLAG_CCRCFAIL | SDIO_FLAG_CMDREND | SDIO_FLAG_CTIMEOUT)) == 0U) ||
 2286              		.loc 1 1201 5 view .LVU758
1201:Drivers/STM32F4xx_HAL_Driver/Src/stm32f4xx_ll_sdmmc.c ****   } while (((sta_reg & (SDIO_FLAG_CCRCFAIL | SDIO_FLAG_CMDREND | SDIO_FLAG_CTIMEOUT)) == 0U) ||
 2287              		.loc 1 1201 13 is_stmt 0 view .LVU759
 2288 002e 426B     		ldr	r2, [r0, #52]
 2289              	.LVL131:
1202:Drivers/STM32F4xx_HAL_Driver/Src/stm32f4xx_ll_sdmmc.c ****            ((sta_reg & SDIO_FLAG_CMDACT) != 0U));
 2290              		.loc 1 1202 94 is_stmt 1 view .LVU760
 2291 0030 12F0450F 		tst	r2, #69
1197:Drivers/STM32F4xx_HAL_Driver/Src/stm32f4xx_ll_sdmmc.c ****     {
 2292              		.loc 1 1197 14 is_stmt 0 view .LVU761
 2293 0034 03F1FF33 		add	r3, r3, #-1
 2294              	.LVL132:
1202:Drivers/STM32F4xx_HAL_Driver/Src/stm32f4xx_ll_sdmmc.c ****            ((sta_reg & SDIO_FLAG_CMDACT) != 0U));
 2295              		.loc 1 1202 94 view .LVU762
 2296 0038 01D0     		beq	.L181
 2297 003a 1105     		lsls	r1, r2, #20
 2298 003c 04D5     		bpl	.L213
 2299              	.L181:
1197:Drivers/STM32F4xx_HAL_Driver/Src/stm32f4xx_ll_sdmmc.c ****     {
 2300              		.loc 1 1197 8 view .LVU763
 2301 003e 5A1C     		adds	r2, r3, #1
ARM GAS  C:\Users\pw705\AppData\Local\Temp\cceieKfF.s 			page 74


 2302              	.LVL133:
1197:Drivers/STM32F4xx_HAL_Driver/Src/stm32f4xx_ll_sdmmc.c ****     {
 2303              		.loc 1 1197 8 view .LVU764
 2304 0040 F5D1     		bne	.L180
 2305              	.LVL134:
 2306              	.L187:
1199:Drivers/STM32F4xx_HAL_Driver/Src/stm32f4xx_ll_sdmmc.c ****     }
 2307              		.loc 1 1199 14 view .LVU765
 2308 0042 4FF00040 		mov	r0, #-2147483648
 2309              	.LVL135:
1199:Drivers/STM32F4xx_HAL_Driver/Src/stm32f4xx_ll_sdmmc.c ****     }
 2310              		.loc 1 1199 14 view .LVU766
 2311 0046 7047     		bx	lr
 2312              	.LVL136:
 2313              	.L213:
1205:Drivers/STM32F4xx_HAL_Driver/Src/stm32f4xx_ll_sdmmc.c ****   {
 2314              		.loc 1 1205 3 is_stmt 1 view .LVU767
1205:Drivers/STM32F4xx_HAL_Driver/Src/stm32f4xx_ll_sdmmc.c ****   {
 2315              		.loc 1 1205 7 is_stmt 0 view .LVU768
 2316 0048 436B     		ldr	r3, [r0, #52]
 2317              	.LVL137:
1205:Drivers/STM32F4xx_HAL_Driver/Src/stm32f4xx_ll_sdmmc.c ****   {
 2318              		.loc 1 1205 6 view .LVU769
 2319 004a 5A07     		lsls	r2, r3, #29
 2320              	.LVL138:
1205:Drivers/STM32F4xx_HAL_Driver/Src/stm32f4xx_ll_sdmmc.c ****   {
 2321              		.loc 1 1205 6 view .LVU770
 2322 004c 3ED4     		bmi	.L214
1211:Drivers/STM32F4xx_HAL_Driver/Src/stm32f4xx_ll_sdmmc.c ****   {
 2323              		.loc 1 1211 8 is_stmt 1 view .LVU771
1211:Drivers/STM32F4xx_HAL_Driver/Src/stm32f4xx_ll_sdmmc.c ****   {
 2324              		.loc 1 1211 12 is_stmt 0 view .LVU772
 2325 004e 436B     		ldr	r3, [r0, #52]
1211:Drivers/STM32F4xx_HAL_Driver/Src/stm32f4xx_ll_sdmmc.c ****   {
 2326              		.loc 1 1211 11 view .LVU773
 2327 0050 DB07     		lsls	r3, r3, #31
 2328 0052 07D4     		bmi	.L215
1220:Drivers/STM32F4xx_HAL_Driver/Src/stm32f4xx_ll_sdmmc.c **** 
 2329              		.loc 1 1220 3 is_stmt 1 view .LVU774
1223:Drivers/STM32F4xx_HAL_Driver/Src/stm32f4xx_ll_sdmmc.c **** 
 2330              		.loc 1 1223 3 view .LVU775
 2331 0054 C523     		movs	r3, #197
 2332 0056 8363     		str	r3, [r0, #56]
1226:Drivers/STM32F4xx_HAL_Driver/Src/stm32f4xx_ll_sdmmc.c ****   {
 2333              		.loc 1 1226 3 view .LVU776
 2334              	.LVL139:
 2335              	.LBB275:
 2336              	.LBI275:
 375:Drivers/STM32F4xx_HAL_Driver/Src/stm32f4xx_ll_sdmmc.c **** {
 2337              		.loc 1 375 9 view .LVU777
 2338              	.LBB276:
 377:Drivers/STM32F4xx_HAL_Driver/Src/stm32f4xx_ll_sdmmc.c **** }
 2339              		.loc 1 377 3 view .LVU778
 377:Drivers/STM32F4xx_HAL_Driver/Src/stm32f4xx_ll_sdmmc.c **** }
 2340              		.loc 1 377 25 is_stmt 0 view .LVU779
 2341 0058 0369     		ldr	r3, [r0, #16]
 2342              	.LVL140:
ARM GAS  C:\Users\pw705\AppData\Local\Temp\cceieKfF.s 			page 75


 377:Drivers/STM32F4xx_HAL_Driver/Src/stm32f4xx_ll_sdmmc.c **** }
 2343              		.loc 1 377 25 view .LVU780
 2344              	.LBE276:
 2345              	.LBE275:
1226:Drivers/STM32F4xx_HAL_Driver/Src/stm32f4xx_ll_sdmmc.c ****   {
 2346              		.loc 1 1226 6 view .LVU781
 2347 005a DBB2     		uxtb	r3, r3
 2348 005c 192B     		cmp	r3, #25
 2349 005e 04D0     		beq	.L185
 2350              	.L184:
1215:Drivers/STM32F4xx_HAL_Driver/Src/stm32f4xx_ll_sdmmc.c ****   }
 2351              		.loc 1 1215 12 view .LVU782
 2352 0060 0120     		movs	r0, #1
 2353              	.LVL141:
1215:Drivers/STM32F4xx_HAL_Driver/Src/stm32f4xx_ll_sdmmc.c ****   }
 2354              		.loc 1 1215 12 view .LVU783
 2355 0062 7047     		bx	lr
 2356              	.LVL142:
 2357              	.L215:
1213:Drivers/STM32F4xx_HAL_Driver/Src/stm32f4xx_ll_sdmmc.c **** 
 2358              		.loc 1 1213 5 is_stmt 1 view .LVU784
 2359 0064 0123     		movs	r3, #1
 2360 0066 8363     		str	r3, [r0, #56]
1215:Drivers/STM32F4xx_HAL_Driver/Src/stm32f4xx_ll_sdmmc.c ****   }
 2361              		.loc 1 1215 5 view .LVU785
1215:Drivers/STM32F4xx_HAL_Driver/Src/stm32f4xx_ll_sdmmc.c ****   }
 2362              		.loc 1 1215 12 is_stmt 0 view .LVU786
 2363 0068 FAE7     		b	.L184
 2364              	.L185:
 2365              	.LVL143:
 2366              	.LBB277:
 2367              	.LBI277:
1186:Drivers/STM32F4xx_HAL_Driver/Src/stm32f4xx_ll_sdmmc.c **** {
 2368              		.loc 1 1186 10 is_stmt 1 view .LVU787
 2369              	.LBB278:
1232:Drivers/STM32F4xx_HAL_Driver/Src/stm32f4xx_ll_sdmmc.c **** 
 2370              		.loc 1 1232 3 view .LVU788
 2371              	.LBB279:
 2372              	.LBI279:
 391:Drivers/STM32F4xx_HAL_Driver/Src/stm32f4xx_ll_sdmmc.c **** {
 2373              		.loc 1 391 10 view .LVU789
 2374              	.LBB280:
 393:Drivers/STM32F4xx_HAL_Driver/Src/stm32f4xx_ll_sdmmc.c **** 
 2375              		.loc 1 393 3 view .LVU790
 396:Drivers/STM32F4xx_HAL_Driver/Src/stm32f4xx_ll_sdmmc.c **** 
 2376              		.loc 1 396 3 view .LVU791
 399:Drivers/STM32F4xx_HAL_Driver/Src/stm32f4xx_ll_sdmmc.c **** 
 2377              		.loc 1 399 3 view .LVU792
 401:Drivers/STM32F4xx_HAL_Driver/Src/stm32f4xx_ll_sdmmc.c **** }
 2378              		.loc 1 401 3 view .LVU793
 401:Drivers/STM32F4xx_HAL_Driver/Src/stm32f4xx_ll_sdmmc.c **** }
 2379              		.loc 1 401 11 is_stmt 0 view .LVU794
 2380 006a 4369     		ldr	r3, [r0, #20]
 2381              	.LVL144:
 401:Drivers/STM32F4xx_HAL_Driver/Src/stm32f4xx_ll_sdmmc.c **** }
 2382              		.loc 1 401 11 view .LVU795
 2383              	.LBE280:
ARM GAS  C:\Users\pw705\AppData\Local\Temp\cceieKfF.s 			page 76


 2384              	.LBE279:
1234:Drivers/STM32F4xx_HAL_Driver/Src/stm32f4xx_ll_sdmmc.c ****   {
 2385              		.loc 1 1234 3 is_stmt 1 view .LVU796
1234:Drivers/STM32F4xx_HAL_Driver/Src/stm32f4xx_ll_sdmmc.c ****   {
 2386              		.loc 1 1234 20 is_stmt 0 view .LVU797
 2387 006c 3248     		ldr	r0, .L216+8
 2388              	.LVL145:
1234:Drivers/STM32F4xx_HAL_Driver/Src/stm32f4xx_ll_sdmmc.c ****   {
 2389              		.loc 1 1234 20 view .LVU798
 2390 006e 1840     		ands	r0, r0, r3
1234:Drivers/STM32F4xx_HAL_Driver/Src/stm32f4xx_ll_sdmmc.c ****   {
 2391              		.loc 1 1234 6 view .LVU799
 2392 0070 58B3     		cbz	r0, .L178
1238:Drivers/STM32F4xx_HAL_Driver/Src/stm32f4xx_ll_sdmmc.c ****   {
 2393              		.loc 1 1238 8 is_stmt 1 view .LVU800
1238:Drivers/STM32F4xx_HAL_Driver/Src/stm32f4xx_ll_sdmmc.c ****   {
 2394              		.loc 1 1238 11 is_stmt 0 view .LVU801
 2395 0072 002B     		cmp	r3, #0
 2396 0074 2EDB     		blt	.L188
1242:Drivers/STM32F4xx_HAL_Driver/Src/stm32f4xx_ll_sdmmc.c ****   {
 2397              		.loc 1 1242 8 is_stmt 1 view .LVU802
1242:Drivers/STM32F4xx_HAL_Driver/Src/stm32f4xx_ll_sdmmc.c ****   {
 2398              		.loc 1 1242 11 is_stmt 0 view .LVU803
 2399 0076 5900     		lsls	r1, r3, #1
 2400 0078 2FD4     		bmi	.L189
1246:Drivers/STM32F4xx_HAL_Driver/Src/stm32f4xx_ll_sdmmc.c ****   {
 2401              		.loc 1 1246 8 is_stmt 1 view .LVU804
1246:Drivers/STM32F4xx_HAL_Driver/Src/stm32f4xx_ll_sdmmc.c ****   {
 2402              		.loc 1 1246 11 is_stmt 0 view .LVU805
 2403 007a 9A00     		lsls	r2, r3, #2
 2404 007c 2FD4     		bmi	.L190
1250:Drivers/STM32F4xx_HAL_Driver/Src/stm32f4xx_ll_sdmmc.c ****   {
 2405              		.loc 1 1250 8 is_stmt 1 view .LVU806
1250:Drivers/STM32F4xx_HAL_Driver/Src/stm32f4xx_ll_sdmmc.c ****   {
 2406              		.loc 1 1250 11 is_stmt 0 view .LVU807
 2407 007e D900     		lsls	r1, r3, #3
 2408 0080 2FD4     		bmi	.L191
1254:Drivers/STM32F4xx_HAL_Driver/Src/stm32f4xx_ll_sdmmc.c ****   {
 2409              		.loc 1 1254 8 is_stmt 1 view .LVU808
1254:Drivers/STM32F4xx_HAL_Driver/Src/stm32f4xx_ll_sdmmc.c ****   {
 2410              		.loc 1 1254 11 is_stmt 0 view .LVU809
 2411 0082 1A01     		lsls	r2, r3, #4
 2412 0084 30D4     		bmi	.L192
1258:Drivers/STM32F4xx_HAL_Driver/Src/stm32f4xx_ll_sdmmc.c ****   {
 2413              		.loc 1 1258 8 is_stmt 1 view .LVU810
1258:Drivers/STM32F4xx_HAL_Driver/Src/stm32f4xx_ll_sdmmc.c ****   {
 2414              		.loc 1 1258 11 is_stmt 0 view .LVU811
 2415 0086 5901     		lsls	r1, r3, #5
 2416 0088 31D4     		bmi	.L193
1262:Drivers/STM32F4xx_HAL_Driver/Src/stm32f4xx_ll_sdmmc.c ****   {
 2417              		.loc 1 1262 8 is_stmt 1 view .LVU812
1262:Drivers/STM32F4xx_HAL_Driver/Src/stm32f4xx_ll_sdmmc.c ****   {
 2418              		.loc 1 1262 11 is_stmt 0 view .LVU813
 2419 008a DA01     		lsls	r2, r3, #7
 2420 008c 32D4     		bmi	.L194
1266:Drivers/STM32F4xx_HAL_Driver/Src/stm32f4xx_ll_sdmmc.c ****   {
 2421              		.loc 1 1266 8 is_stmt 1 view .LVU814
ARM GAS  C:\Users\pw705\AppData\Local\Temp\cceieKfF.s 			page 77


1266:Drivers/STM32F4xx_HAL_Driver/Src/stm32f4xx_ll_sdmmc.c ****   {
 2422              		.loc 1 1266 11 is_stmt 0 view .LVU815
 2423 008e 1902     		lsls	r1, r3, #8
 2424 0090 33D4     		bmi	.L195
1270:Drivers/STM32F4xx_HAL_Driver/Src/stm32f4xx_ll_sdmmc.c ****   {
 2425              		.loc 1 1270 8 is_stmt 1 view .LVU816
1270:Drivers/STM32F4xx_HAL_Driver/Src/stm32f4xx_ll_sdmmc.c ****   {
 2426              		.loc 1 1270 11 is_stmt 0 view .LVU817
 2427 0092 5A02     		lsls	r2, r3, #9
 2428 0094 34D4     		bmi	.L196
1274:Drivers/STM32F4xx_HAL_Driver/Src/stm32f4xx_ll_sdmmc.c ****   {
 2429              		.loc 1 1274 8 is_stmt 1 view .LVU818
1274:Drivers/STM32F4xx_HAL_Driver/Src/stm32f4xx_ll_sdmmc.c ****   {
 2430              		.loc 1 1274 11 is_stmt 0 view .LVU819
 2431 0096 9902     		lsls	r1, r3, #10
 2432 0098 3ED4     		bmi	.L197
1278:Drivers/STM32F4xx_HAL_Driver/Src/stm32f4xx_ll_sdmmc.c ****   {
 2433              		.loc 1 1278 8 is_stmt 1 view .LVU820
1278:Drivers/STM32F4xx_HAL_Driver/Src/stm32f4xx_ll_sdmmc.c ****   {
 2434              		.loc 1 1278 11 is_stmt 0 view .LVU821
 2435 009a DA02     		lsls	r2, r3, #11
 2436 009c 39D4     		bmi	.L198
1282:Drivers/STM32F4xx_HAL_Driver/Src/stm32f4xx_ll_sdmmc.c ****   {
 2437              		.loc 1 1282 8 is_stmt 1 view .LVU822
1282:Drivers/STM32F4xx_HAL_Driver/Src/stm32f4xx_ll_sdmmc.c ****   {
 2438              		.loc 1 1282 11 is_stmt 0 view .LVU823
 2439 009e 5903     		lsls	r1, r3, #13
 2440 00a0 34D4     		bmi	.L199
1286:Drivers/STM32F4xx_HAL_Driver/Src/stm32f4xx_ll_sdmmc.c ****   {
 2441              		.loc 1 1286 8 is_stmt 1 view .LVU824
1286:Drivers/STM32F4xx_HAL_Driver/Src/stm32f4xx_ll_sdmmc.c ****   {
 2442              		.loc 1 1286 11 is_stmt 0 view .LVU825
 2443 00a2 9A03     		lsls	r2, r3, #14
 2444 00a4 2FD4     		bmi	.L200
1290:Drivers/STM32F4xx_HAL_Driver/Src/stm32f4xx_ll_sdmmc.c ****   {
 2445              		.loc 1 1290 8 is_stmt 1 view .LVU826
1290:Drivers/STM32F4xx_HAL_Driver/Src/stm32f4xx_ll_sdmmc.c ****   {
 2446              		.loc 1 1290 11 is_stmt 0 view .LVU827
 2447 00a6 D903     		lsls	r1, r3, #15
 2448 00a8 3FD4     		bmi	.L201
1294:Drivers/STM32F4xx_HAL_Driver/Src/stm32f4xx_ll_sdmmc.c ****   {
 2449              		.loc 1 1294 8 is_stmt 1 view .LVU828
1294:Drivers/STM32F4xx_HAL_Driver/Src/stm32f4xx_ll_sdmmc.c ****   {
 2450              		.loc 1 1294 11 is_stmt 0 view .LVU829
 2451 00aa 1A04     		lsls	r2, r3, #16
 2452 00ac 3AD4     		bmi	.L202
1298:Drivers/STM32F4xx_HAL_Driver/Src/stm32f4xx_ll_sdmmc.c ****   {
 2453              		.loc 1 1298 8 is_stmt 1 view .LVU830
1298:Drivers/STM32F4xx_HAL_Driver/Src/stm32f4xx_ll_sdmmc.c ****   {
 2454              		.loc 1 1298 11 is_stmt 0 view .LVU831
 2455 00ae 5904     		lsls	r1, r3, #17
 2456 00b0 35D4     		bmi	.L203
1302:Drivers/STM32F4xx_HAL_Driver/Src/stm32f4xx_ll_sdmmc.c ****   {
 2457              		.loc 1 1302 8 is_stmt 1 view .LVU832
1302:Drivers/STM32F4xx_HAL_Driver/Src/stm32f4xx_ll_sdmmc.c ****   {
 2458              		.loc 1 1302 11 is_stmt 0 view .LVU833
 2459 00b2 9A04     		lsls	r2, r3, #18
ARM GAS  C:\Users\pw705\AppData\Local\Temp\cceieKfF.s 			page 78


 2460 00b4 07D4     		bmi	.L204
1306:Drivers/STM32F4xx_HAL_Driver/Src/stm32f4xx_ll_sdmmc.c ****   {
 2461              		.loc 1 1306 8 is_stmt 1 view .LVU834
 2462              		.loc 1 1308 12 is_stmt 0 view .LVU835
 2463 00b6 13F0080F 		tst	r3, #8
 2464 00ba 0CBF     		ite	eq
 2465 00bc 4FF48030 		moveq	r0, #65536
 2466 00c0 4FF40000 		movne	r0, #8388608
 2467 00c4 7047     		bx	lr
 2468              	.L204:
1304:Drivers/STM32F4xx_HAL_Driver/Src/stm32f4xx_ll_sdmmc.c ****   }
 2469              		.loc 1 1304 12 view .LVU836
 2470 00c6 4FF48000 		mov	r0, #4194304
 2471              	.L178:
1304:Drivers/STM32F4xx_HAL_Driver/Src/stm32f4xx_ll_sdmmc.c ****   }
 2472              		.loc 1 1304 12 view .LVU837
 2473              	.LBE278:
 2474              	.LBE277:
 2475              	.LBE287:
 2476              	.LBE298:
 617:Drivers/STM32F4xx_HAL_Driver/Src/stm32f4xx_ll_sdmmc.c **** 
 2477              		.loc 1 617 1 view .LVU838
 2478 00ca 7047     		bx	lr
 2479              	.LVL146:
 2480              	.L214:
 2481              	.LBB299:
 2482              	.LBB288:
1207:Drivers/STM32F4xx_HAL_Driver/Src/stm32f4xx_ll_sdmmc.c **** 
 2483              		.loc 1 1207 5 is_stmt 1 view .LVU839
 2484 00cc 0423     		movs	r3, #4
 2485 00ce 8363     		str	r3, [r0, #56]
1209:Drivers/STM32F4xx_HAL_Driver/Src/stm32f4xx_ll_sdmmc.c ****   }
 2486              		.loc 1 1209 5 view .LVU840
1209:Drivers/STM32F4xx_HAL_Driver/Src/stm32f4xx_ll_sdmmc.c ****   }
 2487              		.loc 1 1209 12 is_stmt 0 view .LVU841
 2488 00d0 1846     		mov	r0, r3
 2489              	.LVL147:
1209:Drivers/STM32F4xx_HAL_Driver/Src/stm32f4xx_ll_sdmmc.c ****   }
 2490              		.loc 1 1209 12 view .LVU842
 2491 00d2 7047     		bx	lr
 2492              	.LVL148:
 2493              	.L188:
 2494              	.LBB282:
 2495              	.LBB281:
1240:Drivers/STM32F4xx_HAL_Driver/Src/stm32f4xx_ll_sdmmc.c ****   }
 2496              		.loc 1 1240 12 view .LVU843
 2497 00d4 4FF00070 		mov	r0, #33554432
 2498 00d8 7047     		bx	lr
 2499              	.L189:
1244:Drivers/STM32F4xx_HAL_Driver/Src/stm32f4xx_ll_sdmmc.c ****   }
 2500              		.loc 1 1244 12 view .LVU844
 2501 00da 4020     		movs	r0, #64
 2502 00dc 7047     		bx	lr
 2503              	.L190:
1248:Drivers/STM32F4xx_HAL_Driver/Src/stm32f4xx_ll_sdmmc.c ****   }
 2504              		.loc 1 1248 12 view .LVU845
 2505 00de 8020     		movs	r0, #128
ARM GAS  C:\Users\pw705\AppData\Local\Temp\cceieKfF.s 			page 79


 2506 00e0 7047     		bx	lr
 2507              	.L191:
1252:Drivers/STM32F4xx_HAL_Driver/Src/stm32f4xx_ll_sdmmc.c ****   }
 2508              		.loc 1 1252 12 view .LVU846
 2509 00e2 4FF48070 		mov	r0, #256
 2510 00e6 7047     		bx	lr
 2511              	.L192:
1256:Drivers/STM32F4xx_HAL_Driver/Src/stm32f4xx_ll_sdmmc.c ****   }
 2512              		.loc 1 1256 12 view .LVU847
 2513 00e8 4FF40070 		mov	r0, #512
 2514 00ec 7047     		bx	lr
 2515              	.L193:
1260:Drivers/STM32F4xx_HAL_Driver/Src/stm32f4xx_ll_sdmmc.c ****   }
 2516              		.loc 1 1260 12 view .LVU848
 2517 00ee 4FF48060 		mov	r0, #1024
 2518 00f2 7047     		bx	lr
 2519              	.L194:
1264:Drivers/STM32F4xx_HAL_Driver/Src/stm32f4xx_ll_sdmmc.c ****   }
 2520              		.loc 1 1264 12 view .LVU849
 2521 00f4 4FF40060 		mov	r0, #2048
 2522 00f8 7047     		bx	lr
 2523              	.L195:
1268:Drivers/STM32F4xx_HAL_Driver/Src/stm32f4xx_ll_sdmmc.c ****   }
 2524              		.loc 1 1268 12 view .LVU850
 2525 00fa 4FF48050 		mov	r0, #4096
 2526 00fe 7047     		bx	lr
 2527              	.L196:
1272:Drivers/STM32F4xx_HAL_Driver/Src/stm32f4xx_ll_sdmmc.c ****   }
 2528              		.loc 1 1272 12 view .LVU851
 2529 0100 4FF40050 		mov	r0, #8192
 2530 0104 7047     		bx	lr
 2531              	.L200:
1288:Drivers/STM32F4xx_HAL_Driver/Src/stm32f4xx_ll_sdmmc.c ****   }
 2532              		.loc 1 1288 12 view .LVU852
 2533 0106 4FF48020 		mov	r0, #262144
 2534 010a 7047     		bx	lr
 2535              	.L199:
1284:Drivers/STM32F4xx_HAL_Driver/Src/stm32f4xx_ll_sdmmc.c ****   }
 2536              		.loc 1 1284 12 view .LVU853
 2537 010c 4FF40030 		mov	r0, #131072
 2538 0110 7047     		bx	lr
 2539              	.L198:
1280:Drivers/STM32F4xx_HAL_Driver/Src/stm32f4xx_ll_sdmmc.c ****   }
 2540              		.loc 1 1280 12 view .LVU854
 2541 0112 4FF40040 		mov	r0, #32768
 2542 0116 7047     		bx	lr
 2543              	.L197:
1276:Drivers/STM32F4xx_HAL_Driver/Src/stm32f4xx_ll_sdmmc.c ****   }
 2544              		.loc 1 1276 12 view .LVU855
 2545 0118 4FF48040 		mov	r0, #16384
 2546 011c 7047     		bx	lr
 2547              	.L203:
1300:Drivers/STM32F4xx_HAL_Driver/Src/stm32f4xx_ll_sdmmc.c ****   }
 2548              		.loc 1 1300 12 view .LVU856
 2549 011e 4FF40010 		mov	r0, #2097152
 2550 0122 7047     		bx	lr
 2551              	.L202:
ARM GAS  C:\Users\pw705\AppData\Local\Temp\cceieKfF.s 			page 80


1296:Drivers/STM32F4xx_HAL_Driver/Src/stm32f4xx_ll_sdmmc.c ****   }
 2552              		.loc 1 1296 12 view .LVU857
 2553 0124 4FF48010 		mov	r0, #1048576
 2554 0128 7047     		bx	lr
 2555              	.L201:
1292:Drivers/STM32F4xx_HAL_Driver/Src/stm32f4xx_ll_sdmmc.c ****   }
 2556              		.loc 1 1292 12 view .LVU858
 2557 012a 4FF40020 		mov	r0, #524288
 2558 012e 7047     		bx	lr
 2559              	.L217:
 2560              		.align	2
 2561              	.L216:
 2562 0130 00000000 		.word	SystemCoreClock
 2563 0134 D34D6210 		.word	274877907
 2564 0138 08E0FFFD 		.word	-33562616
 2565              	.LBE281:
 2566              	.LBE282:
 2567              	.LBE288:
 2568              	.LBE299:
 2569              		.cfi_endproc
 2570              	.LFE147:
 2572              		.section	.text.SDMMC_CmdSDEraseStartAdd,"ax",%progbits
 2573              		.align	1
 2574              		.p2align 2,,3
 2575              		.global	SDMMC_CmdSDEraseStartAdd
 2576              		.syntax unified
 2577              		.thumb
 2578              		.thumb_func
 2580              	SDMMC_CmdSDEraseStartAdd:
 2581              	.LVL149:
 2582              	.LFB148:
 625:Drivers/STM32F4xx_HAL_Driver/Src/stm32f4xx_ll_sdmmc.c ****   SDIO_CmdInitTypeDef sdmmc_cmdinit;
 2583              		.loc 1 625 1 is_stmt 1 view -0
 2584              		.cfi_startproc
 2585              		@ args = 0, pretend = 0, frame = 0
 2586              		@ frame_needed = 0, uses_anonymous_args = 0
 2587              		@ link register save eliminated.
 626:Drivers/STM32F4xx_HAL_Driver/Src/stm32f4xx_ll_sdmmc.c ****   uint32_t errorstate;
 2588              		.loc 1 626 3 view .LVU860
 627:Drivers/STM32F4xx_HAL_Driver/Src/stm32f4xx_ll_sdmmc.c **** 
 2589              		.loc 1 627 3 view .LVU861
 630:Drivers/STM32F4xx_HAL_Driver/Src/stm32f4xx_ll_sdmmc.c ****   sdmmc_cmdinit.CmdIndex = SDMMC_CMD_SD_ERASE_GRP_START;
 2590              		.loc 1 630 3 view .LVU862
 2591              	.LBB312:
 2592              	.LBB313:
1193:Drivers/STM32F4xx_HAL_Driver/Src/stm32f4xx_ll_sdmmc.c **** 
 2593              		.loc 1 1193 52 is_stmt 0 view .LVU863
 2594 0000 4A4A     		ldr	r2, .L256
 2595              	.LVL150:
1193:Drivers/STM32F4xx_HAL_Driver/Src/stm32f4xx_ll_sdmmc.c **** 
 2596              		.loc 1 1193 52 view .LVU864
 2597              	.LBE313:
 2598              	.LBE312:
 631:Drivers/STM32F4xx_HAL_Driver/Src/stm32f4xx_ll_sdmmc.c ****   sdmmc_cmdinit.Response = SDIO_RESPONSE_SHORT;
 2599              		.loc 1 631 3 is_stmt 1 view .LVU865
 632:Drivers/STM32F4xx_HAL_Driver/Src/stm32f4xx_ll_sdmmc.c ****   sdmmc_cmdinit.WaitForInterrupt = SDIO_WAIT_NO;
 2600              		.loc 1 632 3 view .LVU866
ARM GAS  C:\Users\pw705\AppData\Local\Temp\cceieKfF.s 			page 81


 633:Drivers/STM32F4xx_HAL_Driver/Src/stm32f4xx_ll_sdmmc.c ****   sdmmc_cmdinit.CPSM = SDIO_CPSM_ENABLE;
 2601              		.loc 1 633 3 view .LVU867
 634:Drivers/STM32F4xx_HAL_Driver/Src/stm32f4xx_ll_sdmmc.c ****   (void)SDIO_SendCommand(SDIOx, &sdmmc_cmdinit);
 2602              		.loc 1 634 3 view .LVU868
 635:Drivers/STM32F4xx_HAL_Driver/Src/stm32f4xx_ll_sdmmc.c **** 
 2603              		.loc 1 635 3 view .LVU869
 2604              	.LBB328:
 2605              	.LBI328:
 345:Drivers/STM32F4xx_HAL_Driver/Src/stm32f4xx_ll_sdmmc.c **** {
 2606              		.loc 1 345 19 view .LVU870
 2607              	.LBB329:
 347:Drivers/STM32F4xx_HAL_Driver/Src/stm32f4xx_ll_sdmmc.c **** 
 2608              		.loc 1 347 3 view .LVU871
 350:Drivers/STM32F4xx_HAL_Driver/Src/stm32f4xx_ll_sdmmc.c ****   assert_param(IS_SDIO_RESPONSE(Command->Response));
 2609              		.loc 1 350 3 view .LVU872
 351:Drivers/STM32F4xx_HAL_Driver/Src/stm32f4xx_ll_sdmmc.c ****   assert_param(IS_SDIO_WAIT(Command->WaitForInterrupt));
 2610              		.loc 1 351 3 view .LVU873
 352:Drivers/STM32F4xx_HAL_Driver/Src/stm32f4xx_ll_sdmmc.c ****   assert_param(IS_SDIO_CPSM(Command->CPSM));
 2611              		.loc 1 352 3 view .LVU874
 353:Drivers/STM32F4xx_HAL_Driver/Src/stm32f4xx_ll_sdmmc.c **** 
 2612              		.loc 1 353 3 view .LVU875
 356:Drivers/STM32F4xx_HAL_Driver/Src/stm32f4xx_ll_sdmmc.c **** 
 2613              		.loc 1 356 3 view .LVU876
 356:Drivers/STM32F4xx_HAL_Driver/Src/stm32f4xx_ll_sdmmc.c **** 
 2614              		.loc 1 356 14 is_stmt 0 view .LVU877
 2615 0002 8160     		str	r1, [r0, #8]
 359:Drivers/STM32F4xx_HAL_Driver/Src/stm32f4xx_ll_sdmmc.c ****                        Command->Response |
 2616              		.loc 1 359 3 is_stmt 1 view .LVU878
 2617              	.LVL151:
 365:Drivers/STM32F4xx_HAL_Driver/Src/stm32f4xx_ll_sdmmc.c **** 
 2618              		.loc 1 365 3 view .LVU879
 2619 0004 C368     		ldr	r3, [r0, #12]
 2620              	.LBE329:
 2621              	.LBE328:
 2622              	.LBB334:
 2623              	.LBB322:
1193:Drivers/STM32F4xx_HAL_Driver/Src/stm32f4xx_ll_sdmmc.c **** 
 2624              		.loc 1 1193 52 is_stmt 0 view .LVU880
 2625 0006 4A49     		ldr	r1, .L256+4
 2626              	.LVL152:
1193:Drivers/STM32F4xx_HAL_Driver/Src/stm32f4xx_ll_sdmmc.c **** 
 2627              		.loc 1 1193 52 view .LVU881
 2628 0008 1268     		ldr	r2, [r2]
 2629              	.LBE322:
 2630              	.LBE334:
 2631              	.LBB335:
 2632              	.LBB330:
 365:Drivers/STM32F4xx_HAL_Driver/Src/stm32f4xx_ll_sdmmc.c **** 
 2633              		.loc 1 365 3 view .LVU882
 2634 000a 23F47F63 		bic	r3, r3, #4080
 2635              	.LBE330:
 2636              	.LBE335:
 2637              	.LBB336:
 2638              	.LBB323:
1193:Drivers/STM32F4xx_HAL_Driver/Src/stm32f4xx_ll_sdmmc.c **** 
 2639              		.loc 1 1193 52 view .LVU883
 2640 000e A1FB0212 		umull	r1, r2, r1, r2
ARM GAS  C:\Users\pw705\AppData\Local\Temp\cceieKfF.s 			page 82


 2641              	.LBE323:
 2642              	.LBE336:
 2643              	.LBB337:
 2644              	.LBB331:
 365:Drivers/STM32F4xx_HAL_Driver/Src/stm32f4xx_ll_sdmmc.c **** 
 2645              		.loc 1 365 3 view .LVU884
 2646 0012 23F00F03 		bic	r3, r3, #15
 2647              	.LBE331:
 2648              	.LBE337:
 2649              	.LBB338:
 2650              	.LBB324:
1193:Drivers/STM32F4xx_HAL_Driver/Src/stm32f4xx_ll_sdmmc.c **** 
 2651              		.loc 1 1193 52 view .LVU885
 2652 0016 520A     		lsrs	r2, r2, #9
1193:Drivers/STM32F4xx_HAL_Driver/Src/stm32f4xx_ll_sdmmc.c **** 
 2653              		.loc 1 1193 12 view .LVU886
 2654 0018 41F28831 		movw	r1, #5000
 2655              	.LBE324:
 2656              	.LBE338:
 2657              	.LBB339:
 2658              	.LBB332:
 365:Drivers/STM32F4xx_HAL_Driver/Src/stm32f4xx_ll_sdmmc.c **** 
 2659              		.loc 1 365 3 view .LVU887
 2660 001c 43F48C63 		orr	r3, r3, #1120
 2661              	.LBE332:
 2662              	.LBE339:
 2663              	.LBB340:
 2664              	.LBB325:
1193:Drivers/STM32F4xx_HAL_Driver/Src/stm32f4xx_ll_sdmmc.c **** 
 2665              		.loc 1 1193 12 view .LVU888
 2666 0020 01FB02F2 		mul	r2, r1, r2
 2667              	.LBE325:
 2668              	.LBE340:
 2669              	.LBB341:
 2670              	.LBB333:
 365:Drivers/STM32F4xx_HAL_Driver/Src/stm32f4xx_ll_sdmmc.c **** 
 2671              		.loc 1 365 3 view .LVU889
 2672 0024 C360     		str	r3, [r0, #12]
 2673              	.LVL153:
 367:Drivers/STM32F4xx_HAL_Driver/Src/stm32f4xx_ll_sdmmc.c **** }
 2674              		.loc 1 367 3 is_stmt 1 view .LVU890
 367:Drivers/STM32F4xx_HAL_Driver/Src/stm32f4xx_ll_sdmmc.c **** }
 2675              		.loc 1 367 3 is_stmt 0 view .LVU891
 2676              	.LBE333:
 2677              	.LBE341:
 638:Drivers/STM32F4xx_HAL_Driver/Src/stm32f4xx_ll_sdmmc.c **** 
 2678              		.loc 1 638 3 is_stmt 1 view .LVU892
 2679              	.LBB342:
 2680              	.LBI312:
1186:Drivers/STM32F4xx_HAL_Driver/Src/stm32f4xx_ll_sdmmc.c **** {
 2681              		.loc 1 1186 10 view .LVU893
 2682              	.LBB326:
1188:Drivers/STM32F4xx_HAL_Driver/Src/stm32f4xx_ll_sdmmc.c ****   uint32_t sta_reg;
 2683              		.loc 1 1188 3 view .LVU894
1189:Drivers/STM32F4xx_HAL_Driver/Src/stm32f4xx_ll_sdmmc.c **** 
 2684              		.loc 1 1189 3 view .LVU895
1193:Drivers/STM32F4xx_HAL_Driver/Src/stm32f4xx_ll_sdmmc.c **** 
ARM GAS  C:\Users\pw705\AppData\Local\Temp\cceieKfF.s 			page 83


 2685              		.loc 1 1193 3 view .LVU896
1195:Drivers/STM32F4xx_HAL_Driver/Src/stm32f4xx_ll_sdmmc.c ****   {
 2686              		.loc 1 1195 3 view .LVU897
1197:Drivers/STM32F4xx_HAL_Driver/Src/stm32f4xx_ll_sdmmc.c ****     {
 2687              		.loc 1 1197 5 view .LVU898
1197:Drivers/STM32F4xx_HAL_Driver/Src/stm32f4xx_ll_sdmmc.c ****     {
 2688              		.loc 1 1197 14 is_stmt 0 view .LVU899
 2689 0026 531E     		subs	r3, r2, #1
 2690              	.LVL154:
1197:Drivers/STM32F4xx_HAL_Driver/Src/stm32f4xx_ll_sdmmc.c ****     {
 2691              		.loc 1 1197 8 view .LVU900
 2692 0028 4AB1     		cbz	r2, .L227
 2693              	.L220:
1195:Drivers/STM32F4xx_HAL_Driver/Src/stm32f4xx_ll_sdmmc.c ****   {
 2694              		.loc 1 1195 3 is_stmt 1 view .LVU901
1197:Drivers/STM32F4xx_HAL_Driver/Src/stm32f4xx_ll_sdmmc.c ****     {
 2695              		.loc 1 1197 5 view .LVU902
1201:Drivers/STM32F4xx_HAL_Driver/Src/stm32f4xx_ll_sdmmc.c ****   } while (((sta_reg & (SDIO_FLAG_CCRCFAIL | SDIO_FLAG_CMDREND | SDIO_FLAG_CTIMEOUT)) == 0U) ||
 2696              		.loc 1 1201 5 view .LVU903
1201:Drivers/STM32F4xx_HAL_Driver/Src/stm32f4xx_ll_sdmmc.c ****   } while (((sta_reg & (SDIO_FLAG_CCRCFAIL | SDIO_FLAG_CMDREND | SDIO_FLAG_CTIMEOUT)) == 0U) ||
 2697              		.loc 1 1201 13 is_stmt 0 view .LVU904
 2698 002a 426B     		ldr	r2, [r0, #52]
 2699              	.LVL155:
1202:Drivers/STM32F4xx_HAL_Driver/Src/stm32f4xx_ll_sdmmc.c ****            ((sta_reg & SDIO_FLAG_CMDACT) != 0U));
 2700              		.loc 1 1202 94 is_stmt 1 view .LVU905
 2701 002c 12F0450F 		tst	r2, #69
1197:Drivers/STM32F4xx_HAL_Driver/Src/stm32f4xx_ll_sdmmc.c ****     {
 2702              		.loc 1 1197 14 is_stmt 0 view .LVU906
 2703 0030 03F1FF33 		add	r3, r3, #-1
 2704              	.LVL156:
1202:Drivers/STM32F4xx_HAL_Driver/Src/stm32f4xx_ll_sdmmc.c ****            ((sta_reg & SDIO_FLAG_CMDACT) != 0U));
 2705              		.loc 1 1202 94 view .LVU907
 2706 0034 01D0     		beq	.L221
 2707 0036 1105     		lsls	r1, r2, #20
 2708 0038 04D5     		bpl	.L253
 2709              	.L221:
1197:Drivers/STM32F4xx_HAL_Driver/Src/stm32f4xx_ll_sdmmc.c ****     {
 2710              		.loc 1 1197 8 view .LVU908
 2711 003a 5A1C     		adds	r2, r3, #1
 2712              	.LVL157:
1197:Drivers/STM32F4xx_HAL_Driver/Src/stm32f4xx_ll_sdmmc.c ****     {
 2713              		.loc 1 1197 8 view .LVU909
 2714 003c F5D1     		bne	.L220
 2715              	.LVL158:
 2716              	.L227:
1199:Drivers/STM32F4xx_HAL_Driver/Src/stm32f4xx_ll_sdmmc.c ****     }
 2717              		.loc 1 1199 14 view .LVU910
 2718 003e 4FF00040 		mov	r0, #-2147483648
 2719              	.LVL159:
1199:Drivers/STM32F4xx_HAL_Driver/Src/stm32f4xx_ll_sdmmc.c ****     }
 2720              		.loc 1 1199 14 view .LVU911
 2721 0042 7047     		bx	lr
 2722              	.LVL160:
 2723              	.L253:
1205:Drivers/STM32F4xx_HAL_Driver/Src/stm32f4xx_ll_sdmmc.c ****   {
 2724              		.loc 1 1205 3 is_stmt 1 view .LVU912
1205:Drivers/STM32F4xx_HAL_Driver/Src/stm32f4xx_ll_sdmmc.c ****   {
ARM GAS  C:\Users\pw705\AppData\Local\Temp\cceieKfF.s 			page 84


 2725              		.loc 1 1205 7 is_stmt 0 view .LVU913
 2726 0044 436B     		ldr	r3, [r0, #52]
 2727              	.LVL161:
1205:Drivers/STM32F4xx_HAL_Driver/Src/stm32f4xx_ll_sdmmc.c ****   {
 2728              		.loc 1 1205 6 view .LVU914
 2729 0046 5A07     		lsls	r2, r3, #29
 2730              	.LVL162:
1205:Drivers/STM32F4xx_HAL_Driver/Src/stm32f4xx_ll_sdmmc.c ****   {
 2731              		.loc 1 1205 6 view .LVU915
 2732 0048 3ED4     		bmi	.L254
1211:Drivers/STM32F4xx_HAL_Driver/Src/stm32f4xx_ll_sdmmc.c ****   {
 2733              		.loc 1 1211 8 is_stmt 1 view .LVU916
1211:Drivers/STM32F4xx_HAL_Driver/Src/stm32f4xx_ll_sdmmc.c ****   {
 2734              		.loc 1 1211 12 is_stmt 0 view .LVU917
 2735 004a 436B     		ldr	r3, [r0, #52]
1211:Drivers/STM32F4xx_HAL_Driver/Src/stm32f4xx_ll_sdmmc.c ****   {
 2736              		.loc 1 1211 11 view .LVU918
 2737 004c DB07     		lsls	r3, r3, #31
 2738 004e 07D4     		bmi	.L255
1220:Drivers/STM32F4xx_HAL_Driver/Src/stm32f4xx_ll_sdmmc.c **** 
 2739              		.loc 1 1220 3 is_stmt 1 view .LVU919
1223:Drivers/STM32F4xx_HAL_Driver/Src/stm32f4xx_ll_sdmmc.c **** 
 2740              		.loc 1 1223 3 view .LVU920
 2741 0050 C523     		movs	r3, #197
 2742 0052 8363     		str	r3, [r0, #56]
1226:Drivers/STM32F4xx_HAL_Driver/Src/stm32f4xx_ll_sdmmc.c ****   {
 2743              		.loc 1 1226 3 view .LVU921
 2744              	.LVL163:
 2745              	.LBB314:
 2746              	.LBI314:
 375:Drivers/STM32F4xx_HAL_Driver/Src/stm32f4xx_ll_sdmmc.c **** {
 2747              		.loc 1 375 9 view .LVU922
 2748              	.LBB315:
 377:Drivers/STM32F4xx_HAL_Driver/Src/stm32f4xx_ll_sdmmc.c **** }
 2749              		.loc 1 377 3 view .LVU923
 377:Drivers/STM32F4xx_HAL_Driver/Src/stm32f4xx_ll_sdmmc.c **** }
 2750              		.loc 1 377 25 is_stmt 0 view .LVU924
 2751 0054 0369     		ldr	r3, [r0, #16]
 2752              	.LVL164:
 377:Drivers/STM32F4xx_HAL_Driver/Src/stm32f4xx_ll_sdmmc.c **** }
 2753              		.loc 1 377 25 view .LVU925
 2754              	.LBE315:
 2755              	.LBE314:
1226:Drivers/STM32F4xx_HAL_Driver/Src/stm32f4xx_ll_sdmmc.c ****   {
 2756              		.loc 1 1226 6 view .LVU926
 2757 0056 DBB2     		uxtb	r3, r3
 2758 0058 202B     		cmp	r3, #32
 2759 005a 04D0     		beq	.L225
 2760              	.L224:
1215:Drivers/STM32F4xx_HAL_Driver/Src/stm32f4xx_ll_sdmmc.c ****   }
 2761              		.loc 1 1215 12 view .LVU927
 2762 005c 0120     		movs	r0, #1
 2763              	.LVL165:
1215:Drivers/STM32F4xx_HAL_Driver/Src/stm32f4xx_ll_sdmmc.c ****   }
 2764              		.loc 1 1215 12 view .LVU928
 2765 005e 7047     		bx	lr
 2766              	.LVL166:
ARM GAS  C:\Users\pw705\AppData\Local\Temp\cceieKfF.s 			page 85


 2767              	.L255:
1213:Drivers/STM32F4xx_HAL_Driver/Src/stm32f4xx_ll_sdmmc.c **** 
 2768              		.loc 1 1213 5 is_stmt 1 view .LVU929
 2769 0060 0123     		movs	r3, #1
 2770 0062 8363     		str	r3, [r0, #56]
1215:Drivers/STM32F4xx_HAL_Driver/Src/stm32f4xx_ll_sdmmc.c ****   }
 2771              		.loc 1 1215 5 view .LVU930
1215:Drivers/STM32F4xx_HAL_Driver/Src/stm32f4xx_ll_sdmmc.c ****   }
 2772              		.loc 1 1215 12 is_stmt 0 view .LVU931
 2773 0064 FAE7     		b	.L224
 2774              	.L225:
 2775              	.LVL167:
 2776              	.LBB316:
 2777              	.LBI316:
1186:Drivers/STM32F4xx_HAL_Driver/Src/stm32f4xx_ll_sdmmc.c **** {
 2778              		.loc 1 1186 10 is_stmt 1 view .LVU932
 2779              	.LBB317:
1232:Drivers/STM32F4xx_HAL_Driver/Src/stm32f4xx_ll_sdmmc.c **** 
 2780              		.loc 1 1232 3 view .LVU933
 2781              	.LBB318:
 2782              	.LBI318:
 391:Drivers/STM32F4xx_HAL_Driver/Src/stm32f4xx_ll_sdmmc.c **** {
 2783              		.loc 1 391 10 view .LVU934
 2784              	.LBB319:
 393:Drivers/STM32F4xx_HAL_Driver/Src/stm32f4xx_ll_sdmmc.c **** 
 2785              		.loc 1 393 3 view .LVU935
 396:Drivers/STM32F4xx_HAL_Driver/Src/stm32f4xx_ll_sdmmc.c **** 
 2786              		.loc 1 396 3 view .LVU936
 399:Drivers/STM32F4xx_HAL_Driver/Src/stm32f4xx_ll_sdmmc.c **** 
 2787              		.loc 1 399 3 view .LVU937
 401:Drivers/STM32F4xx_HAL_Driver/Src/stm32f4xx_ll_sdmmc.c **** }
 2788              		.loc 1 401 3 view .LVU938
 401:Drivers/STM32F4xx_HAL_Driver/Src/stm32f4xx_ll_sdmmc.c **** }
 2789              		.loc 1 401 11 is_stmt 0 view .LVU939
 2790 0066 4369     		ldr	r3, [r0, #20]
 2791              	.LVL168:
 401:Drivers/STM32F4xx_HAL_Driver/Src/stm32f4xx_ll_sdmmc.c **** }
 2792              		.loc 1 401 11 view .LVU940
 2793              	.LBE319:
 2794              	.LBE318:
1234:Drivers/STM32F4xx_HAL_Driver/Src/stm32f4xx_ll_sdmmc.c ****   {
 2795              		.loc 1 1234 3 is_stmt 1 view .LVU941
1234:Drivers/STM32F4xx_HAL_Driver/Src/stm32f4xx_ll_sdmmc.c ****   {
 2796              		.loc 1 1234 20 is_stmt 0 view .LVU942
 2797 0068 3248     		ldr	r0, .L256+8
 2798              	.LVL169:
1234:Drivers/STM32F4xx_HAL_Driver/Src/stm32f4xx_ll_sdmmc.c ****   {
 2799              		.loc 1 1234 20 view .LVU943
 2800 006a 1840     		ands	r0, r0, r3
1234:Drivers/STM32F4xx_HAL_Driver/Src/stm32f4xx_ll_sdmmc.c ****   {
 2801              		.loc 1 1234 6 view .LVU944
 2802 006c 58B3     		cbz	r0, .L218
1238:Drivers/STM32F4xx_HAL_Driver/Src/stm32f4xx_ll_sdmmc.c ****   {
 2803              		.loc 1 1238 8 is_stmt 1 view .LVU945
1238:Drivers/STM32F4xx_HAL_Driver/Src/stm32f4xx_ll_sdmmc.c ****   {
 2804              		.loc 1 1238 11 is_stmt 0 view .LVU946
 2805 006e 002B     		cmp	r3, #0
ARM GAS  C:\Users\pw705\AppData\Local\Temp\cceieKfF.s 			page 86


 2806 0070 2EDB     		blt	.L228
1242:Drivers/STM32F4xx_HAL_Driver/Src/stm32f4xx_ll_sdmmc.c ****   {
 2807              		.loc 1 1242 8 is_stmt 1 view .LVU947
1242:Drivers/STM32F4xx_HAL_Driver/Src/stm32f4xx_ll_sdmmc.c ****   {
 2808              		.loc 1 1242 11 is_stmt 0 view .LVU948
 2809 0072 5900     		lsls	r1, r3, #1
 2810 0074 2FD4     		bmi	.L229
1246:Drivers/STM32F4xx_HAL_Driver/Src/stm32f4xx_ll_sdmmc.c ****   {
 2811              		.loc 1 1246 8 is_stmt 1 view .LVU949
1246:Drivers/STM32F4xx_HAL_Driver/Src/stm32f4xx_ll_sdmmc.c ****   {
 2812              		.loc 1 1246 11 is_stmt 0 view .LVU950
 2813 0076 9A00     		lsls	r2, r3, #2
 2814 0078 2FD4     		bmi	.L230
1250:Drivers/STM32F4xx_HAL_Driver/Src/stm32f4xx_ll_sdmmc.c ****   {
 2815              		.loc 1 1250 8 is_stmt 1 view .LVU951
1250:Drivers/STM32F4xx_HAL_Driver/Src/stm32f4xx_ll_sdmmc.c ****   {
 2816              		.loc 1 1250 11 is_stmt 0 view .LVU952
 2817 007a D900     		lsls	r1, r3, #3
 2818 007c 2FD4     		bmi	.L231
1254:Drivers/STM32F4xx_HAL_Driver/Src/stm32f4xx_ll_sdmmc.c ****   {
 2819              		.loc 1 1254 8 is_stmt 1 view .LVU953
1254:Drivers/STM32F4xx_HAL_Driver/Src/stm32f4xx_ll_sdmmc.c ****   {
 2820              		.loc 1 1254 11 is_stmt 0 view .LVU954
 2821 007e 1A01     		lsls	r2, r3, #4
 2822 0080 30D4     		bmi	.L232
1258:Drivers/STM32F4xx_HAL_Driver/Src/stm32f4xx_ll_sdmmc.c ****   {
 2823              		.loc 1 1258 8 is_stmt 1 view .LVU955
1258:Drivers/STM32F4xx_HAL_Driver/Src/stm32f4xx_ll_sdmmc.c ****   {
 2824              		.loc 1 1258 11 is_stmt 0 view .LVU956
 2825 0082 5901     		lsls	r1, r3, #5
 2826 0084 31D4     		bmi	.L233
1262:Drivers/STM32F4xx_HAL_Driver/Src/stm32f4xx_ll_sdmmc.c ****   {
 2827              		.loc 1 1262 8 is_stmt 1 view .LVU957
1262:Drivers/STM32F4xx_HAL_Driver/Src/stm32f4xx_ll_sdmmc.c ****   {
 2828              		.loc 1 1262 11 is_stmt 0 view .LVU958
 2829 0086 DA01     		lsls	r2, r3, #7
 2830 0088 32D4     		bmi	.L234
1266:Drivers/STM32F4xx_HAL_Driver/Src/stm32f4xx_ll_sdmmc.c ****   {
 2831              		.loc 1 1266 8 is_stmt 1 view .LVU959
1266:Drivers/STM32F4xx_HAL_Driver/Src/stm32f4xx_ll_sdmmc.c ****   {
 2832              		.loc 1 1266 11 is_stmt 0 view .LVU960
 2833 008a 1902     		lsls	r1, r3, #8
 2834 008c 33D4     		bmi	.L235
1270:Drivers/STM32F4xx_HAL_Driver/Src/stm32f4xx_ll_sdmmc.c ****   {
 2835              		.loc 1 1270 8 is_stmt 1 view .LVU961
1270:Drivers/STM32F4xx_HAL_Driver/Src/stm32f4xx_ll_sdmmc.c ****   {
 2836              		.loc 1 1270 11 is_stmt 0 view .LVU962
 2837 008e 5A02     		lsls	r2, r3, #9
 2838 0090 34D4     		bmi	.L236
1274:Drivers/STM32F4xx_HAL_Driver/Src/stm32f4xx_ll_sdmmc.c ****   {
 2839              		.loc 1 1274 8 is_stmt 1 view .LVU963
1274:Drivers/STM32F4xx_HAL_Driver/Src/stm32f4xx_ll_sdmmc.c ****   {
 2840              		.loc 1 1274 11 is_stmt 0 view .LVU964
 2841 0092 9902     		lsls	r1, r3, #10
 2842 0094 3ED4     		bmi	.L237
1278:Drivers/STM32F4xx_HAL_Driver/Src/stm32f4xx_ll_sdmmc.c ****   {
 2843              		.loc 1 1278 8 is_stmt 1 view .LVU965
ARM GAS  C:\Users\pw705\AppData\Local\Temp\cceieKfF.s 			page 87


1278:Drivers/STM32F4xx_HAL_Driver/Src/stm32f4xx_ll_sdmmc.c ****   {
 2844              		.loc 1 1278 11 is_stmt 0 view .LVU966
 2845 0096 DA02     		lsls	r2, r3, #11
 2846 0098 39D4     		bmi	.L238
1282:Drivers/STM32F4xx_HAL_Driver/Src/stm32f4xx_ll_sdmmc.c ****   {
 2847              		.loc 1 1282 8 is_stmt 1 view .LVU967
1282:Drivers/STM32F4xx_HAL_Driver/Src/stm32f4xx_ll_sdmmc.c ****   {
 2848              		.loc 1 1282 11 is_stmt 0 view .LVU968
 2849 009a 5903     		lsls	r1, r3, #13
 2850 009c 34D4     		bmi	.L239
1286:Drivers/STM32F4xx_HAL_Driver/Src/stm32f4xx_ll_sdmmc.c ****   {
 2851              		.loc 1 1286 8 is_stmt 1 view .LVU969
1286:Drivers/STM32F4xx_HAL_Driver/Src/stm32f4xx_ll_sdmmc.c ****   {
 2852              		.loc 1 1286 11 is_stmt 0 view .LVU970
 2853 009e 9A03     		lsls	r2, r3, #14
 2854 00a0 2FD4     		bmi	.L240
1290:Drivers/STM32F4xx_HAL_Driver/Src/stm32f4xx_ll_sdmmc.c ****   {
 2855              		.loc 1 1290 8 is_stmt 1 view .LVU971
1290:Drivers/STM32F4xx_HAL_Driver/Src/stm32f4xx_ll_sdmmc.c ****   {
 2856              		.loc 1 1290 11 is_stmt 0 view .LVU972
 2857 00a2 D903     		lsls	r1, r3, #15
 2858 00a4 3FD4     		bmi	.L241
1294:Drivers/STM32F4xx_HAL_Driver/Src/stm32f4xx_ll_sdmmc.c ****   {
 2859              		.loc 1 1294 8 is_stmt 1 view .LVU973
1294:Drivers/STM32F4xx_HAL_Driver/Src/stm32f4xx_ll_sdmmc.c ****   {
 2860              		.loc 1 1294 11 is_stmt 0 view .LVU974
 2861 00a6 1A04     		lsls	r2, r3, #16
 2862 00a8 3AD4     		bmi	.L242
1298:Drivers/STM32F4xx_HAL_Driver/Src/stm32f4xx_ll_sdmmc.c ****   {
 2863              		.loc 1 1298 8 is_stmt 1 view .LVU975
1298:Drivers/STM32F4xx_HAL_Driver/Src/stm32f4xx_ll_sdmmc.c ****   {
 2864              		.loc 1 1298 11 is_stmt 0 view .LVU976
 2865 00aa 5904     		lsls	r1, r3, #17
 2866 00ac 35D4     		bmi	.L243
1302:Drivers/STM32F4xx_HAL_Driver/Src/stm32f4xx_ll_sdmmc.c ****   {
 2867              		.loc 1 1302 8 is_stmt 1 view .LVU977
1302:Drivers/STM32F4xx_HAL_Driver/Src/stm32f4xx_ll_sdmmc.c ****   {
 2868              		.loc 1 1302 11 is_stmt 0 view .LVU978
 2869 00ae 9A04     		lsls	r2, r3, #18
 2870 00b0 07D4     		bmi	.L244
1306:Drivers/STM32F4xx_HAL_Driver/Src/stm32f4xx_ll_sdmmc.c ****   {
 2871              		.loc 1 1306 8 is_stmt 1 view .LVU979
 2872              		.loc 1 1308 12 is_stmt 0 view .LVU980
 2873 00b2 13F0080F 		tst	r3, #8
 2874 00b6 0CBF     		ite	eq
 2875 00b8 4FF48030 		moveq	r0, #65536
 2876 00bc 4FF40000 		movne	r0, #8388608
 2877 00c0 7047     		bx	lr
 2878              	.L244:
1304:Drivers/STM32F4xx_HAL_Driver/Src/stm32f4xx_ll_sdmmc.c ****   }
 2879              		.loc 1 1304 12 view .LVU981
 2880 00c2 4FF48000 		mov	r0, #4194304
 2881              	.L218:
1304:Drivers/STM32F4xx_HAL_Driver/Src/stm32f4xx_ll_sdmmc.c ****   }
 2882              		.loc 1 1304 12 view .LVU982
 2883              	.LBE317:
 2884              	.LBE316:
ARM GAS  C:\Users\pw705\AppData\Local\Temp\cceieKfF.s 			page 88


 2885              	.LBE326:
 2886              	.LBE342:
 641:Drivers/STM32F4xx_HAL_Driver/Src/stm32f4xx_ll_sdmmc.c **** 
 2887              		.loc 1 641 1 view .LVU983
 2888 00c6 7047     		bx	lr
 2889              	.LVL170:
 2890              	.L254:
 2891              	.LBB343:
 2892              	.LBB327:
1207:Drivers/STM32F4xx_HAL_Driver/Src/stm32f4xx_ll_sdmmc.c **** 
 2893              		.loc 1 1207 5 is_stmt 1 view .LVU984
 2894 00c8 0423     		movs	r3, #4
 2895 00ca 8363     		str	r3, [r0, #56]
1209:Drivers/STM32F4xx_HAL_Driver/Src/stm32f4xx_ll_sdmmc.c ****   }
 2896              		.loc 1 1209 5 view .LVU985
1209:Drivers/STM32F4xx_HAL_Driver/Src/stm32f4xx_ll_sdmmc.c ****   }
 2897              		.loc 1 1209 12 is_stmt 0 view .LVU986
 2898 00cc 1846     		mov	r0, r3
 2899              	.LVL171:
1209:Drivers/STM32F4xx_HAL_Driver/Src/stm32f4xx_ll_sdmmc.c ****   }
 2900              		.loc 1 1209 12 view .LVU987
 2901 00ce 7047     		bx	lr
 2902              	.LVL172:
 2903              	.L228:
 2904              	.LBB321:
 2905              	.LBB320:
1240:Drivers/STM32F4xx_HAL_Driver/Src/stm32f4xx_ll_sdmmc.c ****   }
 2906              		.loc 1 1240 12 view .LVU988
 2907 00d0 4FF00070 		mov	r0, #33554432
 2908 00d4 7047     		bx	lr
 2909              	.L229:
1244:Drivers/STM32F4xx_HAL_Driver/Src/stm32f4xx_ll_sdmmc.c ****   }
 2910              		.loc 1 1244 12 view .LVU989
 2911 00d6 4020     		movs	r0, #64
 2912 00d8 7047     		bx	lr
 2913              	.L230:
1248:Drivers/STM32F4xx_HAL_Driver/Src/stm32f4xx_ll_sdmmc.c ****   }
 2914              		.loc 1 1248 12 view .LVU990
 2915 00da 8020     		movs	r0, #128
 2916 00dc 7047     		bx	lr
 2917              	.L231:
1252:Drivers/STM32F4xx_HAL_Driver/Src/stm32f4xx_ll_sdmmc.c ****   }
 2918              		.loc 1 1252 12 view .LVU991
 2919 00de 4FF48070 		mov	r0, #256
 2920 00e2 7047     		bx	lr
 2921              	.L232:
1256:Drivers/STM32F4xx_HAL_Driver/Src/stm32f4xx_ll_sdmmc.c ****   }
 2922              		.loc 1 1256 12 view .LVU992
 2923 00e4 4FF40070 		mov	r0, #512
 2924 00e8 7047     		bx	lr
 2925              	.L233:
1260:Drivers/STM32F4xx_HAL_Driver/Src/stm32f4xx_ll_sdmmc.c ****   }
 2926              		.loc 1 1260 12 view .LVU993
 2927 00ea 4FF48060 		mov	r0, #1024
 2928 00ee 7047     		bx	lr
 2929              	.L234:
1264:Drivers/STM32F4xx_HAL_Driver/Src/stm32f4xx_ll_sdmmc.c ****   }
ARM GAS  C:\Users\pw705\AppData\Local\Temp\cceieKfF.s 			page 89


 2930              		.loc 1 1264 12 view .LVU994
 2931 00f0 4FF40060 		mov	r0, #2048
 2932 00f4 7047     		bx	lr
 2933              	.L235:
1268:Drivers/STM32F4xx_HAL_Driver/Src/stm32f4xx_ll_sdmmc.c ****   }
 2934              		.loc 1 1268 12 view .LVU995
 2935 00f6 4FF48050 		mov	r0, #4096
 2936 00fa 7047     		bx	lr
 2937              	.L236:
1272:Drivers/STM32F4xx_HAL_Driver/Src/stm32f4xx_ll_sdmmc.c ****   }
 2938              		.loc 1 1272 12 view .LVU996
 2939 00fc 4FF40050 		mov	r0, #8192
 2940 0100 7047     		bx	lr
 2941              	.L240:
1288:Drivers/STM32F4xx_HAL_Driver/Src/stm32f4xx_ll_sdmmc.c ****   }
 2942              		.loc 1 1288 12 view .LVU997
 2943 0102 4FF48020 		mov	r0, #262144
 2944 0106 7047     		bx	lr
 2945              	.L239:
1284:Drivers/STM32F4xx_HAL_Driver/Src/stm32f4xx_ll_sdmmc.c ****   }
 2946              		.loc 1 1284 12 view .LVU998
 2947 0108 4FF40030 		mov	r0, #131072
 2948 010c 7047     		bx	lr
 2949              	.L238:
1280:Drivers/STM32F4xx_HAL_Driver/Src/stm32f4xx_ll_sdmmc.c ****   }
 2950              		.loc 1 1280 12 view .LVU999
 2951 010e 4FF40040 		mov	r0, #32768
 2952 0112 7047     		bx	lr
 2953              	.L237:
1276:Drivers/STM32F4xx_HAL_Driver/Src/stm32f4xx_ll_sdmmc.c ****   }
 2954              		.loc 1 1276 12 view .LVU1000
 2955 0114 4FF48040 		mov	r0, #16384
 2956 0118 7047     		bx	lr
 2957              	.L243:
1300:Drivers/STM32F4xx_HAL_Driver/Src/stm32f4xx_ll_sdmmc.c ****   }
 2958              		.loc 1 1300 12 view .LVU1001
 2959 011a 4FF40010 		mov	r0, #2097152
 2960 011e 7047     		bx	lr
 2961              	.L242:
1296:Drivers/STM32F4xx_HAL_Driver/Src/stm32f4xx_ll_sdmmc.c ****   }
 2962              		.loc 1 1296 12 view .LVU1002
 2963 0120 4FF48010 		mov	r0, #1048576
 2964 0124 7047     		bx	lr
 2965              	.L241:
1292:Drivers/STM32F4xx_HAL_Driver/Src/stm32f4xx_ll_sdmmc.c ****   }
 2966              		.loc 1 1292 12 view .LVU1003
 2967 0126 4FF40020 		mov	r0, #524288
 2968 012a 7047     		bx	lr
 2969              	.L257:
 2970              		.align	2
 2971              	.L256:
 2972 012c 00000000 		.word	SystemCoreClock
 2973 0130 D34D6210 		.word	274877907
 2974 0134 08E0FFFD 		.word	-33562616
 2975              	.LBE320:
 2976              	.LBE321:
 2977              	.LBE327:
ARM GAS  C:\Users\pw705\AppData\Local\Temp\cceieKfF.s 			page 90


 2978              	.LBE343:
 2979              		.cfi_endproc
 2980              	.LFE148:
 2982              		.section	.text.SDMMC_CmdSDEraseEndAdd,"ax",%progbits
 2983              		.align	1
 2984              		.p2align 2,,3
 2985              		.global	SDMMC_CmdSDEraseEndAdd
 2986              		.syntax unified
 2987              		.thumb
 2988              		.thumb_func
 2990              	SDMMC_CmdSDEraseEndAdd:
 2991              	.LVL173:
 2992              	.LFB149:
 649:Drivers/STM32F4xx_HAL_Driver/Src/stm32f4xx_ll_sdmmc.c ****   SDIO_CmdInitTypeDef sdmmc_cmdinit;
 2993              		.loc 1 649 1 is_stmt 1 view -0
 2994              		.cfi_startproc
 2995              		@ args = 0, pretend = 0, frame = 0
 2996              		@ frame_needed = 0, uses_anonymous_args = 0
 2997              		@ link register save eliminated.
 650:Drivers/STM32F4xx_HAL_Driver/Src/stm32f4xx_ll_sdmmc.c ****   uint32_t errorstate;
 2998              		.loc 1 650 3 view .LVU1005
 651:Drivers/STM32F4xx_HAL_Driver/Src/stm32f4xx_ll_sdmmc.c **** 
 2999              		.loc 1 651 3 view .LVU1006
 654:Drivers/STM32F4xx_HAL_Driver/Src/stm32f4xx_ll_sdmmc.c ****   sdmmc_cmdinit.CmdIndex = SDMMC_CMD_SD_ERASE_GRP_END;
 3000              		.loc 1 654 3 view .LVU1007
 655:Drivers/STM32F4xx_HAL_Driver/Src/stm32f4xx_ll_sdmmc.c ****   sdmmc_cmdinit.Response = SDIO_RESPONSE_SHORT;
 3001              		.loc 1 655 3 view .LVU1008
 656:Drivers/STM32F4xx_HAL_Driver/Src/stm32f4xx_ll_sdmmc.c ****   sdmmc_cmdinit.WaitForInterrupt = SDIO_WAIT_NO;
 3002              		.loc 1 656 3 view .LVU1009
 657:Drivers/STM32F4xx_HAL_Driver/Src/stm32f4xx_ll_sdmmc.c ****   sdmmc_cmdinit.CPSM = SDIO_CPSM_ENABLE;
 3003              		.loc 1 657 3 view .LVU1010
 658:Drivers/STM32F4xx_HAL_Driver/Src/stm32f4xx_ll_sdmmc.c ****   (void)SDIO_SendCommand(SDIOx, &sdmmc_cmdinit);
 3004              		.loc 1 658 3 view .LVU1011
 659:Drivers/STM32F4xx_HAL_Driver/Src/stm32f4xx_ll_sdmmc.c **** 
 3005              		.loc 1 659 3 view .LVU1012
 3006              	.LBB356:
 3007              	.LBI356:
 345:Drivers/STM32F4xx_HAL_Driver/Src/stm32f4xx_ll_sdmmc.c **** {
 3008              		.loc 1 345 19 view .LVU1013
 3009              	.LBB357:
 347:Drivers/STM32F4xx_HAL_Driver/Src/stm32f4xx_ll_sdmmc.c **** 
 3010              		.loc 1 347 3 view .LVU1014
 350:Drivers/STM32F4xx_HAL_Driver/Src/stm32f4xx_ll_sdmmc.c ****   assert_param(IS_SDIO_RESPONSE(Command->Response));
 3011              		.loc 1 350 3 view .LVU1015
 351:Drivers/STM32F4xx_HAL_Driver/Src/stm32f4xx_ll_sdmmc.c ****   assert_param(IS_SDIO_WAIT(Command->WaitForInterrupt));
 3012              		.loc 1 351 3 view .LVU1016
 352:Drivers/STM32F4xx_HAL_Driver/Src/stm32f4xx_ll_sdmmc.c ****   assert_param(IS_SDIO_CPSM(Command->CPSM));
 3013              		.loc 1 352 3 view .LVU1017
 353:Drivers/STM32F4xx_HAL_Driver/Src/stm32f4xx_ll_sdmmc.c **** 
 3014              		.loc 1 353 3 view .LVU1018
 356:Drivers/STM32F4xx_HAL_Driver/Src/stm32f4xx_ll_sdmmc.c **** 
 3015              		.loc 1 356 3 view .LVU1019
 356:Drivers/STM32F4xx_HAL_Driver/Src/stm32f4xx_ll_sdmmc.c **** 
 3016              		.loc 1 356 14 is_stmt 0 view .LVU1020
 3017 0000 8160     		str	r1, [r0, #8]
 359:Drivers/STM32F4xx_HAL_Driver/Src/stm32f4xx_ll_sdmmc.c ****                        Command->Response |
 3018              		.loc 1 359 3 is_stmt 1 view .LVU1021
ARM GAS  C:\Users\pw705\AppData\Local\Temp\cceieKfF.s 			page 91


 3019              	.LVL174:
 365:Drivers/STM32F4xx_HAL_Driver/Src/stm32f4xx_ll_sdmmc.c **** 
 3020              		.loc 1 365 3 view .LVU1022
 3021              	.LBE357:
 3022              	.LBE356:
 3023              	.LBB363:
 3024              	.LBB364:
1193:Drivers/STM32F4xx_HAL_Driver/Src/stm32f4xx_ll_sdmmc.c **** 
 3025              		.loc 1 1193 52 is_stmt 0 view .LVU1023
 3026 0002 4B4A     		ldr	r2, .L296
 3027              	.LBE364:
 3028              	.LBE363:
 3029              	.LBB379:
 3030              	.LBB358:
 365:Drivers/STM32F4xx_HAL_Driver/Src/stm32f4xx_ll_sdmmc.c **** 
 3031              		.loc 1 365 3 view .LVU1024
 3032 0004 C368     		ldr	r3, [r0, #12]
 3033              	.LBE358:
 3034              	.LBE379:
 3035              	.LBB380:
 3036              	.LBB373:
1193:Drivers/STM32F4xx_HAL_Driver/Src/stm32f4xx_ll_sdmmc.c **** 
 3037              		.loc 1 1193 52 view .LVU1025
 3038 0006 4B49     		ldr	r1, .L296+4
 3039              	.LVL175:
1193:Drivers/STM32F4xx_HAL_Driver/Src/stm32f4xx_ll_sdmmc.c **** 
 3040              		.loc 1 1193 52 view .LVU1026
 3041 0008 1268     		ldr	r2, [r2]
 3042              	.LBE373:
 3043              	.LBE380:
 3044              	.LBB381:
 3045              	.LBB359:
 365:Drivers/STM32F4xx_HAL_Driver/Src/stm32f4xx_ll_sdmmc.c **** 
 3046              		.loc 1 365 3 view .LVU1027
 3047 000a 23F47F63 		bic	r3, r3, #4080
 3048              	.LBE359:
 3049              	.LBE381:
 3050              	.LBB382:
 3051              	.LBB374:
1193:Drivers/STM32F4xx_HAL_Driver/Src/stm32f4xx_ll_sdmmc.c **** 
 3052              		.loc 1 1193 52 view .LVU1028
 3053 000e A1FB0212 		umull	r1, r2, r1, r2
 3054              	.LBE374:
 3055              	.LBE382:
 3056              	.LBB383:
 3057              	.LBB360:
 365:Drivers/STM32F4xx_HAL_Driver/Src/stm32f4xx_ll_sdmmc.c **** 
 3058              		.loc 1 365 3 view .LVU1029
 3059 0012 23F00F03 		bic	r3, r3, #15
 3060 0016 43F48C63 		orr	r3, r3, #1120
 3061              	.LBE360:
 3062              	.LBE383:
 3063              	.LBB384:
 3064              	.LBB375:
1193:Drivers/STM32F4xx_HAL_Driver/Src/stm32f4xx_ll_sdmmc.c **** 
 3065              		.loc 1 1193 52 view .LVU1030
 3066 001a 520A     		lsrs	r2, r2, #9
ARM GAS  C:\Users\pw705\AppData\Local\Temp\cceieKfF.s 			page 92


1193:Drivers/STM32F4xx_HAL_Driver/Src/stm32f4xx_ll_sdmmc.c **** 
 3067              		.loc 1 1193 12 view .LVU1031
 3068 001c 41F28831 		movw	r1, #5000
 3069              	.LBE375:
 3070              	.LBE384:
 3071              	.LBB385:
 3072              	.LBB361:
 365:Drivers/STM32F4xx_HAL_Driver/Src/stm32f4xx_ll_sdmmc.c **** 
 3073              		.loc 1 365 3 view .LVU1032
 3074 0020 43F00103 		orr	r3, r3, #1
 3075              	.LBE361:
 3076              	.LBE385:
 3077              	.LBB386:
 3078              	.LBB376:
1193:Drivers/STM32F4xx_HAL_Driver/Src/stm32f4xx_ll_sdmmc.c **** 
 3079              		.loc 1 1193 12 view .LVU1033
 3080 0024 01FB02F2 		mul	r2, r1, r2
 3081              	.LBE376:
 3082              	.LBE386:
 3083              	.LBB387:
 3084              	.LBB362:
 365:Drivers/STM32F4xx_HAL_Driver/Src/stm32f4xx_ll_sdmmc.c **** 
 3085              		.loc 1 365 3 view .LVU1034
 3086 0028 C360     		str	r3, [r0, #12]
 3087              	.LVL176:
 367:Drivers/STM32F4xx_HAL_Driver/Src/stm32f4xx_ll_sdmmc.c **** }
 3088              		.loc 1 367 3 is_stmt 1 view .LVU1035
 367:Drivers/STM32F4xx_HAL_Driver/Src/stm32f4xx_ll_sdmmc.c **** }
 3089              		.loc 1 367 3 is_stmt 0 view .LVU1036
 3090              	.LBE362:
 3091              	.LBE387:
 662:Drivers/STM32F4xx_HAL_Driver/Src/stm32f4xx_ll_sdmmc.c **** 
 3092              		.loc 1 662 3 is_stmt 1 view .LVU1037
 3093              	.LBB388:
 3094              	.LBI363:
1186:Drivers/STM32F4xx_HAL_Driver/Src/stm32f4xx_ll_sdmmc.c **** {
 3095              		.loc 1 1186 10 view .LVU1038
 3096              	.LBB377:
1188:Drivers/STM32F4xx_HAL_Driver/Src/stm32f4xx_ll_sdmmc.c ****   uint32_t sta_reg;
 3097              		.loc 1 1188 3 view .LVU1039
1189:Drivers/STM32F4xx_HAL_Driver/Src/stm32f4xx_ll_sdmmc.c **** 
 3098              		.loc 1 1189 3 view .LVU1040
1193:Drivers/STM32F4xx_HAL_Driver/Src/stm32f4xx_ll_sdmmc.c **** 
 3099              		.loc 1 1193 3 view .LVU1041
1195:Drivers/STM32F4xx_HAL_Driver/Src/stm32f4xx_ll_sdmmc.c ****   {
 3100              		.loc 1 1195 3 view .LVU1042
1197:Drivers/STM32F4xx_HAL_Driver/Src/stm32f4xx_ll_sdmmc.c ****     {
 3101              		.loc 1 1197 5 view .LVU1043
1197:Drivers/STM32F4xx_HAL_Driver/Src/stm32f4xx_ll_sdmmc.c ****     {
 3102              		.loc 1 1197 14 is_stmt 0 view .LVU1044
 3103 002a 531E     		subs	r3, r2, #1
 3104              	.LVL177:
1197:Drivers/STM32F4xx_HAL_Driver/Src/stm32f4xx_ll_sdmmc.c ****     {
 3105              		.loc 1 1197 8 view .LVU1045
 3106 002c 4AB1     		cbz	r2, .L267
 3107              	.L260:
1195:Drivers/STM32F4xx_HAL_Driver/Src/stm32f4xx_ll_sdmmc.c ****   {
ARM GAS  C:\Users\pw705\AppData\Local\Temp\cceieKfF.s 			page 93


 3108              		.loc 1 1195 3 is_stmt 1 view .LVU1046
1197:Drivers/STM32F4xx_HAL_Driver/Src/stm32f4xx_ll_sdmmc.c ****     {
 3109              		.loc 1 1197 5 view .LVU1047
1201:Drivers/STM32F4xx_HAL_Driver/Src/stm32f4xx_ll_sdmmc.c ****   } while (((sta_reg & (SDIO_FLAG_CCRCFAIL | SDIO_FLAG_CMDREND | SDIO_FLAG_CTIMEOUT)) == 0U) ||
 3110              		.loc 1 1201 5 view .LVU1048
1201:Drivers/STM32F4xx_HAL_Driver/Src/stm32f4xx_ll_sdmmc.c ****   } while (((sta_reg & (SDIO_FLAG_CCRCFAIL | SDIO_FLAG_CMDREND | SDIO_FLAG_CTIMEOUT)) == 0U) ||
 3111              		.loc 1 1201 13 is_stmt 0 view .LVU1049
 3112 002e 426B     		ldr	r2, [r0, #52]
 3113              	.LVL178:
1202:Drivers/STM32F4xx_HAL_Driver/Src/stm32f4xx_ll_sdmmc.c ****            ((sta_reg & SDIO_FLAG_CMDACT) != 0U));
 3114              		.loc 1 1202 94 is_stmt 1 view .LVU1050
 3115 0030 12F0450F 		tst	r2, #69
1197:Drivers/STM32F4xx_HAL_Driver/Src/stm32f4xx_ll_sdmmc.c ****     {
 3116              		.loc 1 1197 14 is_stmt 0 view .LVU1051
 3117 0034 03F1FF33 		add	r3, r3, #-1
 3118              	.LVL179:
1202:Drivers/STM32F4xx_HAL_Driver/Src/stm32f4xx_ll_sdmmc.c ****            ((sta_reg & SDIO_FLAG_CMDACT) != 0U));
 3119              		.loc 1 1202 94 view .LVU1052
 3120 0038 01D0     		beq	.L261
 3121 003a 1105     		lsls	r1, r2, #20
 3122 003c 04D5     		bpl	.L293
 3123              	.L261:
1197:Drivers/STM32F4xx_HAL_Driver/Src/stm32f4xx_ll_sdmmc.c ****     {
 3124              		.loc 1 1197 8 view .LVU1053
 3125 003e 5A1C     		adds	r2, r3, #1
 3126              	.LVL180:
1197:Drivers/STM32F4xx_HAL_Driver/Src/stm32f4xx_ll_sdmmc.c ****     {
 3127              		.loc 1 1197 8 view .LVU1054
 3128 0040 F5D1     		bne	.L260
 3129              	.LVL181:
 3130              	.L267:
1199:Drivers/STM32F4xx_HAL_Driver/Src/stm32f4xx_ll_sdmmc.c ****     }
 3131              		.loc 1 1199 14 view .LVU1055
 3132 0042 4FF00040 		mov	r0, #-2147483648
 3133              	.LVL182:
1199:Drivers/STM32F4xx_HAL_Driver/Src/stm32f4xx_ll_sdmmc.c ****     }
 3134              		.loc 1 1199 14 view .LVU1056
 3135 0046 7047     		bx	lr
 3136              	.LVL183:
 3137              	.L293:
1205:Drivers/STM32F4xx_HAL_Driver/Src/stm32f4xx_ll_sdmmc.c ****   {
 3138              		.loc 1 1205 3 is_stmt 1 view .LVU1057
1205:Drivers/STM32F4xx_HAL_Driver/Src/stm32f4xx_ll_sdmmc.c ****   {
 3139              		.loc 1 1205 7 is_stmt 0 view .LVU1058
 3140 0048 436B     		ldr	r3, [r0, #52]
 3141              	.LVL184:
1205:Drivers/STM32F4xx_HAL_Driver/Src/stm32f4xx_ll_sdmmc.c ****   {
 3142              		.loc 1 1205 6 view .LVU1059
 3143 004a 5A07     		lsls	r2, r3, #29
 3144              	.LVL185:
1205:Drivers/STM32F4xx_HAL_Driver/Src/stm32f4xx_ll_sdmmc.c ****   {
 3145              		.loc 1 1205 6 view .LVU1060
 3146 004c 3ED4     		bmi	.L294
1211:Drivers/STM32F4xx_HAL_Driver/Src/stm32f4xx_ll_sdmmc.c ****   {
 3147              		.loc 1 1211 8 is_stmt 1 view .LVU1061
1211:Drivers/STM32F4xx_HAL_Driver/Src/stm32f4xx_ll_sdmmc.c ****   {
 3148              		.loc 1 1211 12 is_stmt 0 view .LVU1062
ARM GAS  C:\Users\pw705\AppData\Local\Temp\cceieKfF.s 			page 94


 3149 004e 436B     		ldr	r3, [r0, #52]
1211:Drivers/STM32F4xx_HAL_Driver/Src/stm32f4xx_ll_sdmmc.c ****   {
 3150              		.loc 1 1211 11 view .LVU1063
 3151 0050 DB07     		lsls	r3, r3, #31
 3152 0052 07D4     		bmi	.L295
1220:Drivers/STM32F4xx_HAL_Driver/Src/stm32f4xx_ll_sdmmc.c **** 
 3153              		.loc 1 1220 3 is_stmt 1 view .LVU1064
1223:Drivers/STM32F4xx_HAL_Driver/Src/stm32f4xx_ll_sdmmc.c **** 
 3154              		.loc 1 1223 3 view .LVU1065
 3155 0054 C523     		movs	r3, #197
 3156 0056 8363     		str	r3, [r0, #56]
1226:Drivers/STM32F4xx_HAL_Driver/Src/stm32f4xx_ll_sdmmc.c ****   {
 3157              		.loc 1 1226 3 view .LVU1066
 3158              	.LVL186:
 3159              	.LBB365:
 3160              	.LBI365:
 375:Drivers/STM32F4xx_HAL_Driver/Src/stm32f4xx_ll_sdmmc.c **** {
 3161              		.loc 1 375 9 view .LVU1067
 3162              	.LBB366:
 377:Drivers/STM32F4xx_HAL_Driver/Src/stm32f4xx_ll_sdmmc.c **** }
 3163              		.loc 1 377 3 view .LVU1068
 377:Drivers/STM32F4xx_HAL_Driver/Src/stm32f4xx_ll_sdmmc.c **** }
 3164              		.loc 1 377 25 is_stmt 0 view .LVU1069
 3165 0058 0369     		ldr	r3, [r0, #16]
 3166              	.LVL187:
 377:Drivers/STM32F4xx_HAL_Driver/Src/stm32f4xx_ll_sdmmc.c **** }
 3167              		.loc 1 377 25 view .LVU1070
 3168              	.LBE366:
 3169              	.LBE365:
1226:Drivers/STM32F4xx_HAL_Driver/Src/stm32f4xx_ll_sdmmc.c ****   {
 3170              		.loc 1 1226 6 view .LVU1071
 3171 005a DBB2     		uxtb	r3, r3
 3172 005c 212B     		cmp	r3, #33
 3173 005e 04D0     		beq	.L265
 3174              	.L264:
1215:Drivers/STM32F4xx_HAL_Driver/Src/stm32f4xx_ll_sdmmc.c ****   }
 3175              		.loc 1 1215 12 view .LVU1072
 3176 0060 0120     		movs	r0, #1
 3177              	.LVL188:
1215:Drivers/STM32F4xx_HAL_Driver/Src/stm32f4xx_ll_sdmmc.c ****   }
 3178              		.loc 1 1215 12 view .LVU1073
 3179 0062 7047     		bx	lr
 3180              	.LVL189:
 3181              	.L295:
1213:Drivers/STM32F4xx_HAL_Driver/Src/stm32f4xx_ll_sdmmc.c **** 
 3182              		.loc 1 1213 5 is_stmt 1 view .LVU1074
 3183 0064 0123     		movs	r3, #1
 3184 0066 8363     		str	r3, [r0, #56]
1215:Drivers/STM32F4xx_HAL_Driver/Src/stm32f4xx_ll_sdmmc.c ****   }
 3185              		.loc 1 1215 5 view .LVU1075
1215:Drivers/STM32F4xx_HAL_Driver/Src/stm32f4xx_ll_sdmmc.c ****   }
 3186              		.loc 1 1215 12 is_stmt 0 view .LVU1076
 3187 0068 FAE7     		b	.L264
 3188              	.L265:
 3189              	.LVL190:
 3190              	.LBB367:
 3191              	.LBI367:
ARM GAS  C:\Users\pw705\AppData\Local\Temp\cceieKfF.s 			page 95


1186:Drivers/STM32F4xx_HAL_Driver/Src/stm32f4xx_ll_sdmmc.c **** {
 3192              		.loc 1 1186 10 is_stmt 1 view .LVU1077
 3193              	.LBB368:
1232:Drivers/STM32F4xx_HAL_Driver/Src/stm32f4xx_ll_sdmmc.c **** 
 3194              		.loc 1 1232 3 view .LVU1078
 3195              	.LBB369:
 3196              	.LBI369:
 391:Drivers/STM32F4xx_HAL_Driver/Src/stm32f4xx_ll_sdmmc.c **** {
 3197              		.loc 1 391 10 view .LVU1079
 3198              	.LBB370:
 393:Drivers/STM32F4xx_HAL_Driver/Src/stm32f4xx_ll_sdmmc.c **** 
 3199              		.loc 1 393 3 view .LVU1080
 396:Drivers/STM32F4xx_HAL_Driver/Src/stm32f4xx_ll_sdmmc.c **** 
 3200              		.loc 1 396 3 view .LVU1081
 399:Drivers/STM32F4xx_HAL_Driver/Src/stm32f4xx_ll_sdmmc.c **** 
 3201              		.loc 1 399 3 view .LVU1082
 401:Drivers/STM32F4xx_HAL_Driver/Src/stm32f4xx_ll_sdmmc.c **** }
 3202              		.loc 1 401 3 view .LVU1083
 401:Drivers/STM32F4xx_HAL_Driver/Src/stm32f4xx_ll_sdmmc.c **** }
 3203              		.loc 1 401 11 is_stmt 0 view .LVU1084
 3204 006a 4369     		ldr	r3, [r0, #20]
 3205              	.LVL191:
 401:Drivers/STM32F4xx_HAL_Driver/Src/stm32f4xx_ll_sdmmc.c **** }
 3206              		.loc 1 401 11 view .LVU1085
 3207              	.LBE370:
 3208              	.LBE369:
1234:Drivers/STM32F4xx_HAL_Driver/Src/stm32f4xx_ll_sdmmc.c ****   {
 3209              		.loc 1 1234 3 is_stmt 1 view .LVU1086
1234:Drivers/STM32F4xx_HAL_Driver/Src/stm32f4xx_ll_sdmmc.c ****   {
 3210              		.loc 1 1234 20 is_stmt 0 view .LVU1087
 3211 006c 3248     		ldr	r0, .L296+8
 3212              	.LVL192:
1234:Drivers/STM32F4xx_HAL_Driver/Src/stm32f4xx_ll_sdmmc.c ****   {
 3213              		.loc 1 1234 20 view .LVU1088
 3214 006e 1840     		ands	r0, r0, r3
1234:Drivers/STM32F4xx_HAL_Driver/Src/stm32f4xx_ll_sdmmc.c ****   {
 3215              		.loc 1 1234 6 view .LVU1089
 3216 0070 58B3     		cbz	r0, .L258
1238:Drivers/STM32F4xx_HAL_Driver/Src/stm32f4xx_ll_sdmmc.c ****   {
 3217              		.loc 1 1238 8 is_stmt 1 view .LVU1090
1238:Drivers/STM32F4xx_HAL_Driver/Src/stm32f4xx_ll_sdmmc.c ****   {
 3218              		.loc 1 1238 11 is_stmt 0 view .LVU1091
 3219 0072 002B     		cmp	r3, #0
 3220 0074 2EDB     		blt	.L268
1242:Drivers/STM32F4xx_HAL_Driver/Src/stm32f4xx_ll_sdmmc.c ****   {
 3221              		.loc 1 1242 8 is_stmt 1 view .LVU1092
1242:Drivers/STM32F4xx_HAL_Driver/Src/stm32f4xx_ll_sdmmc.c ****   {
 3222              		.loc 1 1242 11 is_stmt 0 view .LVU1093
 3223 0076 5900     		lsls	r1, r3, #1
 3224 0078 2FD4     		bmi	.L269
1246:Drivers/STM32F4xx_HAL_Driver/Src/stm32f4xx_ll_sdmmc.c ****   {
 3225              		.loc 1 1246 8 is_stmt 1 view .LVU1094
1246:Drivers/STM32F4xx_HAL_Driver/Src/stm32f4xx_ll_sdmmc.c ****   {
 3226              		.loc 1 1246 11 is_stmt 0 view .LVU1095
 3227 007a 9A00     		lsls	r2, r3, #2
 3228 007c 2FD4     		bmi	.L270
1250:Drivers/STM32F4xx_HAL_Driver/Src/stm32f4xx_ll_sdmmc.c ****   {
ARM GAS  C:\Users\pw705\AppData\Local\Temp\cceieKfF.s 			page 96


 3229              		.loc 1 1250 8 is_stmt 1 view .LVU1096
1250:Drivers/STM32F4xx_HAL_Driver/Src/stm32f4xx_ll_sdmmc.c ****   {
 3230              		.loc 1 1250 11 is_stmt 0 view .LVU1097
 3231 007e D900     		lsls	r1, r3, #3
 3232 0080 2FD4     		bmi	.L271
1254:Drivers/STM32F4xx_HAL_Driver/Src/stm32f4xx_ll_sdmmc.c ****   {
 3233              		.loc 1 1254 8 is_stmt 1 view .LVU1098
1254:Drivers/STM32F4xx_HAL_Driver/Src/stm32f4xx_ll_sdmmc.c ****   {
 3234              		.loc 1 1254 11 is_stmt 0 view .LVU1099
 3235 0082 1A01     		lsls	r2, r3, #4
 3236 0084 30D4     		bmi	.L272
1258:Drivers/STM32F4xx_HAL_Driver/Src/stm32f4xx_ll_sdmmc.c ****   {
 3237              		.loc 1 1258 8 is_stmt 1 view .LVU1100
1258:Drivers/STM32F4xx_HAL_Driver/Src/stm32f4xx_ll_sdmmc.c ****   {
 3238              		.loc 1 1258 11 is_stmt 0 view .LVU1101
 3239 0086 5901     		lsls	r1, r3, #5
 3240 0088 31D4     		bmi	.L273
1262:Drivers/STM32F4xx_HAL_Driver/Src/stm32f4xx_ll_sdmmc.c ****   {
 3241              		.loc 1 1262 8 is_stmt 1 view .LVU1102
1262:Drivers/STM32F4xx_HAL_Driver/Src/stm32f4xx_ll_sdmmc.c ****   {
 3242              		.loc 1 1262 11 is_stmt 0 view .LVU1103
 3243 008a DA01     		lsls	r2, r3, #7
 3244 008c 32D4     		bmi	.L274
1266:Drivers/STM32F4xx_HAL_Driver/Src/stm32f4xx_ll_sdmmc.c ****   {
 3245              		.loc 1 1266 8 is_stmt 1 view .LVU1104
1266:Drivers/STM32F4xx_HAL_Driver/Src/stm32f4xx_ll_sdmmc.c ****   {
 3246              		.loc 1 1266 11 is_stmt 0 view .LVU1105
 3247 008e 1902     		lsls	r1, r3, #8
 3248 0090 33D4     		bmi	.L275
1270:Drivers/STM32F4xx_HAL_Driver/Src/stm32f4xx_ll_sdmmc.c ****   {
 3249              		.loc 1 1270 8 is_stmt 1 view .LVU1106
1270:Drivers/STM32F4xx_HAL_Driver/Src/stm32f4xx_ll_sdmmc.c ****   {
 3250              		.loc 1 1270 11 is_stmt 0 view .LVU1107
 3251 0092 5A02     		lsls	r2, r3, #9
 3252 0094 34D4     		bmi	.L276
1274:Drivers/STM32F4xx_HAL_Driver/Src/stm32f4xx_ll_sdmmc.c ****   {
 3253              		.loc 1 1274 8 is_stmt 1 view .LVU1108
1274:Drivers/STM32F4xx_HAL_Driver/Src/stm32f4xx_ll_sdmmc.c ****   {
 3254              		.loc 1 1274 11 is_stmt 0 view .LVU1109
 3255 0096 9902     		lsls	r1, r3, #10
 3256 0098 3ED4     		bmi	.L277
1278:Drivers/STM32F4xx_HAL_Driver/Src/stm32f4xx_ll_sdmmc.c ****   {
 3257              		.loc 1 1278 8 is_stmt 1 view .LVU1110
1278:Drivers/STM32F4xx_HAL_Driver/Src/stm32f4xx_ll_sdmmc.c ****   {
 3258              		.loc 1 1278 11 is_stmt 0 view .LVU1111
 3259 009a DA02     		lsls	r2, r3, #11
 3260 009c 39D4     		bmi	.L278
1282:Drivers/STM32F4xx_HAL_Driver/Src/stm32f4xx_ll_sdmmc.c ****   {
 3261              		.loc 1 1282 8 is_stmt 1 view .LVU1112
1282:Drivers/STM32F4xx_HAL_Driver/Src/stm32f4xx_ll_sdmmc.c ****   {
 3262              		.loc 1 1282 11 is_stmt 0 view .LVU1113
 3263 009e 5903     		lsls	r1, r3, #13
 3264 00a0 34D4     		bmi	.L279
1286:Drivers/STM32F4xx_HAL_Driver/Src/stm32f4xx_ll_sdmmc.c ****   {
 3265              		.loc 1 1286 8 is_stmt 1 view .LVU1114
1286:Drivers/STM32F4xx_HAL_Driver/Src/stm32f4xx_ll_sdmmc.c ****   {
 3266              		.loc 1 1286 11 is_stmt 0 view .LVU1115
ARM GAS  C:\Users\pw705\AppData\Local\Temp\cceieKfF.s 			page 97


 3267 00a2 9A03     		lsls	r2, r3, #14
 3268 00a4 2FD4     		bmi	.L280
1290:Drivers/STM32F4xx_HAL_Driver/Src/stm32f4xx_ll_sdmmc.c ****   {
 3269              		.loc 1 1290 8 is_stmt 1 view .LVU1116
1290:Drivers/STM32F4xx_HAL_Driver/Src/stm32f4xx_ll_sdmmc.c ****   {
 3270              		.loc 1 1290 11 is_stmt 0 view .LVU1117
 3271 00a6 D903     		lsls	r1, r3, #15
 3272 00a8 3FD4     		bmi	.L281
1294:Drivers/STM32F4xx_HAL_Driver/Src/stm32f4xx_ll_sdmmc.c ****   {
 3273              		.loc 1 1294 8 is_stmt 1 view .LVU1118
1294:Drivers/STM32F4xx_HAL_Driver/Src/stm32f4xx_ll_sdmmc.c ****   {
 3274              		.loc 1 1294 11 is_stmt 0 view .LVU1119
 3275 00aa 1A04     		lsls	r2, r3, #16
 3276 00ac 3AD4     		bmi	.L282
1298:Drivers/STM32F4xx_HAL_Driver/Src/stm32f4xx_ll_sdmmc.c ****   {
 3277              		.loc 1 1298 8 is_stmt 1 view .LVU1120
1298:Drivers/STM32F4xx_HAL_Driver/Src/stm32f4xx_ll_sdmmc.c ****   {
 3278              		.loc 1 1298 11 is_stmt 0 view .LVU1121
 3279 00ae 5904     		lsls	r1, r3, #17
 3280 00b0 35D4     		bmi	.L283
1302:Drivers/STM32F4xx_HAL_Driver/Src/stm32f4xx_ll_sdmmc.c ****   {
 3281              		.loc 1 1302 8 is_stmt 1 view .LVU1122
1302:Drivers/STM32F4xx_HAL_Driver/Src/stm32f4xx_ll_sdmmc.c ****   {
 3282              		.loc 1 1302 11 is_stmt 0 view .LVU1123
 3283 00b2 9A04     		lsls	r2, r3, #18
 3284 00b4 07D4     		bmi	.L284
1306:Drivers/STM32F4xx_HAL_Driver/Src/stm32f4xx_ll_sdmmc.c ****   {
 3285              		.loc 1 1306 8 is_stmt 1 view .LVU1124
 3286              		.loc 1 1308 12 is_stmt 0 view .LVU1125
 3287 00b6 13F0080F 		tst	r3, #8
 3288 00ba 0CBF     		ite	eq
 3289 00bc 4FF48030 		moveq	r0, #65536
 3290 00c0 4FF40000 		movne	r0, #8388608
 3291 00c4 7047     		bx	lr
 3292              	.L284:
1304:Drivers/STM32F4xx_HAL_Driver/Src/stm32f4xx_ll_sdmmc.c ****   }
 3293              		.loc 1 1304 12 view .LVU1126
 3294 00c6 4FF48000 		mov	r0, #4194304
 3295              	.L258:
1304:Drivers/STM32F4xx_HAL_Driver/Src/stm32f4xx_ll_sdmmc.c ****   }
 3296              		.loc 1 1304 12 view .LVU1127
 3297              	.LBE368:
 3298              	.LBE367:
 3299              	.LBE377:
 3300              	.LBE388:
 665:Drivers/STM32F4xx_HAL_Driver/Src/stm32f4xx_ll_sdmmc.c **** 
 3301              		.loc 1 665 1 view .LVU1128
 3302 00ca 7047     		bx	lr
 3303              	.LVL193:
 3304              	.L294:
 3305              	.LBB389:
 3306              	.LBB378:
1207:Drivers/STM32F4xx_HAL_Driver/Src/stm32f4xx_ll_sdmmc.c **** 
 3307              		.loc 1 1207 5 is_stmt 1 view .LVU1129
 3308 00cc 0423     		movs	r3, #4
 3309 00ce 8363     		str	r3, [r0, #56]
1209:Drivers/STM32F4xx_HAL_Driver/Src/stm32f4xx_ll_sdmmc.c ****   }
ARM GAS  C:\Users\pw705\AppData\Local\Temp\cceieKfF.s 			page 98


 3310              		.loc 1 1209 5 view .LVU1130
1209:Drivers/STM32F4xx_HAL_Driver/Src/stm32f4xx_ll_sdmmc.c ****   }
 3311              		.loc 1 1209 12 is_stmt 0 view .LVU1131
 3312 00d0 1846     		mov	r0, r3
 3313              	.LVL194:
1209:Drivers/STM32F4xx_HAL_Driver/Src/stm32f4xx_ll_sdmmc.c ****   }
 3314              		.loc 1 1209 12 view .LVU1132
 3315 00d2 7047     		bx	lr
 3316              	.LVL195:
 3317              	.L268:
 3318              	.LBB372:
 3319              	.LBB371:
1240:Drivers/STM32F4xx_HAL_Driver/Src/stm32f4xx_ll_sdmmc.c ****   }
 3320              		.loc 1 1240 12 view .LVU1133
 3321 00d4 4FF00070 		mov	r0, #33554432
 3322 00d8 7047     		bx	lr
 3323              	.L269:
1244:Drivers/STM32F4xx_HAL_Driver/Src/stm32f4xx_ll_sdmmc.c ****   }
 3324              		.loc 1 1244 12 view .LVU1134
 3325 00da 4020     		movs	r0, #64
 3326 00dc 7047     		bx	lr
 3327              	.L270:
1248:Drivers/STM32F4xx_HAL_Driver/Src/stm32f4xx_ll_sdmmc.c ****   }
 3328              		.loc 1 1248 12 view .LVU1135
 3329 00de 8020     		movs	r0, #128
 3330 00e0 7047     		bx	lr
 3331              	.L271:
1252:Drivers/STM32F4xx_HAL_Driver/Src/stm32f4xx_ll_sdmmc.c ****   }
 3332              		.loc 1 1252 12 view .LVU1136
 3333 00e2 4FF48070 		mov	r0, #256
 3334 00e6 7047     		bx	lr
 3335              	.L272:
1256:Drivers/STM32F4xx_HAL_Driver/Src/stm32f4xx_ll_sdmmc.c ****   }
 3336              		.loc 1 1256 12 view .LVU1137
 3337 00e8 4FF40070 		mov	r0, #512
 3338 00ec 7047     		bx	lr
 3339              	.L273:
1260:Drivers/STM32F4xx_HAL_Driver/Src/stm32f4xx_ll_sdmmc.c ****   }
 3340              		.loc 1 1260 12 view .LVU1138
 3341 00ee 4FF48060 		mov	r0, #1024
 3342 00f2 7047     		bx	lr
 3343              	.L274:
1264:Drivers/STM32F4xx_HAL_Driver/Src/stm32f4xx_ll_sdmmc.c ****   }
 3344              		.loc 1 1264 12 view .LVU1139
 3345 00f4 4FF40060 		mov	r0, #2048
 3346 00f8 7047     		bx	lr
 3347              	.L275:
1268:Drivers/STM32F4xx_HAL_Driver/Src/stm32f4xx_ll_sdmmc.c ****   }
 3348              		.loc 1 1268 12 view .LVU1140
 3349 00fa 4FF48050 		mov	r0, #4096
 3350 00fe 7047     		bx	lr
 3351              	.L276:
1272:Drivers/STM32F4xx_HAL_Driver/Src/stm32f4xx_ll_sdmmc.c ****   }
 3352              		.loc 1 1272 12 view .LVU1141
 3353 0100 4FF40050 		mov	r0, #8192
 3354 0104 7047     		bx	lr
 3355              	.L280:
ARM GAS  C:\Users\pw705\AppData\Local\Temp\cceieKfF.s 			page 99


1288:Drivers/STM32F4xx_HAL_Driver/Src/stm32f4xx_ll_sdmmc.c ****   }
 3356              		.loc 1 1288 12 view .LVU1142
 3357 0106 4FF48020 		mov	r0, #262144
 3358 010a 7047     		bx	lr
 3359              	.L279:
1284:Drivers/STM32F4xx_HAL_Driver/Src/stm32f4xx_ll_sdmmc.c ****   }
 3360              		.loc 1 1284 12 view .LVU1143
 3361 010c 4FF40030 		mov	r0, #131072
 3362 0110 7047     		bx	lr
 3363              	.L278:
1280:Drivers/STM32F4xx_HAL_Driver/Src/stm32f4xx_ll_sdmmc.c ****   }
 3364              		.loc 1 1280 12 view .LVU1144
 3365 0112 4FF40040 		mov	r0, #32768
 3366 0116 7047     		bx	lr
 3367              	.L277:
1276:Drivers/STM32F4xx_HAL_Driver/Src/stm32f4xx_ll_sdmmc.c ****   }
 3368              		.loc 1 1276 12 view .LVU1145
 3369 0118 4FF48040 		mov	r0, #16384
 3370 011c 7047     		bx	lr
 3371              	.L283:
1300:Drivers/STM32F4xx_HAL_Driver/Src/stm32f4xx_ll_sdmmc.c ****   }
 3372              		.loc 1 1300 12 view .LVU1146
 3373 011e 4FF40010 		mov	r0, #2097152
 3374 0122 7047     		bx	lr
 3375              	.L282:
1296:Drivers/STM32F4xx_HAL_Driver/Src/stm32f4xx_ll_sdmmc.c ****   }
 3376              		.loc 1 1296 12 view .LVU1147
 3377 0124 4FF48010 		mov	r0, #1048576
 3378 0128 7047     		bx	lr
 3379              	.L281:
1292:Drivers/STM32F4xx_HAL_Driver/Src/stm32f4xx_ll_sdmmc.c ****   }
 3380              		.loc 1 1292 12 view .LVU1148
 3381 012a 4FF40020 		mov	r0, #524288
 3382 012e 7047     		bx	lr
 3383              	.L297:
 3384              		.align	2
 3385              	.L296:
 3386 0130 00000000 		.word	SystemCoreClock
 3387 0134 D34D6210 		.word	274877907
 3388 0138 08E0FFFD 		.word	-33562616
 3389              	.LBE371:
 3390              	.LBE372:
 3391              	.LBE378:
 3392              	.LBE389:
 3393              		.cfi_endproc
 3394              	.LFE149:
 3396              		.section	.text.SDMMC_CmdEraseStartAdd,"ax",%progbits
 3397              		.align	1
 3398              		.p2align 2,,3
 3399              		.global	SDMMC_CmdEraseStartAdd
 3400              		.syntax unified
 3401              		.thumb
 3402              		.thumb_func
 3404              	SDMMC_CmdEraseStartAdd:
 3405              	.LVL196:
 3406              	.LFB150:
 673:Drivers/STM32F4xx_HAL_Driver/Src/stm32f4xx_ll_sdmmc.c ****   SDIO_CmdInitTypeDef sdmmc_cmdinit;
ARM GAS  C:\Users\pw705\AppData\Local\Temp\cceieKfF.s 			page 100


 3407              		.loc 1 673 1 is_stmt 1 view -0
 3408              		.cfi_startproc
 3409              		@ args = 0, pretend = 0, frame = 0
 3410              		@ frame_needed = 0, uses_anonymous_args = 0
 3411              		@ link register save eliminated.
 674:Drivers/STM32F4xx_HAL_Driver/Src/stm32f4xx_ll_sdmmc.c ****   uint32_t errorstate;
 3412              		.loc 1 674 3 view .LVU1150
 675:Drivers/STM32F4xx_HAL_Driver/Src/stm32f4xx_ll_sdmmc.c **** 
 3413              		.loc 1 675 3 view .LVU1151
 678:Drivers/STM32F4xx_HAL_Driver/Src/stm32f4xx_ll_sdmmc.c ****   sdmmc_cmdinit.CmdIndex = SDMMC_CMD_ERASE_GRP_START;
 3414              		.loc 1 678 3 view .LVU1152
 679:Drivers/STM32F4xx_HAL_Driver/Src/stm32f4xx_ll_sdmmc.c ****   sdmmc_cmdinit.Response = SDIO_RESPONSE_SHORT;
 3415              		.loc 1 679 3 view .LVU1153
 680:Drivers/STM32F4xx_HAL_Driver/Src/stm32f4xx_ll_sdmmc.c ****   sdmmc_cmdinit.WaitForInterrupt = SDIO_WAIT_NO;
 3416              		.loc 1 680 3 view .LVU1154
 681:Drivers/STM32F4xx_HAL_Driver/Src/stm32f4xx_ll_sdmmc.c ****   sdmmc_cmdinit.CPSM = SDIO_CPSM_ENABLE;
 3417              		.loc 1 681 3 view .LVU1155
 682:Drivers/STM32F4xx_HAL_Driver/Src/stm32f4xx_ll_sdmmc.c ****   (void)SDIO_SendCommand(SDIOx, &sdmmc_cmdinit);
 3418              		.loc 1 682 3 view .LVU1156
 683:Drivers/STM32F4xx_HAL_Driver/Src/stm32f4xx_ll_sdmmc.c **** 
 3419              		.loc 1 683 3 view .LVU1157
 3420              	.LBB402:
 3421              	.LBI402:
 345:Drivers/STM32F4xx_HAL_Driver/Src/stm32f4xx_ll_sdmmc.c **** {
 3422              		.loc 1 345 19 view .LVU1158
 3423              	.LBB403:
 347:Drivers/STM32F4xx_HAL_Driver/Src/stm32f4xx_ll_sdmmc.c **** 
 3424              		.loc 1 347 3 view .LVU1159
 350:Drivers/STM32F4xx_HAL_Driver/Src/stm32f4xx_ll_sdmmc.c ****   assert_param(IS_SDIO_RESPONSE(Command->Response));
 3425              		.loc 1 350 3 view .LVU1160
 351:Drivers/STM32F4xx_HAL_Driver/Src/stm32f4xx_ll_sdmmc.c ****   assert_param(IS_SDIO_WAIT(Command->WaitForInterrupt));
 3426              		.loc 1 351 3 view .LVU1161
 352:Drivers/STM32F4xx_HAL_Driver/Src/stm32f4xx_ll_sdmmc.c ****   assert_param(IS_SDIO_CPSM(Command->CPSM));
 3427              		.loc 1 352 3 view .LVU1162
 353:Drivers/STM32F4xx_HAL_Driver/Src/stm32f4xx_ll_sdmmc.c **** 
 3428              		.loc 1 353 3 view .LVU1163
 356:Drivers/STM32F4xx_HAL_Driver/Src/stm32f4xx_ll_sdmmc.c **** 
 3429              		.loc 1 356 3 view .LVU1164
 356:Drivers/STM32F4xx_HAL_Driver/Src/stm32f4xx_ll_sdmmc.c **** 
 3430              		.loc 1 356 14 is_stmt 0 view .LVU1165
 3431 0000 8160     		str	r1, [r0, #8]
 359:Drivers/STM32F4xx_HAL_Driver/Src/stm32f4xx_ll_sdmmc.c ****                        Command->Response |
 3432              		.loc 1 359 3 is_stmt 1 view .LVU1166
 3433              	.LVL197:
 365:Drivers/STM32F4xx_HAL_Driver/Src/stm32f4xx_ll_sdmmc.c **** 
 3434              		.loc 1 365 3 view .LVU1167
 3435              	.LBE403:
 3436              	.LBE402:
 3437              	.LBB409:
 3438              	.LBB410:
1193:Drivers/STM32F4xx_HAL_Driver/Src/stm32f4xx_ll_sdmmc.c **** 
 3439              		.loc 1 1193 52 is_stmt 0 view .LVU1168
 3440 0002 4B4A     		ldr	r2, .L336
 3441              	.LBE410:
 3442              	.LBE409:
 3443              	.LBB425:
 3444              	.LBB404:
ARM GAS  C:\Users\pw705\AppData\Local\Temp\cceieKfF.s 			page 101


 365:Drivers/STM32F4xx_HAL_Driver/Src/stm32f4xx_ll_sdmmc.c **** 
 3445              		.loc 1 365 3 view .LVU1169
 3446 0004 C368     		ldr	r3, [r0, #12]
 3447              	.LBE404:
 3448              	.LBE425:
 3449              	.LBB426:
 3450              	.LBB419:
1193:Drivers/STM32F4xx_HAL_Driver/Src/stm32f4xx_ll_sdmmc.c **** 
 3451              		.loc 1 1193 52 view .LVU1170
 3452 0006 4B49     		ldr	r1, .L336+4
 3453              	.LVL198:
1193:Drivers/STM32F4xx_HAL_Driver/Src/stm32f4xx_ll_sdmmc.c **** 
 3454              		.loc 1 1193 52 view .LVU1171
 3455 0008 1268     		ldr	r2, [r2]
 3456              	.LBE419:
 3457              	.LBE426:
 3458              	.LBB427:
 3459              	.LBB405:
 365:Drivers/STM32F4xx_HAL_Driver/Src/stm32f4xx_ll_sdmmc.c **** 
 3460              		.loc 1 365 3 view .LVU1172
 3461 000a 23F47F63 		bic	r3, r3, #4080
 3462              	.LBE405:
 3463              	.LBE427:
 3464              	.LBB428:
 3465              	.LBB420:
1193:Drivers/STM32F4xx_HAL_Driver/Src/stm32f4xx_ll_sdmmc.c **** 
 3466              		.loc 1 1193 52 view .LVU1173
 3467 000e A1FB0212 		umull	r1, r2, r1, r2
 3468              	.LBE420:
 3469              	.LBE428:
 3470              	.LBB429:
 3471              	.LBB406:
 365:Drivers/STM32F4xx_HAL_Driver/Src/stm32f4xx_ll_sdmmc.c **** 
 3472              		.loc 1 365 3 view .LVU1174
 3473 0012 23F00F03 		bic	r3, r3, #15
 3474 0016 43F48C63 		orr	r3, r3, #1120
 3475              	.LBE406:
 3476              	.LBE429:
 3477              	.LBB430:
 3478              	.LBB421:
1193:Drivers/STM32F4xx_HAL_Driver/Src/stm32f4xx_ll_sdmmc.c **** 
 3479              		.loc 1 1193 52 view .LVU1175
 3480 001a 520A     		lsrs	r2, r2, #9
1193:Drivers/STM32F4xx_HAL_Driver/Src/stm32f4xx_ll_sdmmc.c **** 
 3481              		.loc 1 1193 12 view .LVU1176
 3482 001c 41F28831 		movw	r1, #5000
 3483              	.LBE421:
 3484              	.LBE430:
 3485              	.LBB431:
 3486              	.LBB407:
 365:Drivers/STM32F4xx_HAL_Driver/Src/stm32f4xx_ll_sdmmc.c **** 
 3487              		.loc 1 365 3 view .LVU1177
 3488 0020 43F00303 		orr	r3, r3, #3
 3489              	.LBE407:
 3490              	.LBE431:
 3491              	.LBB432:
 3492              	.LBB422:
ARM GAS  C:\Users\pw705\AppData\Local\Temp\cceieKfF.s 			page 102


1193:Drivers/STM32F4xx_HAL_Driver/Src/stm32f4xx_ll_sdmmc.c **** 
 3493              		.loc 1 1193 12 view .LVU1178
 3494 0024 01FB02F2 		mul	r2, r1, r2
 3495              	.LBE422:
 3496              	.LBE432:
 3497              	.LBB433:
 3498              	.LBB408:
 365:Drivers/STM32F4xx_HAL_Driver/Src/stm32f4xx_ll_sdmmc.c **** 
 3499              		.loc 1 365 3 view .LVU1179
 3500 0028 C360     		str	r3, [r0, #12]
 3501              	.LVL199:
 367:Drivers/STM32F4xx_HAL_Driver/Src/stm32f4xx_ll_sdmmc.c **** }
 3502              		.loc 1 367 3 is_stmt 1 view .LVU1180
 367:Drivers/STM32F4xx_HAL_Driver/Src/stm32f4xx_ll_sdmmc.c **** }
 3503              		.loc 1 367 3 is_stmt 0 view .LVU1181
 3504              	.LBE408:
 3505              	.LBE433:
 686:Drivers/STM32F4xx_HAL_Driver/Src/stm32f4xx_ll_sdmmc.c **** 
 3506              		.loc 1 686 3 is_stmt 1 view .LVU1182
 3507              	.LBB434:
 3508              	.LBI409:
1186:Drivers/STM32F4xx_HAL_Driver/Src/stm32f4xx_ll_sdmmc.c **** {
 3509              		.loc 1 1186 10 view .LVU1183
 3510              	.LBB423:
1188:Drivers/STM32F4xx_HAL_Driver/Src/stm32f4xx_ll_sdmmc.c ****   uint32_t sta_reg;
 3511              		.loc 1 1188 3 view .LVU1184
1189:Drivers/STM32F4xx_HAL_Driver/Src/stm32f4xx_ll_sdmmc.c **** 
 3512              		.loc 1 1189 3 view .LVU1185
1193:Drivers/STM32F4xx_HAL_Driver/Src/stm32f4xx_ll_sdmmc.c **** 
 3513              		.loc 1 1193 3 view .LVU1186
1195:Drivers/STM32F4xx_HAL_Driver/Src/stm32f4xx_ll_sdmmc.c ****   {
 3514              		.loc 1 1195 3 view .LVU1187
1197:Drivers/STM32F4xx_HAL_Driver/Src/stm32f4xx_ll_sdmmc.c ****     {
 3515              		.loc 1 1197 5 view .LVU1188
1197:Drivers/STM32F4xx_HAL_Driver/Src/stm32f4xx_ll_sdmmc.c ****     {
 3516              		.loc 1 1197 14 is_stmt 0 view .LVU1189
 3517 002a 531E     		subs	r3, r2, #1
 3518              	.LVL200:
1197:Drivers/STM32F4xx_HAL_Driver/Src/stm32f4xx_ll_sdmmc.c ****     {
 3519              		.loc 1 1197 8 view .LVU1190
 3520 002c 4AB1     		cbz	r2, .L307
 3521              	.L300:
1195:Drivers/STM32F4xx_HAL_Driver/Src/stm32f4xx_ll_sdmmc.c ****   {
 3522              		.loc 1 1195 3 is_stmt 1 view .LVU1191
1197:Drivers/STM32F4xx_HAL_Driver/Src/stm32f4xx_ll_sdmmc.c ****     {
 3523              		.loc 1 1197 5 view .LVU1192
1201:Drivers/STM32F4xx_HAL_Driver/Src/stm32f4xx_ll_sdmmc.c ****   } while (((sta_reg & (SDIO_FLAG_CCRCFAIL | SDIO_FLAG_CMDREND | SDIO_FLAG_CTIMEOUT)) == 0U) ||
 3524              		.loc 1 1201 5 view .LVU1193
1201:Drivers/STM32F4xx_HAL_Driver/Src/stm32f4xx_ll_sdmmc.c ****   } while (((sta_reg & (SDIO_FLAG_CCRCFAIL | SDIO_FLAG_CMDREND | SDIO_FLAG_CTIMEOUT)) == 0U) ||
 3525              		.loc 1 1201 13 is_stmt 0 view .LVU1194
 3526 002e 426B     		ldr	r2, [r0, #52]
 3527              	.LVL201:
1202:Drivers/STM32F4xx_HAL_Driver/Src/stm32f4xx_ll_sdmmc.c ****            ((sta_reg & SDIO_FLAG_CMDACT) != 0U));
 3528              		.loc 1 1202 94 is_stmt 1 view .LVU1195
 3529 0030 12F0450F 		tst	r2, #69
1197:Drivers/STM32F4xx_HAL_Driver/Src/stm32f4xx_ll_sdmmc.c ****     {
 3530              		.loc 1 1197 14 is_stmt 0 view .LVU1196
ARM GAS  C:\Users\pw705\AppData\Local\Temp\cceieKfF.s 			page 103


 3531 0034 03F1FF33 		add	r3, r3, #-1
 3532              	.LVL202:
1202:Drivers/STM32F4xx_HAL_Driver/Src/stm32f4xx_ll_sdmmc.c ****            ((sta_reg & SDIO_FLAG_CMDACT) != 0U));
 3533              		.loc 1 1202 94 view .LVU1197
 3534 0038 01D0     		beq	.L301
 3535 003a 1105     		lsls	r1, r2, #20
 3536 003c 04D5     		bpl	.L333
 3537              	.L301:
1197:Drivers/STM32F4xx_HAL_Driver/Src/stm32f4xx_ll_sdmmc.c ****     {
 3538              		.loc 1 1197 8 view .LVU1198
 3539 003e 5A1C     		adds	r2, r3, #1
 3540              	.LVL203:
1197:Drivers/STM32F4xx_HAL_Driver/Src/stm32f4xx_ll_sdmmc.c ****     {
 3541              		.loc 1 1197 8 view .LVU1199
 3542 0040 F5D1     		bne	.L300
 3543              	.LVL204:
 3544              	.L307:
1199:Drivers/STM32F4xx_HAL_Driver/Src/stm32f4xx_ll_sdmmc.c ****     }
 3545              		.loc 1 1199 14 view .LVU1200
 3546 0042 4FF00040 		mov	r0, #-2147483648
 3547              	.LVL205:
1199:Drivers/STM32F4xx_HAL_Driver/Src/stm32f4xx_ll_sdmmc.c ****     }
 3548              		.loc 1 1199 14 view .LVU1201
 3549 0046 7047     		bx	lr
 3550              	.LVL206:
 3551              	.L333:
1205:Drivers/STM32F4xx_HAL_Driver/Src/stm32f4xx_ll_sdmmc.c ****   {
 3552              		.loc 1 1205 3 is_stmt 1 view .LVU1202
1205:Drivers/STM32F4xx_HAL_Driver/Src/stm32f4xx_ll_sdmmc.c ****   {
 3553              		.loc 1 1205 7 is_stmt 0 view .LVU1203
 3554 0048 436B     		ldr	r3, [r0, #52]
 3555              	.LVL207:
1205:Drivers/STM32F4xx_HAL_Driver/Src/stm32f4xx_ll_sdmmc.c ****   {
 3556              		.loc 1 1205 6 view .LVU1204
 3557 004a 5A07     		lsls	r2, r3, #29
 3558              	.LVL208:
1205:Drivers/STM32F4xx_HAL_Driver/Src/stm32f4xx_ll_sdmmc.c ****   {
 3559              		.loc 1 1205 6 view .LVU1205
 3560 004c 3ED4     		bmi	.L334
1211:Drivers/STM32F4xx_HAL_Driver/Src/stm32f4xx_ll_sdmmc.c ****   {
 3561              		.loc 1 1211 8 is_stmt 1 view .LVU1206
1211:Drivers/STM32F4xx_HAL_Driver/Src/stm32f4xx_ll_sdmmc.c ****   {
 3562              		.loc 1 1211 12 is_stmt 0 view .LVU1207
 3563 004e 436B     		ldr	r3, [r0, #52]
1211:Drivers/STM32F4xx_HAL_Driver/Src/stm32f4xx_ll_sdmmc.c ****   {
 3564              		.loc 1 1211 11 view .LVU1208
 3565 0050 DB07     		lsls	r3, r3, #31
 3566 0052 07D4     		bmi	.L335
1220:Drivers/STM32F4xx_HAL_Driver/Src/stm32f4xx_ll_sdmmc.c **** 
 3567              		.loc 1 1220 3 is_stmt 1 view .LVU1209
1223:Drivers/STM32F4xx_HAL_Driver/Src/stm32f4xx_ll_sdmmc.c **** 
 3568              		.loc 1 1223 3 view .LVU1210
 3569 0054 C523     		movs	r3, #197
 3570 0056 8363     		str	r3, [r0, #56]
1226:Drivers/STM32F4xx_HAL_Driver/Src/stm32f4xx_ll_sdmmc.c ****   {
 3571              		.loc 1 1226 3 view .LVU1211
 3572              	.LVL209:
ARM GAS  C:\Users\pw705\AppData\Local\Temp\cceieKfF.s 			page 104


 3573              	.LBB411:
 3574              	.LBI411:
 375:Drivers/STM32F4xx_HAL_Driver/Src/stm32f4xx_ll_sdmmc.c **** {
 3575              		.loc 1 375 9 view .LVU1212
 3576              	.LBB412:
 377:Drivers/STM32F4xx_HAL_Driver/Src/stm32f4xx_ll_sdmmc.c **** }
 3577              		.loc 1 377 3 view .LVU1213
 377:Drivers/STM32F4xx_HAL_Driver/Src/stm32f4xx_ll_sdmmc.c **** }
 3578              		.loc 1 377 25 is_stmt 0 view .LVU1214
 3579 0058 0369     		ldr	r3, [r0, #16]
 3580              	.LVL210:
 377:Drivers/STM32F4xx_HAL_Driver/Src/stm32f4xx_ll_sdmmc.c **** }
 3581              		.loc 1 377 25 view .LVU1215
 3582              	.LBE412:
 3583              	.LBE411:
1226:Drivers/STM32F4xx_HAL_Driver/Src/stm32f4xx_ll_sdmmc.c ****   {
 3584              		.loc 1 1226 6 view .LVU1216
 3585 005a DBB2     		uxtb	r3, r3
 3586 005c 232B     		cmp	r3, #35
 3587 005e 04D0     		beq	.L305
 3588              	.L304:
1215:Drivers/STM32F4xx_HAL_Driver/Src/stm32f4xx_ll_sdmmc.c ****   }
 3589              		.loc 1 1215 12 view .LVU1217
 3590 0060 0120     		movs	r0, #1
 3591              	.LVL211:
1215:Drivers/STM32F4xx_HAL_Driver/Src/stm32f4xx_ll_sdmmc.c ****   }
 3592              		.loc 1 1215 12 view .LVU1218
 3593 0062 7047     		bx	lr
 3594              	.LVL212:
 3595              	.L335:
1213:Drivers/STM32F4xx_HAL_Driver/Src/stm32f4xx_ll_sdmmc.c **** 
 3596              		.loc 1 1213 5 is_stmt 1 view .LVU1219
 3597 0064 0123     		movs	r3, #1
 3598 0066 8363     		str	r3, [r0, #56]
1215:Drivers/STM32F4xx_HAL_Driver/Src/stm32f4xx_ll_sdmmc.c ****   }
 3599              		.loc 1 1215 5 view .LVU1220
1215:Drivers/STM32F4xx_HAL_Driver/Src/stm32f4xx_ll_sdmmc.c ****   }
 3600              		.loc 1 1215 12 is_stmt 0 view .LVU1221
 3601 0068 FAE7     		b	.L304
 3602              	.L305:
 3603              	.LVL213:
 3604              	.LBB413:
 3605              	.LBI413:
1186:Drivers/STM32F4xx_HAL_Driver/Src/stm32f4xx_ll_sdmmc.c **** {
 3606              		.loc 1 1186 10 is_stmt 1 view .LVU1222
 3607              	.LBB414:
1232:Drivers/STM32F4xx_HAL_Driver/Src/stm32f4xx_ll_sdmmc.c **** 
 3608              		.loc 1 1232 3 view .LVU1223
 3609              	.LBB415:
 3610              	.LBI415:
 391:Drivers/STM32F4xx_HAL_Driver/Src/stm32f4xx_ll_sdmmc.c **** {
 3611              		.loc 1 391 10 view .LVU1224
 3612              	.LBB416:
 393:Drivers/STM32F4xx_HAL_Driver/Src/stm32f4xx_ll_sdmmc.c **** 
 3613              		.loc 1 393 3 view .LVU1225
 396:Drivers/STM32F4xx_HAL_Driver/Src/stm32f4xx_ll_sdmmc.c **** 
 3614              		.loc 1 396 3 view .LVU1226
ARM GAS  C:\Users\pw705\AppData\Local\Temp\cceieKfF.s 			page 105


 399:Drivers/STM32F4xx_HAL_Driver/Src/stm32f4xx_ll_sdmmc.c **** 
 3615              		.loc 1 399 3 view .LVU1227
 401:Drivers/STM32F4xx_HAL_Driver/Src/stm32f4xx_ll_sdmmc.c **** }
 3616              		.loc 1 401 3 view .LVU1228
 401:Drivers/STM32F4xx_HAL_Driver/Src/stm32f4xx_ll_sdmmc.c **** }
 3617              		.loc 1 401 11 is_stmt 0 view .LVU1229
 3618 006a 4369     		ldr	r3, [r0, #20]
 3619              	.LVL214:
 401:Drivers/STM32F4xx_HAL_Driver/Src/stm32f4xx_ll_sdmmc.c **** }
 3620              		.loc 1 401 11 view .LVU1230
 3621              	.LBE416:
 3622              	.LBE415:
1234:Drivers/STM32F4xx_HAL_Driver/Src/stm32f4xx_ll_sdmmc.c ****   {
 3623              		.loc 1 1234 3 is_stmt 1 view .LVU1231
1234:Drivers/STM32F4xx_HAL_Driver/Src/stm32f4xx_ll_sdmmc.c ****   {
 3624              		.loc 1 1234 20 is_stmt 0 view .LVU1232
 3625 006c 3248     		ldr	r0, .L336+8
 3626              	.LVL215:
1234:Drivers/STM32F4xx_HAL_Driver/Src/stm32f4xx_ll_sdmmc.c ****   {
 3627              		.loc 1 1234 20 view .LVU1233
 3628 006e 1840     		ands	r0, r0, r3
1234:Drivers/STM32F4xx_HAL_Driver/Src/stm32f4xx_ll_sdmmc.c ****   {
 3629              		.loc 1 1234 6 view .LVU1234
 3630 0070 58B3     		cbz	r0, .L298
1238:Drivers/STM32F4xx_HAL_Driver/Src/stm32f4xx_ll_sdmmc.c ****   {
 3631              		.loc 1 1238 8 is_stmt 1 view .LVU1235
1238:Drivers/STM32F4xx_HAL_Driver/Src/stm32f4xx_ll_sdmmc.c ****   {
 3632              		.loc 1 1238 11 is_stmt 0 view .LVU1236
 3633 0072 002B     		cmp	r3, #0
 3634 0074 2EDB     		blt	.L308
1242:Drivers/STM32F4xx_HAL_Driver/Src/stm32f4xx_ll_sdmmc.c ****   {
 3635              		.loc 1 1242 8 is_stmt 1 view .LVU1237
1242:Drivers/STM32F4xx_HAL_Driver/Src/stm32f4xx_ll_sdmmc.c ****   {
 3636              		.loc 1 1242 11 is_stmt 0 view .LVU1238
 3637 0076 5900     		lsls	r1, r3, #1
 3638 0078 2FD4     		bmi	.L309
1246:Drivers/STM32F4xx_HAL_Driver/Src/stm32f4xx_ll_sdmmc.c ****   {
 3639              		.loc 1 1246 8 is_stmt 1 view .LVU1239
1246:Drivers/STM32F4xx_HAL_Driver/Src/stm32f4xx_ll_sdmmc.c ****   {
 3640              		.loc 1 1246 11 is_stmt 0 view .LVU1240
 3641 007a 9A00     		lsls	r2, r3, #2
 3642 007c 2FD4     		bmi	.L310
1250:Drivers/STM32F4xx_HAL_Driver/Src/stm32f4xx_ll_sdmmc.c ****   {
 3643              		.loc 1 1250 8 is_stmt 1 view .LVU1241
1250:Drivers/STM32F4xx_HAL_Driver/Src/stm32f4xx_ll_sdmmc.c ****   {
 3644              		.loc 1 1250 11 is_stmt 0 view .LVU1242
 3645 007e D900     		lsls	r1, r3, #3
 3646 0080 2FD4     		bmi	.L311
1254:Drivers/STM32F4xx_HAL_Driver/Src/stm32f4xx_ll_sdmmc.c ****   {
 3647              		.loc 1 1254 8 is_stmt 1 view .LVU1243
1254:Drivers/STM32F4xx_HAL_Driver/Src/stm32f4xx_ll_sdmmc.c ****   {
 3648              		.loc 1 1254 11 is_stmt 0 view .LVU1244
 3649 0082 1A01     		lsls	r2, r3, #4
 3650 0084 30D4     		bmi	.L312
1258:Drivers/STM32F4xx_HAL_Driver/Src/stm32f4xx_ll_sdmmc.c ****   {
 3651              		.loc 1 1258 8 is_stmt 1 view .LVU1245
1258:Drivers/STM32F4xx_HAL_Driver/Src/stm32f4xx_ll_sdmmc.c ****   {
ARM GAS  C:\Users\pw705\AppData\Local\Temp\cceieKfF.s 			page 106


 3652              		.loc 1 1258 11 is_stmt 0 view .LVU1246
 3653 0086 5901     		lsls	r1, r3, #5
 3654 0088 31D4     		bmi	.L313
1262:Drivers/STM32F4xx_HAL_Driver/Src/stm32f4xx_ll_sdmmc.c ****   {
 3655              		.loc 1 1262 8 is_stmt 1 view .LVU1247
1262:Drivers/STM32F4xx_HAL_Driver/Src/stm32f4xx_ll_sdmmc.c ****   {
 3656              		.loc 1 1262 11 is_stmt 0 view .LVU1248
 3657 008a DA01     		lsls	r2, r3, #7
 3658 008c 32D4     		bmi	.L314
1266:Drivers/STM32F4xx_HAL_Driver/Src/stm32f4xx_ll_sdmmc.c ****   {
 3659              		.loc 1 1266 8 is_stmt 1 view .LVU1249
1266:Drivers/STM32F4xx_HAL_Driver/Src/stm32f4xx_ll_sdmmc.c ****   {
 3660              		.loc 1 1266 11 is_stmt 0 view .LVU1250
 3661 008e 1902     		lsls	r1, r3, #8
 3662 0090 33D4     		bmi	.L315
1270:Drivers/STM32F4xx_HAL_Driver/Src/stm32f4xx_ll_sdmmc.c ****   {
 3663              		.loc 1 1270 8 is_stmt 1 view .LVU1251
1270:Drivers/STM32F4xx_HAL_Driver/Src/stm32f4xx_ll_sdmmc.c ****   {
 3664              		.loc 1 1270 11 is_stmt 0 view .LVU1252
 3665 0092 5A02     		lsls	r2, r3, #9
 3666 0094 34D4     		bmi	.L316
1274:Drivers/STM32F4xx_HAL_Driver/Src/stm32f4xx_ll_sdmmc.c ****   {
 3667              		.loc 1 1274 8 is_stmt 1 view .LVU1253
1274:Drivers/STM32F4xx_HAL_Driver/Src/stm32f4xx_ll_sdmmc.c ****   {
 3668              		.loc 1 1274 11 is_stmt 0 view .LVU1254
 3669 0096 9902     		lsls	r1, r3, #10
 3670 0098 3ED4     		bmi	.L317
1278:Drivers/STM32F4xx_HAL_Driver/Src/stm32f4xx_ll_sdmmc.c ****   {
 3671              		.loc 1 1278 8 is_stmt 1 view .LVU1255
1278:Drivers/STM32F4xx_HAL_Driver/Src/stm32f4xx_ll_sdmmc.c ****   {
 3672              		.loc 1 1278 11 is_stmt 0 view .LVU1256
 3673 009a DA02     		lsls	r2, r3, #11
 3674 009c 39D4     		bmi	.L318
1282:Drivers/STM32F4xx_HAL_Driver/Src/stm32f4xx_ll_sdmmc.c ****   {
 3675              		.loc 1 1282 8 is_stmt 1 view .LVU1257
1282:Drivers/STM32F4xx_HAL_Driver/Src/stm32f4xx_ll_sdmmc.c ****   {
 3676              		.loc 1 1282 11 is_stmt 0 view .LVU1258
 3677 009e 5903     		lsls	r1, r3, #13
 3678 00a0 34D4     		bmi	.L319
1286:Drivers/STM32F4xx_HAL_Driver/Src/stm32f4xx_ll_sdmmc.c ****   {
 3679              		.loc 1 1286 8 is_stmt 1 view .LVU1259
1286:Drivers/STM32F4xx_HAL_Driver/Src/stm32f4xx_ll_sdmmc.c ****   {
 3680              		.loc 1 1286 11 is_stmt 0 view .LVU1260
 3681 00a2 9A03     		lsls	r2, r3, #14
 3682 00a4 2FD4     		bmi	.L320
1290:Drivers/STM32F4xx_HAL_Driver/Src/stm32f4xx_ll_sdmmc.c ****   {
 3683              		.loc 1 1290 8 is_stmt 1 view .LVU1261
1290:Drivers/STM32F4xx_HAL_Driver/Src/stm32f4xx_ll_sdmmc.c ****   {
 3684              		.loc 1 1290 11 is_stmt 0 view .LVU1262
 3685 00a6 D903     		lsls	r1, r3, #15
 3686 00a8 3FD4     		bmi	.L321
1294:Drivers/STM32F4xx_HAL_Driver/Src/stm32f4xx_ll_sdmmc.c ****   {
 3687              		.loc 1 1294 8 is_stmt 1 view .LVU1263
1294:Drivers/STM32F4xx_HAL_Driver/Src/stm32f4xx_ll_sdmmc.c ****   {
 3688              		.loc 1 1294 11 is_stmt 0 view .LVU1264
 3689 00aa 1A04     		lsls	r2, r3, #16
 3690 00ac 3AD4     		bmi	.L322
ARM GAS  C:\Users\pw705\AppData\Local\Temp\cceieKfF.s 			page 107


1298:Drivers/STM32F4xx_HAL_Driver/Src/stm32f4xx_ll_sdmmc.c ****   {
 3691              		.loc 1 1298 8 is_stmt 1 view .LVU1265
1298:Drivers/STM32F4xx_HAL_Driver/Src/stm32f4xx_ll_sdmmc.c ****   {
 3692              		.loc 1 1298 11 is_stmt 0 view .LVU1266
 3693 00ae 5904     		lsls	r1, r3, #17
 3694 00b0 35D4     		bmi	.L323
1302:Drivers/STM32F4xx_HAL_Driver/Src/stm32f4xx_ll_sdmmc.c ****   {
 3695              		.loc 1 1302 8 is_stmt 1 view .LVU1267
1302:Drivers/STM32F4xx_HAL_Driver/Src/stm32f4xx_ll_sdmmc.c ****   {
 3696              		.loc 1 1302 11 is_stmt 0 view .LVU1268
 3697 00b2 9A04     		lsls	r2, r3, #18
 3698 00b4 07D4     		bmi	.L324
1306:Drivers/STM32F4xx_HAL_Driver/Src/stm32f4xx_ll_sdmmc.c ****   {
 3699              		.loc 1 1306 8 is_stmt 1 view .LVU1269
 3700              		.loc 1 1308 12 is_stmt 0 view .LVU1270
 3701 00b6 13F0080F 		tst	r3, #8
 3702 00ba 0CBF     		ite	eq
 3703 00bc 4FF48030 		moveq	r0, #65536
 3704 00c0 4FF40000 		movne	r0, #8388608
 3705 00c4 7047     		bx	lr
 3706              	.L324:
1304:Drivers/STM32F4xx_HAL_Driver/Src/stm32f4xx_ll_sdmmc.c ****   }
 3707              		.loc 1 1304 12 view .LVU1271
 3708 00c6 4FF48000 		mov	r0, #4194304
 3709              	.L298:
1304:Drivers/STM32F4xx_HAL_Driver/Src/stm32f4xx_ll_sdmmc.c ****   }
 3710              		.loc 1 1304 12 view .LVU1272
 3711              	.LBE414:
 3712              	.LBE413:
 3713              	.LBE423:
 3714              	.LBE434:
 689:Drivers/STM32F4xx_HAL_Driver/Src/stm32f4xx_ll_sdmmc.c **** 
 3715              		.loc 1 689 1 view .LVU1273
 3716 00ca 7047     		bx	lr
 3717              	.LVL216:
 3718              	.L334:
 3719              	.LBB435:
 3720              	.LBB424:
1207:Drivers/STM32F4xx_HAL_Driver/Src/stm32f4xx_ll_sdmmc.c **** 
 3721              		.loc 1 1207 5 is_stmt 1 view .LVU1274
 3722 00cc 0423     		movs	r3, #4
 3723 00ce 8363     		str	r3, [r0, #56]
1209:Drivers/STM32F4xx_HAL_Driver/Src/stm32f4xx_ll_sdmmc.c ****   }
 3724              		.loc 1 1209 5 view .LVU1275
1209:Drivers/STM32F4xx_HAL_Driver/Src/stm32f4xx_ll_sdmmc.c ****   }
 3725              		.loc 1 1209 12 is_stmt 0 view .LVU1276
 3726 00d0 1846     		mov	r0, r3
 3727              	.LVL217:
1209:Drivers/STM32F4xx_HAL_Driver/Src/stm32f4xx_ll_sdmmc.c ****   }
 3728              		.loc 1 1209 12 view .LVU1277
 3729 00d2 7047     		bx	lr
 3730              	.LVL218:
 3731              	.L308:
 3732              	.LBB418:
 3733              	.LBB417:
1240:Drivers/STM32F4xx_HAL_Driver/Src/stm32f4xx_ll_sdmmc.c ****   }
 3734              		.loc 1 1240 12 view .LVU1278
ARM GAS  C:\Users\pw705\AppData\Local\Temp\cceieKfF.s 			page 108


 3735 00d4 4FF00070 		mov	r0, #33554432
 3736 00d8 7047     		bx	lr
 3737              	.L309:
1244:Drivers/STM32F4xx_HAL_Driver/Src/stm32f4xx_ll_sdmmc.c ****   }
 3738              		.loc 1 1244 12 view .LVU1279
 3739 00da 4020     		movs	r0, #64
 3740 00dc 7047     		bx	lr
 3741              	.L310:
1248:Drivers/STM32F4xx_HAL_Driver/Src/stm32f4xx_ll_sdmmc.c ****   }
 3742              		.loc 1 1248 12 view .LVU1280
 3743 00de 8020     		movs	r0, #128
 3744 00e0 7047     		bx	lr
 3745              	.L311:
1252:Drivers/STM32F4xx_HAL_Driver/Src/stm32f4xx_ll_sdmmc.c ****   }
 3746              		.loc 1 1252 12 view .LVU1281
 3747 00e2 4FF48070 		mov	r0, #256
 3748 00e6 7047     		bx	lr
 3749              	.L312:
1256:Drivers/STM32F4xx_HAL_Driver/Src/stm32f4xx_ll_sdmmc.c ****   }
 3750              		.loc 1 1256 12 view .LVU1282
 3751 00e8 4FF40070 		mov	r0, #512
 3752 00ec 7047     		bx	lr
 3753              	.L313:
1260:Drivers/STM32F4xx_HAL_Driver/Src/stm32f4xx_ll_sdmmc.c ****   }
 3754              		.loc 1 1260 12 view .LVU1283
 3755 00ee 4FF48060 		mov	r0, #1024
 3756 00f2 7047     		bx	lr
 3757              	.L314:
1264:Drivers/STM32F4xx_HAL_Driver/Src/stm32f4xx_ll_sdmmc.c ****   }
 3758              		.loc 1 1264 12 view .LVU1284
 3759 00f4 4FF40060 		mov	r0, #2048
 3760 00f8 7047     		bx	lr
 3761              	.L315:
1268:Drivers/STM32F4xx_HAL_Driver/Src/stm32f4xx_ll_sdmmc.c ****   }
 3762              		.loc 1 1268 12 view .LVU1285
 3763 00fa 4FF48050 		mov	r0, #4096
 3764 00fe 7047     		bx	lr
 3765              	.L316:
1272:Drivers/STM32F4xx_HAL_Driver/Src/stm32f4xx_ll_sdmmc.c ****   }
 3766              		.loc 1 1272 12 view .LVU1286
 3767 0100 4FF40050 		mov	r0, #8192
 3768 0104 7047     		bx	lr
 3769              	.L320:
1288:Drivers/STM32F4xx_HAL_Driver/Src/stm32f4xx_ll_sdmmc.c ****   }
 3770              		.loc 1 1288 12 view .LVU1287
 3771 0106 4FF48020 		mov	r0, #262144
 3772 010a 7047     		bx	lr
 3773              	.L319:
1284:Drivers/STM32F4xx_HAL_Driver/Src/stm32f4xx_ll_sdmmc.c ****   }
 3774              		.loc 1 1284 12 view .LVU1288
 3775 010c 4FF40030 		mov	r0, #131072
 3776 0110 7047     		bx	lr
 3777              	.L318:
1280:Drivers/STM32F4xx_HAL_Driver/Src/stm32f4xx_ll_sdmmc.c ****   }
 3778              		.loc 1 1280 12 view .LVU1289
 3779 0112 4FF40040 		mov	r0, #32768
 3780 0116 7047     		bx	lr
ARM GAS  C:\Users\pw705\AppData\Local\Temp\cceieKfF.s 			page 109


 3781              	.L317:
1276:Drivers/STM32F4xx_HAL_Driver/Src/stm32f4xx_ll_sdmmc.c ****   }
 3782              		.loc 1 1276 12 view .LVU1290
 3783 0118 4FF48040 		mov	r0, #16384
 3784 011c 7047     		bx	lr
 3785              	.L323:
1300:Drivers/STM32F4xx_HAL_Driver/Src/stm32f4xx_ll_sdmmc.c ****   }
 3786              		.loc 1 1300 12 view .LVU1291
 3787 011e 4FF40010 		mov	r0, #2097152
 3788 0122 7047     		bx	lr
 3789              	.L322:
1296:Drivers/STM32F4xx_HAL_Driver/Src/stm32f4xx_ll_sdmmc.c ****   }
 3790              		.loc 1 1296 12 view .LVU1292
 3791 0124 4FF48010 		mov	r0, #1048576
 3792 0128 7047     		bx	lr
 3793              	.L321:
1292:Drivers/STM32F4xx_HAL_Driver/Src/stm32f4xx_ll_sdmmc.c ****   }
 3794              		.loc 1 1292 12 view .LVU1293
 3795 012a 4FF40020 		mov	r0, #524288
 3796 012e 7047     		bx	lr
 3797              	.L337:
 3798              		.align	2
 3799              	.L336:
 3800 0130 00000000 		.word	SystemCoreClock
 3801 0134 D34D6210 		.word	274877907
 3802 0138 08E0FFFD 		.word	-33562616
 3803              	.LBE417:
 3804              	.LBE418:
 3805              	.LBE424:
 3806              	.LBE435:
 3807              		.cfi_endproc
 3808              	.LFE150:
 3810              		.section	.text.SDMMC_CmdEraseEndAdd,"ax",%progbits
 3811              		.align	1
 3812              		.p2align 2,,3
 3813              		.global	SDMMC_CmdEraseEndAdd
 3814              		.syntax unified
 3815              		.thumb
 3816              		.thumb_func
 3818              	SDMMC_CmdEraseEndAdd:
 3819              	.LVL219:
 3820              	.LFB151:
 697:Drivers/STM32F4xx_HAL_Driver/Src/stm32f4xx_ll_sdmmc.c ****   SDIO_CmdInitTypeDef sdmmc_cmdinit;
 3821              		.loc 1 697 1 is_stmt 1 view -0
 3822              		.cfi_startproc
 3823              		@ args = 0, pretend = 0, frame = 0
 3824              		@ frame_needed = 0, uses_anonymous_args = 0
 3825              		@ link register save eliminated.
 698:Drivers/STM32F4xx_HAL_Driver/Src/stm32f4xx_ll_sdmmc.c ****   uint32_t errorstate;
 3826              		.loc 1 698 3 view .LVU1295
 699:Drivers/STM32F4xx_HAL_Driver/Src/stm32f4xx_ll_sdmmc.c **** 
 3827              		.loc 1 699 3 view .LVU1296
 702:Drivers/STM32F4xx_HAL_Driver/Src/stm32f4xx_ll_sdmmc.c ****   sdmmc_cmdinit.CmdIndex = SDMMC_CMD_ERASE_GRP_END;
 3828              		.loc 1 702 3 view .LVU1297
 703:Drivers/STM32F4xx_HAL_Driver/Src/stm32f4xx_ll_sdmmc.c ****   sdmmc_cmdinit.Response = SDIO_RESPONSE_SHORT;
 3829              		.loc 1 703 3 view .LVU1298
 704:Drivers/STM32F4xx_HAL_Driver/Src/stm32f4xx_ll_sdmmc.c ****   sdmmc_cmdinit.WaitForInterrupt = SDIO_WAIT_NO;
ARM GAS  C:\Users\pw705\AppData\Local\Temp\cceieKfF.s 			page 110


 3830              		.loc 1 704 3 view .LVU1299
 705:Drivers/STM32F4xx_HAL_Driver/Src/stm32f4xx_ll_sdmmc.c ****   sdmmc_cmdinit.CPSM = SDIO_CPSM_ENABLE;
 3831              		.loc 1 705 3 view .LVU1300
 706:Drivers/STM32F4xx_HAL_Driver/Src/stm32f4xx_ll_sdmmc.c ****   (void)SDIO_SendCommand(SDIOx, &sdmmc_cmdinit);
 3832              		.loc 1 706 3 view .LVU1301
 707:Drivers/STM32F4xx_HAL_Driver/Src/stm32f4xx_ll_sdmmc.c **** 
 3833              		.loc 1 707 3 view .LVU1302
 3834              	.LBB448:
 3835              	.LBI448:
 345:Drivers/STM32F4xx_HAL_Driver/Src/stm32f4xx_ll_sdmmc.c **** {
 3836              		.loc 1 345 19 view .LVU1303
 3837              	.LBB449:
 347:Drivers/STM32F4xx_HAL_Driver/Src/stm32f4xx_ll_sdmmc.c **** 
 3838              		.loc 1 347 3 view .LVU1304
 350:Drivers/STM32F4xx_HAL_Driver/Src/stm32f4xx_ll_sdmmc.c ****   assert_param(IS_SDIO_RESPONSE(Command->Response));
 3839              		.loc 1 350 3 view .LVU1305
 351:Drivers/STM32F4xx_HAL_Driver/Src/stm32f4xx_ll_sdmmc.c ****   assert_param(IS_SDIO_WAIT(Command->WaitForInterrupt));
 3840              		.loc 1 351 3 view .LVU1306
 352:Drivers/STM32F4xx_HAL_Driver/Src/stm32f4xx_ll_sdmmc.c ****   assert_param(IS_SDIO_CPSM(Command->CPSM));
 3841              		.loc 1 352 3 view .LVU1307
 353:Drivers/STM32F4xx_HAL_Driver/Src/stm32f4xx_ll_sdmmc.c **** 
 3842              		.loc 1 353 3 view .LVU1308
 356:Drivers/STM32F4xx_HAL_Driver/Src/stm32f4xx_ll_sdmmc.c **** 
 3843              		.loc 1 356 3 view .LVU1309
 356:Drivers/STM32F4xx_HAL_Driver/Src/stm32f4xx_ll_sdmmc.c **** 
 3844              		.loc 1 356 14 is_stmt 0 view .LVU1310
 3845 0000 8160     		str	r1, [r0, #8]
 359:Drivers/STM32F4xx_HAL_Driver/Src/stm32f4xx_ll_sdmmc.c ****                        Command->Response |
 3846              		.loc 1 359 3 is_stmt 1 view .LVU1311
 3847              	.LVL220:
 365:Drivers/STM32F4xx_HAL_Driver/Src/stm32f4xx_ll_sdmmc.c **** 
 3848              		.loc 1 365 3 view .LVU1312
 3849              	.LBE449:
 3850              	.LBE448:
 3851              	.LBB455:
 3852              	.LBB456:
1193:Drivers/STM32F4xx_HAL_Driver/Src/stm32f4xx_ll_sdmmc.c **** 
 3853              		.loc 1 1193 52 is_stmt 0 view .LVU1313
 3854 0002 4B4A     		ldr	r2, .L376
 3855              	.LBE456:
 3856              	.LBE455:
 3857              	.LBB471:
 3858              	.LBB450:
 365:Drivers/STM32F4xx_HAL_Driver/Src/stm32f4xx_ll_sdmmc.c **** 
 3859              		.loc 1 365 3 view .LVU1314
 3860 0004 C368     		ldr	r3, [r0, #12]
 3861              	.LBE450:
 3862              	.LBE471:
 3863              	.LBB472:
 3864              	.LBB465:
1193:Drivers/STM32F4xx_HAL_Driver/Src/stm32f4xx_ll_sdmmc.c **** 
 3865              		.loc 1 1193 52 view .LVU1315
 3866 0006 4B49     		ldr	r1, .L376+4
 3867              	.LVL221:
1193:Drivers/STM32F4xx_HAL_Driver/Src/stm32f4xx_ll_sdmmc.c **** 
 3868              		.loc 1 1193 52 view .LVU1316
 3869 0008 1268     		ldr	r2, [r2]
ARM GAS  C:\Users\pw705\AppData\Local\Temp\cceieKfF.s 			page 111


 3870              	.LBE465:
 3871              	.LBE472:
 3872              	.LBB473:
 3873              	.LBB451:
 365:Drivers/STM32F4xx_HAL_Driver/Src/stm32f4xx_ll_sdmmc.c **** 
 3874              		.loc 1 365 3 view .LVU1317
 3875 000a 23F47F63 		bic	r3, r3, #4080
 3876              	.LBE451:
 3877              	.LBE473:
 3878              	.LBB474:
 3879              	.LBB466:
1193:Drivers/STM32F4xx_HAL_Driver/Src/stm32f4xx_ll_sdmmc.c **** 
 3880              		.loc 1 1193 52 view .LVU1318
 3881 000e A1FB0212 		umull	r1, r2, r1, r2
 3882              	.LBE466:
 3883              	.LBE474:
 3884              	.LBB475:
 3885              	.LBB452:
 365:Drivers/STM32F4xx_HAL_Driver/Src/stm32f4xx_ll_sdmmc.c **** 
 3886              		.loc 1 365 3 view .LVU1319
 3887 0012 23F00F03 		bic	r3, r3, #15
 3888 0016 43F48C63 		orr	r3, r3, #1120
 3889              	.LBE452:
 3890              	.LBE475:
 3891              	.LBB476:
 3892              	.LBB467:
1193:Drivers/STM32F4xx_HAL_Driver/Src/stm32f4xx_ll_sdmmc.c **** 
 3893              		.loc 1 1193 52 view .LVU1320
 3894 001a 520A     		lsrs	r2, r2, #9
1193:Drivers/STM32F4xx_HAL_Driver/Src/stm32f4xx_ll_sdmmc.c **** 
 3895              		.loc 1 1193 12 view .LVU1321
 3896 001c 41F28831 		movw	r1, #5000
 3897              	.LBE467:
 3898              	.LBE476:
 3899              	.LBB477:
 3900              	.LBB453:
 365:Drivers/STM32F4xx_HAL_Driver/Src/stm32f4xx_ll_sdmmc.c **** 
 3901              		.loc 1 365 3 view .LVU1322
 3902 0020 43F00403 		orr	r3, r3, #4
 3903              	.LBE453:
 3904              	.LBE477:
 3905              	.LBB478:
 3906              	.LBB468:
1193:Drivers/STM32F4xx_HAL_Driver/Src/stm32f4xx_ll_sdmmc.c **** 
 3907              		.loc 1 1193 12 view .LVU1323
 3908 0024 01FB02F2 		mul	r2, r1, r2
 3909              	.LBE468:
 3910              	.LBE478:
 3911              	.LBB479:
 3912              	.LBB454:
 365:Drivers/STM32F4xx_HAL_Driver/Src/stm32f4xx_ll_sdmmc.c **** 
 3913              		.loc 1 365 3 view .LVU1324
 3914 0028 C360     		str	r3, [r0, #12]
 3915              	.LVL222:
 367:Drivers/STM32F4xx_HAL_Driver/Src/stm32f4xx_ll_sdmmc.c **** }
 3916              		.loc 1 367 3 is_stmt 1 view .LVU1325
 367:Drivers/STM32F4xx_HAL_Driver/Src/stm32f4xx_ll_sdmmc.c **** }
ARM GAS  C:\Users\pw705\AppData\Local\Temp\cceieKfF.s 			page 112


 3917              		.loc 1 367 3 is_stmt 0 view .LVU1326
 3918              	.LBE454:
 3919              	.LBE479:
 710:Drivers/STM32F4xx_HAL_Driver/Src/stm32f4xx_ll_sdmmc.c **** 
 3920              		.loc 1 710 3 is_stmt 1 view .LVU1327
 3921              	.LBB480:
 3922              	.LBI455:
1186:Drivers/STM32F4xx_HAL_Driver/Src/stm32f4xx_ll_sdmmc.c **** {
 3923              		.loc 1 1186 10 view .LVU1328
 3924              	.LBB469:
1188:Drivers/STM32F4xx_HAL_Driver/Src/stm32f4xx_ll_sdmmc.c ****   uint32_t sta_reg;
 3925              		.loc 1 1188 3 view .LVU1329
1189:Drivers/STM32F4xx_HAL_Driver/Src/stm32f4xx_ll_sdmmc.c **** 
 3926              		.loc 1 1189 3 view .LVU1330
1193:Drivers/STM32F4xx_HAL_Driver/Src/stm32f4xx_ll_sdmmc.c **** 
 3927              		.loc 1 1193 3 view .LVU1331
1195:Drivers/STM32F4xx_HAL_Driver/Src/stm32f4xx_ll_sdmmc.c ****   {
 3928              		.loc 1 1195 3 view .LVU1332
1197:Drivers/STM32F4xx_HAL_Driver/Src/stm32f4xx_ll_sdmmc.c ****     {
 3929              		.loc 1 1197 5 view .LVU1333
1197:Drivers/STM32F4xx_HAL_Driver/Src/stm32f4xx_ll_sdmmc.c ****     {
 3930              		.loc 1 1197 14 is_stmt 0 view .LVU1334
 3931 002a 531E     		subs	r3, r2, #1
 3932              	.LVL223:
1197:Drivers/STM32F4xx_HAL_Driver/Src/stm32f4xx_ll_sdmmc.c ****     {
 3933              		.loc 1 1197 8 view .LVU1335
 3934 002c 4AB1     		cbz	r2, .L347
 3935              	.L340:
1195:Drivers/STM32F4xx_HAL_Driver/Src/stm32f4xx_ll_sdmmc.c ****   {
 3936              		.loc 1 1195 3 is_stmt 1 view .LVU1336
1197:Drivers/STM32F4xx_HAL_Driver/Src/stm32f4xx_ll_sdmmc.c ****     {
 3937              		.loc 1 1197 5 view .LVU1337
1201:Drivers/STM32F4xx_HAL_Driver/Src/stm32f4xx_ll_sdmmc.c ****   } while (((sta_reg & (SDIO_FLAG_CCRCFAIL | SDIO_FLAG_CMDREND | SDIO_FLAG_CTIMEOUT)) == 0U) ||
 3938              		.loc 1 1201 5 view .LVU1338
1201:Drivers/STM32F4xx_HAL_Driver/Src/stm32f4xx_ll_sdmmc.c ****   } while (((sta_reg & (SDIO_FLAG_CCRCFAIL | SDIO_FLAG_CMDREND | SDIO_FLAG_CTIMEOUT)) == 0U) ||
 3939              		.loc 1 1201 13 is_stmt 0 view .LVU1339
 3940 002e 426B     		ldr	r2, [r0, #52]
 3941              	.LVL224:
1202:Drivers/STM32F4xx_HAL_Driver/Src/stm32f4xx_ll_sdmmc.c ****            ((sta_reg & SDIO_FLAG_CMDACT) != 0U));
 3942              		.loc 1 1202 94 is_stmt 1 view .LVU1340
 3943 0030 12F0450F 		tst	r2, #69
1197:Drivers/STM32F4xx_HAL_Driver/Src/stm32f4xx_ll_sdmmc.c ****     {
 3944              		.loc 1 1197 14 is_stmt 0 view .LVU1341
 3945 0034 03F1FF33 		add	r3, r3, #-1
 3946              	.LVL225:
1202:Drivers/STM32F4xx_HAL_Driver/Src/stm32f4xx_ll_sdmmc.c ****            ((sta_reg & SDIO_FLAG_CMDACT) != 0U));
 3947              		.loc 1 1202 94 view .LVU1342
 3948 0038 01D0     		beq	.L341
 3949 003a 1105     		lsls	r1, r2, #20
 3950 003c 04D5     		bpl	.L373
 3951              	.L341:
1197:Drivers/STM32F4xx_HAL_Driver/Src/stm32f4xx_ll_sdmmc.c ****     {
 3952              		.loc 1 1197 8 view .LVU1343
 3953 003e 5A1C     		adds	r2, r3, #1
 3954              	.LVL226:
1197:Drivers/STM32F4xx_HAL_Driver/Src/stm32f4xx_ll_sdmmc.c ****     {
 3955              		.loc 1 1197 8 view .LVU1344
ARM GAS  C:\Users\pw705\AppData\Local\Temp\cceieKfF.s 			page 113


 3956 0040 F5D1     		bne	.L340
 3957              	.LVL227:
 3958              	.L347:
1199:Drivers/STM32F4xx_HAL_Driver/Src/stm32f4xx_ll_sdmmc.c ****     }
 3959              		.loc 1 1199 14 view .LVU1345
 3960 0042 4FF00040 		mov	r0, #-2147483648
 3961              	.LVL228:
1199:Drivers/STM32F4xx_HAL_Driver/Src/stm32f4xx_ll_sdmmc.c ****     }
 3962              		.loc 1 1199 14 view .LVU1346
 3963 0046 7047     		bx	lr
 3964              	.LVL229:
 3965              	.L373:
1205:Drivers/STM32F4xx_HAL_Driver/Src/stm32f4xx_ll_sdmmc.c ****   {
 3966              		.loc 1 1205 3 is_stmt 1 view .LVU1347
1205:Drivers/STM32F4xx_HAL_Driver/Src/stm32f4xx_ll_sdmmc.c ****   {
 3967              		.loc 1 1205 7 is_stmt 0 view .LVU1348
 3968 0048 436B     		ldr	r3, [r0, #52]
 3969              	.LVL230:
1205:Drivers/STM32F4xx_HAL_Driver/Src/stm32f4xx_ll_sdmmc.c ****   {
 3970              		.loc 1 1205 6 view .LVU1349
 3971 004a 5A07     		lsls	r2, r3, #29
 3972              	.LVL231:
1205:Drivers/STM32F4xx_HAL_Driver/Src/stm32f4xx_ll_sdmmc.c ****   {
 3973              		.loc 1 1205 6 view .LVU1350
 3974 004c 3ED4     		bmi	.L374
1211:Drivers/STM32F4xx_HAL_Driver/Src/stm32f4xx_ll_sdmmc.c ****   {
 3975              		.loc 1 1211 8 is_stmt 1 view .LVU1351
1211:Drivers/STM32F4xx_HAL_Driver/Src/stm32f4xx_ll_sdmmc.c ****   {
 3976              		.loc 1 1211 12 is_stmt 0 view .LVU1352
 3977 004e 436B     		ldr	r3, [r0, #52]
1211:Drivers/STM32F4xx_HAL_Driver/Src/stm32f4xx_ll_sdmmc.c ****   {
 3978              		.loc 1 1211 11 view .LVU1353
 3979 0050 DB07     		lsls	r3, r3, #31
 3980 0052 07D4     		bmi	.L375
1220:Drivers/STM32F4xx_HAL_Driver/Src/stm32f4xx_ll_sdmmc.c **** 
 3981              		.loc 1 1220 3 is_stmt 1 view .LVU1354
1223:Drivers/STM32F4xx_HAL_Driver/Src/stm32f4xx_ll_sdmmc.c **** 
 3982              		.loc 1 1223 3 view .LVU1355
 3983 0054 C523     		movs	r3, #197
 3984 0056 8363     		str	r3, [r0, #56]
1226:Drivers/STM32F4xx_HAL_Driver/Src/stm32f4xx_ll_sdmmc.c ****   {
 3985              		.loc 1 1226 3 view .LVU1356
 3986              	.LVL232:
 3987              	.LBB457:
 3988              	.LBI457:
 375:Drivers/STM32F4xx_HAL_Driver/Src/stm32f4xx_ll_sdmmc.c **** {
 3989              		.loc 1 375 9 view .LVU1357
 3990              	.LBB458:
 377:Drivers/STM32F4xx_HAL_Driver/Src/stm32f4xx_ll_sdmmc.c **** }
 3991              		.loc 1 377 3 view .LVU1358
 377:Drivers/STM32F4xx_HAL_Driver/Src/stm32f4xx_ll_sdmmc.c **** }
 3992              		.loc 1 377 25 is_stmt 0 view .LVU1359
 3993 0058 0369     		ldr	r3, [r0, #16]
 3994              	.LVL233:
 377:Drivers/STM32F4xx_HAL_Driver/Src/stm32f4xx_ll_sdmmc.c **** }
 3995              		.loc 1 377 25 view .LVU1360
 3996              	.LBE458:
ARM GAS  C:\Users\pw705\AppData\Local\Temp\cceieKfF.s 			page 114


 3997              	.LBE457:
1226:Drivers/STM32F4xx_HAL_Driver/Src/stm32f4xx_ll_sdmmc.c ****   {
 3998              		.loc 1 1226 6 view .LVU1361
 3999 005a DBB2     		uxtb	r3, r3
 4000 005c 242B     		cmp	r3, #36
 4001 005e 04D0     		beq	.L345
 4002              	.L344:
1215:Drivers/STM32F4xx_HAL_Driver/Src/stm32f4xx_ll_sdmmc.c ****   }
 4003              		.loc 1 1215 12 view .LVU1362
 4004 0060 0120     		movs	r0, #1
 4005              	.LVL234:
1215:Drivers/STM32F4xx_HAL_Driver/Src/stm32f4xx_ll_sdmmc.c ****   }
 4006              		.loc 1 1215 12 view .LVU1363
 4007 0062 7047     		bx	lr
 4008              	.LVL235:
 4009              	.L375:
1213:Drivers/STM32F4xx_HAL_Driver/Src/stm32f4xx_ll_sdmmc.c **** 
 4010              		.loc 1 1213 5 is_stmt 1 view .LVU1364
 4011 0064 0123     		movs	r3, #1
 4012 0066 8363     		str	r3, [r0, #56]
1215:Drivers/STM32F4xx_HAL_Driver/Src/stm32f4xx_ll_sdmmc.c ****   }
 4013              		.loc 1 1215 5 view .LVU1365
1215:Drivers/STM32F4xx_HAL_Driver/Src/stm32f4xx_ll_sdmmc.c ****   }
 4014              		.loc 1 1215 12 is_stmt 0 view .LVU1366
 4015 0068 FAE7     		b	.L344
 4016              	.L345:
 4017              	.LVL236:
 4018              	.LBB459:
 4019              	.LBI459:
1186:Drivers/STM32F4xx_HAL_Driver/Src/stm32f4xx_ll_sdmmc.c **** {
 4020              		.loc 1 1186 10 is_stmt 1 view .LVU1367
 4021              	.LBB460:
1232:Drivers/STM32F4xx_HAL_Driver/Src/stm32f4xx_ll_sdmmc.c **** 
 4022              		.loc 1 1232 3 view .LVU1368
 4023              	.LBB461:
 4024              	.LBI461:
 391:Drivers/STM32F4xx_HAL_Driver/Src/stm32f4xx_ll_sdmmc.c **** {
 4025              		.loc 1 391 10 view .LVU1369
 4026              	.LBB462:
 393:Drivers/STM32F4xx_HAL_Driver/Src/stm32f4xx_ll_sdmmc.c **** 
 4027              		.loc 1 393 3 view .LVU1370
 396:Drivers/STM32F4xx_HAL_Driver/Src/stm32f4xx_ll_sdmmc.c **** 
 4028              		.loc 1 396 3 view .LVU1371
 399:Drivers/STM32F4xx_HAL_Driver/Src/stm32f4xx_ll_sdmmc.c **** 
 4029              		.loc 1 399 3 view .LVU1372
 401:Drivers/STM32F4xx_HAL_Driver/Src/stm32f4xx_ll_sdmmc.c **** }
 4030              		.loc 1 401 3 view .LVU1373
 401:Drivers/STM32F4xx_HAL_Driver/Src/stm32f4xx_ll_sdmmc.c **** }
 4031              		.loc 1 401 11 is_stmt 0 view .LVU1374
 4032 006a 4369     		ldr	r3, [r0, #20]
 4033              	.LVL237:
 401:Drivers/STM32F4xx_HAL_Driver/Src/stm32f4xx_ll_sdmmc.c **** }
 4034              		.loc 1 401 11 view .LVU1375
 4035              	.LBE462:
 4036              	.LBE461:
1234:Drivers/STM32F4xx_HAL_Driver/Src/stm32f4xx_ll_sdmmc.c ****   {
 4037              		.loc 1 1234 3 is_stmt 1 view .LVU1376
ARM GAS  C:\Users\pw705\AppData\Local\Temp\cceieKfF.s 			page 115


1234:Drivers/STM32F4xx_HAL_Driver/Src/stm32f4xx_ll_sdmmc.c ****   {
 4038              		.loc 1 1234 20 is_stmt 0 view .LVU1377
 4039 006c 3248     		ldr	r0, .L376+8
 4040              	.LVL238:
1234:Drivers/STM32F4xx_HAL_Driver/Src/stm32f4xx_ll_sdmmc.c ****   {
 4041              		.loc 1 1234 20 view .LVU1378
 4042 006e 1840     		ands	r0, r0, r3
1234:Drivers/STM32F4xx_HAL_Driver/Src/stm32f4xx_ll_sdmmc.c ****   {
 4043              		.loc 1 1234 6 view .LVU1379
 4044 0070 58B3     		cbz	r0, .L338
1238:Drivers/STM32F4xx_HAL_Driver/Src/stm32f4xx_ll_sdmmc.c ****   {
 4045              		.loc 1 1238 8 is_stmt 1 view .LVU1380
1238:Drivers/STM32F4xx_HAL_Driver/Src/stm32f4xx_ll_sdmmc.c ****   {
 4046              		.loc 1 1238 11 is_stmt 0 view .LVU1381
 4047 0072 002B     		cmp	r3, #0
 4048 0074 2EDB     		blt	.L348
1242:Drivers/STM32F4xx_HAL_Driver/Src/stm32f4xx_ll_sdmmc.c ****   {
 4049              		.loc 1 1242 8 is_stmt 1 view .LVU1382
1242:Drivers/STM32F4xx_HAL_Driver/Src/stm32f4xx_ll_sdmmc.c ****   {
 4050              		.loc 1 1242 11 is_stmt 0 view .LVU1383
 4051 0076 5900     		lsls	r1, r3, #1
 4052 0078 2FD4     		bmi	.L349
1246:Drivers/STM32F4xx_HAL_Driver/Src/stm32f4xx_ll_sdmmc.c ****   {
 4053              		.loc 1 1246 8 is_stmt 1 view .LVU1384
1246:Drivers/STM32F4xx_HAL_Driver/Src/stm32f4xx_ll_sdmmc.c ****   {
 4054              		.loc 1 1246 11 is_stmt 0 view .LVU1385
 4055 007a 9A00     		lsls	r2, r3, #2
 4056 007c 2FD4     		bmi	.L350
1250:Drivers/STM32F4xx_HAL_Driver/Src/stm32f4xx_ll_sdmmc.c ****   {
 4057              		.loc 1 1250 8 is_stmt 1 view .LVU1386
1250:Drivers/STM32F4xx_HAL_Driver/Src/stm32f4xx_ll_sdmmc.c ****   {
 4058              		.loc 1 1250 11 is_stmt 0 view .LVU1387
 4059 007e D900     		lsls	r1, r3, #3
 4060 0080 2FD4     		bmi	.L351
1254:Drivers/STM32F4xx_HAL_Driver/Src/stm32f4xx_ll_sdmmc.c ****   {
 4061              		.loc 1 1254 8 is_stmt 1 view .LVU1388
1254:Drivers/STM32F4xx_HAL_Driver/Src/stm32f4xx_ll_sdmmc.c ****   {
 4062              		.loc 1 1254 11 is_stmt 0 view .LVU1389
 4063 0082 1A01     		lsls	r2, r3, #4
 4064 0084 30D4     		bmi	.L352
1258:Drivers/STM32F4xx_HAL_Driver/Src/stm32f4xx_ll_sdmmc.c ****   {
 4065              		.loc 1 1258 8 is_stmt 1 view .LVU1390
1258:Drivers/STM32F4xx_HAL_Driver/Src/stm32f4xx_ll_sdmmc.c ****   {
 4066              		.loc 1 1258 11 is_stmt 0 view .LVU1391
 4067 0086 5901     		lsls	r1, r3, #5
 4068 0088 31D4     		bmi	.L353
1262:Drivers/STM32F4xx_HAL_Driver/Src/stm32f4xx_ll_sdmmc.c ****   {
 4069              		.loc 1 1262 8 is_stmt 1 view .LVU1392
1262:Drivers/STM32F4xx_HAL_Driver/Src/stm32f4xx_ll_sdmmc.c ****   {
 4070              		.loc 1 1262 11 is_stmt 0 view .LVU1393
 4071 008a DA01     		lsls	r2, r3, #7
 4072 008c 32D4     		bmi	.L354
1266:Drivers/STM32F4xx_HAL_Driver/Src/stm32f4xx_ll_sdmmc.c ****   {
 4073              		.loc 1 1266 8 is_stmt 1 view .LVU1394
1266:Drivers/STM32F4xx_HAL_Driver/Src/stm32f4xx_ll_sdmmc.c ****   {
 4074              		.loc 1 1266 11 is_stmt 0 view .LVU1395
 4075 008e 1902     		lsls	r1, r3, #8
ARM GAS  C:\Users\pw705\AppData\Local\Temp\cceieKfF.s 			page 116


 4076 0090 33D4     		bmi	.L355
1270:Drivers/STM32F4xx_HAL_Driver/Src/stm32f4xx_ll_sdmmc.c ****   {
 4077              		.loc 1 1270 8 is_stmt 1 view .LVU1396
1270:Drivers/STM32F4xx_HAL_Driver/Src/stm32f4xx_ll_sdmmc.c ****   {
 4078              		.loc 1 1270 11 is_stmt 0 view .LVU1397
 4079 0092 5A02     		lsls	r2, r3, #9
 4080 0094 34D4     		bmi	.L356
1274:Drivers/STM32F4xx_HAL_Driver/Src/stm32f4xx_ll_sdmmc.c ****   {
 4081              		.loc 1 1274 8 is_stmt 1 view .LVU1398
1274:Drivers/STM32F4xx_HAL_Driver/Src/stm32f4xx_ll_sdmmc.c ****   {
 4082              		.loc 1 1274 11 is_stmt 0 view .LVU1399
 4083 0096 9902     		lsls	r1, r3, #10
 4084 0098 3ED4     		bmi	.L357
1278:Drivers/STM32F4xx_HAL_Driver/Src/stm32f4xx_ll_sdmmc.c ****   {
 4085              		.loc 1 1278 8 is_stmt 1 view .LVU1400
1278:Drivers/STM32F4xx_HAL_Driver/Src/stm32f4xx_ll_sdmmc.c ****   {
 4086              		.loc 1 1278 11 is_stmt 0 view .LVU1401
 4087 009a DA02     		lsls	r2, r3, #11
 4088 009c 39D4     		bmi	.L358
1282:Drivers/STM32F4xx_HAL_Driver/Src/stm32f4xx_ll_sdmmc.c ****   {
 4089              		.loc 1 1282 8 is_stmt 1 view .LVU1402
1282:Drivers/STM32F4xx_HAL_Driver/Src/stm32f4xx_ll_sdmmc.c ****   {
 4090              		.loc 1 1282 11 is_stmt 0 view .LVU1403
 4091 009e 5903     		lsls	r1, r3, #13
 4092 00a0 34D4     		bmi	.L359
1286:Drivers/STM32F4xx_HAL_Driver/Src/stm32f4xx_ll_sdmmc.c ****   {
 4093              		.loc 1 1286 8 is_stmt 1 view .LVU1404
1286:Drivers/STM32F4xx_HAL_Driver/Src/stm32f4xx_ll_sdmmc.c ****   {
 4094              		.loc 1 1286 11 is_stmt 0 view .LVU1405
 4095 00a2 9A03     		lsls	r2, r3, #14
 4096 00a4 2FD4     		bmi	.L360
1290:Drivers/STM32F4xx_HAL_Driver/Src/stm32f4xx_ll_sdmmc.c ****   {
 4097              		.loc 1 1290 8 is_stmt 1 view .LVU1406
1290:Drivers/STM32F4xx_HAL_Driver/Src/stm32f4xx_ll_sdmmc.c ****   {
 4098              		.loc 1 1290 11 is_stmt 0 view .LVU1407
 4099 00a6 D903     		lsls	r1, r3, #15
 4100 00a8 3FD4     		bmi	.L361
1294:Drivers/STM32F4xx_HAL_Driver/Src/stm32f4xx_ll_sdmmc.c ****   {
 4101              		.loc 1 1294 8 is_stmt 1 view .LVU1408
1294:Drivers/STM32F4xx_HAL_Driver/Src/stm32f4xx_ll_sdmmc.c ****   {
 4102              		.loc 1 1294 11 is_stmt 0 view .LVU1409
 4103 00aa 1A04     		lsls	r2, r3, #16
 4104 00ac 3AD4     		bmi	.L362
1298:Drivers/STM32F4xx_HAL_Driver/Src/stm32f4xx_ll_sdmmc.c ****   {
 4105              		.loc 1 1298 8 is_stmt 1 view .LVU1410
1298:Drivers/STM32F4xx_HAL_Driver/Src/stm32f4xx_ll_sdmmc.c ****   {
 4106              		.loc 1 1298 11 is_stmt 0 view .LVU1411
 4107 00ae 5904     		lsls	r1, r3, #17
 4108 00b0 35D4     		bmi	.L363
1302:Drivers/STM32F4xx_HAL_Driver/Src/stm32f4xx_ll_sdmmc.c ****   {
 4109              		.loc 1 1302 8 is_stmt 1 view .LVU1412
1302:Drivers/STM32F4xx_HAL_Driver/Src/stm32f4xx_ll_sdmmc.c ****   {
 4110              		.loc 1 1302 11 is_stmt 0 view .LVU1413
 4111 00b2 9A04     		lsls	r2, r3, #18
 4112 00b4 07D4     		bmi	.L364
1306:Drivers/STM32F4xx_HAL_Driver/Src/stm32f4xx_ll_sdmmc.c ****   {
 4113              		.loc 1 1306 8 is_stmt 1 view .LVU1414
ARM GAS  C:\Users\pw705\AppData\Local\Temp\cceieKfF.s 			page 117


 4114              		.loc 1 1308 12 is_stmt 0 view .LVU1415
 4115 00b6 13F0080F 		tst	r3, #8
 4116 00ba 0CBF     		ite	eq
 4117 00bc 4FF48030 		moveq	r0, #65536
 4118 00c0 4FF40000 		movne	r0, #8388608
 4119 00c4 7047     		bx	lr
 4120              	.L364:
1304:Drivers/STM32F4xx_HAL_Driver/Src/stm32f4xx_ll_sdmmc.c ****   }
 4121              		.loc 1 1304 12 view .LVU1416
 4122 00c6 4FF48000 		mov	r0, #4194304
 4123              	.L338:
1304:Drivers/STM32F4xx_HAL_Driver/Src/stm32f4xx_ll_sdmmc.c ****   }
 4124              		.loc 1 1304 12 view .LVU1417
 4125              	.LBE460:
 4126              	.LBE459:
 4127              	.LBE469:
 4128              	.LBE480:
 713:Drivers/STM32F4xx_HAL_Driver/Src/stm32f4xx_ll_sdmmc.c **** 
 4129              		.loc 1 713 1 view .LVU1418
 4130 00ca 7047     		bx	lr
 4131              	.LVL239:
 4132              	.L374:
 4133              	.LBB481:
 4134              	.LBB470:
1207:Drivers/STM32F4xx_HAL_Driver/Src/stm32f4xx_ll_sdmmc.c **** 
 4135              		.loc 1 1207 5 is_stmt 1 view .LVU1419
 4136 00cc 0423     		movs	r3, #4
 4137 00ce 8363     		str	r3, [r0, #56]
1209:Drivers/STM32F4xx_HAL_Driver/Src/stm32f4xx_ll_sdmmc.c ****   }
 4138              		.loc 1 1209 5 view .LVU1420
1209:Drivers/STM32F4xx_HAL_Driver/Src/stm32f4xx_ll_sdmmc.c ****   }
 4139              		.loc 1 1209 12 is_stmt 0 view .LVU1421
 4140 00d0 1846     		mov	r0, r3
 4141              	.LVL240:
1209:Drivers/STM32F4xx_HAL_Driver/Src/stm32f4xx_ll_sdmmc.c ****   }
 4142              		.loc 1 1209 12 view .LVU1422
 4143 00d2 7047     		bx	lr
 4144              	.LVL241:
 4145              	.L348:
 4146              	.LBB464:
 4147              	.LBB463:
1240:Drivers/STM32F4xx_HAL_Driver/Src/stm32f4xx_ll_sdmmc.c ****   }
 4148              		.loc 1 1240 12 view .LVU1423
 4149 00d4 4FF00070 		mov	r0, #33554432
 4150 00d8 7047     		bx	lr
 4151              	.L349:
1244:Drivers/STM32F4xx_HAL_Driver/Src/stm32f4xx_ll_sdmmc.c ****   }
 4152              		.loc 1 1244 12 view .LVU1424
 4153 00da 4020     		movs	r0, #64
 4154 00dc 7047     		bx	lr
 4155              	.L350:
1248:Drivers/STM32F4xx_HAL_Driver/Src/stm32f4xx_ll_sdmmc.c ****   }
 4156              		.loc 1 1248 12 view .LVU1425
 4157 00de 8020     		movs	r0, #128
 4158 00e0 7047     		bx	lr
 4159              	.L351:
1252:Drivers/STM32F4xx_HAL_Driver/Src/stm32f4xx_ll_sdmmc.c ****   }
ARM GAS  C:\Users\pw705\AppData\Local\Temp\cceieKfF.s 			page 118


 4160              		.loc 1 1252 12 view .LVU1426
 4161 00e2 4FF48070 		mov	r0, #256
 4162 00e6 7047     		bx	lr
 4163              	.L352:
1256:Drivers/STM32F4xx_HAL_Driver/Src/stm32f4xx_ll_sdmmc.c ****   }
 4164              		.loc 1 1256 12 view .LVU1427
 4165 00e8 4FF40070 		mov	r0, #512
 4166 00ec 7047     		bx	lr
 4167              	.L353:
1260:Drivers/STM32F4xx_HAL_Driver/Src/stm32f4xx_ll_sdmmc.c ****   }
 4168              		.loc 1 1260 12 view .LVU1428
 4169 00ee 4FF48060 		mov	r0, #1024
 4170 00f2 7047     		bx	lr
 4171              	.L354:
1264:Drivers/STM32F4xx_HAL_Driver/Src/stm32f4xx_ll_sdmmc.c ****   }
 4172              		.loc 1 1264 12 view .LVU1429
 4173 00f4 4FF40060 		mov	r0, #2048
 4174 00f8 7047     		bx	lr
 4175              	.L355:
1268:Drivers/STM32F4xx_HAL_Driver/Src/stm32f4xx_ll_sdmmc.c ****   }
 4176              		.loc 1 1268 12 view .LVU1430
 4177 00fa 4FF48050 		mov	r0, #4096
 4178 00fe 7047     		bx	lr
 4179              	.L356:
1272:Drivers/STM32F4xx_HAL_Driver/Src/stm32f4xx_ll_sdmmc.c ****   }
 4180              		.loc 1 1272 12 view .LVU1431
 4181 0100 4FF40050 		mov	r0, #8192
 4182 0104 7047     		bx	lr
 4183              	.L360:
1288:Drivers/STM32F4xx_HAL_Driver/Src/stm32f4xx_ll_sdmmc.c ****   }
 4184              		.loc 1 1288 12 view .LVU1432
 4185 0106 4FF48020 		mov	r0, #262144
 4186 010a 7047     		bx	lr
 4187              	.L359:
1284:Drivers/STM32F4xx_HAL_Driver/Src/stm32f4xx_ll_sdmmc.c ****   }
 4188              		.loc 1 1284 12 view .LVU1433
 4189 010c 4FF40030 		mov	r0, #131072
 4190 0110 7047     		bx	lr
 4191              	.L358:
1280:Drivers/STM32F4xx_HAL_Driver/Src/stm32f4xx_ll_sdmmc.c ****   }
 4192              		.loc 1 1280 12 view .LVU1434
 4193 0112 4FF40040 		mov	r0, #32768
 4194 0116 7047     		bx	lr
 4195              	.L357:
1276:Drivers/STM32F4xx_HAL_Driver/Src/stm32f4xx_ll_sdmmc.c ****   }
 4196              		.loc 1 1276 12 view .LVU1435
 4197 0118 4FF48040 		mov	r0, #16384
 4198 011c 7047     		bx	lr
 4199              	.L363:
1300:Drivers/STM32F4xx_HAL_Driver/Src/stm32f4xx_ll_sdmmc.c ****   }
 4200              		.loc 1 1300 12 view .LVU1436
 4201 011e 4FF40010 		mov	r0, #2097152
 4202 0122 7047     		bx	lr
 4203              	.L362:
1296:Drivers/STM32F4xx_HAL_Driver/Src/stm32f4xx_ll_sdmmc.c ****   }
 4204              		.loc 1 1296 12 view .LVU1437
 4205 0124 4FF48010 		mov	r0, #1048576
ARM GAS  C:\Users\pw705\AppData\Local\Temp\cceieKfF.s 			page 119


 4206 0128 7047     		bx	lr
 4207              	.L361:
1292:Drivers/STM32F4xx_HAL_Driver/Src/stm32f4xx_ll_sdmmc.c ****   }
 4208              		.loc 1 1292 12 view .LVU1438
 4209 012a 4FF40020 		mov	r0, #524288
 4210 012e 7047     		bx	lr
 4211              	.L377:
 4212              		.align	2
 4213              	.L376:
 4214 0130 00000000 		.word	SystemCoreClock
 4215 0134 D34D6210 		.word	274877907
 4216 0138 08E0FFFD 		.word	-33562616
 4217              	.LBE463:
 4218              	.LBE464:
 4219              	.LBE470:
 4220              	.LBE481:
 4221              		.cfi_endproc
 4222              	.LFE151:
 4224              		.section	.text.SDMMC_CmdErase,"ax",%progbits
 4225              		.align	1
 4226              		.p2align 2,,3
 4227              		.global	SDMMC_CmdErase
 4228              		.syntax unified
 4229              		.thumb
 4230              		.thumb_func
 4232              	SDMMC_CmdErase:
 4233              	.LVL242:
 4234              	.LFB152:
 721:Drivers/STM32F4xx_HAL_Driver/Src/stm32f4xx_ll_sdmmc.c ****   SDIO_CmdInitTypeDef sdmmc_cmdinit;
 4235              		.loc 1 721 1 is_stmt 1 view -0
 4236              		.cfi_startproc
 4237              		@ args = 0, pretend = 0, frame = 0
 4238              		@ frame_needed = 0, uses_anonymous_args = 0
 4239              		@ link register save eliminated.
 722:Drivers/STM32F4xx_HAL_Driver/Src/stm32f4xx_ll_sdmmc.c ****   uint32_t errorstate;
 4240              		.loc 1 722 3 view .LVU1440
 723:Drivers/STM32F4xx_HAL_Driver/Src/stm32f4xx_ll_sdmmc.c **** 
 4241              		.loc 1 723 3 view .LVU1441
 726:Drivers/STM32F4xx_HAL_Driver/Src/stm32f4xx_ll_sdmmc.c ****   sdmmc_cmdinit.CmdIndex = SDMMC_CMD_ERASE;
 4242              		.loc 1 726 3 view .LVU1442
 727:Drivers/STM32F4xx_HAL_Driver/Src/stm32f4xx_ll_sdmmc.c ****   sdmmc_cmdinit.Response = SDIO_RESPONSE_SHORT;
 4243              		.loc 1 727 3 view .LVU1443
 728:Drivers/STM32F4xx_HAL_Driver/Src/stm32f4xx_ll_sdmmc.c ****   sdmmc_cmdinit.WaitForInterrupt = SDIO_WAIT_NO;
 4244              		.loc 1 728 3 view .LVU1444
 729:Drivers/STM32F4xx_HAL_Driver/Src/stm32f4xx_ll_sdmmc.c ****   sdmmc_cmdinit.CPSM = SDIO_CPSM_ENABLE;
 4245              		.loc 1 729 3 view .LVU1445
 730:Drivers/STM32F4xx_HAL_Driver/Src/stm32f4xx_ll_sdmmc.c ****   (void)SDIO_SendCommand(SDIOx, &sdmmc_cmdinit);
 4246              		.loc 1 730 3 view .LVU1446
 731:Drivers/STM32F4xx_HAL_Driver/Src/stm32f4xx_ll_sdmmc.c **** 
 4247              		.loc 1 731 3 view .LVU1447
 4248              	.LBB494:
 4249              	.LBI494:
 345:Drivers/STM32F4xx_HAL_Driver/Src/stm32f4xx_ll_sdmmc.c **** {
 4250              		.loc 1 345 19 view .LVU1448
 4251              	.LBB495:
 347:Drivers/STM32F4xx_HAL_Driver/Src/stm32f4xx_ll_sdmmc.c **** 
 4252              		.loc 1 347 3 view .LVU1449
ARM GAS  C:\Users\pw705\AppData\Local\Temp\cceieKfF.s 			page 120


 350:Drivers/STM32F4xx_HAL_Driver/Src/stm32f4xx_ll_sdmmc.c ****   assert_param(IS_SDIO_RESPONSE(Command->Response));
 4253              		.loc 1 350 3 view .LVU1450
 351:Drivers/STM32F4xx_HAL_Driver/Src/stm32f4xx_ll_sdmmc.c ****   assert_param(IS_SDIO_WAIT(Command->WaitForInterrupt));
 4254              		.loc 1 351 3 view .LVU1451
 352:Drivers/STM32F4xx_HAL_Driver/Src/stm32f4xx_ll_sdmmc.c ****   assert_param(IS_SDIO_CPSM(Command->CPSM));
 4255              		.loc 1 352 3 view .LVU1452
 353:Drivers/STM32F4xx_HAL_Driver/Src/stm32f4xx_ll_sdmmc.c **** 
 4256              		.loc 1 353 3 view .LVU1453
 356:Drivers/STM32F4xx_HAL_Driver/Src/stm32f4xx_ll_sdmmc.c **** 
 4257              		.loc 1 356 3 view .LVU1454
 356:Drivers/STM32F4xx_HAL_Driver/Src/stm32f4xx_ll_sdmmc.c **** 
 4258              		.loc 1 356 14 is_stmt 0 view .LVU1455
 4259 0000 0023     		movs	r3, #0
 4260 0002 8360     		str	r3, [r0, #8]
 359:Drivers/STM32F4xx_HAL_Driver/Src/stm32f4xx_ll_sdmmc.c ****                        Command->Response |
 4261              		.loc 1 359 3 is_stmt 1 view .LVU1456
 4262              	.LVL243:
 365:Drivers/STM32F4xx_HAL_Driver/Src/stm32f4xx_ll_sdmmc.c **** 
 4263              		.loc 1 365 3 view .LVU1457
 4264              	.LBE495:
 4265              	.LBE494:
 4266              	.LBB501:
 4267              	.LBB502:
1193:Drivers/STM32F4xx_HAL_Driver/Src/stm32f4xx_ll_sdmmc.c **** 
 4268              		.loc 1 1193 52 is_stmt 0 view .LVU1458
 4269 0004 4B4A     		ldr	r2, .L416
 4270              	.LBE502:
 4271              	.LBE501:
 4272              	.LBB517:
 4273              	.LBB496:
 365:Drivers/STM32F4xx_HAL_Driver/Src/stm32f4xx_ll_sdmmc.c **** 
 4274              		.loc 1 365 3 view .LVU1459
 4275 0006 C368     		ldr	r3, [r0, #12]
 4276              	.LBE496:
 4277              	.LBE517:
 4278              	.LBB518:
 4279              	.LBB511:
1193:Drivers/STM32F4xx_HAL_Driver/Src/stm32f4xx_ll_sdmmc.c **** 
 4280              		.loc 1 1193 52 view .LVU1460
 4281 0008 4B49     		ldr	r1, .L416+4
 4282 000a 1268     		ldr	r2, [r2]
 4283              	.LBE511:
 4284              	.LBE518:
 4285              	.LBB519:
 4286              	.LBB497:
 365:Drivers/STM32F4xx_HAL_Driver/Src/stm32f4xx_ll_sdmmc.c **** 
 4287              		.loc 1 365 3 view .LVU1461
 4288 000c 23F47F63 		bic	r3, r3, #4080
 4289              	.LBE497:
 4290              	.LBE519:
 4291              	.LBB520:
 4292              	.LBB512:
1193:Drivers/STM32F4xx_HAL_Driver/Src/stm32f4xx_ll_sdmmc.c **** 
 4293              		.loc 1 1193 52 view .LVU1462
 4294 0010 A1FB0212 		umull	r1, r2, r1, r2
 4295              	.LBE512:
 4296              	.LBE520:
ARM GAS  C:\Users\pw705\AppData\Local\Temp\cceieKfF.s 			page 121


 4297              	.LBB521:
 4298              	.LBB498:
 365:Drivers/STM32F4xx_HAL_Driver/Src/stm32f4xx_ll_sdmmc.c **** 
 4299              		.loc 1 365 3 view .LVU1463
 4300 0014 23F00F03 		bic	r3, r3, #15
 4301 0018 43F48C63 		orr	r3, r3, #1120
 4302              	.LBE498:
 4303              	.LBE521:
 4304              	.LBB522:
 4305              	.LBB513:
1193:Drivers/STM32F4xx_HAL_Driver/Src/stm32f4xx_ll_sdmmc.c **** 
 4306              		.loc 1 1193 52 view .LVU1464
 4307 001c 520A     		lsrs	r2, r2, #9
1193:Drivers/STM32F4xx_HAL_Driver/Src/stm32f4xx_ll_sdmmc.c **** 
 4308              		.loc 1 1193 12 view .LVU1465
 4309 001e 4FF21861 		movw	r1, #63000
 4310              	.LBE513:
 4311              	.LBE522:
 4312              	.LBB523:
 4313              	.LBB499:
 365:Drivers/STM32F4xx_HAL_Driver/Src/stm32f4xx_ll_sdmmc.c **** 
 4314              		.loc 1 365 3 view .LVU1466
 4315 0022 43F00603 		orr	r3, r3, #6
 4316              	.LBE499:
 4317              	.LBE523:
 4318              	.LBB524:
 4319              	.LBB514:
1193:Drivers/STM32F4xx_HAL_Driver/Src/stm32f4xx_ll_sdmmc.c **** 
 4320              		.loc 1 1193 12 view .LVU1467
 4321 0026 01FB02F2 		mul	r2, r1, r2
 4322              	.LBE514:
 4323              	.LBE524:
 4324              	.LBB525:
 4325              	.LBB500:
 365:Drivers/STM32F4xx_HAL_Driver/Src/stm32f4xx_ll_sdmmc.c **** 
 4326              		.loc 1 365 3 view .LVU1468
 4327 002a C360     		str	r3, [r0, #12]
 367:Drivers/STM32F4xx_HAL_Driver/Src/stm32f4xx_ll_sdmmc.c **** }
 4328              		.loc 1 367 3 is_stmt 1 view .LVU1469
 4329              	.LVL244:
 367:Drivers/STM32F4xx_HAL_Driver/Src/stm32f4xx_ll_sdmmc.c **** }
 4330              		.loc 1 367 3 is_stmt 0 view .LVU1470
 4331              	.LBE500:
 4332              	.LBE525:
 734:Drivers/STM32F4xx_HAL_Driver/Src/stm32f4xx_ll_sdmmc.c **** 
 4333              		.loc 1 734 3 is_stmt 1 view .LVU1471
 4334              	.LBB526:
 4335              	.LBI501:
1186:Drivers/STM32F4xx_HAL_Driver/Src/stm32f4xx_ll_sdmmc.c **** {
 4336              		.loc 1 1186 10 view .LVU1472
 4337              	.LBB515:
1188:Drivers/STM32F4xx_HAL_Driver/Src/stm32f4xx_ll_sdmmc.c ****   uint32_t sta_reg;
 4338              		.loc 1 1188 3 view .LVU1473
1189:Drivers/STM32F4xx_HAL_Driver/Src/stm32f4xx_ll_sdmmc.c **** 
 4339              		.loc 1 1189 3 view .LVU1474
1193:Drivers/STM32F4xx_HAL_Driver/Src/stm32f4xx_ll_sdmmc.c **** 
 4340              		.loc 1 1193 3 view .LVU1475
ARM GAS  C:\Users\pw705\AppData\Local\Temp\cceieKfF.s 			page 122


1195:Drivers/STM32F4xx_HAL_Driver/Src/stm32f4xx_ll_sdmmc.c ****   {
 4341              		.loc 1 1195 3 view .LVU1476
1197:Drivers/STM32F4xx_HAL_Driver/Src/stm32f4xx_ll_sdmmc.c ****     {
 4342              		.loc 1 1197 5 view .LVU1477
1197:Drivers/STM32F4xx_HAL_Driver/Src/stm32f4xx_ll_sdmmc.c ****     {
 4343              		.loc 1 1197 14 is_stmt 0 view .LVU1478
 4344 002c 531E     		subs	r3, r2, #1
 4345              	.LVL245:
1197:Drivers/STM32F4xx_HAL_Driver/Src/stm32f4xx_ll_sdmmc.c ****     {
 4346              		.loc 1 1197 8 view .LVU1479
 4347 002e 4AB1     		cbz	r2, .L387
 4348              	.L380:
1195:Drivers/STM32F4xx_HAL_Driver/Src/stm32f4xx_ll_sdmmc.c ****   {
 4349              		.loc 1 1195 3 is_stmt 1 view .LVU1480
1197:Drivers/STM32F4xx_HAL_Driver/Src/stm32f4xx_ll_sdmmc.c ****     {
 4350              		.loc 1 1197 5 view .LVU1481
1201:Drivers/STM32F4xx_HAL_Driver/Src/stm32f4xx_ll_sdmmc.c ****   } while (((sta_reg & (SDIO_FLAG_CCRCFAIL | SDIO_FLAG_CMDREND | SDIO_FLAG_CTIMEOUT)) == 0U) ||
 4351              		.loc 1 1201 5 view .LVU1482
1201:Drivers/STM32F4xx_HAL_Driver/Src/stm32f4xx_ll_sdmmc.c ****   } while (((sta_reg & (SDIO_FLAG_CCRCFAIL | SDIO_FLAG_CMDREND | SDIO_FLAG_CTIMEOUT)) == 0U) ||
 4352              		.loc 1 1201 13 is_stmt 0 view .LVU1483
 4353 0030 426B     		ldr	r2, [r0, #52]
 4354              	.LVL246:
1202:Drivers/STM32F4xx_HAL_Driver/Src/stm32f4xx_ll_sdmmc.c ****            ((sta_reg & SDIO_FLAG_CMDACT) != 0U));
 4355              		.loc 1 1202 94 is_stmt 1 view .LVU1484
 4356 0032 12F0450F 		tst	r2, #69
1197:Drivers/STM32F4xx_HAL_Driver/Src/stm32f4xx_ll_sdmmc.c ****     {
 4357              		.loc 1 1197 14 is_stmt 0 view .LVU1485
 4358 0036 03F1FF33 		add	r3, r3, #-1
 4359              	.LVL247:
1202:Drivers/STM32F4xx_HAL_Driver/Src/stm32f4xx_ll_sdmmc.c ****            ((sta_reg & SDIO_FLAG_CMDACT) != 0U));
 4360              		.loc 1 1202 94 view .LVU1486
 4361 003a 01D0     		beq	.L381
 4362 003c 1105     		lsls	r1, r2, #20
 4363 003e 04D5     		bpl	.L413
 4364              	.L381:
1197:Drivers/STM32F4xx_HAL_Driver/Src/stm32f4xx_ll_sdmmc.c ****     {
 4365              		.loc 1 1197 8 view .LVU1487
 4366 0040 5A1C     		adds	r2, r3, #1
 4367              	.LVL248:
1197:Drivers/STM32F4xx_HAL_Driver/Src/stm32f4xx_ll_sdmmc.c ****     {
 4368              		.loc 1 1197 8 view .LVU1488
 4369 0042 F5D1     		bne	.L380
 4370              	.LVL249:
 4371              	.L387:
1199:Drivers/STM32F4xx_HAL_Driver/Src/stm32f4xx_ll_sdmmc.c ****     }
 4372              		.loc 1 1199 14 view .LVU1489
 4373 0044 4FF00040 		mov	r0, #-2147483648
 4374              	.LVL250:
1199:Drivers/STM32F4xx_HAL_Driver/Src/stm32f4xx_ll_sdmmc.c ****     }
 4375              		.loc 1 1199 14 view .LVU1490
 4376 0048 7047     		bx	lr
 4377              	.LVL251:
 4378              	.L413:
1205:Drivers/STM32F4xx_HAL_Driver/Src/stm32f4xx_ll_sdmmc.c ****   {
 4379              		.loc 1 1205 3 is_stmt 1 view .LVU1491
1205:Drivers/STM32F4xx_HAL_Driver/Src/stm32f4xx_ll_sdmmc.c ****   {
 4380              		.loc 1 1205 7 is_stmt 0 view .LVU1492
ARM GAS  C:\Users\pw705\AppData\Local\Temp\cceieKfF.s 			page 123


 4381 004a 436B     		ldr	r3, [r0, #52]
 4382              	.LVL252:
1205:Drivers/STM32F4xx_HAL_Driver/Src/stm32f4xx_ll_sdmmc.c ****   {
 4383              		.loc 1 1205 6 view .LVU1493
 4384 004c 5A07     		lsls	r2, r3, #29
 4385              	.LVL253:
1205:Drivers/STM32F4xx_HAL_Driver/Src/stm32f4xx_ll_sdmmc.c ****   {
 4386              		.loc 1 1205 6 view .LVU1494
 4387 004e 3ED4     		bmi	.L414
1211:Drivers/STM32F4xx_HAL_Driver/Src/stm32f4xx_ll_sdmmc.c ****   {
 4388              		.loc 1 1211 8 is_stmt 1 view .LVU1495
1211:Drivers/STM32F4xx_HAL_Driver/Src/stm32f4xx_ll_sdmmc.c ****   {
 4389              		.loc 1 1211 12 is_stmt 0 view .LVU1496
 4390 0050 436B     		ldr	r3, [r0, #52]
1211:Drivers/STM32F4xx_HAL_Driver/Src/stm32f4xx_ll_sdmmc.c ****   {
 4391              		.loc 1 1211 11 view .LVU1497
 4392 0052 DB07     		lsls	r3, r3, #31
 4393 0054 07D4     		bmi	.L415
1220:Drivers/STM32F4xx_HAL_Driver/Src/stm32f4xx_ll_sdmmc.c **** 
 4394              		.loc 1 1220 3 is_stmt 1 view .LVU1498
1223:Drivers/STM32F4xx_HAL_Driver/Src/stm32f4xx_ll_sdmmc.c **** 
 4395              		.loc 1 1223 3 view .LVU1499
 4396 0056 C523     		movs	r3, #197
 4397 0058 8363     		str	r3, [r0, #56]
1226:Drivers/STM32F4xx_HAL_Driver/Src/stm32f4xx_ll_sdmmc.c ****   {
 4398              		.loc 1 1226 3 view .LVU1500
 4399              	.LVL254:
 4400              	.LBB503:
 4401              	.LBI503:
 375:Drivers/STM32F4xx_HAL_Driver/Src/stm32f4xx_ll_sdmmc.c **** {
 4402              		.loc 1 375 9 view .LVU1501
 4403              	.LBB504:
 377:Drivers/STM32F4xx_HAL_Driver/Src/stm32f4xx_ll_sdmmc.c **** }
 4404              		.loc 1 377 3 view .LVU1502
 377:Drivers/STM32F4xx_HAL_Driver/Src/stm32f4xx_ll_sdmmc.c **** }
 4405              		.loc 1 377 25 is_stmt 0 view .LVU1503
 4406 005a 0369     		ldr	r3, [r0, #16]
 4407              	.LVL255:
 377:Drivers/STM32F4xx_HAL_Driver/Src/stm32f4xx_ll_sdmmc.c **** }
 4408              		.loc 1 377 25 view .LVU1504
 4409              	.LBE504:
 4410              	.LBE503:
1226:Drivers/STM32F4xx_HAL_Driver/Src/stm32f4xx_ll_sdmmc.c ****   {
 4411              		.loc 1 1226 6 view .LVU1505
 4412 005c DBB2     		uxtb	r3, r3
 4413 005e 262B     		cmp	r3, #38
 4414 0060 04D0     		beq	.L385
 4415              	.L384:
1215:Drivers/STM32F4xx_HAL_Driver/Src/stm32f4xx_ll_sdmmc.c ****   }
 4416              		.loc 1 1215 12 view .LVU1506
 4417 0062 0120     		movs	r0, #1
 4418              	.LVL256:
1215:Drivers/STM32F4xx_HAL_Driver/Src/stm32f4xx_ll_sdmmc.c ****   }
 4419              		.loc 1 1215 12 view .LVU1507
 4420 0064 7047     		bx	lr
 4421              	.LVL257:
 4422              	.L415:
ARM GAS  C:\Users\pw705\AppData\Local\Temp\cceieKfF.s 			page 124


1213:Drivers/STM32F4xx_HAL_Driver/Src/stm32f4xx_ll_sdmmc.c **** 
 4423              		.loc 1 1213 5 is_stmt 1 view .LVU1508
 4424 0066 0123     		movs	r3, #1
 4425 0068 8363     		str	r3, [r0, #56]
1215:Drivers/STM32F4xx_HAL_Driver/Src/stm32f4xx_ll_sdmmc.c ****   }
 4426              		.loc 1 1215 5 view .LVU1509
1215:Drivers/STM32F4xx_HAL_Driver/Src/stm32f4xx_ll_sdmmc.c ****   }
 4427              		.loc 1 1215 12 is_stmt 0 view .LVU1510
 4428 006a FAE7     		b	.L384
 4429              	.L385:
 4430              	.LVL258:
 4431              	.LBB505:
 4432              	.LBI505:
1186:Drivers/STM32F4xx_HAL_Driver/Src/stm32f4xx_ll_sdmmc.c **** {
 4433              		.loc 1 1186 10 is_stmt 1 view .LVU1511
 4434              	.LBB506:
1232:Drivers/STM32F4xx_HAL_Driver/Src/stm32f4xx_ll_sdmmc.c **** 
 4435              		.loc 1 1232 3 view .LVU1512
 4436              	.LBB507:
 4437              	.LBI507:
 391:Drivers/STM32F4xx_HAL_Driver/Src/stm32f4xx_ll_sdmmc.c **** {
 4438              		.loc 1 391 10 view .LVU1513
 4439              	.LBB508:
 393:Drivers/STM32F4xx_HAL_Driver/Src/stm32f4xx_ll_sdmmc.c **** 
 4440              		.loc 1 393 3 view .LVU1514
 396:Drivers/STM32F4xx_HAL_Driver/Src/stm32f4xx_ll_sdmmc.c **** 
 4441              		.loc 1 396 3 view .LVU1515
 399:Drivers/STM32F4xx_HAL_Driver/Src/stm32f4xx_ll_sdmmc.c **** 
 4442              		.loc 1 399 3 view .LVU1516
 401:Drivers/STM32F4xx_HAL_Driver/Src/stm32f4xx_ll_sdmmc.c **** }
 4443              		.loc 1 401 3 view .LVU1517
 401:Drivers/STM32F4xx_HAL_Driver/Src/stm32f4xx_ll_sdmmc.c **** }
 4444              		.loc 1 401 11 is_stmt 0 view .LVU1518
 4445 006c 4369     		ldr	r3, [r0, #20]
 4446              	.LVL259:
 401:Drivers/STM32F4xx_HAL_Driver/Src/stm32f4xx_ll_sdmmc.c **** }
 4447              		.loc 1 401 11 view .LVU1519
 4448              	.LBE508:
 4449              	.LBE507:
1234:Drivers/STM32F4xx_HAL_Driver/Src/stm32f4xx_ll_sdmmc.c ****   {
 4450              		.loc 1 1234 3 is_stmt 1 view .LVU1520
1234:Drivers/STM32F4xx_HAL_Driver/Src/stm32f4xx_ll_sdmmc.c ****   {
 4451              		.loc 1 1234 20 is_stmt 0 view .LVU1521
 4452 006e 3348     		ldr	r0, .L416+8
 4453              	.LVL260:
1234:Drivers/STM32F4xx_HAL_Driver/Src/stm32f4xx_ll_sdmmc.c ****   {
 4454              		.loc 1 1234 20 view .LVU1522
 4455 0070 1840     		ands	r0, r0, r3
1234:Drivers/STM32F4xx_HAL_Driver/Src/stm32f4xx_ll_sdmmc.c ****   {
 4456              		.loc 1 1234 6 view .LVU1523
 4457 0072 58B3     		cbz	r0, .L378
1238:Drivers/STM32F4xx_HAL_Driver/Src/stm32f4xx_ll_sdmmc.c ****   {
 4458              		.loc 1 1238 8 is_stmt 1 view .LVU1524
1238:Drivers/STM32F4xx_HAL_Driver/Src/stm32f4xx_ll_sdmmc.c ****   {
 4459              		.loc 1 1238 11 is_stmt 0 view .LVU1525
 4460 0074 002B     		cmp	r3, #0
 4461 0076 2EDB     		blt	.L388
ARM GAS  C:\Users\pw705\AppData\Local\Temp\cceieKfF.s 			page 125


1242:Drivers/STM32F4xx_HAL_Driver/Src/stm32f4xx_ll_sdmmc.c ****   {
 4462              		.loc 1 1242 8 is_stmt 1 view .LVU1526
1242:Drivers/STM32F4xx_HAL_Driver/Src/stm32f4xx_ll_sdmmc.c ****   {
 4463              		.loc 1 1242 11 is_stmt 0 view .LVU1527
 4464 0078 5900     		lsls	r1, r3, #1
 4465 007a 2FD4     		bmi	.L389
1246:Drivers/STM32F4xx_HAL_Driver/Src/stm32f4xx_ll_sdmmc.c ****   {
 4466              		.loc 1 1246 8 is_stmt 1 view .LVU1528
1246:Drivers/STM32F4xx_HAL_Driver/Src/stm32f4xx_ll_sdmmc.c ****   {
 4467              		.loc 1 1246 11 is_stmt 0 view .LVU1529
 4468 007c 9A00     		lsls	r2, r3, #2
 4469 007e 2FD4     		bmi	.L390
1250:Drivers/STM32F4xx_HAL_Driver/Src/stm32f4xx_ll_sdmmc.c ****   {
 4470              		.loc 1 1250 8 is_stmt 1 view .LVU1530
1250:Drivers/STM32F4xx_HAL_Driver/Src/stm32f4xx_ll_sdmmc.c ****   {
 4471              		.loc 1 1250 11 is_stmt 0 view .LVU1531
 4472 0080 D900     		lsls	r1, r3, #3
 4473 0082 2FD4     		bmi	.L391
1254:Drivers/STM32F4xx_HAL_Driver/Src/stm32f4xx_ll_sdmmc.c ****   {
 4474              		.loc 1 1254 8 is_stmt 1 view .LVU1532
1254:Drivers/STM32F4xx_HAL_Driver/Src/stm32f4xx_ll_sdmmc.c ****   {
 4475              		.loc 1 1254 11 is_stmt 0 view .LVU1533
 4476 0084 1A01     		lsls	r2, r3, #4
 4477 0086 30D4     		bmi	.L392
1258:Drivers/STM32F4xx_HAL_Driver/Src/stm32f4xx_ll_sdmmc.c ****   {
 4478              		.loc 1 1258 8 is_stmt 1 view .LVU1534
1258:Drivers/STM32F4xx_HAL_Driver/Src/stm32f4xx_ll_sdmmc.c ****   {
 4479              		.loc 1 1258 11 is_stmt 0 view .LVU1535
 4480 0088 5901     		lsls	r1, r3, #5
 4481 008a 31D4     		bmi	.L393
1262:Drivers/STM32F4xx_HAL_Driver/Src/stm32f4xx_ll_sdmmc.c ****   {
 4482              		.loc 1 1262 8 is_stmt 1 view .LVU1536
1262:Drivers/STM32F4xx_HAL_Driver/Src/stm32f4xx_ll_sdmmc.c ****   {
 4483              		.loc 1 1262 11 is_stmt 0 view .LVU1537
 4484 008c DA01     		lsls	r2, r3, #7
 4485 008e 32D4     		bmi	.L394
1266:Drivers/STM32F4xx_HAL_Driver/Src/stm32f4xx_ll_sdmmc.c ****   {
 4486              		.loc 1 1266 8 is_stmt 1 view .LVU1538
1266:Drivers/STM32F4xx_HAL_Driver/Src/stm32f4xx_ll_sdmmc.c ****   {
 4487              		.loc 1 1266 11 is_stmt 0 view .LVU1539
 4488 0090 1902     		lsls	r1, r3, #8
 4489 0092 33D4     		bmi	.L395
1270:Drivers/STM32F4xx_HAL_Driver/Src/stm32f4xx_ll_sdmmc.c ****   {
 4490              		.loc 1 1270 8 is_stmt 1 view .LVU1540
1270:Drivers/STM32F4xx_HAL_Driver/Src/stm32f4xx_ll_sdmmc.c ****   {
 4491              		.loc 1 1270 11 is_stmt 0 view .LVU1541
 4492 0094 5A02     		lsls	r2, r3, #9
 4493 0096 34D4     		bmi	.L396
1274:Drivers/STM32F4xx_HAL_Driver/Src/stm32f4xx_ll_sdmmc.c ****   {
 4494              		.loc 1 1274 8 is_stmt 1 view .LVU1542
1274:Drivers/STM32F4xx_HAL_Driver/Src/stm32f4xx_ll_sdmmc.c ****   {
 4495              		.loc 1 1274 11 is_stmt 0 view .LVU1543
 4496 0098 9902     		lsls	r1, r3, #10
 4497 009a 3ED4     		bmi	.L397
1278:Drivers/STM32F4xx_HAL_Driver/Src/stm32f4xx_ll_sdmmc.c ****   {
 4498              		.loc 1 1278 8 is_stmt 1 view .LVU1544
1278:Drivers/STM32F4xx_HAL_Driver/Src/stm32f4xx_ll_sdmmc.c ****   {
ARM GAS  C:\Users\pw705\AppData\Local\Temp\cceieKfF.s 			page 126


 4499              		.loc 1 1278 11 is_stmt 0 view .LVU1545
 4500 009c DA02     		lsls	r2, r3, #11
 4501 009e 39D4     		bmi	.L398
1282:Drivers/STM32F4xx_HAL_Driver/Src/stm32f4xx_ll_sdmmc.c ****   {
 4502              		.loc 1 1282 8 is_stmt 1 view .LVU1546
1282:Drivers/STM32F4xx_HAL_Driver/Src/stm32f4xx_ll_sdmmc.c ****   {
 4503              		.loc 1 1282 11 is_stmt 0 view .LVU1547
 4504 00a0 5903     		lsls	r1, r3, #13
 4505 00a2 34D4     		bmi	.L399
1286:Drivers/STM32F4xx_HAL_Driver/Src/stm32f4xx_ll_sdmmc.c ****   {
 4506              		.loc 1 1286 8 is_stmt 1 view .LVU1548
1286:Drivers/STM32F4xx_HAL_Driver/Src/stm32f4xx_ll_sdmmc.c ****   {
 4507              		.loc 1 1286 11 is_stmt 0 view .LVU1549
 4508 00a4 9A03     		lsls	r2, r3, #14
 4509 00a6 2FD4     		bmi	.L400
1290:Drivers/STM32F4xx_HAL_Driver/Src/stm32f4xx_ll_sdmmc.c ****   {
 4510              		.loc 1 1290 8 is_stmt 1 view .LVU1550
1290:Drivers/STM32F4xx_HAL_Driver/Src/stm32f4xx_ll_sdmmc.c ****   {
 4511              		.loc 1 1290 11 is_stmt 0 view .LVU1551
 4512 00a8 D903     		lsls	r1, r3, #15
 4513 00aa 3FD4     		bmi	.L401
1294:Drivers/STM32F4xx_HAL_Driver/Src/stm32f4xx_ll_sdmmc.c ****   {
 4514              		.loc 1 1294 8 is_stmt 1 view .LVU1552
1294:Drivers/STM32F4xx_HAL_Driver/Src/stm32f4xx_ll_sdmmc.c ****   {
 4515              		.loc 1 1294 11 is_stmt 0 view .LVU1553
 4516 00ac 1A04     		lsls	r2, r3, #16
 4517 00ae 3AD4     		bmi	.L402
1298:Drivers/STM32F4xx_HAL_Driver/Src/stm32f4xx_ll_sdmmc.c ****   {
 4518              		.loc 1 1298 8 is_stmt 1 view .LVU1554
1298:Drivers/STM32F4xx_HAL_Driver/Src/stm32f4xx_ll_sdmmc.c ****   {
 4519              		.loc 1 1298 11 is_stmt 0 view .LVU1555
 4520 00b0 5904     		lsls	r1, r3, #17
 4521 00b2 35D4     		bmi	.L403
1302:Drivers/STM32F4xx_HAL_Driver/Src/stm32f4xx_ll_sdmmc.c ****   {
 4522              		.loc 1 1302 8 is_stmt 1 view .LVU1556
1302:Drivers/STM32F4xx_HAL_Driver/Src/stm32f4xx_ll_sdmmc.c ****   {
 4523              		.loc 1 1302 11 is_stmt 0 view .LVU1557
 4524 00b4 9A04     		lsls	r2, r3, #18
 4525 00b6 07D4     		bmi	.L404
1306:Drivers/STM32F4xx_HAL_Driver/Src/stm32f4xx_ll_sdmmc.c ****   {
 4526              		.loc 1 1306 8 is_stmt 1 view .LVU1558
 4527              		.loc 1 1308 12 is_stmt 0 view .LVU1559
 4528 00b8 13F0080F 		tst	r3, #8
 4529 00bc 0CBF     		ite	eq
 4530 00be 4FF48030 		moveq	r0, #65536
 4531 00c2 4FF40000 		movne	r0, #8388608
 4532 00c6 7047     		bx	lr
 4533              	.L404:
1304:Drivers/STM32F4xx_HAL_Driver/Src/stm32f4xx_ll_sdmmc.c ****   }
 4534              		.loc 1 1304 12 view .LVU1560
 4535 00c8 4FF48000 		mov	r0, #4194304
 4536              	.L378:
1304:Drivers/STM32F4xx_HAL_Driver/Src/stm32f4xx_ll_sdmmc.c ****   }
 4537              		.loc 1 1304 12 view .LVU1561
 4538              	.LBE506:
 4539              	.LBE505:
 4540              	.LBE515:
ARM GAS  C:\Users\pw705\AppData\Local\Temp\cceieKfF.s 			page 127


 4541              	.LBE526:
 737:Drivers/STM32F4xx_HAL_Driver/Src/stm32f4xx_ll_sdmmc.c **** 
 4542              		.loc 1 737 1 view .LVU1562
 4543 00cc 7047     		bx	lr
 4544              	.LVL261:
 4545              	.L414:
 4546              	.LBB527:
 4547              	.LBB516:
1207:Drivers/STM32F4xx_HAL_Driver/Src/stm32f4xx_ll_sdmmc.c **** 
 4548              		.loc 1 1207 5 is_stmt 1 view .LVU1563
 4549 00ce 0423     		movs	r3, #4
 4550 00d0 8363     		str	r3, [r0, #56]
1209:Drivers/STM32F4xx_HAL_Driver/Src/stm32f4xx_ll_sdmmc.c ****   }
 4551              		.loc 1 1209 5 view .LVU1564
1209:Drivers/STM32F4xx_HAL_Driver/Src/stm32f4xx_ll_sdmmc.c ****   }
 4552              		.loc 1 1209 12 is_stmt 0 view .LVU1565
 4553 00d2 1846     		mov	r0, r3
 4554              	.LVL262:
1209:Drivers/STM32F4xx_HAL_Driver/Src/stm32f4xx_ll_sdmmc.c ****   }
 4555              		.loc 1 1209 12 view .LVU1566
 4556 00d4 7047     		bx	lr
 4557              	.LVL263:
 4558              	.L388:
 4559              	.LBB510:
 4560              	.LBB509:
1240:Drivers/STM32F4xx_HAL_Driver/Src/stm32f4xx_ll_sdmmc.c ****   }
 4561              		.loc 1 1240 12 view .LVU1567
 4562 00d6 4FF00070 		mov	r0, #33554432
 4563 00da 7047     		bx	lr
 4564              	.L389:
1244:Drivers/STM32F4xx_HAL_Driver/Src/stm32f4xx_ll_sdmmc.c ****   }
 4565              		.loc 1 1244 12 view .LVU1568
 4566 00dc 4020     		movs	r0, #64
 4567 00de 7047     		bx	lr
 4568              	.L390:
1248:Drivers/STM32F4xx_HAL_Driver/Src/stm32f4xx_ll_sdmmc.c ****   }
 4569              		.loc 1 1248 12 view .LVU1569
 4570 00e0 8020     		movs	r0, #128
 4571 00e2 7047     		bx	lr
 4572              	.L391:
1252:Drivers/STM32F4xx_HAL_Driver/Src/stm32f4xx_ll_sdmmc.c ****   }
 4573              		.loc 1 1252 12 view .LVU1570
 4574 00e4 4FF48070 		mov	r0, #256
 4575 00e8 7047     		bx	lr
 4576              	.L392:
1256:Drivers/STM32F4xx_HAL_Driver/Src/stm32f4xx_ll_sdmmc.c ****   }
 4577              		.loc 1 1256 12 view .LVU1571
 4578 00ea 4FF40070 		mov	r0, #512
 4579 00ee 7047     		bx	lr
 4580              	.L393:
1260:Drivers/STM32F4xx_HAL_Driver/Src/stm32f4xx_ll_sdmmc.c ****   }
 4581              		.loc 1 1260 12 view .LVU1572
 4582 00f0 4FF48060 		mov	r0, #1024
 4583 00f4 7047     		bx	lr
 4584              	.L394:
1264:Drivers/STM32F4xx_HAL_Driver/Src/stm32f4xx_ll_sdmmc.c ****   }
 4585              		.loc 1 1264 12 view .LVU1573
ARM GAS  C:\Users\pw705\AppData\Local\Temp\cceieKfF.s 			page 128


 4586 00f6 4FF40060 		mov	r0, #2048
 4587 00fa 7047     		bx	lr
 4588              	.L395:
1268:Drivers/STM32F4xx_HAL_Driver/Src/stm32f4xx_ll_sdmmc.c ****   }
 4589              		.loc 1 1268 12 view .LVU1574
 4590 00fc 4FF48050 		mov	r0, #4096
 4591 0100 7047     		bx	lr
 4592              	.L396:
1272:Drivers/STM32F4xx_HAL_Driver/Src/stm32f4xx_ll_sdmmc.c ****   }
 4593              		.loc 1 1272 12 view .LVU1575
 4594 0102 4FF40050 		mov	r0, #8192
 4595 0106 7047     		bx	lr
 4596              	.L400:
1288:Drivers/STM32F4xx_HAL_Driver/Src/stm32f4xx_ll_sdmmc.c ****   }
 4597              		.loc 1 1288 12 view .LVU1576
 4598 0108 4FF48020 		mov	r0, #262144
 4599 010c 7047     		bx	lr
 4600              	.L399:
1284:Drivers/STM32F4xx_HAL_Driver/Src/stm32f4xx_ll_sdmmc.c ****   }
 4601              		.loc 1 1284 12 view .LVU1577
 4602 010e 4FF40030 		mov	r0, #131072
 4603 0112 7047     		bx	lr
 4604              	.L398:
1280:Drivers/STM32F4xx_HAL_Driver/Src/stm32f4xx_ll_sdmmc.c ****   }
 4605              		.loc 1 1280 12 view .LVU1578
 4606 0114 4FF40040 		mov	r0, #32768
 4607 0118 7047     		bx	lr
 4608              	.L397:
1276:Drivers/STM32F4xx_HAL_Driver/Src/stm32f4xx_ll_sdmmc.c ****   }
 4609              		.loc 1 1276 12 view .LVU1579
 4610 011a 4FF48040 		mov	r0, #16384
 4611 011e 7047     		bx	lr
 4612              	.L403:
1300:Drivers/STM32F4xx_HAL_Driver/Src/stm32f4xx_ll_sdmmc.c ****   }
 4613              		.loc 1 1300 12 view .LVU1580
 4614 0120 4FF40010 		mov	r0, #2097152
 4615 0124 7047     		bx	lr
 4616              	.L402:
1296:Drivers/STM32F4xx_HAL_Driver/Src/stm32f4xx_ll_sdmmc.c ****   }
 4617              		.loc 1 1296 12 view .LVU1581
 4618 0126 4FF48010 		mov	r0, #1048576
 4619 012a 7047     		bx	lr
 4620              	.L401:
1292:Drivers/STM32F4xx_HAL_Driver/Src/stm32f4xx_ll_sdmmc.c ****   }
 4621              		.loc 1 1292 12 view .LVU1582
 4622 012c 4FF40020 		mov	r0, #524288
 4623 0130 7047     		bx	lr
 4624              	.L417:
 4625 0132 00BF     		.align	2
 4626              	.L416:
 4627 0134 00000000 		.word	SystemCoreClock
 4628 0138 D34D6210 		.word	274877907
 4629 013c 08E0FFFD 		.word	-33562616
 4630              	.LBE509:
 4631              	.LBE510:
 4632              	.LBE516:
 4633              	.LBE527:
ARM GAS  C:\Users\pw705\AppData\Local\Temp\cceieKfF.s 			page 129


 4634              		.cfi_endproc
 4635              	.LFE152:
 4637              		.section	.text.SDMMC_CmdStopTransfer,"ax",%progbits
 4638              		.align	1
 4639              		.p2align 2,,3
 4640              		.global	SDMMC_CmdStopTransfer
 4641              		.syntax unified
 4642              		.thumb
 4643              		.thumb_func
 4645              	SDMMC_CmdStopTransfer:
 4646              	.LVL264:
 4647              	.LFB153:
 745:Drivers/STM32F4xx_HAL_Driver/Src/stm32f4xx_ll_sdmmc.c ****   SDIO_CmdInitTypeDef sdmmc_cmdinit;
 4648              		.loc 1 745 1 is_stmt 1 view -0
 4649              		.cfi_startproc
 4650              		@ args = 0, pretend = 0, frame = 0
 4651              		@ frame_needed = 0, uses_anonymous_args = 0
 4652              		@ link register save eliminated.
 746:Drivers/STM32F4xx_HAL_Driver/Src/stm32f4xx_ll_sdmmc.c ****   uint32_t errorstate;
 4653              		.loc 1 746 3 view .LVU1584
 747:Drivers/STM32F4xx_HAL_Driver/Src/stm32f4xx_ll_sdmmc.c **** 
 4654              		.loc 1 747 3 view .LVU1585
 750:Drivers/STM32F4xx_HAL_Driver/Src/stm32f4xx_ll_sdmmc.c ****   sdmmc_cmdinit.CmdIndex = SDMMC_CMD_STOP_TRANSMISSION;
 4655              		.loc 1 750 3 view .LVU1586
 751:Drivers/STM32F4xx_HAL_Driver/Src/stm32f4xx_ll_sdmmc.c ****   sdmmc_cmdinit.Response = SDIO_RESPONSE_SHORT;
 4656              		.loc 1 751 3 view .LVU1587
 752:Drivers/STM32F4xx_HAL_Driver/Src/stm32f4xx_ll_sdmmc.c ****   sdmmc_cmdinit.WaitForInterrupt = SDIO_WAIT_NO;
 4657              		.loc 1 752 3 view .LVU1588
 753:Drivers/STM32F4xx_HAL_Driver/Src/stm32f4xx_ll_sdmmc.c ****   sdmmc_cmdinit.CPSM = SDIO_CPSM_ENABLE;
 4658              		.loc 1 753 3 view .LVU1589
 754:Drivers/STM32F4xx_HAL_Driver/Src/stm32f4xx_ll_sdmmc.c ****   (void)SDIO_SendCommand(SDIOx, &sdmmc_cmdinit);
 4659              		.loc 1 754 3 view .LVU1590
 755:Drivers/STM32F4xx_HAL_Driver/Src/stm32f4xx_ll_sdmmc.c **** 
 4660              		.loc 1 755 3 view .LVU1591
 4661              	.LBB540:
 4662              	.LBI540:
 345:Drivers/STM32F4xx_HAL_Driver/Src/stm32f4xx_ll_sdmmc.c **** {
 4663              		.loc 1 345 19 view .LVU1592
 4664              	.LBB541:
 347:Drivers/STM32F4xx_HAL_Driver/Src/stm32f4xx_ll_sdmmc.c **** 
 4665              		.loc 1 347 3 view .LVU1593
 350:Drivers/STM32F4xx_HAL_Driver/Src/stm32f4xx_ll_sdmmc.c ****   assert_param(IS_SDIO_RESPONSE(Command->Response));
 4666              		.loc 1 350 3 view .LVU1594
 351:Drivers/STM32F4xx_HAL_Driver/Src/stm32f4xx_ll_sdmmc.c ****   assert_param(IS_SDIO_WAIT(Command->WaitForInterrupt));
 4667              		.loc 1 351 3 view .LVU1595
 352:Drivers/STM32F4xx_HAL_Driver/Src/stm32f4xx_ll_sdmmc.c ****   assert_param(IS_SDIO_CPSM(Command->CPSM));
 4668              		.loc 1 352 3 view .LVU1596
 353:Drivers/STM32F4xx_HAL_Driver/Src/stm32f4xx_ll_sdmmc.c **** 
 4669              		.loc 1 353 3 view .LVU1597
 356:Drivers/STM32F4xx_HAL_Driver/Src/stm32f4xx_ll_sdmmc.c **** 
 4670              		.loc 1 356 3 view .LVU1598
 356:Drivers/STM32F4xx_HAL_Driver/Src/stm32f4xx_ll_sdmmc.c **** 
 4671              		.loc 1 356 14 is_stmt 0 view .LVU1599
 4672 0000 0023     		movs	r3, #0
 4673              	.LBE541:
 4674              	.LBE540:
 745:Drivers/STM32F4xx_HAL_Driver/Src/stm32f4xx_ll_sdmmc.c ****   SDIO_CmdInitTypeDef sdmmc_cmdinit;
ARM GAS  C:\Users\pw705\AppData\Local\Temp\cceieKfF.s 			page 130


 4675              		.loc 1 745 1 view .LVU1600
 4676 0002 10B4     		push	{r4}
 4677              		.cfi_def_cfa_offset 4
 4678              		.cfi_offset 4, -4
 4679              	.LBB547:
 4680              	.LBB548:
1193:Drivers/STM32F4xx_HAL_Driver/Src/stm32f4xx_ll_sdmmc.c **** 
 4681              		.loc 1 1193 52 view .LVU1601
 4682 0004 4C4A     		ldr	r2, .L458
 4683              	.LBE548:
 4684              	.LBE547:
 4685              	.LBB563:
 4686              	.LBB542:
 356:Drivers/STM32F4xx_HAL_Driver/Src/stm32f4xx_ll_sdmmc.c **** 
 4687              		.loc 1 356 14 view .LVU1602
 4688 0006 8360     		str	r3, [r0, #8]
 359:Drivers/STM32F4xx_HAL_Driver/Src/stm32f4xx_ll_sdmmc.c ****                        Command->Response |
 4689              		.loc 1 359 3 is_stmt 1 view .LVU1603
 4690              	.LVL265:
 365:Drivers/STM32F4xx_HAL_Driver/Src/stm32f4xx_ll_sdmmc.c **** 
 4691              		.loc 1 365 3 view .LVU1604
 4692 0008 C368     		ldr	r3, [r0, #12]
 4693              	.LBE542:
 4694              	.LBE563:
 4695              	.LBB564:
 4696              	.LBB557:
1193:Drivers/STM32F4xx_HAL_Driver/Src/stm32f4xx_ll_sdmmc.c **** 
 4697              		.loc 1 1193 52 is_stmt 0 view .LVU1605
 4698 000a 1268     		ldr	r2, [r2]
 4699 000c 4B49     		ldr	r1, .L458+4
1193:Drivers/STM32F4xx_HAL_Driver/Src/stm32f4xx_ll_sdmmc.c **** 
 4700              		.loc 1 1193 12 view .LVU1606
 4701 000e 4C4C     		ldr	r4, .L458+8
 4702              	.LBE557:
 4703              	.LBE564:
 4704              	.LBB565:
 4705              	.LBB543:
 365:Drivers/STM32F4xx_HAL_Driver/Src/stm32f4xx_ll_sdmmc.c **** 
 4706              		.loc 1 365 3 view .LVU1607
 4707 0010 23F47F63 		bic	r3, r3, #4080
 4708 0014 23F00F03 		bic	r3, r3, #15
 4709              	.LBE543:
 4710              	.LBE565:
 4711              	.LBB566:
 4712              	.LBB558:
1193:Drivers/STM32F4xx_HAL_Driver/Src/stm32f4xx_ll_sdmmc.c **** 
 4713              		.loc 1 1193 52 view .LVU1608
 4714 0018 A1FB0212 		umull	r1, r2, r1, r2
 4715              	.LBE558:
 4716              	.LBE566:
 4717              	.LBB567:
 4718              	.LBB544:
 365:Drivers/STM32F4xx_HAL_Driver/Src/stm32f4xx_ll_sdmmc.c **** 
 4719              		.loc 1 365 3 view .LVU1609
 4720 001c 43F48963 		orr	r3, r3, #1096
 4721              	.LBE544:
 4722              	.LBE567:
ARM GAS  C:\Users\pw705\AppData\Local\Temp\cceieKfF.s 			page 131


 4723              	.LBB568:
 4724              	.LBB559:
1193:Drivers/STM32F4xx_HAL_Driver/Src/stm32f4xx_ll_sdmmc.c **** 
 4725              		.loc 1 1193 52 view .LVU1610
 4726 0020 520A     		lsrs	r2, r2, #9
 4727              	.LBE559:
 4728              	.LBE568:
 4729              	.LBB569:
 4730              	.LBB545:
 365:Drivers/STM32F4xx_HAL_Driver/Src/stm32f4xx_ll_sdmmc.c **** 
 4731              		.loc 1 365 3 view .LVU1611
 4732 0022 43F00403 		orr	r3, r3, #4
 4733              	.LBE545:
 4734              	.LBE569:
 4735              	.LBB570:
 4736              	.LBB560:
1193:Drivers/STM32F4xx_HAL_Driver/Src/stm32f4xx_ll_sdmmc.c **** 
 4737              		.loc 1 1193 12 view .LVU1612
 4738 0026 04FB02F2 		mul	r2, r4, r2
 4739              	.LBE560:
 4740              	.LBE570:
 4741              	.LBB571:
 4742              	.LBB546:
 365:Drivers/STM32F4xx_HAL_Driver/Src/stm32f4xx_ll_sdmmc.c **** 
 4743              		.loc 1 365 3 view .LVU1613
 4744 002a C360     		str	r3, [r0, #12]
 367:Drivers/STM32F4xx_HAL_Driver/Src/stm32f4xx_ll_sdmmc.c **** }
 4745              		.loc 1 367 3 is_stmt 1 view .LVU1614
 4746              	.LVL266:
 367:Drivers/STM32F4xx_HAL_Driver/Src/stm32f4xx_ll_sdmmc.c **** }
 4747              		.loc 1 367 3 is_stmt 0 view .LVU1615
 4748              	.LBE546:
 4749              	.LBE571:
 758:Drivers/STM32F4xx_HAL_Driver/Src/stm32f4xx_ll_sdmmc.c **** 
 4750              		.loc 1 758 3 is_stmt 1 view .LVU1616
 4751              	.LBB572:
 4752              	.LBI547:
1186:Drivers/STM32F4xx_HAL_Driver/Src/stm32f4xx_ll_sdmmc.c **** {
 4753              		.loc 1 1186 10 view .LVU1617
 4754              	.LBB561:
1188:Drivers/STM32F4xx_HAL_Driver/Src/stm32f4xx_ll_sdmmc.c ****   uint32_t sta_reg;
 4755              		.loc 1 1188 3 view .LVU1618
1189:Drivers/STM32F4xx_HAL_Driver/Src/stm32f4xx_ll_sdmmc.c **** 
 4756              		.loc 1 1189 3 view .LVU1619
1193:Drivers/STM32F4xx_HAL_Driver/Src/stm32f4xx_ll_sdmmc.c **** 
 4757              		.loc 1 1193 3 view .LVU1620
1195:Drivers/STM32F4xx_HAL_Driver/Src/stm32f4xx_ll_sdmmc.c ****   {
 4758              		.loc 1 1195 3 view .LVU1621
1197:Drivers/STM32F4xx_HAL_Driver/Src/stm32f4xx_ll_sdmmc.c ****     {
 4759              		.loc 1 1197 5 view .LVU1622
1197:Drivers/STM32F4xx_HAL_Driver/Src/stm32f4xx_ll_sdmmc.c ****     {
 4760              		.loc 1 1197 5 is_stmt 0 view .LVU1623
 4761 002c 531E     		subs	r3, r2, #1
 4762              	.LVL267:
1197:Drivers/STM32F4xx_HAL_Driver/Src/stm32f4xx_ll_sdmmc.c ****     {
 4763              		.loc 1 1197 8 view .LVU1624
 4764 002e 4AB1     		cbz	r2, .L427
ARM GAS  C:\Users\pw705\AppData\Local\Temp\cceieKfF.s 			page 132


 4765              	.LVL268:
 4766              	.L420:
1195:Drivers/STM32F4xx_HAL_Driver/Src/stm32f4xx_ll_sdmmc.c ****   {
 4767              		.loc 1 1195 3 is_stmt 1 view .LVU1625
1197:Drivers/STM32F4xx_HAL_Driver/Src/stm32f4xx_ll_sdmmc.c ****     {
 4768              		.loc 1 1197 5 view .LVU1626
1201:Drivers/STM32F4xx_HAL_Driver/Src/stm32f4xx_ll_sdmmc.c ****   } while (((sta_reg & (SDIO_FLAG_CCRCFAIL | SDIO_FLAG_CMDREND | SDIO_FLAG_CTIMEOUT)) == 0U) ||
 4769              		.loc 1 1201 5 view .LVU1627
1201:Drivers/STM32F4xx_HAL_Driver/Src/stm32f4xx_ll_sdmmc.c ****   } while (((sta_reg & (SDIO_FLAG_CCRCFAIL | SDIO_FLAG_CMDREND | SDIO_FLAG_CTIMEOUT)) == 0U) ||
 4770              		.loc 1 1201 13 is_stmt 0 view .LVU1628
 4771 0030 426B     		ldr	r2, [r0, #52]
 4772              	.LVL269:
1202:Drivers/STM32F4xx_HAL_Driver/Src/stm32f4xx_ll_sdmmc.c ****            ((sta_reg & SDIO_FLAG_CMDACT) != 0U));
 4773              		.loc 1 1202 94 is_stmt 1 view .LVU1629
 4774 0032 12F0450F 		tst	r2, #69
1197:Drivers/STM32F4xx_HAL_Driver/Src/stm32f4xx_ll_sdmmc.c ****     {
 4775              		.loc 1 1197 14 is_stmt 0 view .LVU1630
 4776 0036 03F1FF33 		add	r3, r3, #-1
 4777              	.LVL270:
1202:Drivers/STM32F4xx_HAL_Driver/Src/stm32f4xx_ll_sdmmc.c ****            ((sta_reg & SDIO_FLAG_CMDACT) != 0U));
 4778              		.loc 1 1202 94 view .LVU1631
 4779 003a 01D0     		beq	.L421
 4780 003c 1205     		lsls	r2, r2, #20
 4781              	.LVL271:
1202:Drivers/STM32F4xx_HAL_Driver/Src/stm32f4xx_ll_sdmmc.c ****            ((sta_reg & SDIO_FLAG_CMDACT) != 0U));
 4782              		.loc 1 1202 94 view .LVU1632
 4783 003e 06D5     		bpl	.L455
 4784              	.L421:
1197:Drivers/STM32F4xx_HAL_Driver/Src/stm32f4xx_ll_sdmmc.c ****     {
 4785              		.loc 1 1197 8 view .LVU1633
 4786 0040 591C     		adds	r1, r3, #1
 4787 0042 F5D1     		bne	.L420
 4788              	.LVL272:
 4789              	.L427:
1199:Drivers/STM32F4xx_HAL_Driver/Src/stm32f4xx_ll_sdmmc.c ****     }
 4790              		.loc 1 1199 14 view .LVU1634
 4791 0044 4FF00040 		mov	r0, #-2147483648
 4792              	.LVL273:
 4793              	.L418:
1199:Drivers/STM32F4xx_HAL_Driver/Src/stm32f4xx_ll_sdmmc.c ****     }
 4794              		.loc 1 1199 14 view .LVU1635
 4795              	.LBE561:
 4796              	.LBE572:
 761:Drivers/STM32F4xx_HAL_Driver/Src/stm32f4xx_ll_sdmmc.c **** 
 4797              		.loc 1 761 1 view .LVU1636
 4798 0048 5DF8044B 		ldr	r4, [sp], #4
 4799              		.cfi_remember_state
 4800              		.cfi_restore 4
 4801              		.cfi_def_cfa_offset 0
 4802 004c 7047     		bx	lr
 4803              	.LVL274:
 4804              	.L455:
 4805              		.cfi_restore_state
 4806              	.LBB573:
 4807              	.LBB562:
1205:Drivers/STM32F4xx_HAL_Driver/Src/stm32f4xx_ll_sdmmc.c ****   {
 4808              		.loc 1 1205 3 is_stmt 1 view .LVU1637
ARM GAS  C:\Users\pw705\AppData\Local\Temp\cceieKfF.s 			page 133


1205:Drivers/STM32F4xx_HAL_Driver/Src/stm32f4xx_ll_sdmmc.c ****   {
 4809              		.loc 1 1205 7 is_stmt 0 view .LVU1638
 4810 004e 436B     		ldr	r3, [r0, #52]
 4811              	.LVL275:
1205:Drivers/STM32F4xx_HAL_Driver/Src/stm32f4xx_ll_sdmmc.c ****   {
 4812              		.loc 1 1205 6 view .LVU1639
 4813 0050 5C07     		lsls	r4, r3, #29
 4814 0052 3CD4     		bmi	.L456
1211:Drivers/STM32F4xx_HAL_Driver/Src/stm32f4xx_ll_sdmmc.c ****   {
 4815              		.loc 1 1211 8 is_stmt 1 view .LVU1640
1211:Drivers/STM32F4xx_HAL_Driver/Src/stm32f4xx_ll_sdmmc.c ****   {
 4816              		.loc 1 1211 12 is_stmt 0 view .LVU1641
 4817 0054 436B     		ldr	r3, [r0, #52]
1211:Drivers/STM32F4xx_HAL_Driver/Src/stm32f4xx_ll_sdmmc.c ****   {
 4818              		.loc 1 1211 11 view .LVU1642
 4819 0056 D907     		lsls	r1, r3, #31
 4820 0058 07D4     		bmi	.L457
1220:Drivers/STM32F4xx_HAL_Driver/Src/stm32f4xx_ll_sdmmc.c **** 
 4821              		.loc 1 1220 3 is_stmt 1 view .LVU1643
1223:Drivers/STM32F4xx_HAL_Driver/Src/stm32f4xx_ll_sdmmc.c **** 
 4822              		.loc 1 1223 3 view .LVU1644
 4823 005a C523     		movs	r3, #197
 4824 005c 8363     		str	r3, [r0, #56]
1226:Drivers/STM32F4xx_HAL_Driver/Src/stm32f4xx_ll_sdmmc.c ****   {
 4825              		.loc 1 1226 3 view .LVU1645
 4826              	.LVL276:
 4827              	.LBB549:
 4828              	.LBI549:
 375:Drivers/STM32F4xx_HAL_Driver/Src/stm32f4xx_ll_sdmmc.c **** {
 4829              		.loc 1 375 9 view .LVU1646
 4830              	.LBB550:
 377:Drivers/STM32F4xx_HAL_Driver/Src/stm32f4xx_ll_sdmmc.c **** }
 4831              		.loc 1 377 3 view .LVU1647
 377:Drivers/STM32F4xx_HAL_Driver/Src/stm32f4xx_ll_sdmmc.c **** }
 4832              		.loc 1 377 25 is_stmt 0 view .LVU1648
 4833 005e 0369     		ldr	r3, [r0, #16]
 4834              	.LVL277:
 377:Drivers/STM32F4xx_HAL_Driver/Src/stm32f4xx_ll_sdmmc.c **** }
 4835              		.loc 1 377 25 view .LVU1649
 4836              	.LBE550:
 4837              	.LBE549:
1226:Drivers/STM32F4xx_HAL_Driver/Src/stm32f4xx_ll_sdmmc.c ****   {
 4838              		.loc 1 1226 6 view .LVU1650
 4839 0060 DBB2     		uxtb	r3, r3
 4840 0062 0C2B     		cmp	r3, #12
 4841 0064 04D0     		beq	.L425
 4842              	.L424:
1215:Drivers/STM32F4xx_HAL_Driver/Src/stm32f4xx_ll_sdmmc.c ****   }
 4843              		.loc 1 1215 12 view .LVU1651
 4844 0066 0120     		movs	r0, #1
 4845              	.LVL278:
1215:Drivers/STM32F4xx_HAL_Driver/Src/stm32f4xx_ll_sdmmc.c ****   }
 4846              		.loc 1 1215 12 view .LVU1652
 4847 0068 EEE7     		b	.L418
 4848              	.LVL279:
 4849              	.L457:
1213:Drivers/STM32F4xx_HAL_Driver/Src/stm32f4xx_ll_sdmmc.c **** 
ARM GAS  C:\Users\pw705\AppData\Local\Temp\cceieKfF.s 			page 134


 4850              		.loc 1 1213 5 is_stmt 1 view .LVU1653
 4851 006a 0123     		movs	r3, #1
 4852 006c 8363     		str	r3, [r0, #56]
1215:Drivers/STM32F4xx_HAL_Driver/Src/stm32f4xx_ll_sdmmc.c ****   }
 4853              		.loc 1 1215 5 view .LVU1654
1215:Drivers/STM32F4xx_HAL_Driver/Src/stm32f4xx_ll_sdmmc.c ****   }
 4854              		.loc 1 1215 12 is_stmt 0 view .LVU1655
 4855 006e FAE7     		b	.L424
 4856              	.L425:
 4857              	.LVL280:
 4858              	.LBB551:
 4859              	.LBI551:
1186:Drivers/STM32F4xx_HAL_Driver/Src/stm32f4xx_ll_sdmmc.c **** {
 4860              		.loc 1 1186 10 is_stmt 1 view .LVU1656
 4861              	.LBB552:
1232:Drivers/STM32F4xx_HAL_Driver/Src/stm32f4xx_ll_sdmmc.c **** 
 4862              		.loc 1 1232 3 view .LVU1657
 4863              	.LBB553:
 4864              	.LBI553:
 391:Drivers/STM32F4xx_HAL_Driver/Src/stm32f4xx_ll_sdmmc.c **** {
 4865              		.loc 1 391 10 view .LVU1658
 4866              	.LBB554:
 393:Drivers/STM32F4xx_HAL_Driver/Src/stm32f4xx_ll_sdmmc.c **** 
 4867              		.loc 1 393 3 view .LVU1659
 396:Drivers/STM32F4xx_HAL_Driver/Src/stm32f4xx_ll_sdmmc.c **** 
 4868              		.loc 1 396 3 view .LVU1660
 399:Drivers/STM32F4xx_HAL_Driver/Src/stm32f4xx_ll_sdmmc.c **** 
 4869              		.loc 1 399 3 view .LVU1661
 401:Drivers/STM32F4xx_HAL_Driver/Src/stm32f4xx_ll_sdmmc.c **** }
 4870              		.loc 1 401 3 view .LVU1662
 401:Drivers/STM32F4xx_HAL_Driver/Src/stm32f4xx_ll_sdmmc.c **** }
 4871              		.loc 1 401 11 is_stmt 0 view .LVU1663
 4872 0070 4369     		ldr	r3, [r0, #20]
 4873              	.LVL281:
 401:Drivers/STM32F4xx_HAL_Driver/Src/stm32f4xx_ll_sdmmc.c **** }
 4874              		.loc 1 401 11 view .LVU1664
 4875              	.LBE554:
 4876              	.LBE553:
1234:Drivers/STM32F4xx_HAL_Driver/Src/stm32f4xx_ll_sdmmc.c ****   {
 4877              		.loc 1 1234 3 is_stmt 1 view .LVU1665
1234:Drivers/STM32F4xx_HAL_Driver/Src/stm32f4xx_ll_sdmmc.c ****   {
 4878              		.loc 1 1234 20 is_stmt 0 view .LVU1666
 4879 0072 3448     		ldr	r0, .L458+12
 4880              	.LVL282:
1234:Drivers/STM32F4xx_HAL_Driver/Src/stm32f4xx_ll_sdmmc.c ****   {
 4881              		.loc 1 1234 20 view .LVU1667
 4882 0074 1840     		ands	r0, r0, r3
1234:Drivers/STM32F4xx_HAL_Driver/Src/stm32f4xx_ll_sdmmc.c ****   {
 4883              		.loc 1 1234 6 view .LVU1668
 4884 0076 0028     		cmp	r0, #0
 4885 0078 E6D0     		beq	.L418
1238:Drivers/STM32F4xx_HAL_Driver/Src/stm32f4xx_ll_sdmmc.c ****   {
 4886              		.loc 1 1238 8 is_stmt 1 view .LVU1669
1238:Drivers/STM32F4xx_HAL_Driver/Src/stm32f4xx_ll_sdmmc.c ****   {
 4887              		.loc 1 1238 11 is_stmt 0 view .LVU1670
 4888 007a 002B     		cmp	r3, #0
 4889 007c 2BDB     		blt	.L428
ARM GAS  C:\Users\pw705\AppData\Local\Temp\cceieKfF.s 			page 135


1242:Drivers/STM32F4xx_HAL_Driver/Src/stm32f4xx_ll_sdmmc.c ****   {
 4890              		.loc 1 1242 8 is_stmt 1 view .LVU1671
1242:Drivers/STM32F4xx_HAL_Driver/Src/stm32f4xx_ll_sdmmc.c ****   {
 4891              		.loc 1 1242 11 is_stmt 0 view .LVU1672
 4892 007e 5A00     		lsls	r2, r3, #1
 4893 0080 2CD4     		bmi	.L429
1246:Drivers/STM32F4xx_HAL_Driver/Src/stm32f4xx_ll_sdmmc.c ****   {
 4894              		.loc 1 1246 8 is_stmt 1 view .LVU1673
1246:Drivers/STM32F4xx_HAL_Driver/Src/stm32f4xx_ll_sdmmc.c ****   {
 4895              		.loc 1 1246 11 is_stmt 0 view .LVU1674
 4896 0082 9C00     		lsls	r4, r3, #2
 4897 0084 2CD4     		bmi	.L430
1250:Drivers/STM32F4xx_HAL_Driver/Src/stm32f4xx_ll_sdmmc.c ****   {
 4898              		.loc 1 1250 8 is_stmt 1 view .LVU1675
1250:Drivers/STM32F4xx_HAL_Driver/Src/stm32f4xx_ll_sdmmc.c ****   {
 4899              		.loc 1 1250 11 is_stmt 0 view .LVU1676
 4900 0086 D900     		lsls	r1, r3, #3
 4901 0088 2CD4     		bmi	.L431
1254:Drivers/STM32F4xx_HAL_Driver/Src/stm32f4xx_ll_sdmmc.c ****   {
 4902              		.loc 1 1254 8 is_stmt 1 view .LVU1677
1254:Drivers/STM32F4xx_HAL_Driver/Src/stm32f4xx_ll_sdmmc.c ****   {
 4903              		.loc 1 1254 11 is_stmt 0 view .LVU1678
 4904 008a 1A01     		lsls	r2, r3, #4
 4905 008c 2DD4     		bmi	.L432
1258:Drivers/STM32F4xx_HAL_Driver/Src/stm32f4xx_ll_sdmmc.c ****   {
 4906              		.loc 1 1258 8 is_stmt 1 view .LVU1679
1258:Drivers/STM32F4xx_HAL_Driver/Src/stm32f4xx_ll_sdmmc.c ****   {
 4907              		.loc 1 1258 11 is_stmt 0 view .LVU1680
 4908 008e 5C01     		lsls	r4, r3, #5
 4909 0090 2ED4     		bmi	.L433
1262:Drivers/STM32F4xx_HAL_Driver/Src/stm32f4xx_ll_sdmmc.c ****   {
 4910              		.loc 1 1262 8 is_stmt 1 view .LVU1681
1262:Drivers/STM32F4xx_HAL_Driver/Src/stm32f4xx_ll_sdmmc.c ****   {
 4911              		.loc 1 1262 11 is_stmt 0 view .LVU1682
 4912 0092 D901     		lsls	r1, r3, #7
 4913 0094 2FD4     		bmi	.L434
1266:Drivers/STM32F4xx_HAL_Driver/Src/stm32f4xx_ll_sdmmc.c ****   {
 4914              		.loc 1 1266 8 is_stmt 1 view .LVU1683
1266:Drivers/STM32F4xx_HAL_Driver/Src/stm32f4xx_ll_sdmmc.c ****   {
 4915              		.loc 1 1266 11 is_stmt 0 view .LVU1684
 4916 0096 1A02     		lsls	r2, r3, #8
 4917 0098 30D4     		bmi	.L435
1270:Drivers/STM32F4xx_HAL_Driver/Src/stm32f4xx_ll_sdmmc.c ****   {
 4918              		.loc 1 1270 8 is_stmt 1 view .LVU1685
1270:Drivers/STM32F4xx_HAL_Driver/Src/stm32f4xx_ll_sdmmc.c ****   {
 4919              		.loc 1 1270 11 is_stmt 0 view .LVU1686
 4920 009a 5C02     		lsls	r4, r3, #9
 4921 009c 31D4     		bmi	.L436
1274:Drivers/STM32F4xx_HAL_Driver/Src/stm32f4xx_ll_sdmmc.c ****   {
 4922              		.loc 1 1274 8 is_stmt 1 view .LVU1687
1274:Drivers/STM32F4xx_HAL_Driver/Src/stm32f4xx_ll_sdmmc.c ****   {
 4923              		.loc 1 1274 11 is_stmt 0 view .LVU1688
 4924 009e 9902     		lsls	r1, r3, #10
 4925 00a0 3BD4     		bmi	.L437
1278:Drivers/STM32F4xx_HAL_Driver/Src/stm32f4xx_ll_sdmmc.c ****   {
 4926              		.loc 1 1278 8 is_stmt 1 view .LVU1689
1278:Drivers/STM32F4xx_HAL_Driver/Src/stm32f4xx_ll_sdmmc.c ****   {
ARM GAS  C:\Users\pw705\AppData\Local\Temp\cceieKfF.s 			page 136


 4927              		.loc 1 1278 11 is_stmt 0 view .LVU1690
 4928 00a2 DA02     		lsls	r2, r3, #11
 4929 00a4 36D4     		bmi	.L438
1282:Drivers/STM32F4xx_HAL_Driver/Src/stm32f4xx_ll_sdmmc.c ****   {
 4930              		.loc 1 1282 8 is_stmt 1 view .LVU1691
1282:Drivers/STM32F4xx_HAL_Driver/Src/stm32f4xx_ll_sdmmc.c ****   {
 4931              		.loc 1 1282 11 is_stmt 0 view .LVU1692
 4932 00a6 5C03     		lsls	r4, r3, #13
 4933 00a8 31D4     		bmi	.L439
1286:Drivers/STM32F4xx_HAL_Driver/Src/stm32f4xx_ll_sdmmc.c ****   {
 4934              		.loc 1 1286 8 is_stmt 1 view .LVU1693
1286:Drivers/STM32F4xx_HAL_Driver/Src/stm32f4xx_ll_sdmmc.c ****   {
 4935              		.loc 1 1286 11 is_stmt 0 view .LVU1694
 4936 00aa 9903     		lsls	r1, r3, #14
 4937 00ac 2CD4     		bmi	.L440
1290:Drivers/STM32F4xx_HAL_Driver/Src/stm32f4xx_ll_sdmmc.c ****   {
 4938              		.loc 1 1290 8 is_stmt 1 view .LVU1695
1290:Drivers/STM32F4xx_HAL_Driver/Src/stm32f4xx_ll_sdmmc.c ****   {
 4939              		.loc 1 1290 11 is_stmt 0 view .LVU1696
 4940 00ae DA03     		lsls	r2, r3, #15
 4941 00b0 3FD4     		bmi	.L441
1294:Drivers/STM32F4xx_HAL_Driver/Src/stm32f4xx_ll_sdmmc.c ****   {
 4942              		.loc 1 1294 8 is_stmt 1 view .LVU1697
1294:Drivers/STM32F4xx_HAL_Driver/Src/stm32f4xx_ll_sdmmc.c ****   {
 4943              		.loc 1 1294 11 is_stmt 0 view .LVU1698
 4944 00b2 1C04     		lsls	r4, r3, #16
 4945 00b4 3AD4     		bmi	.L442
1298:Drivers/STM32F4xx_HAL_Driver/Src/stm32f4xx_ll_sdmmc.c ****   {
 4946              		.loc 1 1298 8 is_stmt 1 view .LVU1699
1298:Drivers/STM32F4xx_HAL_Driver/Src/stm32f4xx_ll_sdmmc.c ****   {
 4947              		.loc 1 1298 11 is_stmt 0 view .LVU1700
 4948 00b6 5904     		lsls	r1, r3, #17
 4949 00b8 35D4     		bmi	.L443
1302:Drivers/STM32F4xx_HAL_Driver/Src/stm32f4xx_ll_sdmmc.c ****   {
 4950              		.loc 1 1302 8 is_stmt 1 view .LVU1701
1302:Drivers/STM32F4xx_HAL_Driver/Src/stm32f4xx_ll_sdmmc.c ****   {
 4951              		.loc 1 1302 11 is_stmt 0 view .LVU1702
 4952 00ba 9A04     		lsls	r2, r3, #18
 4953 00bc 30D4     		bmi	.L444
1306:Drivers/STM32F4xx_HAL_Driver/Src/stm32f4xx_ll_sdmmc.c ****   {
 4954              		.loc 1 1306 8 is_stmt 1 view .LVU1703
 4955              		.loc 1 1308 12 is_stmt 0 view .LVU1704
 4956 00be 13F0080F 		tst	r3, #8
 4957 00c2 0CBF     		ite	eq
 4958 00c4 4FF48030 		moveq	r0, #65536
 4959 00c8 4FF40000 		movne	r0, #8388608
 4960 00cc BCE7     		b	.L418
 4961              	.LVL283:
 4962              	.L456:
 4963              		.loc 1 1308 12 view .LVU1705
 4964              	.LBE552:
 4965              	.LBE551:
1207:Drivers/STM32F4xx_HAL_Driver/Src/stm32f4xx_ll_sdmmc.c **** 
 4966              		.loc 1 1207 5 is_stmt 1 view .LVU1706
 4967 00ce 0423     		movs	r3, #4
 4968 00d0 8363     		str	r3, [r0, #56]
1209:Drivers/STM32F4xx_HAL_Driver/Src/stm32f4xx_ll_sdmmc.c ****   }
ARM GAS  C:\Users\pw705\AppData\Local\Temp\cceieKfF.s 			page 137


 4969              		.loc 1 1209 5 view .LVU1707
1209:Drivers/STM32F4xx_HAL_Driver/Src/stm32f4xx_ll_sdmmc.c ****   }
 4970              		.loc 1 1209 12 is_stmt 0 view .LVU1708
 4971 00d2 1846     		mov	r0, r3
 4972              	.LVL284:
1209:Drivers/STM32F4xx_HAL_Driver/Src/stm32f4xx_ll_sdmmc.c ****   }
 4973              		.loc 1 1209 12 view .LVU1709
 4974 00d4 B8E7     		b	.L418
 4975              	.LVL285:
 4976              	.L428:
 4977              	.LBB556:
 4978              	.LBB555:
1240:Drivers/STM32F4xx_HAL_Driver/Src/stm32f4xx_ll_sdmmc.c ****   }
 4979              		.loc 1 1240 12 view .LVU1710
 4980 00d6 4FF00070 		mov	r0, #33554432
 4981 00da B5E7     		b	.L418
 4982              	.L429:
1244:Drivers/STM32F4xx_HAL_Driver/Src/stm32f4xx_ll_sdmmc.c ****   }
 4983              		.loc 1 1244 12 view .LVU1711
 4984 00dc 4020     		movs	r0, #64
 4985 00de B3E7     		b	.L418
 4986              	.L430:
1248:Drivers/STM32F4xx_HAL_Driver/Src/stm32f4xx_ll_sdmmc.c ****   }
 4987              		.loc 1 1248 12 view .LVU1712
 4988 00e0 8020     		movs	r0, #128
 4989 00e2 B1E7     		b	.L418
 4990              	.L431:
1252:Drivers/STM32F4xx_HAL_Driver/Src/stm32f4xx_ll_sdmmc.c ****   }
 4991              		.loc 1 1252 12 view .LVU1713
 4992 00e4 4FF48070 		mov	r0, #256
 4993 00e8 AEE7     		b	.L418
 4994              	.L432:
1256:Drivers/STM32F4xx_HAL_Driver/Src/stm32f4xx_ll_sdmmc.c ****   }
 4995              		.loc 1 1256 12 view .LVU1714
 4996 00ea 4FF40070 		mov	r0, #512
 4997 00ee ABE7     		b	.L418
 4998              	.L433:
1260:Drivers/STM32F4xx_HAL_Driver/Src/stm32f4xx_ll_sdmmc.c ****   }
 4999              		.loc 1 1260 12 view .LVU1715
 5000 00f0 4FF48060 		mov	r0, #1024
 5001 00f4 A8E7     		b	.L418
 5002              	.L434:
1264:Drivers/STM32F4xx_HAL_Driver/Src/stm32f4xx_ll_sdmmc.c ****   }
 5003              		.loc 1 1264 12 view .LVU1716
 5004 00f6 4FF40060 		mov	r0, #2048
 5005 00fa A5E7     		b	.L418
 5006              	.L435:
1268:Drivers/STM32F4xx_HAL_Driver/Src/stm32f4xx_ll_sdmmc.c ****   }
 5007              		.loc 1 1268 12 view .LVU1717
 5008 00fc 4FF48050 		mov	r0, #4096
 5009 0100 A2E7     		b	.L418
 5010              	.L436:
1272:Drivers/STM32F4xx_HAL_Driver/Src/stm32f4xx_ll_sdmmc.c ****   }
 5011              		.loc 1 1272 12 view .LVU1718
 5012 0102 4FF40050 		mov	r0, #8192
 5013 0106 9FE7     		b	.L418
 5014              	.L440:
ARM GAS  C:\Users\pw705\AppData\Local\Temp\cceieKfF.s 			page 138


1288:Drivers/STM32F4xx_HAL_Driver/Src/stm32f4xx_ll_sdmmc.c ****   }
 5015              		.loc 1 1288 12 view .LVU1719
 5016 0108 4FF48020 		mov	r0, #262144
 5017 010c 9CE7     		b	.L418
 5018              	.L439:
1284:Drivers/STM32F4xx_HAL_Driver/Src/stm32f4xx_ll_sdmmc.c ****   }
 5019              		.loc 1 1284 12 view .LVU1720
 5020 010e 4FF40030 		mov	r0, #131072
 5021 0112 99E7     		b	.L418
 5022              	.L438:
1280:Drivers/STM32F4xx_HAL_Driver/Src/stm32f4xx_ll_sdmmc.c ****   }
 5023              		.loc 1 1280 12 view .LVU1721
 5024 0114 4FF40040 		mov	r0, #32768
 5025 0118 96E7     		b	.L418
 5026              	.L437:
1276:Drivers/STM32F4xx_HAL_Driver/Src/stm32f4xx_ll_sdmmc.c ****   }
 5027              		.loc 1 1276 12 view .LVU1722
 5028 011a 4FF48040 		mov	r0, #16384
 5029 011e 93E7     		b	.L418
 5030              	.L444:
1304:Drivers/STM32F4xx_HAL_Driver/Src/stm32f4xx_ll_sdmmc.c ****   }
 5031              		.loc 1 1304 12 view .LVU1723
 5032 0120 4FF48000 		mov	r0, #4194304
 5033 0124 90E7     		b	.L418
 5034              	.L443:
1300:Drivers/STM32F4xx_HAL_Driver/Src/stm32f4xx_ll_sdmmc.c ****   }
 5035              		.loc 1 1300 12 view .LVU1724
 5036 0126 4FF40010 		mov	r0, #2097152
 5037 012a 8DE7     		b	.L418
 5038              	.L442:
1296:Drivers/STM32F4xx_HAL_Driver/Src/stm32f4xx_ll_sdmmc.c ****   }
 5039              		.loc 1 1296 12 view .LVU1725
 5040 012c 4FF48010 		mov	r0, #1048576
 5041 0130 8AE7     		b	.L418
 5042              	.L441:
1292:Drivers/STM32F4xx_HAL_Driver/Src/stm32f4xx_ll_sdmmc.c ****   }
 5043              		.loc 1 1292 12 view .LVU1726
 5044 0132 4FF40020 		mov	r0, #524288
 5045 0136 87E7     		b	.L418
 5046              	.L459:
 5047              		.align	2
 5048              	.L458:
 5049 0138 00000000 		.word	SystemCoreClock
 5050 013c D34D6210 		.word	274877907
 5051 0140 00E1F505 		.word	100000000
 5052 0144 08E0FFFD 		.word	-33562616
 5053              	.LBE555:
 5054              	.LBE556:
 5055              	.LBE562:
 5056              	.LBE573:
 5057              		.cfi_endproc
 5058              	.LFE153:
 5060              		.section	.text.SDMMC_CmdSelDesel,"ax",%progbits
 5061              		.align	1
 5062              		.p2align 2,,3
 5063              		.global	SDMMC_CmdSelDesel
 5064              		.syntax unified
ARM GAS  C:\Users\pw705\AppData\Local\Temp\cceieKfF.s 			page 139


 5065              		.thumb
 5066              		.thumb_func
 5068              	SDMMC_CmdSelDesel:
 5069              	.LVL286:
 5070              	.LFB154:
 770:Drivers/STM32F4xx_HAL_Driver/Src/stm32f4xx_ll_sdmmc.c ****   SDIO_CmdInitTypeDef sdmmc_cmdinit;
 5071              		.loc 1 770 1 is_stmt 1 view -0
 5072              		.cfi_startproc
 5073              		@ args = 0, pretend = 0, frame = 0
 5074              		@ frame_needed = 0, uses_anonymous_args = 0
 5075              		@ link register save eliminated.
 771:Drivers/STM32F4xx_HAL_Driver/Src/stm32f4xx_ll_sdmmc.c ****   uint32_t errorstate;
 5076              		.loc 1 771 3 view .LVU1728
 772:Drivers/STM32F4xx_HAL_Driver/Src/stm32f4xx_ll_sdmmc.c **** 
 5077              		.loc 1 772 3 view .LVU1729
 775:Drivers/STM32F4xx_HAL_Driver/Src/stm32f4xx_ll_sdmmc.c ****   sdmmc_cmdinit.CmdIndex = SDMMC_CMD_SEL_DESEL_CARD;
 5078              		.loc 1 775 3 view .LVU1730
 776:Drivers/STM32F4xx_HAL_Driver/Src/stm32f4xx_ll_sdmmc.c ****   sdmmc_cmdinit.Response = SDIO_RESPONSE_SHORT;
 5079              		.loc 1 776 3 view .LVU1731
 777:Drivers/STM32F4xx_HAL_Driver/Src/stm32f4xx_ll_sdmmc.c ****   sdmmc_cmdinit.WaitForInterrupt = SDIO_WAIT_NO;
 5080              		.loc 1 777 3 view .LVU1732
 778:Drivers/STM32F4xx_HAL_Driver/Src/stm32f4xx_ll_sdmmc.c ****   sdmmc_cmdinit.CPSM = SDIO_CPSM_ENABLE;
 5081              		.loc 1 778 3 view .LVU1733
 779:Drivers/STM32F4xx_HAL_Driver/Src/stm32f4xx_ll_sdmmc.c ****   (void)SDIO_SendCommand(SDIOx, &sdmmc_cmdinit);
 5082              		.loc 1 779 3 view .LVU1734
 780:Drivers/STM32F4xx_HAL_Driver/Src/stm32f4xx_ll_sdmmc.c **** 
 5083              		.loc 1 780 3 view .LVU1735
 5084              	.LBB586:
 5085              	.LBI586:
 345:Drivers/STM32F4xx_HAL_Driver/Src/stm32f4xx_ll_sdmmc.c **** {
 5086              		.loc 1 345 19 view .LVU1736
 5087              	.LBB587:
 347:Drivers/STM32F4xx_HAL_Driver/Src/stm32f4xx_ll_sdmmc.c **** 
 5088              		.loc 1 347 3 view .LVU1737
 350:Drivers/STM32F4xx_HAL_Driver/Src/stm32f4xx_ll_sdmmc.c ****   assert_param(IS_SDIO_RESPONSE(Command->Response));
 5089              		.loc 1 350 3 view .LVU1738
 351:Drivers/STM32F4xx_HAL_Driver/Src/stm32f4xx_ll_sdmmc.c ****   assert_param(IS_SDIO_WAIT(Command->WaitForInterrupt));
 5090              		.loc 1 351 3 view .LVU1739
 352:Drivers/STM32F4xx_HAL_Driver/Src/stm32f4xx_ll_sdmmc.c ****   assert_param(IS_SDIO_CPSM(Command->CPSM));
 5091              		.loc 1 352 3 view .LVU1740
 353:Drivers/STM32F4xx_HAL_Driver/Src/stm32f4xx_ll_sdmmc.c **** 
 5092              		.loc 1 353 3 view .LVU1741
 356:Drivers/STM32F4xx_HAL_Driver/Src/stm32f4xx_ll_sdmmc.c **** 
 5093              		.loc 1 356 3 view .LVU1742
 356:Drivers/STM32F4xx_HAL_Driver/Src/stm32f4xx_ll_sdmmc.c **** 
 5094              		.loc 1 356 14 is_stmt 0 view .LVU1743
 5095 0000 8260     		str	r2, [r0, #8]
 359:Drivers/STM32F4xx_HAL_Driver/Src/stm32f4xx_ll_sdmmc.c ****                        Command->Response |
 5096              		.loc 1 359 3 is_stmt 1 view .LVU1744
 5097              	.LVL287:
 365:Drivers/STM32F4xx_HAL_Driver/Src/stm32f4xx_ll_sdmmc.c **** 
 5098              		.loc 1 365 3 view .LVU1745
 5099              	.LBE587:
 5100              	.LBE586:
 5101              	.LBB593:
 5102              	.LBB594:
1193:Drivers/STM32F4xx_HAL_Driver/Src/stm32f4xx_ll_sdmmc.c **** 
ARM GAS  C:\Users\pw705\AppData\Local\Temp\cceieKfF.s 			page 140


 5103              		.loc 1 1193 52 is_stmt 0 view .LVU1746
 5104 0002 4B4A     		ldr	r2, .L498
 5105              	.LVL288:
1193:Drivers/STM32F4xx_HAL_Driver/Src/stm32f4xx_ll_sdmmc.c **** 
 5106              		.loc 1 1193 52 view .LVU1747
 5107              	.LBE594:
 5108              	.LBE593:
 5109              	.LBB609:
 5110              	.LBB588:
 365:Drivers/STM32F4xx_HAL_Driver/Src/stm32f4xx_ll_sdmmc.c **** 
 5111              		.loc 1 365 3 view .LVU1748
 5112 0004 C368     		ldr	r3, [r0, #12]
 5113              	.LBE588:
 5114              	.LBE609:
 5115              	.LBB610:
 5116              	.LBB603:
1193:Drivers/STM32F4xx_HAL_Driver/Src/stm32f4xx_ll_sdmmc.c **** 
 5117              		.loc 1 1193 52 view .LVU1749
 5118 0006 4B49     		ldr	r1, .L498+4
 5119 0008 1268     		ldr	r2, [r2]
 5120              	.LBE603:
 5121              	.LBE610:
 5122              	.LBB611:
 5123              	.LBB589:
 365:Drivers/STM32F4xx_HAL_Driver/Src/stm32f4xx_ll_sdmmc.c **** 
 5124              		.loc 1 365 3 view .LVU1750
 5125 000a 23F47F63 		bic	r3, r3, #4080
 5126              	.LBE589:
 5127              	.LBE611:
 5128              	.LBB612:
 5129              	.LBB604:
1193:Drivers/STM32F4xx_HAL_Driver/Src/stm32f4xx_ll_sdmmc.c **** 
 5130              		.loc 1 1193 52 view .LVU1751
 5131 000e A1FB0212 		umull	r1, r2, r1, r2
 5132              	.LBE604:
 5133              	.LBE612:
 5134              	.LBB613:
 5135              	.LBB590:
 365:Drivers/STM32F4xx_HAL_Driver/Src/stm32f4xx_ll_sdmmc.c **** 
 5136              		.loc 1 365 3 view .LVU1752
 5137 0012 23F00F03 		bic	r3, r3, #15
 5138 0016 43F48863 		orr	r3, r3, #1088
 5139              	.LBE590:
 5140              	.LBE613:
 5141              	.LBB614:
 5142              	.LBB605:
1193:Drivers/STM32F4xx_HAL_Driver/Src/stm32f4xx_ll_sdmmc.c **** 
 5143              		.loc 1 1193 52 view .LVU1753
 5144 001a 520A     		lsrs	r2, r2, #9
1193:Drivers/STM32F4xx_HAL_Driver/Src/stm32f4xx_ll_sdmmc.c **** 
 5145              		.loc 1 1193 12 view .LVU1754
 5146 001c 41F28831 		movw	r1, #5000
 5147              	.LBE605:
 5148              	.LBE614:
 5149              	.LBB615:
 5150              	.LBB591:
 365:Drivers/STM32F4xx_HAL_Driver/Src/stm32f4xx_ll_sdmmc.c **** 
ARM GAS  C:\Users\pw705\AppData\Local\Temp\cceieKfF.s 			page 141


 5151              		.loc 1 365 3 view .LVU1755
 5152 0020 43F00703 		orr	r3, r3, #7
 5153              	.LBE591:
 5154              	.LBE615:
 5155              	.LBB616:
 5156              	.LBB606:
1193:Drivers/STM32F4xx_HAL_Driver/Src/stm32f4xx_ll_sdmmc.c **** 
 5157              		.loc 1 1193 12 view .LVU1756
 5158 0024 01FB02F2 		mul	r2, r1, r2
 5159              	.LBE606:
 5160              	.LBE616:
 5161              	.LBB617:
 5162              	.LBB592:
 365:Drivers/STM32F4xx_HAL_Driver/Src/stm32f4xx_ll_sdmmc.c **** 
 5163              		.loc 1 365 3 view .LVU1757
 5164 0028 C360     		str	r3, [r0, #12]
 5165              	.LVL289:
 367:Drivers/STM32F4xx_HAL_Driver/Src/stm32f4xx_ll_sdmmc.c **** }
 5166              		.loc 1 367 3 is_stmt 1 view .LVU1758
 367:Drivers/STM32F4xx_HAL_Driver/Src/stm32f4xx_ll_sdmmc.c **** }
 5167              		.loc 1 367 3 is_stmt 0 view .LVU1759
 5168              	.LBE592:
 5169              	.LBE617:
 783:Drivers/STM32F4xx_HAL_Driver/Src/stm32f4xx_ll_sdmmc.c **** 
 5170              		.loc 1 783 3 is_stmt 1 view .LVU1760
 5171              	.LBB618:
 5172              	.LBI593:
1186:Drivers/STM32F4xx_HAL_Driver/Src/stm32f4xx_ll_sdmmc.c **** {
 5173              		.loc 1 1186 10 view .LVU1761
 5174              	.LBB607:
1188:Drivers/STM32F4xx_HAL_Driver/Src/stm32f4xx_ll_sdmmc.c ****   uint32_t sta_reg;
 5175              		.loc 1 1188 3 view .LVU1762
1189:Drivers/STM32F4xx_HAL_Driver/Src/stm32f4xx_ll_sdmmc.c **** 
 5176              		.loc 1 1189 3 view .LVU1763
1193:Drivers/STM32F4xx_HAL_Driver/Src/stm32f4xx_ll_sdmmc.c **** 
 5177              		.loc 1 1193 3 view .LVU1764
1195:Drivers/STM32F4xx_HAL_Driver/Src/stm32f4xx_ll_sdmmc.c ****   {
 5178              		.loc 1 1195 3 view .LVU1765
1197:Drivers/STM32F4xx_HAL_Driver/Src/stm32f4xx_ll_sdmmc.c ****     {
 5179              		.loc 1 1197 5 view .LVU1766
1197:Drivers/STM32F4xx_HAL_Driver/Src/stm32f4xx_ll_sdmmc.c ****     {
 5180              		.loc 1 1197 14 is_stmt 0 view .LVU1767
 5181 002a 531E     		subs	r3, r2, #1
 5182              	.LVL290:
1197:Drivers/STM32F4xx_HAL_Driver/Src/stm32f4xx_ll_sdmmc.c ****     {
 5183              		.loc 1 1197 8 view .LVU1768
 5184 002c 4AB1     		cbz	r2, .L469
 5185              	.L462:
1195:Drivers/STM32F4xx_HAL_Driver/Src/stm32f4xx_ll_sdmmc.c ****   {
 5186              		.loc 1 1195 3 is_stmt 1 view .LVU1769
1197:Drivers/STM32F4xx_HAL_Driver/Src/stm32f4xx_ll_sdmmc.c ****     {
 5187              		.loc 1 1197 5 view .LVU1770
1201:Drivers/STM32F4xx_HAL_Driver/Src/stm32f4xx_ll_sdmmc.c ****   } while (((sta_reg & (SDIO_FLAG_CCRCFAIL | SDIO_FLAG_CMDREND | SDIO_FLAG_CTIMEOUT)) == 0U) ||
 5188              		.loc 1 1201 5 view .LVU1771
1201:Drivers/STM32F4xx_HAL_Driver/Src/stm32f4xx_ll_sdmmc.c ****   } while (((sta_reg & (SDIO_FLAG_CCRCFAIL | SDIO_FLAG_CMDREND | SDIO_FLAG_CTIMEOUT)) == 0U) ||
 5189              		.loc 1 1201 13 is_stmt 0 view .LVU1772
 5190 002e 426B     		ldr	r2, [r0, #52]
ARM GAS  C:\Users\pw705\AppData\Local\Temp\cceieKfF.s 			page 142


 5191              	.LVL291:
1202:Drivers/STM32F4xx_HAL_Driver/Src/stm32f4xx_ll_sdmmc.c ****            ((sta_reg & SDIO_FLAG_CMDACT) != 0U));
 5192              		.loc 1 1202 94 is_stmt 1 view .LVU1773
 5193 0030 12F0450F 		tst	r2, #69
1197:Drivers/STM32F4xx_HAL_Driver/Src/stm32f4xx_ll_sdmmc.c ****     {
 5194              		.loc 1 1197 14 is_stmt 0 view .LVU1774
 5195 0034 03F1FF33 		add	r3, r3, #-1
 5196              	.LVL292:
1202:Drivers/STM32F4xx_HAL_Driver/Src/stm32f4xx_ll_sdmmc.c ****            ((sta_reg & SDIO_FLAG_CMDACT) != 0U));
 5197              		.loc 1 1202 94 view .LVU1775
 5198 0038 01D0     		beq	.L463
 5199 003a 1105     		lsls	r1, r2, #20
 5200 003c 04D5     		bpl	.L495
 5201              	.L463:
1197:Drivers/STM32F4xx_HAL_Driver/Src/stm32f4xx_ll_sdmmc.c ****     {
 5202              		.loc 1 1197 8 view .LVU1776
 5203 003e 5A1C     		adds	r2, r3, #1
 5204              	.LVL293:
1197:Drivers/STM32F4xx_HAL_Driver/Src/stm32f4xx_ll_sdmmc.c ****     {
 5205              		.loc 1 1197 8 view .LVU1777
 5206 0040 F5D1     		bne	.L462
 5207              	.LVL294:
 5208              	.L469:
1199:Drivers/STM32F4xx_HAL_Driver/Src/stm32f4xx_ll_sdmmc.c ****     }
 5209              		.loc 1 1199 14 view .LVU1778
 5210 0042 4FF00040 		mov	r0, #-2147483648
 5211              	.LVL295:
1199:Drivers/STM32F4xx_HAL_Driver/Src/stm32f4xx_ll_sdmmc.c ****     }
 5212              		.loc 1 1199 14 view .LVU1779
 5213 0046 7047     		bx	lr
 5214              	.LVL296:
 5215              	.L495:
1205:Drivers/STM32F4xx_HAL_Driver/Src/stm32f4xx_ll_sdmmc.c ****   {
 5216              		.loc 1 1205 3 is_stmt 1 view .LVU1780
1205:Drivers/STM32F4xx_HAL_Driver/Src/stm32f4xx_ll_sdmmc.c ****   {
 5217              		.loc 1 1205 7 is_stmt 0 view .LVU1781
 5218 0048 436B     		ldr	r3, [r0, #52]
 5219              	.LVL297:
1205:Drivers/STM32F4xx_HAL_Driver/Src/stm32f4xx_ll_sdmmc.c ****   {
 5220              		.loc 1 1205 6 view .LVU1782
 5221 004a 5A07     		lsls	r2, r3, #29
 5222              	.LVL298:
1205:Drivers/STM32F4xx_HAL_Driver/Src/stm32f4xx_ll_sdmmc.c ****   {
 5223              		.loc 1 1205 6 view .LVU1783
 5224 004c 3ED4     		bmi	.L496
1211:Drivers/STM32F4xx_HAL_Driver/Src/stm32f4xx_ll_sdmmc.c ****   {
 5225              		.loc 1 1211 8 is_stmt 1 view .LVU1784
1211:Drivers/STM32F4xx_HAL_Driver/Src/stm32f4xx_ll_sdmmc.c ****   {
 5226              		.loc 1 1211 12 is_stmt 0 view .LVU1785
 5227 004e 436B     		ldr	r3, [r0, #52]
1211:Drivers/STM32F4xx_HAL_Driver/Src/stm32f4xx_ll_sdmmc.c ****   {
 5228              		.loc 1 1211 11 view .LVU1786
 5229 0050 DB07     		lsls	r3, r3, #31
 5230 0052 07D4     		bmi	.L497
1220:Drivers/STM32F4xx_HAL_Driver/Src/stm32f4xx_ll_sdmmc.c **** 
 5231              		.loc 1 1220 3 is_stmt 1 view .LVU1787
1223:Drivers/STM32F4xx_HAL_Driver/Src/stm32f4xx_ll_sdmmc.c **** 
ARM GAS  C:\Users\pw705\AppData\Local\Temp\cceieKfF.s 			page 143


 5232              		.loc 1 1223 3 view .LVU1788
 5233 0054 C523     		movs	r3, #197
 5234 0056 8363     		str	r3, [r0, #56]
1226:Drivers/STM32F4xx_HAL_Driver/Src/stm32f4xx_ll_sdmmc.c ****   {
 5235              		.loc 1 1226 3 view .LVU1789
 5236              	.LVL299:
 5237              	.LBB595:
 5238              	.LBI595:
 375:Drivers/STM32F4xx_HAL_Driver/Src/stm32f4xx_ll_sdmmc.c **** {
 5239              		.loc 1 375 9 view .LVU1790
 5240              	.LBB596:
 377:Drivers/STM32F4xx_HAL_Driver/Src/stm32f4xx_ll_sdmmc.c **** }
 5241              		.loc 1 377 3 view .LVU1791
 377:Drivers/STM32F4xx_HAL_Driver/Src/stm32f4xx_ll_sdmmc.c **** }
 5242              		.loc 1 377 25 is_stmt 0 view .LVU1792
 5243 0058 0369     		ldr	r3, [r0, #16]
 5244              	.LVL300:
 377:Drivers/STM32F4xx_HAL_Driver/Src/stm32f4xx_ll_sdmmc.c **** }
 5245              		.loc 1 377 25 view .LVU1793
 5246              	.LBE596:
 5247              	.LBE595:
1226:Drivers/STM32F4xx_HAL_Driver/Src/stm32f4xx_ll_sdmmc.c ****   {
 5248              		.loc 1 1226 6 view .LVU1794
 5249 005a DBB2     		uxtb	r3, r3
 5250 005c 072B     		cmp	r3, #7
 5251 005e 04D0     		beq	.L467
 5252              	.L466:
1215:Drivers/STM32F4xx_HAL_Driver/Src/stm32f4xx_ll_sdmmc.c ****   }
 5253              		.loc 1 1215 12 view .LVU1795
 5254 0060 0120     		movs	r0, #1
 5255              	.LVL301:
1215:Drivers/STM32F4xx_HAL_Driver/Src/stm32f4xx_ll_sdmmc.c ****   }
 5256              		.loc 1 1215 12 view .LVU1796
 5257 0062 7047     		bx	lr
 5258              	.LVL302:
 5259              	.L497:
1213:Drivers/STM32F4xx_HAL_Driver/Src/stm32f4xx_ll_sdmmc.c **** 
 5260              		.loc 1 1213 5 is_stmt 1 view .LVU1797
 5261 0064 0123     		movs	r3, #1
 5262 0066 8363     		str	r3, [r0, #56]
1215:Drivers/STM32F4xx_HAL_Driver/Src/stm32f4xx_ll_sdmmc.c ****   }
 5263              		.loc 1 1215 5 view .LVU1798
1215:Drivers/STM32F4xx_HAL_Driver/Src/stm32f4xx_ll_sdmmc.c ****   }
 5264              		.loc 1 1215 12 is_stmt 0 view .LVU1799
 5265 0068 FAE7     		b	.L466
 5266              	.L467:
 5267              	.LVL303:
 5268              	.LBB597:
 5269              	.LBI597:
1186:Drivers/STM32F4xx_HAL_Driver/Src/stm32f4xx_ll_sdmmc.c **** {
 5270              		.loc 1 1186 10 is_stmt 1 view .LVU1800
 5271              	.LBB598:
1232:Drivers/STM32F4xx_HAL_Driver/Src/stm32f4xx_ll_sdmmc.c **** 
 5272              		.loc 1 1232 3 view .LVU1801
 5273              	.LBB599:
 5274              	.LBI599:
 391:Drivers/STM32F4xx_HAL_Driver/Src/stm32f4xx_ll_sdmmc.c **** {
ARM GAS  C:\Users\pw705\AppData\Local\Temp\cceieKfF.s 			page 144


 5275              		.loc 1 391 10 view .LVU1802
 5276              	.LBB600:
 393:Drivers/STM32F4xx_HAL_Driver/Src/stm32f4xx_ll_sdmmc.c **** 
 5277              		.loc 1 393 3 view .LVU1803
 396:Drivers/STM32F4xx_HAL_Driver/Src/stm32f4xx_ll_sdmmc.c **** 
 5278              		.loc 1 396 3 view .LVU1804
 399:Drivers/STM32F4xx_HAL_Driver/Src/stm32f4xx_ll_sdmmc.c **** 
 5279              		.loc 1 399 3 view .LVU1805
 401:Drivers/STM32F4xx_HAL_Driver/Src/stm32f4xx_ll_sdmmc.c **** }
 5280              		.loc 1 401 3 view .LVU1806
 401:Drivers/STM32F4xx_HAL_Driver/Src/stm32f4xx_ll_sdmmc.c **** }
 5281              		.loc 1 401 11 is_stmt 0 view .LVU1807
 5282 006a 4369     		ldr	r3, [r0, #20]
 5283              	.LVL304:
 401:Drivers/STM32F4xx_HAL_Driver/Src/stm32f4xx_ll_sdmmc.c **** }
 5284              		.loc 1 401 11 view .LVU1808
 5285              	.LBE600:
 5286              	.LBE599:
1234:Drivers/STM32F4xx_HAL_Driver/Src/stm32f4xx_ll_sdmmc.c ****   {
 5287              		.loc 1 1234 3 is_stmt 1 view .LVU1809
1234:Drivers/STM32F4xx_HAL_Driver/Src/stm32f4xx_ll_sdmmc.c ****   {
 5288              		.loc 1 1234 20 is_stmt 0 view .LVU1810
 5289 006c 3248     		ldr	r0, .L498+8
 5290              	.LVL305:
1234:Drivers/STM32F4xx_HAL_Driver/Src/stm32f4xx_ll_sdmmc.c ****   {
 5291              		.loc 1 1234 20 view .LVU1811
 5292 006e 1840     		ands	r0, r0, r3
1234:Drivers/STM32F4xx_HAL_Driver/Src/stm32f4xx_ll_sdmmc.c ****   {
 5293              		.loc 1 1234 6 view .LVU1812
 5294 0070 58B3     		cbz	r0, .L460
1238:Drivers/STM32F4xx_HAL_Driver/Src/stm32f4xx_ll_sdmmc.c ****   {
 5295              		.loc 1 1238 8 is_stmt 1 view .LVU1813
1238:Drivers/STM32F4xx_HAL_Driver/Src/stm32f4xx_ll_sdmmc.c ****   {
 5296              		.loc 1 1238 11 is_stmt 0 view .LVU1814
 5297 0072 002B     		cmp	r3, #0
 5298 0074 2EDB     		blt	.L470
1242:Drivers/STM32F4xx_HAL_Driver/Src/stm32f4xx_ll_sdmmc.c ****   {
 5299              		.loc 1 1242 8 is_stmt 1 view .LVU1815
1242:Drivers/STM32F4xx_HAL_Driver/Src/stm32f4xx_ll_sdmmc.c ****   {
 5300              		.loc 1 1242 11 is_stmt 0 view .LVU1816
 5301 0076 5900     		lsls	r1, r3, #1
 5302 0078 2FD4     		bmi	.L471
1246:Drivers/STM32F4xx_HAL_Driver/Src/stm32f4xx_ll_sdmmc.c ****   {
 5303              		.loc 1 1246 8 is_stmt 1 view .LVU1817
1246:Drivers/STM32F4xx_HAL_Driver/Src/stm32f4xx_ll_sdmmc.c ****   {
 5304              		.loc 1 1246 11 is_stmt 0 view .LVU1818
 5305 007a 9A00     		lsls	r2, r3, #2
 5306 007c 2FD4     		bmi	.L472
1250:Drivers/STM32F4xx_HAL_Driver/Src/stm32f4xx_ll_sdmmc.c ****   {
 5307              		.loc 1 1250 8 is_stmt 1 view .LVU1819
1250:Drivers/STM32F4xx_HAL_Driver/Src/stm32f4xx_ll_sdmmc.c ****   {
 5308              		.loc 1 1250 11 is_stmt 0 view .LVU1820
 5309 007e D900     		lsls	r1, r3, #3
 5310 0080 2FD4     		bmi	.L473
1254:Drivers/STM32F4xx_HAL_Driver/Src/stm32f4xx_ll_sdmmc.c ****   {
 5311              		.loc 1 1254 8 is_stmt 1 view .LVU1821
1254:Drivers/STM32F4xx_HAL_Driver/Src/stm32f4xx_ll_sdmmc.c ****   {
ARM GAS  C:\Users\pw705\AppData\Local\Temp\cceieKfF.s 			page 145


 5312              		.loc 1 1254 11 is_stmt 0 view .LVU1822
 5313 0082 1A01     		lsls	r2, r3, #4
 5314 0084 30D4     		bmi	.L474
1258:Drivers/STM32F4xx_HAL_Driver/Src/stm32f4xx_ll_sdmmc.c ****   {
 5315              		.loc 1 1258 8 is_stmt 1 view .LVU1823
1258:Drivers/STM32F4xx_HAL_Driver/Src/stm32f4xx_ll_sdmmc.c ****   {
 5316              		.loc 1 1258 11 is_stmt 0 view .LVU1824
 5317 0086 5901     		lsls	r1, r3, #5
 5318 0088 31D4     		bmi	.L475
1262:Drivers/STM32F4xx_HAL_Driver/Src/stm32f4xx_ll_sdmmc.c ****   {
 5319              		.loc 1 1262 8 is_stmt 1 view .LVU1825
1262:Drivers/STM32F4xx_HAL_Driver/Src/stm32f4xx_ll_sdmmc.c ****   {
 5320              		.loc 1 1262 11 is_stmt 0 view .LVU1826
 5321 008a DA01     		lsls	r2, r3, #7
 5322 008c 32D4     		bmi	.L476
1266:Drivers/STM32F4xx_HAL_Driver/Src/stm32f4xx_ll_sdmmc.c ****   {
 5323              		.loc 1 1266 8 is_stmt 1 view .LVU1827
1266:Drivers/STM32F4xx_HAL_Driver/Src/stm32f4xx_ll_sdmmc.c ****   {
 5324              		.loc 1 1266 11 is_stmt 0 view .LVU1828
 5325 008e 1902     		lsls	r1, r3, #8
 5326 0090 33D4     		bmi	.L477
1270:Drivers/STM32F4xx_HAL_Driver/Src/stm32f4xx_ll_sdmmc.c ****   {
 5327              		.loc 1 1270 8 is_stmt 1 view .LVU1829
1270:Drivers/STM32F4xx_HAL_Driver/Src/stm32f4xx_ll_sdmmc.c ****   {
 5328              		.loc 1 1270 11 is_stmt 0 view .LVU1830
 5329 0092 5A02     		lsls	r2, r3, #9
 5330 0094 34D4     		bmi	.L478
1274:Drivers/STM32F4xx_HAL_Driver/Src/stm32f4xx_ll_sdmmc.c ****   {
 5331              		.loc 1 1274 8 is_stmt 1 view .LVU1831
1274:Drivers/STM32F4xx_HAL_Driver/Src/stm32f4xx_ll_sdmmc.c ****   {
 5332              		.loc 1 1274 11 is_stmt 0 view .LVU1832
 5333 0096 9902     		lsls	r1, r3, #10
 5334 0098 3ED4     		bmi	.L479
1278:Drivers/STM32F4xx_HAL_Driver/Src/stm32f4xx_ll_sdmmc.c ****   {
 5335              		.loc 1 1278 8 is_stmt 1 view .LVU1833
1278:Drivers/STM32F4xx_HAL_Driver/Src/stm32f4xx_ll_sdmmc.c ****   {
 5336              		.loc 1 1278 11 is_stmt 0 view .LVU1834
 5337 009a DA02     		lsls	r2, r3, #11
 5338 009c 39D4     		bmi	.L480
1282:Drivers/STM32F4xx_HAL_Driver/Src/stm32f4xx_ll_sdmmc.c ****   {
 5339              		.loc 1 1282 8 is_stmt 1 view .LVU1835
1282:Drivers/STM32F4xx_HAL_Driver/Src/stm32f4xx_ll_sdmmc.c ****   {
 5340              		.loc 1 1282 11 is_stmt 0 view .LVU1836
 5341 009e 5903     		lsls	r1, r3, #13
 5342 00a0 34D4     		bmi	.L481
1286:Drivers/STM32F4xx_HAL_Driver/Src/stm32f4xx_ll_sdmmc.c ****   {
 5343              		.loc 1 1286 8 is_stmt 1 view .LVU1837
1286:Drivers/STM32F4xx_HAL_Driver/Src/stm32f4xx_ll_sdmmc.c ****   {
 5344              		.loc 1 1286 11 is_stmt 0 view .LVU1838
 5345 00a2 9A03     		lsls	r2, r3, #14
 5346 00a4 2FD4     		bmi	.L482
1290:Drivers/STM32F4xx_HAL_Driver/Src/stm32f4xx_ll_sdmmc.c ****   {
 5347              		.loc 1 1290 8 is_stmt 1 view .LVU1839
1290:Drivers/STM32F4xx_HAL_Driver/Src/stm32f4xx_ll_sdmmc.c ****   {
 5348              		.loc 1 1290 11 is_stmt 0 view .LVU1840
 5349 00a6 D903     		lsls	r1, r3, #15
 5350 00a8 3FD4     		bmi	.L483
ARM GAS  C:\Users\pw705\AppData\Local\Temp\cceieKfF.s 			page 146


1294:Drivers/STM32F4xx_HAL_Driver/Src/stm32f4xx_ll_sdmmc.c ****   {
 5351              		.loc 1 1294 8 is_stmt 1 view .LVU1841
1294:Drivers/STM32F4xx_HAL_Driver/Src/stm32f4xx_ll_sdmmc.c ****   {
 5352              		.loc 1 1294 11 is_stmt 0 view .LVU1842
 5353 00aa 1A04     		lsls	r2, r3, #16
 5354 00ac 3AD4     		bmi	.L484
1298:Drivers/STM32F4xx_HAL_Driver/Src/stm32f4xx_ll_sdmmc.c ****   {
 5355              		.loc 1 1298 8 is_stmt 1 view .LVU1843
1298:Drivers/STM32F4xx_HAL_Driver/Src/stm32f4xx_ll_sdmmc.c ****   {
 5356              		.loc 1 1298 11 is_stmt 0 view .LVU1844
 5357 00ae 5904     		lsls	r1, r3, #17
 5358 00b0 35D4     		bmi	.L485
1302:Drivers/STM32F4xx_HAL_Driver/Src/stm32f4xx_ll_sdmmc.c ****   {
 5359              		.loc 1 1302 8 is_stmt 1 view .LVU1845
1302:Drivers/STM32F4xx_HAL_Driver/Src/stm32f4xx_ll_sdmmc.c ****   {
 5360              		.loc 1 1302 11 is_stmt 0 view .LVU1846
 5361 00b2 9A04     		lsls	r2, r3, #18
 5362 00b4 07D4     		bmi	.L486
1306:Drivers/STM32F4xx_HAL_Driver/Src/stm32f4xx_ll_sdmmc.c ****   {
 5363              		.loc 1 1306 8 is_stmt 1 view .LVU1847
 5364              		.loc 1 1308 12 is_stmt 0 view .LVU1848
 5365 00b6 13F0080F 		tst	r3, #8
 5366 00ba 0CBF     		ite	eq
 5367 00bc 4FF48030 		moveq	r0, #65536
 5368 00c0 4FF40000 		movne	r0, #8388608
 5369 00c4 7047     		bx	lr
 5370              	.L486:
1304:Drivers/STM32F4xx_HAL_Driver/Src/stm32f4xx_ll_sdmmc.c ****   }
 5371              		.loc 1 1304 12 view .LVU1849
 5372 00c6 4FF48000 		mov	r0, #4194304
 5373              	.L460:
1304:Drivers/STM32F4xx_HAL_Driver/Src/stm32f4xx_ll_sdmmc.c ****   }
 5374              		.loc 1 1304 12 view .LVU1850
 5375              	.LBE598:
 5376              	.LBE597:
 5377              	.LBE607:
 5378              	.LBE618:
 786:Drivers/STM32F4xx_HAL_Driver/Src/stm32f4xx_ll_sdmmc.c **** 
 5379              		.loc 1 786 1 view .LVU1851
 5380 00ca 7047     		bx	lr
 5381              	.LVL306:
 5382              	.L496:
 5383              	.LBB619:
 5384              	.LBB608:
1207:Drivers/STM32F4xx_HAL_Driver/Src/stm32f4xx_ll_sdmmc.c **** 
 5385              		.loc 1 1207 5 is_stmt 1 view .LVU1852
 5386 00cc 0423     		movs	r3, #4
 5387 00ce 8363     		str	r3, [r0, #56]
1209:Drivers/STM32F4xx_HAL_Driver/Src/stm32f4xx_ll_sdmmc.c ****   }
 5388              		.loc 1 1209 5 view .LVU1853
1209:Drivers/STM32F4xx_HAL_Driver/Src/stm32f4xx_ll_sdmmc.c ****   }
 5389              		.loc 1 1209 12 is_stmt 0 view .LVU1854
 5390 00d0 1846     		mov	r0, r3
 5391              	.LVL307:
1209:Drivers/STM32F4xx_HAL_Driver/Src/stm32f4xx_ll_sdmmc.c ****   }
 5392              		.loc 1 1209 12 view .LVU1855
 5393 00d2 7047     		bx	lr
ARM GAS  C:\Users\pw705\AppData\Local\Temp\cceieKfF.s 			page 147


 5394              	.LVL308:
 5395              	.L470:
 5396              	.LBB602:
 5397              	.LBB601:
1240:Drivers/STM32F4xx_HAL_Driver/Src/stm32f4xx_ll_sdmmc.c ****   }
 5398              		.loc 1 1240 12 view .LVU1856
 5399 00d4 4FF00070 		mov	r0, #33554432
 5400 00d8 7047     		bx	lr
 5401              	.L471:
1244:Drivers/STM32F4xx_HAL_Driver/Src/stm32f4xx_ll_sdmmc.c ****   }
 5402              		.loc 1 1244 12 view .LVU1857
 5403 00da 4020     		movs	r0, #64
 5404 00dc 7047     		bx	lr
 5405              	.L472:
1248:Drivers/STM32F4xx_HAL_Driver/Src/stm32f4xx_ll_sdmmc.c ****   }
 5406              		.loc 1 1248 12 view .LVU1858
 5407 00de 8020     		movs	r0, #128
 5408 00e0 7047     		bx	lr
 5409              	.L473:
1252:Drivers/STM32F4xx_HAL_Driver/Src/stm32f4xx_ll_sdmmc.c ****   }
 5410              		.loc 1 1252 12 view .LVU1859
 5411 00e2 4FF48070 		mov	r0, #256
 5412 00e6 7047     		bx	lr
 5413              	.L474:
1256:Drivers/STM32F4xx_HAL_Driver/Src/stm32f4xx_ll_sdmmc.c ****   }
 5414              		.loc 1 1256 12 view .LVU1860
 5415 00e8 4FF40070 		mov	r0, #512
 5416 00ec 7047     		bx	lr
 5417              	.L475:
1260:Drivers/STM32F4xx_HAL_Driver/Src/stm32f4xx_ll_sdmmc.c ****   }
 5418              		.loc 1 1260 12 view .LVU1861
 5419 00ee 4FF48060 		mov	r0, #1024
 5420 00f2 7047     		bx	lr
 5421              	.L476:
1264:Drivers/STM32F4xx_HAL_Driver/Src/stm32f4xx_ll_sdmmc.c ****   }
 5422              		.loc 1 1264 12 view .LVU1862
 5423 00f4 4FF40060 		mov	r0, #2048
 5424 00f8 7047     		bx	lr
 5425              	.L477:
1268:Drivers/STM32F4xx_HAL_Driver/Src/stm32f4xx_ll_sdmmc.c ****   }
 5426              		.loc 1 1268 12 view .LVU1863
 5427 00fa 4FF48050 		mov	r0, #4096
 5428 00fe 7047     		bx	lr
 5429              	.L478:
1272:Drivers/STM32F4xx_HAL_Driver/Src/stm32f4xx_ll_sdmmc.c ****   }
 5430              		.loc 1 1272 12 view .LVU1864
 5431 0100 4FF40050 		mov	r0, #8192
 5432 0104 7047     		bx	lr
 5433              	.L482:
1288:Drivers/STM32F4xx_HAL_Driver/Src/stm32f4xx_ll_sdmmc.c ****   }
 5434              		.loc 1 1288 12 view .LVU1865
 5435 0106 4FF48020 		mov	r0, #262144
 5436 010a 7047     		bx	lr
 5437              	.L481:
1284:Drivers/STM32F4xx_HAL_Driver/Src/stm32f4xx_ll_sdmmc.c ****   }
 5438              		.loc 1 1284 12 view .LVU1866
 5439 010c 4FF40030 		mov	r0, #131072
ARM GAS  C:\Users\pw705\AppData\Local\Temp\cceieKfF.s 			page 148


 5440 0110 7047     		bx	lr
 5441              	.L480:
1280:Drivers/STM32F4xx_HAL_Driver/Src/stm32f4xx_ll_sdmmc.c ****   }
 5442              		.loc 1 1280 12 view .LVU1867
 5443 0112 4FF40040 		mov	r0, #32768
 5444 0116 7047     		bx	lr
 5445              	.L479:
1276:Drivers/STM32F4xx_HAL_Driver/Src/stm32f4xx_ll_sdmmc.c ****   }
 5446              		.loc 1 1276 12 view .LVU1868
 5447 0118 4FF48040 		mov	r0, #16384
 5448 011c 7047     		bx	lr
 5449              	.L485:
1300:Drivers/STM32F4xx_HAL_Driver/Src/stm32f4xx_ll_sdmmc.c ****   }
 5450              		.loc 1 1300 12 view .LVU1869
 5451 011e 4FF40010 		mov	r0, #2097152
 5452 0122 7047     		bx	lr
 5453              	.L484:
1296:Drivers/STM32F4xx_HAL_Driver/Src/stm32f4xx_ll_sdmmc.c ****   }
 5454              		.loc 1 1296 12 view .LVU1870
 5455 0124 4FF48010 		mov	r0, #1048576
 5456 0128 7047     		bx	lr
 5457              	.L483:
1292:Drivers/STM32F4xx_HAL_Driver/Src/stm32f4xx_ll_sdmmc.c ****   }
 5458              		.loc 1 1292 12 view .LVU1871
 5459 012a 4FF40020 		mov	r0, #524288
 5460 012e 7047     		bx	lr
 5461              	.L499:
 5462              		.align	2
 5463              	.L498:
 5464 0130 00000000 		.word	SystemCoreClock
 5465 0134 D34D6210 		.word	274877907
 5466 0138 08E0FFFD 		.word	-33562616
 5467              	.LBE601:
 5468              	.LBE602:
 5469              	.LBE608:
 5470              	.LBE619:
 5471              		.cfi_endproc
 5472              	.LFE154:
 5474              		.section	.text.SDMMC_CmdGoIdleState,"ax",%progbits
 5475              		.align	1
 5476              		.p2align 2,,3
 5477              		.global	SDMMC_CmdGoIdleState
 5478              		.syntax unified
 5479              		.thumb
 5480              		.thumb_func
 5482              	SDMMC_CmdGoIdleState:
 5483              	.LVL309:
 5484              	.LFB155:
 794:Drivers/STM32F4xx_HAL_Driver/Src/stm32f4xx_ll_sdmmc.c ****   SDIO_CmdInitTypeDef sdmmc_cmdinit;
 5485              		.loc 1 794 1 is_stmt 1 view -0
 5486              		.cfi_startproc
 5487              		@ args = 0, pretend = 0, frame = 0
 5488              		@ frame_needed = 0, uses_anonymous_args = 0
 5489              		@ link register save eliminated.
 795:Drivers/STM32F4xx_HAL_Driver/Src/stm32f4xx_ll_sdmmc.c ****   uint32_t errorstate;
 5490              		.loc 1 795 3 view .LVU1873
 796:Drivers/STM32F4xx_HAL_Driver/Src/stm32f4xx_ll_sdmmc.c **** 
ARM GAS  C:\Users\pw705\AppData\Local\Temp\cceieKfF.s 			page 149


 5491              		.loc 1 796 3 view .LVU1874
 798:Drivers/STM32F4xx_HAL_Driver/Src/stm32f4xx_ll_sdmmc.c ****   sdmmc_cmdinit.CmdIndex = SDMMC_CMD_GO_IDLE_STATE;
 5492              		.loc 1 798 3 view .LVU1875
 799:Drivers/STM32F4xx_HAL_Driver/Src/stm32f4xx_ll_sdmmc.c ****   sdmmc_cmdinit.Response = SDIO_RESPONSE_NO;
 5493              		.loc 1 799 3 view .LVU1876
 800:Drivers/STM32F4xx_HAL_Driver/Src/stm32f4xx_ll_sdmmc.c ****   sdmmc_cmdinit.WaitForInterrupt = SDIO_WAIT_NO;
 5494              		.loc 1 800 3 view .LVU1877
 801:Drivers/STM32F4xx_HAL_Driver/Src/stm32f4xx_ll_sdmmc.c ****   sdmmc_cmdinit.CPSM = SDIO_CPSM_ENABLE;
 5495              		.loc 1 801 3 view .LVU1878
 802:Drivers/STM32F4xx_HAL_Driver/Src/stm32f4xx_ll_sdmmc.c ****   (void)SDIO_SendCommand(SDIOx, &sdmmc_cmdinit);
 5496              		.loc 1 802 3 view .LVU1879
 803:Drivers/STM32F4xx_HAL_Driver/Src/stm32f4xx_ll_sdmmc.c **** 
 5497              		.loc 1 803 3 view .LVU1880
 5498              	.LBB620:
 5499              	.LBI620:
 345:Drivers/STM32F4xx_HAL_Driver/Src/stm32f4xx_ll_sdmmc.c **** {
 5500              		.loc 1 345 19 view .LVU1881
 5501              	.LBB621:
 347:Drivers/STM32F4xx_HAL_Driver/Src/stm32f4xx_ll_sdmmc.c **** 
 5502              		.loc 1 347 3 view .LVU1882
 350:Drivers/STM32F4xx_HAL_Driver/Src/stm32f4xx_ll_sdmmc.c ****   assert_param(IS_SDIO_RESPONSE(Command->Response));
 5503              		.loc 1 350 3 view .LVU1883
 351:Drivers/STM32F4xx_HAL_Driver/Src/stm32f4xx_ll_sdmmc.c ****   assert_param(IS_SDIO_WAIT(Command->WaitForInterrupt));
 5504              		.loc 1 351 3 view .LVU1884
 352:Drivers/STM32F4xx_HAL_Driver/Src/stm32f4xx_ll_sdmmc.c ****   assert_param(IS_SDIO_CPSM(Command->CPSM));
 5505              		.loc 1 352 3 view .LVU1885
 353:Drivers/STM32F4xx_HAL_Driver/Src/stm32f4xx_ll_sdmmc.c **** 
 5506              		.loc 1 353 3 view .LVU1886
 356:Drivers/STM32F4xx_HAL_Driver/Src/stm32f4xx_ll_sdmmc.c **** 
 5507              		.loc 1 356 3 view .LVU1887
 356:Drivers/STM32F4xx_HAL_Driver/Src/stm32f4xx_ll_sdmmc.c **** 
 5508              		.loc 1 356 14 is_stmt 0 view .LVU1888
 5509 0000 0023     		movs	r3, #0
 5510 0002 8360     		str	r3, [r0, #8]
 359:Drivers/STM32F4xx_HAL_Driver/Src/stm32f4xx_ll_sdmmc.c ****                        Command->Response |
 5511              		.loc 1 359 3 is_stmt 1 view .LVU1889
 5512              	.LVL310:
 365:Drivers/STM32F4xx_HAL_Driver/Src/stm32f4xx_ll_sdmmc.c **** 
 5513              		.loc 1 365 3 view .LVU1890
 5514              	.LBE621:
 5515              	.LBE620:
 5516              	.LBB626:
 5517              	.LBB627:
1309:Drivers/STM32F4xx_HAL_Driver/Src/stm32f4xx_ll_sdmmc.c ****   }
1310:Drivers/STM32F4xx_HAL_Driver/Src/stm32f4xx_ll_sdmmc.c ****   else
1311:Drivers/STM32F4xx_HAL_Driver/Src/stm32f4xx_ll_sdmmc.c ****   {
1312:Drivers/STM32F4xx_HAL_Driver/Src/stm32f4xx_ll_sdmmc.c ****     return SDMMC_ERROR_GENERAL_UNKNOWN_ERR;
1313:Drivers/STM32F4xx_HAL_Driver/Src/stm32f4xx_ll_sdmmc.c ****   }
1314:Drivers/STM32F4xx_HAL_Driver/Src/stm32f4xx_ll_sdmmc.c **** }
1315:Drivers/STM32F4xx_HAL_Driver/Src/stm32f4xx_ll_sdmmc.c **** 
1316:Drivers/STM32F4xx_HAL_Driver/Src/stm32f4xx_ll_sdmmc.c **** /**
1317:Drivers/STM32F4xx_HAL_Driver/Src/stm32f4xx_ll_sdmmc.c ****  * @brief  Checks for error conditions for R2 (CID or CSD) response.
1318:Drivers/STM32F4xx_HAL_Driver/Src/stm32f4xx_ll_sdmmc.c ****  * @param  SDIOx Pointer to SDMMC register base
1319:Drivers/STM32F4xx_HAL_Driver/Src/stm32f4xx_ll_sdmmc.c ****  * @retval SD Card error state
1320:Drivers/STM32F4xx_HAL_Driver/Src/stm32f4xx_ll_sdmmc.c ****  */
1321:Drivers/STM32F4xx_HAL_Driver/Src/stm32f4xx_ll_sdmmc.c **** uint32_t SDMMC_GetCmdResp2(SDIO_TypeDef *SDIOx)
1322:Drivers/STM32F4xx_HAL_Driver/Src/stm32f4xx_ll_sdmmc.c **** {
ARM GAS  C:\Users\pw705\AppData\Local\Temp\cceieKfF.s 			page 150


1323:Drivers/STM32F4xx_HAL_Driver/Src/stm32f4xx_ll_sdmmc.c ****   uint32_t sta_reg;
1324:Drivers/STM32F4xx_HAL_Driver/Src/stm32f4xx_ll_sdmmc.c ****   /* 8 is the number of required instructions cycles for the below loop statement.
1325:Drivers/STM32F4xx_HAL_Driver/Src/stm32f4xx_ll_sdmmc.c ****   The SDIO_CMDTIMEOUT is expressed in ms */
1326:Drivers/STM32F4xx_HAL_Driver/Src/stm32f4xx_ll_sdmmc.c ****   uint32_t count = SDIO_CMDTIMEOUT * (SystemCoreClock / 8U / 1000U);
1327:Drivers/STM32F4xx_HAL_Driver/Src/stm32f4xx_ll_sdmmc.c **** 
1328:Drivers/STM32F4xx_HAL_Driver/Src/stm32f4xx_ll_sdmmc.c ****   do
1329:Drivers/STM32F4xx_HAL_Driver/Src/stm32f4xx_ll_sdmmc.c ****   {
1330:Drivers/STM32F4xx_HAL_Driver/Src/stm32f4xx_ll_sdmmc.c ****     if (count-- == 0U)
1331:Drivers/STM32F4xx_HAL_Driver/Src/stm32f4xx_ll_sdmmc.c ****     {
1332:Drivers/STM32F4xx_HAL_Driver/Src/stm32f4xx_ll_sdmmc.c ****       return SDMMC_ERROR_TIMEOUT;
1333:Drivers/STM32F4xx_HAL_Driver/Src/stm32f4xx_ll_sdmmc.c ****     }
1334:Drivers/STM32F4xx_HAL_Driver/Src/stm32f4xx_ll_sdmmc.c ****     sta_reg = SDIOx->STA;
1335:Drivers/STM32F4xx_HAL_Driver/Src/stm32f4xx_ll_sdmmc.c ****   } while (((sta_reg & (SDIO_FLAG_CCRCFAIL | SDIO_FLAG_CMDREND | SDIO_FLAG_CTIMEOUT)) == 0U) ||
1336:Drivers/STM32F4xx_HAL_Driver/Src/stm32f4xx_ll_sdmmc.c ****            ((sta_reg & SDIO_FLAG_CMDACT) != 0U));
1337:Drivers/STM32F4xx_HAL_Driver/Src/stm32f4xx_ll_sdmmc.c **** 
1338:Drivers/STM32F4xx_HAL_Driver/Src/stm32f4xx_ll_sdmmc.c ****   if (__SDIO_GET_FLAG(SDIOx, SDIO_FLAG_CTIMEOUT))
1339:Drivers/STM32F4xx_HAL_Driver/Src/stm32f4xx_ll_sdmmc.c ****   {
1340:Drivers/STM32F4xx_HAL_Driver/Src/stm32f4xx_ll_sdmmc.c ****     __SDIO_CLEAR_FLAG(SDIOx, SDIO_FLAG_CTIMEOUT);
1341:Drivers/STM32F4xx_HAL_Driver/Src/stm32f4xx_ll_sdmmc.c **** 
1342:Drivers/STM32F4xx_HAL_Driver/Src/stm32f4xx_ll_sdmmc.c ****     return SDMMC_ERROR_CMD_RSP_TIMEOUT;
1343:Drivers/STM32F4xx_HAL_Driver/Src/stm32f4xx_ll_sdmmc.c ****   }
1344:Drivers/STM32F4xx_HAL_Driver/Src/stm32f4xx_ll_sdmmc.c ****   else if (__SDIO_GET_FLAG(SDIOx, SDIO_FLAG_CCRCFAIL))
1345:Drivers/STM32F4xx_HAL_Driver/Src/stm32f4xx_ll_sdmmc.c ****   {
1346:Drivers/STM32F4xx_HAL_Driver/Src/stm32f4xx_ll_sdmmc.c ****     __SDIO_CLEAR_FLAG(SDIOx, SDIO_FLAG_CCRCFAIL);
1347:Drivers/STM32F4xx_HAL_Driver/Src/stm32f4xx_ll_sdmmc.c **** 
1348:Drivers/STM32F4xx_HAL_Driver/Src/stm32f4xx_ll_sdmmc.c ****     return SDMMC_ERROR_CMD_CRC_FAIL;
1349:Drivers/STM32F4xx_HAL_Driver/Src/stm32f4xx_ll_sdmmc.c ****   }
1350:Drivers/STM32F4xx_HAL_Driver/Src/stm32f4xx_ll_sdmmc.c ****   else
1351:Drivers/STM32F4xx_HAL_Driver/Src/stm32f4xx_ll_sdmmc.c ****   {
1352:Drivers/STM32F4xx_HAL_Driver/Src/stm32f4xx_ll_sdmmc.c ****     /* No error flag set */
1353:Drivers/STM32F4xx_HAL_Driver/Src/stm32f4xx_ll_sdmmc.c ****     /* Clear all the static flags */
1354:Drivers/STM32F4xx_HAL_Driver/Src/stm32f4xx_ll_sdmmc.c ****     __SDIO_CLEAR_FLAG(SDIOx, SDIO_STATIC_CMD_FLAGS);
1355:Drivers/STM32F4xx_HAL_Driver/Src/stm32f4xx_ll_sdmmc.c ****   }
1356:Drivers/STM32F4xx_HAL_Driver/Src/stm32f4xx_ll_sdmmc.c **** 
1357:Drivers/STM32F4xx_HAL_Driver/Src/stm32f4xx_ll_sdmmc.c ****   return SDMMC_ERROR_NONE;
1358:Drivers/STM32F4xx_HAL_Driver/Src/stm32f4xx_ll_sdmmc.c **** }
1359:Drivers/STM32F4xx_HAL_Driver/Src/stm32f4xx_ll_sdmmc.c **** 
1360:Drivers/STM32F4xx_HAL_Driver/Src/stm32f4xx_ll_sdmmc.c **** /**
1361:Drivers/STM32F4xx_HAL_Driver/Src/stm32f4xx_ll_sdmmc.c ****  * @brief  Checks for error conditions for R3 (OCR) response.
1362:Drivers/STM32F4xx_HAL_Driver/Src/stm32f4xx_ll_sdmmc.c ****  * @param  SDIOx Pointer to SDMMC register base
1363:Drivers/STM32F4xx_HAL_Driver/Src/stm32f4xx_ll_sdmmc.c ****  * @retval SD Card error state
1364:Drivers/STM32F4xx_HAL_Driver/Src/stm32f4xx_ll_sdmmc.c ****  */
1365:Drivers/STM32F4xx_HAL_Driver/Src/stm32f4xx_ll_sdmmc.c **** uint32_t SDMMC_GetCmdResp3(SDIO_TypeDef *SDIOx)
1366:Drivers/STM32F4xx_HAL_Driver/Src/stm32f4xx_ll_sdmmc.c **** {
1367:Drivers/STM32F4xx_HAL_Driver/Src/stm32f4xx_ll_sdmmc.c ****   uint32_t sta_reg;
1368:Drivers/STM32F4xx_HAL_Driver/Src/stm32f4xx_ll_sdmmc.c ****   /* 8 is the number of required instructions cycles for the below loop statement.
1369:Drivers/STM32F4xx_HAL_Driver/Src/stm32f4xx_ll_sdmmc.c ****   The SDIO_CMDTIMEOUT is expressed in ms */
1370:Drivers/STM32F4xx_HAL_Driver/Src/stm32f4xx_ll_sdmmc.c ****   uint32_t count = SDIO_CMDTIMEOUT * (SystemCoreClock / 8U / 1000U);
1371:Drivers/STM32F4xx_HAL_Driver/Src/stm32f4xx_ll_sdmmc.c **** 
1372:Drivers/STM32F4xx_HAL_Driver/Src/stm32f4xx_ll_sdmmc.c ****   do
1373:Drivers/STM32F4xx_HAL_Driver/Src/stm32f4xx_ll_sdmmc.c ****   {
1374:Drivers/STM32F4xx_HAL_Driver/Src/stm32f4xx_ll_sdmmc.c ****     if (count-- == 0U)
1375:Drivers/STM32F4xx_HAL_Driver/Src/stm32f4xx_ll_sdmmc.c ****     {
1376:Drivers/STM32F4xx_HAL_Driver/Src/stm32f4xx_ll_sdmmc.c ****       return SDMMC_ERROR_TIMEOUT;
1377:Drivers/STM32F4xx_HAL_Driver/Src/stm32f4xx_ll_sdmmc.c ****     }
1378:Drivers/STM32F4xx_HAL_Driver/Src/stm32f4xx_ll_sdmmc.c ****     sta_reg = SDIOx->STA;
1379:Drivers/STM32F4xx_HAL_Driver/Src/stm32f4xx_ll_sdmmc.c ****   } while (((sta_reg & (SDIO_FLAG_CCRCFAIL | SDIO_FLAG_CMDREND | SDIO_FLAG_CTIMEOUT)) == 0U) ||
ARM GAS  C:\Users\pw705\AppData\Local\Temp\cceieKfF.s 			page 151


1380:Drivers/STM32F4xx_HAL_Driver/Src/stm32f4xx_ll_sdmmc.c ****            ((sta_reg & SDIO_FLAG_CMDACT) != 0U));
1381:Drivers/STM32F4xx_HAL_Driver/Src/stm32f4xx_ll_sdmmc.c **** 
1382:Drivers/STM32F4xx_HAL_Driver/Src/stm32f4xx_ll_sdmmc.c ****   if (__SDIO_GET_FLAG(SDIOx, SDIO_FLAG_CTIMEOUT))
1383:Drivers/STM32F4xx_HAL_Driver/Src/stm32f4xx_ll_sdmmc.c ****   {
1384:Drivers/STM32F4xx_HAL_Driver/Src/stm32f4xx_ll_sdmmc.c ****     __SDIO_CLEAR_FLAG(SDIOx, SDIO_FLAG_CTIMEOUT);
1385:Drivers/STM32F4xx_HAL_Driver/Src/stm32f4xx_ll_sdmmc.c **** 
1386:Drivers/STM32F4xx_HAL_Driver/Src/stm32f4xx_ll_sdmmc.c ****     return SDMMC_ERROR_CMD_RSP_TIMEOUT;
1387:Drivers/STM32F4xx_HAL_Driver/Src/stm32f4xx_ll_sdmmc.c ****   }
1388:Drivers/STM32F4xx_HAL_Driver/Src/stm32f4xx_ll_sdmmc.c ****   else
1389:Drivers/STM32F4xx_HAL_Driver/Src/stm32f4xx_ll_sdmmc.c ****   {
1390:Drivers/STM32F4xx_HAL_Driver/Src/stm32f4xx_ll_sdmmc.c ****     /* Clear all the static flags */
1391:Drivers/STM32F4xx_HAL_Driver/Src/stm32f4xx_ll_sdmmc.c ****     __SDIO_CLEAR_FLAG(SDIOx, SDIO_STATIC_CMD_FLAGS);
1392:Drivers/STM32F4xx_HAL_Driver/Src/stm32f4xx_ll_sdmmc.c ****   }
1393:Drivers/STM32F4xx_HAL_Driver/Src/stm32f4xx_ll_sdmmc.c **** 
1394:Drivers/STM32F4xx_HAL_Driver/Src/stm32f4xx_ll_sdmmc.c ****   return SDMMC_ERROR_NONE;
1395:Drivers/STM32F4xx_HAL_Driver/Src/stm32f4xx_ll_sdmmc.c **** }
1396:Drivers/STM32F4xx_HAL_Driver/Src/stm32f4xx_ll_sdmmc.c **** 
1397:Drivers/STM32F4xx_HAL_Driver/Src/stm32f4xx_ll_sdmmc.c **** /**
1398:Drivers/STM32F4xx_HAL_Driver/Src/stm32f4xx_ll_sdmmc.c ****  * @brief  Checks for error conditions for R6 (RCA) response.
1399:Drivers/STM32F4xx_HAL_Driver/Src/stm32f4xx_ll_sdmmc.c ****  * @param  SDIOx Pointer to SDMMC register base
1400:Drivers/STM32F4xx_HAL_Driver/Src/stm32f4xx_ll_sdmmc.c ****  * @param  SD_CMD: The sent command index
1401:Drivers/STM32F4xx_HAL_Driver/Src/stm32f4xx_ll_sdmmc.c ****  * @param  pRCA: Pointer to the variable that will contain the SD card relative
1402:Drivers/STM32F4xx_HAL_Driver/Src/stm32f4xx_ll_sdmmc.c ****  *         address RCA
1403:Drivers/STM32F4xx_HAL_Driver/Src/stm32f4xx_ll_sdmmc.c ****  * @retval SD Card error state
1404:Drivers/STM32F4xx_HAL_Driver/Src/stm32f4xx_ll_sdmmc.c ****  */
1405:Drivers/STM32F4xx_HAL_Driver/Src/stm32f4xx_ll_sdmmc.c **** uint32_t SDMMC_GetCmdResp6(SDIO_TypeDef *SDIOx, uint8_t SD_CMD, uint16_t *pRCA)
1406:Drivers/STM32F4xx_HAL_Driver/Src/stm32f4xx_ll_sdmmc.c **** {
1407:Drivers/STM32F4xx_HAL_Driver/Src/stm32f4xx_ll_sdmmc.c ****   uint32_t response_r1;
1408:Drivers/STM32F4xx_HAL_Driver/Src/stm32f4xx_ll_sdmmc.c ****   uint32_t sta_reg;
1409:Drivers/STM32F4xx_HAL_Driver/Src/stm32f4xx_ll_sdmmc.c **** 
1410:Drivers/STM32F4xx_HAL_Driver/Src/stm32f4xx_ll_sdmmc.c ****   /* 8 is the number of required instructions cycles for the below loop statement.
1411:Drivers/STM32F4xx_HAL_Driver/Src/stm32f4xx_ll_sdmmc.c ****   The SDIO_CMDTIMEOUT is expressed in ms */
1412:Drivers/STM32F4xx_HAL_Driver/Src/stm32f4xx_ll_sdmmc.c ****   uint32_t count = SDIO_CMDTIMEOUT * (SystemCoreClock / 8U / 1000U);
1413:Drivers/STM32F4xx_HAL_Driver/Src/stm32f4xx_ll_sdmmc.c **** 
1414:Drivers/STM32F4xx_HAL_Driver/Src/stm32f4xx_ll_sdmmc.c ****   do
1415:Drivers/STM32F4xx_HAL_Driver/Src/stm32f4xx_ll_sdmmc.c ****   {
1416:Drivers/STM32F4xx_HAL_Driver/Src/stm32f4xx_ll_sdmmc.c ****     if (count-- == 0U)
1417:Drivers/STM32F4xx_HAL_Driver/Src/stm32f4xx_ll_sdmmc.c ****     {
1418:Drivers/STM32F4xx_HAL_Driver/Src/stm32f4xx_ll_sdmmc.c ****       return SDMMC_ERROR_TIMEOUT;
1419:Drivers/STM32F4xx_HAL_Driver/Src/stm32f4xx_ll_sdmmc.c ****     }
1420:Drivers/STM32F4xx_HAL_Driver/Src/stm32f4xx_ll_sdmmc.c ****     sta_reg = SDIOx->STA;
1421:Drivers/STM32F4xx_HAL_Driver/Src/stm32f4xx_ll_sdmmc.c ****   } while (((sta_reg & (SDIO_FLAG_CCRCFAIL | SDIO_FLAG_CMDREND | SDIO_FLAG_CTIMEOUT)) == 0U) ||
1422:Drivers/STM32F4xx_HAL_Driver/Src/stm32f4xx_ll_sdmmc.c ****            ((sta_reg & SDIO_FLAG_CMDACT) != 0U));
1423:Drivers/STM32F4xx_HAL_Driver/Src/stm32f4xx_ll_sdmmc.c **** 
1424:Drivers/STM32F4xx_HAL_Driver/Src/stm32f4xx_ll_sdmmc.c ****   if (__SDIO_GET_FLAG(SDIOx, SDIO_FLAG_CTIMEOUT))
1425:Drivers/STM32F4xx_HAL_Driver/Src/stm32f4xx_ll_sdmmc.c ****   {
1426:Drivers/STM32F4xx_HAL_Driver/Src/stm32f4xx_ll_sdmmc.c ****     __SDIO_CLEAR_FLAG(SDIOx, SDIO_FLAG_CTIMEOUT);
1427:Drivers/STM32F4xx_HAL_Driver/Src/stm32f4xx_ll_sdmmc.c **** 
1428:Drivers/STM32F4xx_HAL_Driver/Src/stm32f4xx_ll_sdmmc.c ****     return SDMMC_ERROR_CMD_RSP_TIMEOUT;
1429:Drivers/STM32F4xx_HAL_Driver/Src/stm32f4xx_ll_sdmmc.c ****   }
1430:Drivers/STM32F4xx_HAL_Driver/Src/stm32f4xx_ll_sdmmc.c ****   else if (__SDIO_GET_FLAG(SDIOx, SDIO_FLAG_CCRCFAIL))
1431:Drivers/STM32F4xx_HAL_Driver/Src/stm32f4xx_ll_sdmmc.c ****   {
1432:Drivers/STM32F4xx_HAL_Driver/Src/stm32f4xx_ll_sdmmc.c ****     __SDIO_CLEAR_FLAG(SDIOx, SDIO_FLAG_CCRCFAIL);
1433:Drivers/STM32F4xx_HAL_Driver/Src/stm32f4xx_ll_sdmmc.c **** 
1434:Drivers/STM32F4xx_HAL_Driver/Src/stm32f4xx_ll_sdmmc.c ****     return SDMMC_ERROR_CMD_CRC_FAIL;
1435:Drivers/STM32F4xx_HAL_Driver/Src/stm32f4xx_ll_sdmmc.c ****   }
1436:Drivers/STM32F4xx_HAL_Driver/Src/stm32f4xx_ll_sdmmc.c ****   else
ARM GAS  C:\Users\pw705\AppData\Local\Temp\cceieKfF.s 			page 152


1437:Drivers/STM32F4xx_HAL_Driver/Src/stm32f4xx_ll_sdmmc.c ****   {
1438:Drivers/STM32F4xx_HAL_Driver/Src/stm32f4xx_ll_sdmmc.c ****     /* Nothing to do */
1439:Drivers/STM32F4xx_HAL_Driver/Src/stm32f4xx_ll_sdmmc.c ****   }
1440:Drivers/STM32F4xx_HAL_Driver/Src/stm32f4xx_ll_sdmmc.c **** 
1441:Drivers/STM32F4xx_HAL_Driver/Src/stm32f4xx_ll_sdmmc.c ****   /* Check response received is of desired command */
1442:Drivers/STM32F4xx_HAL_Driver/Src/stm32f4xx_ll_sdmmc.c ****   if (SDIO_GetCommandResponse(SDIOx) != SD_CMD)
1443:Drivers/STM32F4xx_HAL_Driver/Src/stm32f4xx_ll_sdmmc.c ****   {
1444:Drivers/STM32F4xx_HAL_Driver/Src/stm32f4xx_ll_sdmmc.c ****     return SDMMC_ERROR_CMD_CRC_FAIL;
1445:Drivers/STM32F4xx_HAL_Driver/Src/stm32f4xx_ll_sdmmc.c ****   }
1446:Drivers/STM32F4xx_HAL_Driver/Src/stm32f4xx_ll_sdmmc.c **** 
1447:Drivers/STM32F4xx_HAL_Driver/Src/stm32f4xx_ll_sdmmc.c ****   /* Clear all the static flags */
1448:Drivers/STM32F4xx_HAL_Driver/Src/stm32f4xx_ll_sdmmc.c ****   __SDIO_CLEAR_FLAG(SDIOx, SDIO_STATIC_CMD_FLAGS);
1449:Drivers/STM32F4xx_HAL_Driver/Src/stm32f4xx_ll_sdmmc.c **** 
1450:Drivers/STM32F4xx_HAL_Driver/Src/stm32f4xx_ll_sdmmc.c ****   /* We have received response, retrieve it.  */
1451:Drivers/STM32F4xx_HAL_Driver/Src/stm32f4xx_ll_sdmmc.c ****   response_r1 = SDIO_GetResponse(SDIOx, SDIO_RESP1);
1452:Drivers/STM32F4xx_HAL_Driver/Src/stm32f4xx_ll_sdmmc.c **** 
1453:Drivers/STM32F4xx_HAL_Driver/Src/stm32f4xx_ll_sdmmc.c ****   if ((response_r1 & (SDMMC_R6_GENERAL_UNKNOWN_ERROR | SDMMC_R6_ILLEGAL_CMD | SDMMC_R6_COM_CRC_FAIL
1454:Drivers/STM32F4xx_HAL_Driver/Src/stm32f4xx_ll_sdmmc.c ****   {
1455:Drivers/STM32F4xx_HAL_Driver/Src/stm32f4xx_ll_sdmmc.c ****     *pRCA = (uint16_t)(response_r1 >> 16);
1456:Drivers/STM32F4xx_HAL_Driver/Src/stm32f4xx_ll_sdmmc.c **** 
1457:Drivers/STM32F4xx_HAL_Driver/Src/stm32f4xx_ll_sdmmc.c ****     return SDMMC_ERROR_NONE;
1458:Drivers/STM32F4xx_HAL_Driver/Src/stm32f4xx_ll_sdmmc.c ****   }
1459:Drivers/STM32F4xx_HAL_Driver/Src/stm32f4xx_ll_sdmmc.c ****   else if ((response_r1 & SDMMC_R6_ILLEGAL_CMD) == SDMMC_R6_ILLEGAL_CMD)
1460:Drivers/STM32F4xx_HAL_Driver/Src/stm32f4xx_ll_sdmmc.c ****   {
1461:Drivers/STM32F4xx_HAL_Driver/Src/stm32f4xx_ll_sdmmc.c ****     return SDMMC_ERROR_ILLEGAL_CMD;
1462:Drivers/STM32F4xx_HAL_Driver/Src/stm32f4xx_ll_sdmmc.c ****   }
1463:Drivers/STM32F4xx_HAL_Driver/Src/stm32f4xx_ll_sdmmc.c ****   else if ((response_r1 & SDMMC_R6_COM_CRC_FAILED) == SDMMC_R6_COM_CRC_FAILED)
1464:Drivers/STM32F4xx_HAL_Driver/Src/stm32f4xx_ll_sdmmc.c ****   {
1465:Drivers/STM32F4xx_HAL_Driver/Src/stm32f4xx_ll_sdmmc.c ****     return SDMMC_ERROR_COM_CRC_FAILED;
1466:Drivers/STM32F4xx_HAL_Driver/Src/stm32f4xx_ll_sdmmc.c ****   }
1467:Drivers/STM32F4xx_HAL_Driver/Src/stm32f4xx_ll_sdmmc.c ****   else
1468:Drivers/STM32F4xx_HAL_Driver/Src/stm32f4xx_ll_sdmmc.c ****   {
1469:Drivers/STM32F4xx_HAL_Driver/Src/stm32f4xx_ll_sdmmc.c ****     return SDMMC_ERROR_GENERAL_UNKNOWN_ERR;
1470:Drivers/STM32F4xx_HAL_Driver/Src/stm32f4xx_ll_sdmmc.c ****   }
1471:Drivers/STM32F4xx_HAL_Driver/Src/stm32f4xx_ll_sdmmc.c **** }
1472:Drivers/STM32F4xx_HAL_Driver/Src/stm32f4xx_ll_sdmmc.c **** 
1473:Drivers/STM32F4xx_HAL_Driver/Src/stm32f4xx_ll_sdmmc.c **** /**
1474:Drivers/STM32F4xx_HAL_Driver/Src/stm32f4xx_ll_sdmmc.c ****  * @brief  Checks for error conditions for R7 response.
1475:Drivers/STM32F4xx_HAL_Driver/Src/stm32f4xx_ll_sdmmc.c ****  * @param  SDIOx Pointer to SDMMC register base
1476:Drivers/STM32F4xx_HAL_Driver/Src/stm32f4xx_ll_sdmmc.c ****  * @retval SD Card error state
1477:Drivers/STM32F4xx_HAL_Driver/Src/stm32f4xx_ll_sdmmc.c ****  */
1478:Drivers/STM32F4xx_HAL_Driver/Src/stm32f4xx_ll_sdmmc.c **** uint32_t SDMMC_GetCmdResp7(SDIO_TypeDef *SDIOx)
1479:Drivers/STM32F4xx_HAL_Driver/Src/stm32f4xx_ll_sdmmc.c **** {
1480:Drivers/STM32F4xx_HAL_Driver/Src/stm32f4xx_ll_sdmmc.c ****   uint32_t sta_reg;
1481:Drivers/STM32F4xx_HAL_Driver/Src/stm32f4xx_ll_sdmmc.c ****   /* 8 is the number of required instructions cycles for the below loop statement.
1482:Drivers/STM32F4xx_HAL_Driver/Src/stm32f4xx_ll_sdmmc.c ****   The SDIO_CMDTIMEOUT is expressed in ms */
1483:Drivers/STM32F4xx_HAL_Driver/Src/stm32f4xx_ll_sdmmc.c ****   uint32_t count = SDIO_CMDTIMEOUT * (SystemCoreClock / 8U / 1000U);
1484:Drivers/STM32F4xx_HAL_Driver/Src/stm32f4xx_ll_sdmmc.c **** 
1485:Drivers/STM32F4xx_HAL_Driver/Src/stm32f4xx_ll_sdmmc.c ****   do
1486:Drivers/STM32F4xx_HAL_Driver/Src/stm32f4xx_ll_sdmmc.c ****   {
1487:Drivers/STM32F4xx_HAL_Driver/Src/stm32f4xx_ll_sdmmc.c ****     if (count-- == 0U)
1488:Drivers/STM32F4xx_HAL_Driver/Src/stm32f4xx_ll_sdmmc.c ****     {
1489:Drivers/STM32F4xx_HAL_Driver/Src/stm32f4xx_ll_sdmmc.c ****       return SDMMC_ERROR_TIMEOUT;
1490:Drivers/STM32F4xx_HAL_Driver/Src/stm32f4xx_ll_sdmmc.c ****     }
1491:Drivers/STM32F4xx_HAL_Driver/Src/stm32f4xx_ll_sdmmc.c ****     sta_reg = SDIOx->STA;
1492:Drivers/STM32F4xx_HAL_Driver/Src/stm32f4xx_ll_sdmmc.c ****   } while (((sta_reg & (SDIO_FLAG_CCRCFAIL | SDIO_FLAG_CMDREND | SDIO_FLAG_CTIMEOUT)) == 0U) ||
1493:Drivers/STM32F4xx_HAL_Driver/Src/stm32f4xx_ll_sdmmc.c ****            ((sta_reg & SDIO_FLAG_CMDACT) != 0U));
ARM GAS  C:\Users\pw705\AppData\Local\Temp\cceieKfF.s 			page 153


1494:Drivers/STM32F4xx_HAL_Driver/Src/stm32f4xx_ll_sdmmc.c **** 
1495:Drivers/STM32F4xx_HAL_Driver/Src/stm32f4xx_ll_sdmmc.c ****   if (__SDIO_GET_FLAG(SDIOx, SDIO_FLAG_CTIMEOUT))
1496:Drivers/STM32F4xx_HAL_Driver/Src/stm32f4xx_ll_sdmmc.c ****   {
1497:Drivers/STM32F4xx_HAL_Driver/Src/stm32f4xx_ll_sdmmc.c ****     /* Card is SD V2.0 compliant */
1498:Drivers/STM32F4xx_HAL_Driver/Src/stm32f4xx_ll_sdmmc.c ****     __SDIO_CLEAR_FLAG(SDIOx, SDIO_FLAG_CTIMEOUT);
1499:Drivers/STM32F4xx_HAL_Driver/Src/stm32f4xx_ll_sdmmc.c **** 
1500:Drivers/STM32F4xx_HAL_Driver/Src/stm32f4xx_ll_sdmmc.c ****     return SDMMC_ERROR_CMD_RSP_TIMEOUT;
1501:Drivers/STM32F4xx_HAL_Driver/Src/stm32f4xx_ll_sdmmc.c ****   }
1502:Drivers/STM32F4xx_HAL_Driver/Src/stm32f4xx_ll_sdmmc.c ****   else if (__SDIO_GET_FLAG(SDIOx, SDIO_FLAG_CCRCFAIL))
1503:Drivers/STM32F4xx_HAL_Driver/Src/stm32f4xx_ll_sdmmc.c ****   {
1504:Drivers/STM32F4xx_HAL_Driver/Src/stm32f4xx_ll_sdmmc.c ****     /* Card is SD V2.0 compliant */
1505:Drivers/STM32F4xx_HAL_Driver/Src/stm32f4xx_ll_sdmmc.c ****     __SDIO_CLEAR_FLAG(SDIOx, SDIO_FLAG_CCRCFAIL);
1506:Drivers/STM32F4xx_HAL_Driver/Src/stm32f4xx_ll_sdmmc.c **** 
1507:Drivers/STM32F4xx_HAL_Driver/Src/stm32f4xx_ll_sdmmc.c ****     return SDMMC_ERROR_CMD_CRC_FAIL;
1508:Drivers/STM32F4xx_HAL_Driver/Src/stm32f4xx_ll_sdmmc.c ****   }
1509:Drivers/STM32F4xx_HAL_Driver/Src/stm32f4xx_ll_sdmmc.c ****   else
1510:Drivers/STM32F4xx_HAL_Driver/Src/stm32f4xx_ll_sdmmc.c ****   {
1511:Drivers/STM32F4xx_HAL_Driver/Src/stm32f4xx_ll_sdmmc.c ****     /* Nothing to do */
1512:Drivers/STM32F4xx_HAL_Driver/Src/stm32f4xx_ll_sdmmc.c ****   }
1513:Drivers/STM32F4xx_HAL_Driver/Src/stm32f4xx_ll_sdmmc.c **** 
1514:Drivers/STM32F4xx_HAL_Driver/Src/stm32f4xx_ll_sdmmc.c ****   if (__SDIO_GET_FLAG(SDIOx, SDIO_FLAG_CMDREND))
1515:Drivers/STM32F4xx_HAL_Driver/Src/stm32f4xx_ll_sdmmc.c ****   {
1516:Drivers/STM32F4xx_HAL_Driver/Src/stm32f4xx_ll_sdmmc.c ****     /* Card is SD V2.0 compliant */
1517:Drivers/STM32F4xx_HAL_Driver/Src/stm32f4xx_ll_sdmmc.c ****     __SDIO_CLEAR_FLAG(SDIOx, SDIO_FLAG_CMDREND);
1518:Drivers/STM32F4xx_HAL_Driver/Src/stm32f4xx_ll_sdmmc.c ****   }
1519:Drivers/STM32F4xx_HAL_Driver/Src/stm32f4xx_ll_sdmmc.c **** 
1520:Drivers/STM32F4xx_HAL_Driver/Src/stm32f4xx_ll_sdmmc.c ****   return SDMMC_ERROR_NONE;
1521:Drivers/STM32F4xx_HAL_Driver/Src/stm32f4xx_ll_sdmmc.c **** }
1522:Drivers/STM32F4xx_HAL_Driver/Src/stm32f4xx_ll_sdmmc.c **** 
1523:Drivers/STM32F4xx_HAL_Driver/Src/stm32f4xx_ll_sdmmc.c **** /**
1524:Drivers/STM32F4xx_HAL_Driver/Src/stm32f4xx_ll_sdmmc.c ****  * @}
1525:Drivers/STM32F4xx_HAL_Driver/Src/stm32f4xx_ll_sdmmc.c ****  */
1526:Drivers/STM32F4xx_HAL_Driver/Src/stm32f4xx_ll_sdmmc.c **** 
1527:Drivers/STM32F4xx_HAL_Driver/Src/stm32f4xx_ll_sdmmc.c **** /* Private function ----------------------------------------------------------*/
1528:Drivers/STM32F4xx_HAL_Driver/Src/stm32f4xx_ll_sdmmc.c **** /** @addtogroup SD_Private_Functions
1529:Drivers/STM32F4xx_HAL_Driver/Src/stm32f4xx_ll_sdmmc.c ****  * @{
1530:Drivers/STM32F4xx_HAL_Driver/Src/stm32f4xx_ll_sdmmc.c ****  */
1531:Drivers/STM32F4xx_HAL_Driver/Src/stm32f4xx_ll_sdmmc.c **** 
1532:Drivers/STM32F4xx_HAL_Driver/Src/stm32f4xx_ll_sdmmc.c **** /**
1533:Drivers/STM32F4xx_HAL_Driver/Src/stm32f4xx_ll_sdmmc.c ****  * @brief  Checks for error conditions for CMD0.
1534:Drivers/STM32F4xx_HAL_Driver/Src/stm32f4xx_ll_sdmmc.c ****  * @param  SDIOx Pointer to SDMMC register base
1535:Drivers/STM32F4xx_HAL_Driver/Src/stm32f4xx_ll_sdmmc.c ****  * @retval SD Card error state
1536:Drivers/STM32F4xx_HAL_Driver/Src/stm32f4xx_ll_sdmmc.c ****  */
1537:Drivers/STM32F4xx_HAL_Driver/Src/stm32f4xx_ll_sdmmc.c **** static uint32_t SDMMC_GetCmdError(SDIO_TypeDef *SDIOx)
1538:Drivers/STM32F4xx_HAL_Driver/Src/stm32f4xx_ll_sdmmc.c **** {
1539:Drivers/STM32F4xx_HAL_Driver/Src/stm32f4xx_ll_sdmmc.c ****   /* 8 is the number of required instructions cycles for the below loop statement.
1540:Drivers/STM32F4xx_HAL_Driver/Src/stm32f4xx_ll_sdmmc.c ****   The SDIO_CMDTIMEOUT is expressed in ms */
1541:Drivers/STM32F4xx_HAL_Driver/Src/stm32f4xx_ll_sdmmc.c ****   uint32_t count = SDIO_CMDTIMEOUT * (SystemCoreClock / 8U / 1000U);
 5518              		.loc 1 1541 60 is_stmt 0 view .LVU1891
 5519 0004 0F4B     		ldr	r3, .L509
 5520              	.LBE627:
 5521              	.LBE626:
 5522              	.LBB633:
 5523              	.LBB622:
 365:Drivers/STM32F4xx_HAL_Driver/Src/stm32f4xx_ll_sdmmc.c **** 
 5524              		.loc 1 365 3 view .LVU1892
 5525 0006 C268     		ldr	r2, [r0, #12]
ARM GAS  C:\Users\pw705\AppData\Local\Temp\cceieKfF.s 			page 154


 5526              	.LBE622:
 5527              	.LBE633:
 5528              	.LBB634:
 5529              	.LBB628:
 5530              		.loc 1 1541 60 view .LVU1893
 5531 0008 0F49     		ldr	r1, .L509+4
 5532 000a 1B68     		ldr	r3, [r3]
 5533              	.LBE628:
 5534              	.LBE634:
 5535              	.LBB635:
 5536              	.LBB623:
 365:Drivers/STM32F4xx_HAL_Driver/Src/stm32f4xx_ll_sdmmc.c **** 
 5537              		.loc 1 365 3 view .LVU1894
 5538 000c 22F47F62 		bic	r2, r2, #4080
 5539              	.LBE623:
 5540              	.LBE635:
 5541              	.LBB636:
 5542              	.LBB629:
 5543              		.loc 1 1541 60 view .LVU1895
 5544 0010 A1FB0313 		umull	r1, r3, r1, r3
 5545              	.LBE629:
 5546              	.LBE636:
 5547              	.LBB637:
 5548              	.LBB624:
 365:Drivers/STM32F4xx_HAL_Driver/Src/stm32f4xx_ll_sdmmc.c **** 
 5549              		.loc 1 365 3 view .LVU1896
 5550 0014 22F00F02 		bic	r2, r2, #15
 5551 0018 42F48062 		orr	r2, r2, #1024
 5552              	.LBE624:
 5553              	.LBE637:
 5554              	.LBB638:
 5555              	.LBB630:
 5556              		.loc 1 1541 60 view .LVU1897
 5557 001c 5B0A     		lsrs	r3, r3, #9
 5558              		.loc 1 1541 12 view .LVU1898
 5559 001e 41F28831 		movw	r1, #5000
 5560              	.LBE630:
 5561              	.LBE638:
 5562              	.LBB639:
 5563              	.LBB625:
 365:Drivers/STM32F4xx_HAL_Driver/Src/stm32f4xx_ll_sdmmc.c **** 
 5564              		.loc 1 365 3 view .LVU1899
 5565 0022 C260     		str	r2, [r0, #12]
 367:Drivers/STM32F4xx_HAL_Driver/Src/stm32f4xx_ll_sdmmc.c **** }
 5566              		.loc 1 367 3 is_stmt 1 view .LVU1900
 5567              	.LVL311:
 367:Drivers/STM32F4xx_HAL_Driver/Src/stm32f4xx_ll_sdmmc.c **** }
 5568              		.loc 1 367 3 is_stmt 0 view .LVU1901
 5569              	.LBE625:
 5570              	.LBE639:
 806:Drivers/STM32F4xx_HAL_Driver/Src/stm32f4xx_ll_sdmmc.c **** 
 5571              		.loc 1 806 3 is_stmt 1 view .LVU1902
 5572              	.LBB640:
 5573              	.LBI626:
1537:Drivers/STM32F4xx_HAL_Driver/Src/stm32f4xx_ll_sdmmc.c **** {
 5574              		.loc 1 1537 17 view .LVU1903
 5575              	.LBB631:
ARM GAS  C:\Users\pw705\AppData\Local\Temp\cceieKfF.s 			page 155


 5576              		.loc 1 1541 3 view .LVU1904
 5577              		.loc 1 1541 12 is_stmt 0 view .LVU1905
 5578 0024 01FB03F3 		mul	r3, r1, r3
 5579              	.LVL312:
 5580              		.loc 1 1541 12 view .LVU1906
 5581 0028 02E0     		b	.L502
 5582              	.LVL313:
 5583              	.L508:
1542:Drivers/STM32F4xx_HAL_Driver/Src/stm32f4xx_ll_sdmmc.c **** 
1543:Drivers/STM32F4xx_HAL_Driver/Src/stm32f4xx_ll_sdmmc.c ****   do
1544:Drivers/STM32F4xx_HAL_Driver/Src/stm32f4xx_ll_sdmmc.c ****   {
1545:Drivers/STM32F4xx_HAL_Driver/Src/stm32f4xx_ll_sdmmc.c ****     if (count-- == 0U)
1546:Drivers/STM32F4xx_HAL_Driver/Src/stm32f4xx_ll_sdmmc.c ****     {
1547:Drivers/STM32F4xx_HAL_Driver/Src/stm32f4xx_ll_sdmmc.c ****       return SDMMC_ERROR_TIMEOUT;
1548:Drivers/STM32F4xx_HAL_Driver/Src/stm32f4xx_ll_sdmmc.c ****     }
1549:Drivers/STM32F4xx_HAL_Driver/Src/stm32f4xx_ll_sdmmc.c **** 
1550:Drivers/STM32F4xx_HAL_Driver/Src/stm32f4xx_ll_sdmmc.c ****   } while (!__SDIO_GET_FLAG(SDIOx, SDIO_FLAG_CMDSENT));
 5584              		.loc 1 1550 13 view .LVU1907
 5585 002a 426B     		ldr	r2, [r0, #52]
 5586              		.loc 1 1550 12 view .LVU1908
 5587 002c 1206     		lsls	r2, r2, #24
 5588 002e 04D4     		bmi	.L507
 5589              	.LVL314:
 5590              	.L502:
1543:Drivers/STM32F4xx_HAL_Driver/Src/stm32f4xx_ll_sdmmc.c ****   {
 5591              		.loc 1 1543 3 is_stmt 1 view .LVU1909
1545:Drivers/STM32F4xx_HAL_Driver/Src/stm32f4xx_ll_sdmmc.c ****     {
 5592              		.loc 1 1545 5 view .LVU1910
 5593              		.loc 1 1550 12 view .LVU1911
1545:Drivers/STM32F4xx_HAL_Driver/Src/stm32f4xx_ll_sdmmc.c ****     {
 5594              		.loc 1 1545 8 is_stmt 0 view .LVU1912
 5595 0030 013B     		subs	r3, r3, #1
 5596              	.LVL315:
1545:Drivers/STM32F4xx_HAL_Driver/Src/stm32f4xx_ll_sdmmc.c ****     {
 5597              		.loc 1 1545 8 view .LVU1913
 5598 0032 FAD2     		bcs	.L508
1547:Drivers/STM32F4xx_HAL_Driver/Src/stm32f4xx_ll_sdmmc.c ****     }
 5599              		.loc 1 1547 14 view .LVU1914
 5600 0034 4FF00040 		mov	r0, #-2147483648
 5601              	.LVL316:
1547:Drivers/STM32F4xx_HAL_Driver/Src/stm32f4xx_ll_sdmmc.c ****     }
 5602              		.loc 1 1547 14 view .LVU1915
 5603              	.LBE631:
 5604              	.LBE640:
 808:Drivers/STM32F4xx_HAL_Driver/Src/stm32f4xx_ll_sdmmc.c **** }
 5605              		.loc 1 808 3 is_stmt 1 view .LVU1916
 809:Drivers/STM32F4xx_HAL_Driver/Src/stm32f4xx_ll_sdmmc.c **** 
 5606              		.loc 1 809 1 is_stmt 0 view .LVU1917
 5607 0038 7047     		bx	lr
 5608              	.LVL317:
 5609              	.L507:
 5610              	.LBB641:
 5611              	.LBB632:
1551:Drivers/STM32F4xx_HAL_Driver/Src/stm32f4xx_ll_sdmmc.c **** 
1552:Drivers/STM32F4xx_HAL_Driver/Src/stm32f4xx_ll_sdmmc.c ****   /* Clear all the static flags */
1553:Drivers/STM32F4xx_HAL_Driver/Src/stm32f4xx_ll_sdmmc.c ****   __SDIO_CLEAR_FLAG(SDIOx, SDIO_STATIC_CMD_FLAGS);
 5612              		.loc 1 1553 3 is_stmt 1 view .LVU1918
ARM GAS  C:\Users\pw705\AppData\Local\Temp\cceieKfF.s 			page 156


 5613 003a C523     		movs	r3, #197
 5614              	.LVL318:
 5615              		.loc 1 1553 3 is_stmt 0 view .LVU1919
 5616 003c 8363     		str	r3, [r0, #56]
1554:Drivers/STM32F4xx_HAL_Driver/Src/stm32f4xx_ll_sdmmc.c **** 
1555:Drivers/STM32F4xx_HAL_Driver/Src/stm32f4xx_ll_sdmmc.c ****   return SDMMC_ERROR_NONE;
 5617              		.loc 1 1555 3 is_stmt 1 view .LVU1920
 5618              		.loc 1 1555 10 is_stmt 0 view .LVU1921
 5619 003e 0020     		movs	r0, #0
 5620              	.LVL319:
 5621              		.loc 1 1555 10 view .LVU1922
 5622 0040 7047     		bx	lr
 5623              	.L510:
 5624 0042 00BF     		.align	2
 5625              	.L509:
 5626 0044 00000000 		.word	SystemCoreClock
 5627 0048 D34D6210 		.word	274877907
 5628              	.LBE632:
 5629              	.LBE641:
 5630              		.cfi_endproc
 5631              	.LFE155:
 5633              		.section	.text.SDMMC_CmdOperCond,"ax",%progbits
 5634              		.align	1
 5635              		.p2align 2,,3
 5636              		.global	SDMMC_CmdOperCond
 5637              		.syntax unified
 5638              		.thumb
 5639              		.thumb_func
 5641              	SDMMC_CmdOperCond:
 5642              	.LVL320:
 5643              	.LFB156:
 817:Drivers/STM32F4xx_HAL_Driver/Src/stm32f4xx_ll_sdmmc.c ****   SDIO_CmdInitTypeDef sdmmc_cmdinit;
 5644              		.loc 1 817 1 is_stmt 1 view -0
 5645              		.cfi_startproc
 5646              		@ args = 0, pretend = 0, frame = 0
 5647              		@ frame_needed = 0, uses_anonymous_args = 0
 5648              		@ link register save eliminated.
 818:Drivers/STM32F4xx_HAL_Driver/Src/stm32f4xx_ll_sdmmc.c ****   uint32_t errorstate;
 5649              		.loc 1 818 3 view .LVU1924
 819:Drivers/STM32F4xx_HAL_Driver/Src/stm32f4xx_ll_sdmmc.c **** 
 5650              		.loc 1 819 3 view .LVU1925
 826:Drivers/STM32F4xx_HAL_Driver/Src/stm32f4xx_ll_sdmmc.c ****   sdmmc_cmdinit.CmdIndex = SDMMC_CMD_HS_SEND_EXT_CSD;
 5651              		.loc 1 826 3 view .LVU1926
 827:Drivers/STM32F4xx_HAL_Driver/Src/stm32f4xx_ll_sdmmc.c ****   sdmmc_cmdinit.Response = SDIO_RESPONSE_SHORT;
 5652              		.loc 1 827 3 view .LVU1927
 828:Drivers/STM32F4xx_HAL_Driver/Src/stm32f4xx_ll_sdmmc.c ****   sdmmc_cmdinit.WaitForInterrupt = SDIO_WAIT_NO;
 5653              		.loc 1 828 3 view .LVU1928
 829:Drivers/STM32F4xx_HAL_Driver/Src/stm32f4xx_ll_sdmmc.c ****   sdmmc_cmdinit.CPSM = SDIO_CPSM_ENABLE;
 5654              		.loc 1 829 3 view .LVU1929
 830:Drivers/STM32F4xx_HAL_Driver/Src/stm32f4xx_ll_sdmmc.c ****   (void)SDIO_SendCommand(SDIOx, &sdmmc_cmdinit);
 5655              		.loc 1 830 3 view .LVU1930
 831:Drivers/STM32F4xx_HAL_Driver/Src/stm32f4xx_ll_sdmmc.c **** 
 5656              		.loc 1 831 3 view .LVU1931
 5657              	.LBB648:
 5658              	.LBB649:
 356:Drivers/STM32F4xx_HAL_Driver/Src/stm32f4xx_ll_sdmmc.c **** 
 5659              		.loc 1 356 14 is_stmt 0 view .LVU1932
ARM GAS  C:\Users\pw705\AppData\Local\Temp\cceieKfF.s 			page 157


 5660 0000 4FF4D573 		mov	r3, #426
 5661              	.LBE649:
 5662              	.LBE648:
 5663              	.LBB656:
 5664              	.LBB657:
1483:Drivers/STM32F4xx_HAL_Driver/Src/stm32f4xx_ll_sdmmc.c **** 
 5665              		.loc 1 1483 60 view .LVU1933
 5666 0004 1A4A     		ldr	r2, .L530
 5667              	.LBE657:
 5668              	.LBE656:
 5669              	.LBB667:
 5670              	.LBB650:
 356:Drivers/STM32F4xx_HAL_Driver/Src/stm32f4xx_ll_sdmmc.c **** 
 5671              		.loc 1 356 14 view .LVU1934
 5672 0006 8360     		str	r3, [r0, #8]
 365:Drivers/STM32F4xx_HAL_Driver/Src/stm32f4xx_ll_sdmmc.c **** 
 5673              		.loc 1 365 3 view .LVU1935
 5674 0008 C368     		ldr	r3, [r0, #12]
 5675              	.LBE650:
 5676              	.LBE667:
 5677              	.LBB668:
 5678              	.LBB660:
1483:Drivers/STM32F4xx_HAL_Driver/Src/stm32f4xx_ll_sdmmc.c **** 
 5679              		.loc 1 1483 60 view .LVU1936
 5680 000a 1268     		ldr	r2, [r2]
 5681              	.LBE660:
 5682              	.LBE668:
 817:Drivers/STM32F4xx_HAL_Driver/Src/stm32f4xx_ll_sdmmc.c ****   SDIO_CmdInitTypeDef sdmmc_cmdinit;
 5683              		.loc 1 817 1 view .LVU1937
 5684 000c 0146     		mov	r1, r0
 5685              	.LVL321:
 5686              	.LBB669:
 5687              	.LBI648:
 345:Drivers/STM32F4xx_HAL_Driver/Src/stm32f4xx_ll_sdmmc.c **** {
 5688              		.loc 1 345 19 is_stmt 1 view .LVU1938
 5689              	.LBB651:
 347:Drivers/STM32F4xx_HAL_Driver/Src/stm32f4xx_ll_sdmmc.c **** 
 5690              		.loc 1 347 3 view .LVU1939
 350:Drivers/STM32F4xx_HAL_Driver/Src/stm32f4xx_ll_sdmmc.c ****   assert_param(IS_SDIO_RESPONSE(Command->Response));
 5691              		.loc 1 350 3 view .LVU1940
 351:Drivers/STM32F4xx_HAL_Driver/Src/stm32f4xx_ll_sdmmc.c ****   assert_param(IS_SDIO_WAIT(Command->WaitForInterrupt));
 5692              		.loc 1 351 3 view .LVU1941
 352:Drivers/STM32F4xx_HAL_Driver/Src/stm32f4xx_ll_sdmmc.c ****   assert_param(IS_SDIO_CPSM(Command->CPSM));
 5693              		.loc 1 352 3 view .LVU1942
 353:Drivers/STM32F4xx_HAL_Driver/Src/stm32f4xx_ll_sdmmc.c **** 
 5694              		.loc 1 353 3 view .LVU1943
 356:Drivers/STM32F4xx_HAL_Driver/Src/stm32f4xx_ll_sdmmc.c **** 
 5695              		.loc 1 356 3 view .LVU1944
 359:Drivers/STM32F4xx_HAL_Driver/Src/stm32f4xx_ll_sdmmc.c ****                        Command->Response |
 5696              		.loc 1 359 3 view .LVU1945
 365:Drivers/STM32F4xx_HAL_Driver/Src/stm32f4xx_ll_sdmmc.c **** 
 5697              		.loc 1 365 3 view .LVU1946
 5698              	.LBE651:
 5699              	.LBE669:
 5700              	.LBB670:
 5701              	.LBB661:
1483:Drivers/STM32F4xx_HAL_Driver/Src/stm32f4xx_ll_sdmmc.c **** 
ARM GAS  C:\Users\pw705\AppData\Local\Temp\cceieKfF.s 			page 158


 5702              		.loc 1 1483 60 is_stmt 0 view .LVU1947
 5703 000e 1948     		ldr	r0, .L530+4
 5704              	.LVL322:
1483:Drivers/STM32F4xx_HAL_Driver/Src/stm32f4xx_ll_sdmmc.c **** 
 5705              		.loc 1 1483 60 view .LVU1948
 5706              	.LBE661:
 5707              	.LBE670:
 5708              	.LBB671:
 5709              	.LBB652:
 365:Drivers/STM32F4xx_HAL_Driver/Src/stm32f4xx_ll_sdmmc.c **** 
 5710              		.loc 1 365 3 view .LVU1949
 5711 0010 23F47F63 		bic	r3, r3, #4080
 5712              	.LBE652:
 5713              	.LBE671:
 5714              	.LBB672:
 5715              	.LBB662:
1483:Drivers/STM32F4xx_HAL_Driver/Src/stm32f4xx_ll_sdmmc.c **** 
 5716              		.loc 1 1483 60 view .LVU1950
 5717 0014 A0FB0202 		umull	r0, r2, r0, r2
 5718              	.LBE662:
 5719              	.LBE672:
 5720              	.LBB673:
 5721              	.LBB653:
 365:Drivers/STM32F4xx_HAL_Driver/Src/stm32f4xx_ll_sdmmc.c **** 
 5722              		.loc 1 365 3 view .LVU1951
 5723 0018 23F00F03 		bic	r3, r3, #15
 5724              	.LBE653:
 5725              	.LBE673:
 5726              	.LBB674:
 5727              	.LBB663:
1483:Drivers/STM32F4xx_HAL_Driver/Src/stm32f4xx_ll_sdmmc.c **** 
 5728              		.loc 1 1483 60 view .LVU1952
 5729 001c 520A     		lsrs	r2, r2, #9
1483:Drivers/STM32F4xx_HAL_Driver/Src/stm32f4xx_ll_sdmmc.c **** 
 5730              		.loc 1 1483 12 view .LVU1953
 5731 001e 41F28830 		movw	r0, #5000
 5732              	.LBE663:
 5733              	.LBE674:
 5734              	.LBB675:
 5735              	.LBB654:
 365:Drivers/STM32F4xx_HAL_Driver/Src/stm32f4xx_ll_sdmmc.c **** 
 5736              		.loc 1 365 3 view .LVU1954
 5737 0022 43F48963 		orr	r3, r3, #1096
 5738              	.LBE654:
 5739              	.LBE675:
 5740              	.LBB676:
 5741              	.LBB664:
1483:Drivers/STM32F4xx_HAL_Driver/Src/stm32f4xx_ll_sdmmc.c **** 
 5742              		.loc 1 1483 12 view .LVU1955
 5743 0026 00FB02F2 		mul	r2, r0, r2
 5744              	.LBE664:
 5745              	.LBE676:
 5746              	.LBB677:
 5747              	.LBB655:
 365:Drivers/STM32F4xx_HAL_Driver/Src/stm32f4xx_ll_sdmmc.c **** 
 5748              		.loc 1 365 3 view .LVU1956
 5749 002a CB60     		str	r3, [r1, #12]
ARM GAS  C:\Users\pw705\AppData\Local\Temp\cceieKfF.s 			page 159


 367:Drivers/STM32F4xx_HAL_Driver/Src/stm32f4xx_ll_sdmmc.c **** }
 5750              		.loc 1 367 3 is_stmt 1 view .LVU1957
 5751              	.LVL323:
 367:Drivers/STM32F4xx_HAL_Driver/Src/stm32f4xx_ll_sdmmc.c **** }
 5752              		.loc 1 367 3 is_stmt 0 view .LVU1958
 5753              	.LBE655:
 5754              	.LBE677:
 834:Drivers/STM32F4xx_HAL_Driver/Src/stm32f4xx_ll_sdmmc.c **** 
 5755              		.loc 1 834 3 is_stmt 1 view .LVU1959
 5756              	.LBB678:
 5757              	.LBI656:
1478:Drivers/STM32F4xx_HAL_Driver/Src/stm32f4xx_ll_sdmmc.c **** {
 5758              		.loc 1 1478 10 view .LVU1960
 5759              	.LBB665:
1480:Drivers/STM32F4xx_HAL_Driver/Src/stm32f4xx_ll_sdmmc.c ****   /* 8 is the number of required instructions cycles for the below loop statement.
 5760              		.loc 1 1480 3 view .LVU1961
1483:Drivers/STM32F4xx_HAL_Driver/Src/stm32f4xx_ll_sdmmc.c **** 
 5761              		.loc 1 1483 3 view .LVU1962
1485:Drivers/STM32F4xx_HAL_Driver/Src/stm32f4xx_ll_sdmmc.c ****   {
 5762              		.loc 1 1485 3 view .LVU1963
1487:Drivers/STM32F4xx_HAL_Driver/Src/stm32f4xx_ll_sdmmc.c ****     {
 5763              		.loc 1 1487 5 view .LVU1964
1487:Drivers/STM32F4xx_HAL_Driver/Src/stm32f4xx_ll_sdmmc.c ****     {
 5764              		.loc 1 1487 14 is_stmt 0 view .LVU1965
 5765 002c 531E     		subs	r3, r2, #1
 5766              	.LVL324:
1487:Drivers/STM32F4xx_HAL_Driver/Src/stm32f4xx_ll_sdmmc.c ****     {
 5767              		.loc 1 1487 8 view .LVU1966
 5768 002e 4AB1     		cbz	r2, .L519
 5769              	.L513:
1485:Drivers/STM32F4xx_HAL_Driver/Src/stm32f4xx_ll_sdmmc.c ****   {
 5770              		.loc 1 1485 3 is_stmt 1 view .LVU1967
1487:Drivers/STM32F4xx_HAL_Driver/Src/stm32f4xx_ll_sdmmc.c ****     {
 5771              		.loc 1 1487 5 view .LVU1968
1491:Drivers/STM32F4xx_HAL_Driver/Src/stm32f4xx_ll_sdmmc.c ****   } while (((sta_reg & (SDIO_FLAG_CCRCFAIL | SDIO_FLAG_CMDREND | SDIO_FLAG_CTIMEOUT)) == 0U) ||
 5772              		.loc 1 1491 5 view .LVU1969
1491:Drivers/STM32F4xx_HAL_Driver/Src/stm32f4xx_ll_sdmmc.c ****   } while (((sta_reg & (SDIO_FLAG_CCRCFAIL | SDIO_FLAG_CMDREND | SDIO_FLAG_CTIMEOUT)) == 0U) ||
 5773              		.loc 1 1491 13 is_stmt 0 view .LVU1970
 5774 0030 4A6B     		ldr	r2, [r1, #52]
 5775              	.LVL325:
1492:Drivers/STM32F4xx_HAL_Driver/Src/stm32f4xx_ll_sdmmc.c ****            ((sta_reg & SDIO_FLAG_CMDACT) != 0U));
 5776              		.loc 1 1492 94 is_stmt 1 view .LVU1971
 5777 0032 12F0450F 		tst	r2, #69
1487:Drivers/STM32F4xx_HAL_Driver/Src/stm32f4xx_ll_sdmmc.c ****     {
 5778              		.loc 1 1487 14 is_stmt 0 view .LVU1972
 5779 0036 03F1FF33 		add	r3, r3, #-1
 5780              	.LVL326:
1492:Drivers/STM32F4xx_HAL_Driver/Src/stm32f4xx_ll_sdmmc.c ****            ((sta_reg & SDIO_FLAG_CMDACT) != 0U));
 5781              		.loc 1 1492 94 view .LVU1973
 5782 003a 01D0     		beq	.L514
 5783 003c 1005     		lsls	r0, r2, #20
 5784 003e 04D5     		bpl	.L527
 5785              	.L514:
1487:Drivers/STM32F4xx_HAL_Driver/Src/stm32f4xx_ll_sdmmc.c ****     {
 5786              		.loc 1 1487 8 view .LVU1974
 5787 0040 5A1C     		adds	r2, r3, #1
 5788              	.LVL327:
ARM GAS  C:\Users\pw705\AppData\Local\Temp\cceieKfF.s 			page 160


1487:Drivers/STM32F4xx_HAL_Driver/Src/stm32f4xx_ll_sdmmc.c ****     {
 5789              		.loc 1 1487 8 view .LVU1975
 5790 0042 F5D1     		bne	.L513
 5791              	.LVL328:
 5792              	.L519:
1489:Drivers/STM32F4xx_HAL_Driver/Src/stm32f4xx_ll_sdmmc.c ****     }
 5793              		.loc 1 1489 14 view .LVU1976
 5794 0044 4FF00040 		mov	r0, #-2147483648
 5795              	.LVL329:
1489:Drivers/STM32F4xx_HAL_Driver/Src/stm32f4xx_ll_sdmmc.c ****     }
 5796              		.loc 1 1489 14 view .LVU1977
 5797              	.LBE665:
 5798              	.LBE678:
 836:Drivers/STM32F4xx_HAL_Driver/Src/stm32f4xx_ll_sdmmc.c **** }
 5799              		.loc 1 836 3 is_stmt 1 view .LVU1978
 5800              	.L511:
 837:Drivers/STM32F4xx_HAL_Driver/Src/stm32f4xx_ll_sdmmc.c **** 
 5801              		.loc 1 837 1 is_stmt 0 view .LVU1979
 5802 0048 7047     		bx	lr
 5803              	.LVL330:
 5804              	.L527:
 5805              	.LBB679:
 5806              	.LBB666:
1495:Drivers/STM32F4xx_HAL_Driver/Src/stm32f4xx_ll_sdmmc.c ****   {
 5807              		.loc 1 1495 3 is_stmt 1 view .LVU1980
1495:Drivers/STM32F4xx_HAL_Driver/Src/stm32f4xx_ll_sdmmc.c ****   {
 5808              		.loc 1 1495 7 is_stmt 0 view .LVU1981
 5809 004a 4B6B     		ldr	r3, [r1, #52]
 5810              	.LVL331:
1495:Drivers/STM32F4xx_HAL_Driver/Src/stm32f4xx_ll_sdmmc.c ****   {
 5811              		.loc 1 1495 6 view .LVU1982
 5812 004c 5A07     		lsls	r2, r3, #29
 5813              	.LVL332:
1495:Drivers/STM32F4xx_HAL_Driver/Src/stm32f4xx_ll_sdmmc.c ****   {
 5814              		.loc 1 1495 6 view .LVU1983
 5815 004e 0CD4     		bmi	.L528
1502:Drivers/STM32F4xx_HAL_Driver/Src/stm32f4xx_ll_sdmmc.c ****   {
 5816              		.loc 1 1502 8 is_stmt 1 view .LVU1984
1502:Drivers/STM32F4xx_HAL_Driver/Src/stm32f4xx_ll_sdmmc.c ****   {
 5817              		.loc 1 1502 12 is_stmt 0 view .LVU1985
 5818 0050 486B     		ldr	r0, [r1, #52]
1502:Drivers/STM32F4xx_HAL_Driver/Src/stm32f4xx_ll_sdmmc.c ****   {
 5819              		.loc 1 1502 11 view .LVU1986
 5820 0052 10F00100 		ands	r0, r0, #1
 5821 0056 05D1     		bne	.L529
 5822              	.LVL333:
 5823              	.LBB658:
 5824              	.LBI658:
1478:Drivers/STM32F4xx_HAL_Driver/Src/stm32f4xx_ll_sdmmc.c **** {
 5825              		.loc 1 1478 10 is_stmt 1 view .LVU1987
 5826              	.LBB659:
1512:Drivers/STM32F4xx_HAL_Driver/Src/stm32f4xx_ll_sdmmc.c **** 
 5827              		.loc 1 1512 3 view .LVU1988
1514:Drivers/STM32F4xx_HAL_Driver/Src/stm32f4xx_ll_sdmmc.c ****   {
 5828              		.loc 1 1514 3 view .LVU1989
1514:Drivers/STM32F4xx_HAL_Driver/Src/stm32f4xx_ll_sdmmc.c ****   {
 5829              		.loc 1 1514 7 is_stmt 0 view .LVU1990
ARM GAS  C:\Users\pw705\AppData\Local\Temp\cceieKfF.s 			page 161


 5830 0058 4B6B     		ldr	r3, [r1, #52]
1514:Drivers/STM32F4xx_HAL_Driver/Src/stm32f4xx_ll_sdmmc.c ****   {
 5831              		.loc 1 1514 6 view .LVU1991
 5832 005a 5B06     		lsls	r3, r3, #25
 5833 005c F4D5     		bpl	.L511
1517:Drivers/STM32F4xx_HAL_Driver/Src/stm32f4xx_ll_sdmmc.c ****   }
 5834              		.loc 1 1517 5 is_stmt 1 view .LVU1992
 5835 005e 4023     		movs	r3, #64
 5836 0060 8B63     		str	r3, [r1, #56]
 5837 0062 7047     		bx	lr
 5838              	.LVL334:
 5839              	.L529:
1517:Drivers/STM32F4xx_HAL_Driver/Src/stm32f4xx_ll_sdmmc.c ****   }
 5840              		.loc 1 1517 5 is_stmt 0 view .LVU1993
 5841              	.LBE659:
 5842              	.LBE658:
1505:Drivers/STM32F4xx_HAL_Driver/Src/stm32f4xx_ll_sdmmc.c **** 
 5843              		.loc 1 1505 5 is_stmt 1 view .LVU1994
 5844 0064 0123     		movs	r3, #1
 5845 0066 8B63     		str	r3, [r1, #56]
1507:Drivers/STM32F4xx_HAL_Driver/Src/stm32f4xx_ll_sdmmc.c ****   }
 5846              		.loc 1 1507 5 view .LVU1995
1507:Drivers/STM32F4xx_HAL_Driver/Src/stm32f4xx_ll_sdmmc.c ****   }
 5847              		.loc 1 1507 12 is_stmt 0 view .LVU1996
 5848 0068 7047     		bx	lr
 5849              	.L528:
1498:Drivers/STM32F4xx_HAL_Driver/Src/stm32f4xx_ll_sdmmc.c **** 
 5850              		.loc 1 1498 5 is_stmt 1 view .LVU1997
 5851 006a 0420     		movs	r0, #4
 5852 006c 8863     		str	r0, [r1, #56]
1500:Drivers/STM32F4xx_HAL_Driver/Src/stm32f4xx_ll_sdmmc.c ****   }
 5853              		.loc 1 1500 5 view .LVU1998
1500:Drivers/STM32F4xx_HAL_Driver/Src/stm32f4xx_ll_sdmmc.c ****   }
 5854              		.loc 1 1500 12 is_stmt 0 view .LVU1999
 5855 006e 7047     		bx	lr
 5856              	.L531:
 5857              		.align	2
 5858              	.L530:
 5859 0070 00000000 		.word	SystemCoreClock
 5860 0074 D34D6210 		.word	274877907
 5861              	.LBE666:
 5862              	.LBE679:
 5863              		.cfi_endproc
 5864              	.LFE156:
 5866              		.section	.text.SDMMC_CmdAppCommand,"ax",%progbits
 5867              		.align	1
 5868              		.p2align 2,,3
 5869              		.global	SDMMC_CmdAppCommand
 5870              		.syntax unified
 5871              		.thumb
 5872              		.thumb_func
 5874              	SDMMC_CmdAppCommand:
 5875              	.LVL335:
 5876              	.LFB157:
 848:Drivers/STM32F4xx_HAL_Driver/Src/stm32f4xx_ll_sdmmc.c ****   SDIO_CmdInitTypeDef sdmmc_cmdinit;
 5877              		.loc 1 848 1 is_stmt 1 view -0
 5878              		.cfi_startproc
ARM GAS  C:\Users\pw705\AppData\Local\Temp\cceieKfF.s 			page 162


 5879              		@ args = 0, pretend = 0, frame = 0
 5880              		@ frame_needed = 0, uses_anonymous_args = 0
 5881              		@ link register save eliminated.
 849:Drivers/STM32F4xx_HAL_Driver/Src/stm32f4xx_ll_sdmmc.c ****   uint32_t errorstate;
 5882              		.loc 1 849 3 view .LVU2001
 850:Drivers/STM32F4xx_HAL_Driver/Src/stm32f4xx_ll_sdmmc.c **** 
 5883              		.loc 1 850 3 view .LVU2002
 852:Drivers/STM32F4xx_HAL_Driver/Src/stm32f4xx_ll_sdmmc.c ****   sdmmc_cmdinit.CmdIndex = SDMMC_CMD_APP_CMD;
 5884              		.loc 1 852 3 view .LVU2003
 853:Drivers/STM32F4xx_HAL_Driver/Src/stm32f4xx_ll_sdmmc.c ****   sdmmc_cmdinit.Response = SDIO_RESPONSE_SHORT;
 5885              		.loc 1 853 3 view .LVU2004
 854:Drivers/STM32F4xx_HAL_Driver/Src/stm32f4xx_ll_sdmmc.c ****   sdmmc_cmdinit.WaitForInterrupt = SDIO_WAIT_NO;
 5886              		.loc 1 854 3 view .LVU2005
 855:Drivers/STM32F4xx_HAL_Driver/Src/stm32f4xx_ll_sdmmc.c ****   sdmmc_cmdinit.CPSM = SDIO_CPSM_ENABLE;
 5887              		.loc 1 855 3 view .LVU2006
 856:Drivers/STM32F4xx_HAL_Driver/Src/stm32f4xx_ll_sdmmc.c ****   (void)SDIO_SendCommand(SDIOx, &sdmmc_cmdinit);
 5888              		.loc 1 856 3 view .LVU2007
 857:Drivers/STM32F4xx_HAL_Driver/Src/stm32f4xx_ll_sdmmc.c **** 
 5889              		.loc 1 857 3 view .LVU2008
 5890              	.LBB692:
 5891              	.LBI692:
 345:Drivers/STM32F4xx_HAL_Driver/Src/stm32f4xx_ll_sdmmc.c **** {
 5892              		.loc 1 345 19 view .LVU2009
 5893              	.LBB693:
 347:Drivers/STM32F4xx_HAL_Driver/Src/stm32f4xx_ll_sdmmc.c **** 
 5894              		.loc 1 347 3 view .LVU2010
 350:Drivers/STM32F4xx_HAL_Driver/Src/stm32f4xx_ll_sdmmc.c ****   assert_param(IS_SDIO_RESPONSE(Command->Response));
 5895              		.loc 1 350 3 view .LVU2011
 351:Drivers/STM32F4xx_HAL_Driver/Src/stm32f4xx_ll_sdmmc.c ****   assert_param(IS_SDIO_WAIT(Command->WaitForInterrupt));
 5896              		.loc 1 351 3 view .LVU2012
 352:Drivers/STM32F4xx_HAL_Driver/Src/stm32f4xx_ll_sdmmc.c ****   assert_param(IS_SDIO_CPSM(Command->CPSM));
 5897              		.loc 1 352 3 view .LVU2013
 353:Drivers/STM32F4xx_HAL_Driver/Src/stm32f4xx_ll_sdmmc.c **** 
 5898              		.loc 1 353 3 view .LVU2014
 356:Drivers/STM32F4xx_HAL_Driver/Src/stm32f4xx_ll_sdmmc.c **** 
 5899              		.loc 1 356 3 view .LVU2015
 356:Drivers/STM32F4xx_HAL_Driver/Src/stm32f4xx_ll_sdmmc.c **** 
 5900              		.loc 1 356 14 is_stmt 0 view .LVU2016
 5901 0000 8160     		str	r1, [r0, #8]
 359:Drivers/STM32F4xx_HAL_Driver/Src/stm32f4xx_ll_sdmmc.c ****                        Command->Response |
 5902              		.loc 1 359 3 is_stmt 1 view .LVU2017
 5903              	.LVL336:
 365:Drivers/STM32F4xx_HAL_Driver/Src/stm32f4xx_ll_sdmmc.c **** 
 5904              		.loc 1 365 3 view .LVU2018
 5905              	.LBE693:
 5906              	.LBE692:
 5907              	.LBB699:
 5908              	.LBB700:
1193:Drivers/STM32F4xx_HAL_Driver/Src/stm32f4xx_ll_sdmmc.c **** 
 5909              		.loc 1 1193 52 is_stmt 0 view .LVU2019
 5910 0002 4B4A     		ldr	r2, .L570
 5911              	.LBE700:
 5912              	.LBE699:
 5913              	.LBB715:
 5914              	.LBB694:
 365:Drivers/STM32F4xx_HAL_Driver/Src/stm32f4xx_ll_sdmmc.c **** 
 5915              		.loc 1 365 3 view .LVU2020
ARM GAS  C:\Users\pw705\AppData\Local\Temp\cceieKfF.s 			page 163


 5916 0004 C368     		ldr	r3, [r0, #12]
 5917              	.LBE694:
 5918              	.LBE715:
 5919              	.LBB716:
 5920              	.LBB709:
1193:Drivers/STM32F4xx_HAL_Driver/Src/stm32f4xx_ll_sdmmc.c **** 
 5921              		.loc 1 1193 52 view .LVU2021
 5922 0006 4B49     		ldr	r1, .L570+4
 5923              	.LVL337:
1193:Drivers/STM32F4xx_HAL_Driver/Src/stm32f4xx_ll_sdmmc.c **** 
 5924              		.loc 1 1193 52 view .LVU2022
 5925 0008 1268     		ldr	r2, [r2]
 5926              	.LBE709:
 5927              	.LBE716:
 5928              	.LBB717:
 5929              	.LBB695:
 365:Drivers/STM32F4xx_HAL_Driver/Src/stm32f4xx_ll_sdmmc.c **** 
 5930              		.loc 1 365 3 view .LVU2023
 5931 000a 23F47F63 		bic	r3, r3, #4080
 5932              	.LBE695:
 5933              	.LBE717:
 5934              	.LBB718:
 5935              	.LBB710:
1193:Drivers/STM32F4xx_HAL_Driver/Src/stm32f4xx_ll_sdmmc.c **** 
 5936              		.loc 1 1193 52 view .LVU2024
 5937 000e A1FB0212 		umull	r1, r2, r1, r2
 5938              	.LBE710:
 5939              	.LBE718:
 5940              	.LBB719:
 5941              	.LBB696:
 365:Drivers/STM32F4xx_HAL_Driver/Src/stm32f4xx_ll_sdmmc.c **** 
 5942              		.loc 1 365 3 view .LVU2025
 5943 0012 23F00F03 		bic	r3, r3, #15
 5944 0016 43F48E63 		orr	r3, r3, #1136
 5945              	.LBE696:
 5946              	.LBE719:
 5947              	.LBB720:
 5948              	.LBB711:
1193:Drivers/STM32F4xx_HAL_Driver/Src/stm32f4xx_ll_sdmmc.c **** 
 5949              		.loc 1 1193 52 view .LVU2026
 5950 001a 520A     		lsrs	r2, r2, #9
1193:Drivers/STM32F4xx_HAL_Driver/Src/stm32f4xx_ll_sdmmc.c **** 
 5951              		.loc 1 1193 12 view .LVU2027
 5952 001c 41F28831 		movw	r1, #5000
 5953              	.LBE711:
 5954              	.LBE720:
 5955              	.LBB721:
 5956              	.LBB697:
 365:Drivers/STM32F4xx_HAL_Driver/Src/stm32f4xx_ll_sdmmc.c **** 
 5957              		.loc 1 365 3 view .LVU2028
 5958 0020 43F00703 		orr	r3, r3, #7
 5959              	.LBE697:
 5960              	.LBE721:
 5961              	.LBB722:
 5962              	.LBB712:
1193:Drivers/STM32F4xx_HAL_Driver/Src/stm32f4xx_ll_sdmmc.c **** 
 5963              		.loc 1 1193 12 view .LVU2029
ARM GAS  C:\Users\pw705\AppData\Local\Temp\cceieKfF.s 			page 164


 5964 0024 01FB02F2 		mul	r2, r1, r2
 5965              	.LBE712:
 5966              	.LBE722:
 5967              	.LBB723:
 5968              	.LBB698:
 365:Drivers/STM32F4xx_HAL_Driver/Src/stm32f4xx_ll_sdmmc.c **** 
 5969              		.loc 1 365 3 view .LVU2030
 5970 0028 C360     		str	r3, [r0, #12]
 5971              	.LVL338:
 367:Drivers/STM32F4xx_HAL_Driver/Src/stm32f4xx_ll_sdmmc.c **** }
 5972              		.loc 1 367 3 is_stmt 1 view .LVU2031
 367:Drivers/STM32F4xx_HAL_Driver/Src/stm32f4xx_ll_sdmmc.c **** }
 5973              		.loc 1 367 3 is_stmt 0 view .LVU2032
 5974              	.LBE698:
 5975              	.LBE723:
 863:Drivers/STM32F4xx_HAL_Driver/Src/stm32f4xx_ll_sdmmc.c **** 
 5976              		.loc 1 863 3 is_stmt 1 view .LVU2033
 5977              	.LBB724:
 5978              	.LBI699:
1186:Drivers/STM32F4xx_HAL_Driver/Src/stm32f4xx_ll_sdmmc.c **** {
 5979              		.loc 1 1186 10 view .LVU2034
 5980              	.LBB713:
1188:Drivers/STM32F4xx_HAL_Driver/Src/stm32f4xx_ll_sdmmc.c ****   uint32_t sta_reg;
 5981              		.loc 1 1188 3 view .LVU2035
1189:Drivers/STM32F4xx_HAL_Driver/Src/stm32f4xx_ll_sdmmc.c **** 
 5982              		.loc 1 1189 3 view .LVU2036
1193:Drivers/STM32F4xx_HAL_Driver/Src/stm32f4xx_ll_sdmmc.c **** 
 5983              		.loc 1 1193 3 view .LVU2037
1195:Drivers/STM32F4xx_HAL_Driver/Src/stm32f4xx_ll_sdmmc.c ****   {
 5984              		.loc 1 1195 3 view .LVU2038
1197:Drivers/STM32F4xx_HAL_Driver/Src/stm32f4xx_ll_sdmmc.c ****     {
 5985              		.loc 1 1197 5 view .LVU2039
1197:Drivers/STM32F4xx_HAL_Driver/Src/stm32f4xx_ll_sdmmc.c ****     {
 5986              		.loc 1 1197 14 is_stmt 0 view .LVU2040
 5987 002a 531E     		subs	r3, r2, #1
 5988              	.LVL339:
1197:Drivers/STM32F4xx_HAL_Driver/Src/stm32f4xx_ll_sdmmc.c ****     {
 5989              		.loc 1 1197 8 view .LVU2041
 5990 002c 4AB1     		cbz	r2, .L541
 5991              	.L534:
1195:Drivers/STM32F4xx_HAL_Driver/Src/stm32f4xx_ll_sdmmc.c ****   {
 5992              		.loc 1 1195 3 is_stmt 1 view .LVU2042
1197:Drivers/STM32F4xx_HAL_Driver/Src/stm32f4xx_ll_sdmmc.c ****     {
 5993              		.loc 1 1197 5 view .LVU2043
1201:Drivers/STM32F4xx_HAL_Driver/Src/stm32f4xx_ll_sdmmc.c ****   } while (((sta_reg & (SDIO_FLAG_CCRCFAIL | SDIO_FLAG_CMDREND | SDIO_FLAG_CTIMEOUT)) == 0U) ||
 5994              		.loc 1 1201 5 view .LVU2044
1201:Drivers/STM32F4xx_HAL_Driver/Src/stm32f4xx_ll_sdmmc.c ****   } while (((sta_reg & (SDIO_FLAG_CCRCFAIL | SDIO_FLAG_CMDREND | SDIO_FLAG_CTIMEOUT)) == 0U) ||
 5995              		.loc 1 1201 13 is_stmt 0 view .LVU2045
 5996 002e 426B     		ldr	r2, [r0, #52]
 5997              	.LVL340:
1202:Drivers/STM32F4xx_HAL_Driver/Src/stm32f4xx_ll_sdmmc.c ****            ((sta_reg & SDIO_FLAG_CMDACT) != 0U));
 5998              		.loc 1 1202 94 is_stmt 1 view .LVU2046
 5999 0030 12F0450F 		tst	r2, #69
1197:Drivers/STM32F4xx_HAL_Driver/Src/stm32f4xx_ll_sdmmc.c ****     {
 6000              		.loc 1 1197 14 is_stmt 0 view .LVU2047
 6001 0034 03F1FF33 		add	r3, r3, #-1
 6002              	.LVL341:
ARM GAS  C:\Users\pw705\AppData\Local\Temp\cceieKfF.s 			page 165


1202:Drivers/STM32F4xx_HAL_Driver/Src/stm32f4xx_ll_sdmmc.c ****            ((sta_reg & SDIO_FLAG_CMDACT) != 0U));
 6003              		.loc 1 1202 94 view .LVU2048
 6004 0038 01D0     		beq	.L535
 6005 003a 1105     		lsls	r1, r2, #20
 6006 003c 04D5     		bpl	.L567
 6007              	.L535:
1197:Drivers/STM32F4xx_HAL_Driver/Src/stm32f4xx_ll_sdmmc.c ****     {
 6008              		.loc 1 1197 8 view .LVU2049
 6009 003e 5A1C     		adds	r2, r3, #1
 6010              	.LVL342:
1197:Drivers/STM32F4xx_HAL_Driver/Src/stm32f4xx_ll_sdmmc.c ****     {
 6011              		.loc 1 1197 8 view .LVU2050
 6012 0040 F5D1     		bne	.L534
 6013              	.LVL343:
 6014              	.L541:
1199:Drivers/STM32F4xx_HAL_Driver/Src/stm32f4xx_ll_sdmmc.c ****     }
 6015              		.loc 1 1199 14 view .LVU2051
 6016 0042 4FF00040 		mov	r0, #-2147483648
 6017              	.LVL344:
1199:Drivers/STM32F4xx_HAL_Driver/Src/stm32f4xx_ll_sdmmc.c ****     }
 6018              		.loc 1 1199 14 view .LVU2052
 6019 0046 7047     		bx	lr
 6020              	.LVL345:
 6021              	.L567:
1205:Drivers/STM32F4xx_HAL_Driver/Src/stm32f4xx_ll_sdmmc.c ****   {
 6022              		.loc 1 1205 3 is_stmt 1 view .LVU2053
1205:Drivers/STM32F4xx_HAL_Driver/Src/stm32f4xx_ll_sdmmc.c ****   {
 6023              		.loc 1 1205 7 is_stmt 0 view .LVU2054
 6024 0048 436B     		ldr	r3, [r0, #52]
 6025              	.LVL346:
1205:Drivers/STM32F4xx_HAL_Driver/Src/stm32f4xx_ll_sdmmc.c ****   {
 6026              		.loc 1 1205 6 view .LVU2055
 6027 004a 5A07     		lsls	r2, r3, #29
 6028              	.LVL347:
1205:Drivers/STM32F4xx_HAL_Driver/Src/stm32f4xx_ll_sdmmc.c ****   {
 6029              		.loc 1 1205 6 view .LVU2056
 6030 004c 3ED4     		bmi	.L568
1211:Drivers/STM32F4xx_HAL_Driver/Src/stm32f4xx_ll_sdmmc.c ****   {
 6031              		.loc 1 1211 8 is_stmt 1 view .LVU2057
1211:Drivers/STM32F4xx_HAL_Driver/Src/stm32f4xx_ll_sdmmc.c ****   {
 6032              		.loc 1 1211 12 is_stmt 0 view .LVU2058
 6033 004e 436B     		ldr	r3, [r0, #52]
1211:Drivers/STM32F4xx_HAL_Driver/Src/stm32f4xx_ll_sdmmc.c ****   {
 6034              		.loc 1 1211 11 view .LVU2059
 6035 0050 DB07     		lsls	r3, r3, #31
 6036 0052 07D4     		bmi	.L569
1220:Drivers/STM32F4xx_HAL_Driver/Src/stm32f4xx_ll_sdmmc.c **** 
 6037              		.loc 1 1220 3 is_stmt 1 view .LVU2060
1223:Drivers/STM32F4xx_HAL_Driver/Src/stm32f4xx_ll_sdmmc.c **** 
 6038              		.loc 1 1223 3 view .LVU2061
 6039 0054 C523     		movs	r3, #197
 6040 0056 8363     		str	r3, [r0, #56]
1226:Drivers/STM32F4xx_HAL_Driver/Src/stm32f4xx_ll_sdmmc.c ****   {
 6041              		.loc 1 1226 3 view .LVU2062
 6042              	.LVL348:
 6043              	.LBB701:
 6044              	.LBI701:
ARM GAS  C:\Users\pw705\AppData\Local\Temp\cceieKfF.s 			page 166


 375:Drivers/STM32F4xx_HAL_Driver/Src/stm32f4xx_ll_sdmmc.c **** {
 6045              		.loc 1 375 9 view .LVU2063
 6046              	.LBB702:
 377:Drivers/STM32F4xx_HAL_Driver/Src/stm32f4xx_ll_sdmmc.c **** }
 6047              		.loc 1 377 3 view .LVU2064
 377:Drivers/STM32F4xx_HAL_Driver/Src/stm32f4xx_ll_sdmmc.c **** }
 6048              		.loc 1 377 25 is_stmt 0 view .LVU2065
 6049 0058 0369     		ldr	r3, [r0, #16]
 6050              	.LVL349:
 377:Drivers/STM32F4xx_HAL_Driver/Src/stm32f4xx_ll_sdmmc.c **** }
 6051              		.loc 1 377 25 view .LVU2066
 6052              	.LBE702:
 6053              	.LBE701:
1226:Drivers/STM32F4xx_HAL_Driver/Src/stm32f4xx_ll_sdmmc.c ****   {
 6054              		.loc 1 1226 6 view .LVU2067
 6055 005a DBB2     		uxtb	r3, r3
 6056 005c 372B     		cmp	r3, #55
 6057 005e 04D0     		beq	.L539
 6058              	.L538:
1215:Drivers/STM32F4xx_HAL_Driver/Src/stm32f4xx_ll_sdmmc.c ****   }
 6059              		.loc 1 1215 12 view .LVU2068
 6060 0060 0120     		movs	r0, #1
 6061              	.LVL350:
1215:Drivers/STM32F4xx_HAL_Driver/Src/stm32f4xx_ll_sdmmc.c ****   }
 6062              		.loc 1 1215 12 view .LVU2069
 6063 0062 7047     		bx	lr
 6064              	.LVL351:
 6065              	.L569:
1213:Drivers/STM32F4xx_HAL_Driver/Src/stm32f4xx_ll_sdmmc.c **** 
 6066              		.loc 1 1213 5 is_stmt 1 view .LVU2070
 6067 0064 0123     		movs	r3, #1
 6068 0066 8363     		str	r3, [r0, #56]
1215:Drivers/STM32F4xx_HAL_Driver/Src/stm32f4xx_ll_sdmmc.c ****   }
 6069              		.loc 1 1215 5 view .LVU2071
1215:Drivers/STM32F4xx_HAL_Driver/Src/stm32f4xx_ll_sdmmc.c ****   }
 6070              		.loc 1 1215 12 is_stmt 0 view .LVU2072
 6071 0068 FAE7     		b	.L538
 6072              	.L539:
 6073              	.LVL352:
 6074              	.LBB703:
 6075              	.LBI703:
1186:Drivers/STM32F4xx_HAL_Driver/Src/stm32f4xx_ll_sdmmc.c **** {
 6076              		.loc 1 1186 10 is_stmt 1 view .LVU2073
 6077              	.LBB704:
1232:Drivers/STM32F4xx_HAL_Driver/Src/stm32f4xx_ll_sdmmc.c **** 
 6078              		.loc 1 1232 3 view .LVU2074
 6079              	.LBB705:
 6080              	.LBI705:
 391:Drivers/STM32F4xx_HAL_Driver/Src/stm32f4xx_ll_sdmmc.c **** {
 6081              		.loc 1 391 10 view .LVU2075
 6082              	.LBB706:
 393:Drivers/STM32F4xx_HAL_Driver/Src/stm32f4xx_ll_sdmmc.c **** 
 6083              		.loc 1 393 3 view .LVU2076
 396:Drivers/STM32F4xx_HAL_Driver/Src/stm32f4xx_ll_sdmmc.c **** 
 6084              		.loc 1 396 3 view .LVU2077
 399:Drivers/STM32F4xx_HAL_Driver/Src/stm32f4xx_ll_sdmmc.c **** 
 6085              		.loc 1 399 3 view .LVU2078
ARM GAS  C:\Users\pw705\AppData\Local\Temp\cceieKfF.s 			page 167


 401:Drivers/STM32F4xx_HAL_Driver/Src/stm32f4xx_ll_sdmmc.c **** }
 6086              		.loc 1 401 3 view .LVU2079
 401:Drivers/STM32F4xx_HAL_Driver/Src/stm32f4xx_ll_sdmmc.c **** }
 6087              		.loc 1 401 11 is_stmt 0 view .LVU2080
 6088 006a 4369     		ldr	r3, [r0, #20]
 6089              	.LVL353:
 401:Drivers/STM32F4xx_HAL_Driver/Src/stm32f4xx_ll_sdmmc.c **** }
 6090              		.loc 1 401 11 view .LVU2081
 6091              	.LBE706:
 6092              	.LBE705:
1234:Drivers/STM32F4xx_HAL_Driver/Src/stm32f4xx_ll_sdmmc.c ****   {
 6093              		.loc 1 1234 3 is_stmt 1 view .LVU2082
1234:Drivers/STM32F4xx_HAL_Driver/Src/stm32f4xx_ll_sdmmc.c ****   {
 6094              		.loc 1 1234 20 is_stmt 0 view .LVU2083
 6095 006c 3248     		ldr	r0, .L570+8
 6096              	.LVL354:
1234:Drivers/STM32F4xx_HAL_Driver/Src/stm32f4xx_ll_sdmmc.c ****   {
 6097              		.loc 1 1234 20 view .LVU2084
 6098 006e 1840     		ands	r0, r0, r3
1234:Drivers/STM32F4xx_HAL_Driver/Src/stm32f4xx_ll_sdmmc.c ****   {
 6099              		.loc 1 1234 6 view .LVU2085
 6100 0070 58B3     		cbz	r0, .L532
1238:Drivers/STM32F4xx_HAL_Driver/Src/stm32f4xx_ll_sdmmc.c ****   {
 6101              		.loc 1 1238 8 is_stmt 1 view .LVU2086
1238:Drivers/STM32F4xx_HAL_Driver/Src/stm32f4xx_ll_sdmmc.c ****   {
 6102              		.loc 1 1238 11 is_stmt 0 view .LVU2087
 6103 0072 002B     		cmp	r3, #0
 6104 0074 2EDB     		blt	.L542
1242:Drivers/STM32F4xx_HAL_Driver/Src/stm32f4xx_ll_sdmmc.c ****   {
 6105              		.loc 1 1242 8 is_stmt 1 view .LVU2088
1242:Drivers/STM32F4xx_HAL_Driver/Src/stm32f4xx_ll_sdmmc.c ****   {
 6106              		.loc 1 1242 11 is_stmt 0 view .LVU2089
 6107 0076 5900     		lsls	r1, r3, #1
 6108 0078 2FD4     		bmi	.L543
1246:Drivers/STM32F4xx_HAL_Driver/Src/stm32f4xx_ll_sdmmc.c ****   {
 6109              		.loc 1 1246 8 is_stmt 1 view .LVU2090
1246:Drivers/STM32F4xx_HAL_Driver/Src/stm32f4xx_ll_sdmmc.c ****   {
 6110              		.loc 1 1246 11 is_stmt 0 view .LVU2091
 6111 007a 9A00     		lsls	r2, r3, #2
 6112 007c 2FD4     		bmi	.L544
1250:Drivers/STM32F4xx_HAL_Driver/Src/stm32f4xx_ll_sdmmc.c ****   {
 6113              		.loc 1 1250 8 is_stmt 1 view .LVU2092
1250:Drivers/STM32F4xx_HAL_Driver/Src/stm32f4xx_ll_sdmmc.c ****   {
 6114              		.loc 1 1250 11 is_stmt 0 view .LVU2093
 6115 007e D900     		lsls	r1, r3, #3
 6116 0080 2FD4     		bmi	.L545
1254:Drivers/STM32F4xx_HAL_Driver/Src/stm32f4xx_ll_sdmmc.c ****   {
 6117              		.loc 1 1254 8 is_stmt 1 view .LVU2094
1254:Drivers/STM32F4xx_HAL_Driver/Src/stm32f4xx_ll_sdmmc.c ****   {
 6118              		.loc 1 1254 11 is_stmt 0 view .LVU2095
 6119 0082 1A01     		lsls	r2, r3, #4
 6120 0084 30D4     		bmi	.L546
1258:Drivers/STM32F4xx_HAL_Driver/Src/stm32f4xx_ll_sdmmc.c ****   {
 6121              		.loc 1 1258 8 is_stmt 1 view .LVU2096
1258:Drivers/STM32F4xx_HAL_Driver/Src/stm32f4xx_ll_sdmmc.c ****   {
 6122              		.loc 1 1258 11 is_stmt 0 view .LVU2097
 6123 0086 5901     		lsls	r1, r3, #5
ARM GAS  C:\Users\pw705\AppData\Local\Temp\cceieKfF.s 			page 168


 6124 0088 31D4     		bmi	.L547
1262:Drivers/STM32F4xx_HAL_Driver/Src/stm32f4xx_ll_sdmmc.c ****   {
 6125              		.loc 1 1262 8 is_stmt 1 view .LVU2098
1262:Drivers/STM32F4xx_HAL_Driver/Src/stm32f4xx_ll_sdmmc.c ****   {
 6126              		.loc 1 1262 11 is_stmt 0 view .LVU2099
 6127 008a DA01     		lsls	r2, r3, #7
 6128 008c 32D4     		bmi	.L548
1266:Drivers/STM32F4xx_HAL_Driver/Src/stm32f4xx_ll_sdmmc.c ****   {
 6129              		.loc 1 1266 8 is_stmt 1 view .LVU2100
1266:Drivers/STM32F4xx_HAL_Driver/Src/stm32f4xx_ll_sdmmc.c ****   {
 6130              		.loc 1 1266 11 is_stmt 0 view .LVU2101
 6131 008e 1902     		lsls	r1, r3, #8
 6132 0090 33D4     		bmi	.L549
1270:Drivers/STM32F4xx_HAL_Driver/Src/stm32f4xx_ll_sdmmc.c ****   {
 6133              		.loc 1 1270 8 is_stmt 1 view .LVU2102
1270:Drivers/STM32F4xx_HAL_Driver/Src/stm32f4xx_ll_sdmmc.c ****   {
 6134              		.loc 1 1270 11 is_stmt 0 view .LVU2103
 6135 0092 5A02     		lsls	r2, r3, #9
 6136 0094 34D4     		bmi	.L550
1274:Drivers/STM32F4xx_HAL_Driver/Src/stm32f4xx_ll_sdmmc.c ****   {
 6137              		.loc 1 1274 8 is_stmt 1 view .LVU2104
1274:Drivers/STM32F4xx_HAL_Driver/Src/stm32f4xx_ll_sdmmc.c ****   {
 6138              		.loc 1 1274 11 is_stmt 0 view .LVU2105
 6139 0096 9902     		lsls	r1, r3, #10
 6140 0098 3ED4     		bmi	.L551
1278:Drivers/STM32F4xx_HAL_Driver/Src/stm32f4xx_ll_sdmmc.c ****   {
 6141              		.loc 1 1278 8 is_stmt 1 view .LVU2106
1278:Drivers/STM32F4xx_HAL_Driver/Src/stm32f4xx_ll_sdmmc.c ****   {
 6142              		.loc 1 1278 11 is_stmt 0 view .LVU2107
 6143 009a DA02     		lsls	r2, r3, #11
 6144 009c 39D4     		bmi	.L552
1282:Drivers/STM32F4xx_HAL_Driver/Src/stm32f4xx_ll_sdmmc.c ****   {
 6145              		.loc 1 1282 8 is_stmt 1 view .LVU2108
1282:Drivers/STM32F4xx_HAL_Driver/Src/stm32f4xx_ll_sdmmc.c ****   {
 6146              		.loc 1 1282 11 is_stmt 0 view .LVU2109
 6147 009e 5903     		lsls	r1, r3, #13
 6148 00a0 34D4     		bmi	.L553
1286:Drivers/STM32F4xx_HAL_Driver/Src/stm32f4xx_ll_sdmmc.c ****   {
 6149              		.loc 1 1286 8 is_stmt 1 view .LVU2110
1286:Drivers/STM32F4xx_HAL_Driver/Src/stm32f4xx_ll_sdmmc.c ****   {
 6150              		.loc 1 1286 11 is_stmt 0 view .LVU2111
 6151 00a2 9A03     		lsls	r2, r3, #14
 6152 00a4 2FD4     		bmi	.L554
1290:Drivers/STM32F4xx_HAL_Driver/Src/stm32f4xx_ll_sdmmc.c ****   {
 6153              		.loc 1 1290 8 is_stmt 1 view .LVU2112
1290:Drivers/STM32F4xx_HAL_Driver/Src/stm32f4xx_ll_sdmmc.c ****   {
 6154              		.loc 1 1290 11 is_stmt 0 view .LVU2113
 6155 00a6 D903     		lsls	r1, r3, #15
 6156 00a8 3FD4     		bmi	.L555
1294:Drivers/STM32F4xx_HAL_Driver/Src/stm32f4xx_ll_sdmmc.c ****   {
 6157              		.loc 1 1294 8 is_stmt 1 view .LVU2114
1294:Drivers/STM32F4xx_HAL_Driver/Src/stm32f4xx_ll_sdmmc.c ****   {
 6158              		.loc 1 1294 11 is_stmt 0 view .LVU2115
 6159 00aa 1A04     		lsls	r2, r3, #16
 6160 00ac 3AD4     		bmi	.L556
1298:Drivers/STM32F4xx_HAL_Driver/Src/stm32f4xx_ll_sdmmc.c ****   {
 6161              		.loc 1 1298 8 is_stmt 1 view .LVU2116
ARM GAS  C:\Users\pw705\AppData\Local\Temp\cceieKfF.s 			page 169


1298:Drivers/STM32F4xx_HAL_Driver/Src/stm32f4xx_ll_sdmmc.c ****   {
 6162              		.loc 1 1298 11 is_stmt 0 view .LVU2117
 6163 00ae 5904     		lsls	r1, r3, #17
 6164 00b0 35D4     		bmi	.L557
1302:Drivers/STM32F4xx_HAL_Driver/Src/stm32f4xx_ll_sdmmc.c ****   {
 6165              		.loc 1 1302 8 is_stmt 1 view .LVU2118
1302:Drivers/STM32F4xx_HAL_Driver/Src/stm32f4xx_ll_sdmmc.c ****   {
 6166              		.loc 1 1302 11 is_stmt 0 view .LVU2119
 6167 00b2 9A04     		lsls	r2, r3, #18
 6168 00b4 07D4     		bmi	.L558
1306:Drivers/STM32F4xx_HAL_Driver/Src/stm32f4xx_ll_sdmmc.c ****   {
 6169              		.loc 1 1306 8 is_stmt 1 view .LVU2120
1308:Drivers/STM32F4xx_HAL_Driver/Src/stm32f4xx_ll_sdmmc.c ****   }
 6170              		.loc 1 1308 12 is_stmt 0 view .LVU2121
 6171 00b6 13F0080F 		tst	r3, #8
 6172 00ba 0CBF     		ite	eq
 6173 00bc 4FF48030 		moveq	r0, #65536
 6174 00c0 4FF40000 		movne	r0, #8388608
 6175 00c4 7047     		bx	lr
 6176              	.L558:
1304:Drivers/STM32F4xx_HAL_Driver/Src/stm32f4xx_ll_sdmmc.c ****   }
 6177              		.loc 1 1304 12 view .LVU2122
 6178 00c6 4FF48000 		mov	r0, #4194304
 6179              	.L532:
1304:Drivers/STM32F4xx_HAL_Driver/Src/stm32f4xx_ll_sdmmc.c ****   }
 6180              		.loc 1 1304 12 view .LVU2123
 6181              	.LBE704:
 6182              	.LBE703:
 6183              	.LBE713:
 6184              	.LBE724:
 866:Drivers/STM32F4xx_HAL_Driver/Src/stm32f4xx_ll_sdmmc.c **** 
 6185              		.loc 1 866 1 view .LVU2124
 6186 00ca 7047     		bx	lr
 6187              	.LVL355:
 6188              	.L568:
 6189              	.LBB725:
 6190              	.LBB714:
1207:Drivers/STM32F4xx_HAL_Driver/Src/stm32f4xx_ll_sdmmc.c **** 
 6191              		.loc 1 1207 5 is_stmt 1 view .LVU2125
 6192 00cc 0423     		movs	r3, #4
 6193 00ce 8363     		str	r3, [r0, #56]
1209:Drivers/STM32F4xx_HAL_Driver/Src/stm32f4xx_ll_sdmmc.c ****   }
 6194              		.loc 1 1209 5 view .LVU2126
1209:Drivers/STM32F4xx_HAL_Driver/Src/stm32f4xx_ll_sdmmc.c ****   }
 6195              		.loc 1 1209 12 is_stmt 0 view .LVU2127
 6196 00d0 1846     		mov	r0, r3
 6197              	.LVL356:
1209:Drivers/STM32F4xx_HAL_Driver/Src/stm32f4xx_ll_sdmmc.c ****   }
 6198              		.loc 1 1209 12 view .LVU2128
 6199 00d2 7047     		bx	lr
 6200              	.LVL357:
 6201              	.L542:
 6202              	.LBB708:
 6203              	.LBB707:
1240:Drivers/STM32F4xx_HAL_Driver/Src/stm32f4xx_ll_sdmmc.c ****   }
 6204              		.loc 1 1240 12 view .LVU2129
 6205 00d4 4FF00070 		mov	r0, #33554432
ARM GAS  C:\Users\pw705\AppData\Local\Temp\cceieKfF.s 			page 170


 6206 00d8 7047     		bx	lr
 6207              	.L543:
1244:Drivers/STM32F4xx_HAL_Driver/Src/stm32f4xx_ll_sdmmc.c ****   }
 6208              		.loc 1 1244 12 view .LVU2130
 6209 00da 4020     		movs	r0, #64
 6210 00dc 7047     		bx	lr
 6211              	.L544:
1248:Drivers/STM32F4xx_HAL_Driver/Src/stm32f4xx_ll_sdmmc.c ****   }
 6212              		.loc 1 1248 12 view .LVU2131
 6213 00de 8020     		movs	r0, #128
 6214 00e0 7047     		bx	lr
 6215              	.L545:
1252:Drivers/STM32F4xx_HAL_Driver/Src/stm32f4xx_ll_sdmmc.c ****   }
 6216              		.loc 1 1252 12 view .LVU2132
 6217 00e2 4FF48070 		mov	r0, #256
 6218 00e6 7047     		bx	lr
 6219              	.L546:
1256:Drivers/STM32F4xx_HAL_Driver/Src/stm32f4xx_ll_sdmmc.c ****   }
 6220              		.loc 1 1256 12 view .LVU2133
 6221 00e8 4FF40070 		mov	r0, #512
 6222 00ec 7047     		bx	lr
 6223              	.L547:
1260:Drivers/STM32F4xx_HAL_Driver/Src/stm32f4xx_ll_sdmmc.c ****   }
 6224              		.loc 1 1260 12 view .LVU2134
 6225 00ee 4FF48060 		mov	r0, #1024
 6226 00f2 7047     		bx	lr
 6227              	.L548:
1264:Drivers/STM32F4xx_HAL_Driver/Src/stm32f4xx_ll_sdmmc.c ****   }
 6228              		.loc 1 1264 12 view .LVU2135
 6229 00f4 4FF40060 		mov	r0, #2048
 6230 00f8 7047     		bx	lr
 6231              	.L549:
1268:Drivers/STM32F4xx_HAL_Driver/Src/stm32f4xx_ll_sdmmc.c ****   }
 6232              		.loc 1 1268 12 view .LVU2136
 6233 00fa 4FF48050 		mov	r0, #4096
 6234 00fe 7047     		bx	lr
 6235              	.L550:
1272:Drivers/STM32F4xx_HAL_Driver/Src/stm32f4xx_ll_sdmmc.c ****   }
 6236              		.loc 1 1272 12 view .LVU2137
 6237 0100 4FF40050 		mov	r0, #8192
 6238 0104 7047     		bx	lr
 6239              	.L554:
1288:Drivers/STM32F4xx_HAL_Driver/Src/stm32f4xx_ll_sdmmc.c ****   }
 6240              		.loc 1 1288 12 view .LVU2138
 6241 0106 4FF48020 		mov	r0, #262144
 6242 010a 7047     		bx	lr
 6243              	.L553:
1284:Drivers/STM32F4xx_HAL_Driver/Src/stm32f4xx_ll_sdmmc.c ****   }
 6244              		.loc 1 1284 12 view .LVU2139
 6245 010c 4FF40030 		mov	r0, #131072
 6246 0110 7047     		bx	lr
 6247              	.L552:
1280:Drivers/STM32F4xx_HAL_Driver/Src/stm32f4xx_ll_sdmmc.c ****   }
 6248              		.loc 1 1280 12 view .LVU2140
 6249 0112 4FF40040 		mov	r0, #32768
 6250 0116 7047     		bx	lr
 6251              	.L551:
ARM GAS  C:\Users\pw705\AppData\Local\Temp\cceieKfF.s 			page 171


1276:Drivers/STM32F4xx_HAL_Driver/Src/stm32f4xx_ll_sdmmc.c ****   }
 6252              		.loc 1 1276 12 view .LVU2141
 6253 0118 4FF48040 		mov	r0, #16384
 6254 011c 7047     		bx	lr
 6255              	.L557:
1300:Drivers/STM32F4xx_HAL_Driver/Src/stm32f4xx_ll_sdmmc.c ****   }
 6256              		.loc 1 1300 12 view .LVU2142
 6257 011e 4FF40010 		mov	r0, #2097152
 6258 0122 7047     		bx	lr
 6259              	.L556:
1296:Drivers/STM32F4xx_HAL_Driver/Src/stm32f4xx_ll_sdmmc.c ****   }
 6260              		.loc 1 1296 12 view .LVU2143
 6261 0124 4FF48010 		mov	r0, #1048576
 6262 0128 7047     		bx	lr
 6263              	.L555:
1292:Drivers/STM32F4xx_HAL_Driver/Src/stm32f4xx_ll_sdmmc.c ****   }
 6264              		.loc 1 1292 12 view .LVU2144
 6265 012a 4FF40020 		mov	r0, #524288
 6266 012e 7047     		bx	lr
 6267              	.L571:
 6268              		.align	2
 6269              	.L570:
 6270 0130 00000000 		.word	SystemCoreClock
 6271 0134 D34D6210 		.word	274877907
 6272 0138 08E0FFFD 		.word	-33562616
 6273              	.LBE707:
 6274              	.LBE708:
 6275              	.LBE714:
 6276              	.LBE725:
 6277              		.cfi_endproc
 6278              	.LFE157:
 6280              		.section	.text.SDMMC_CmdAppOperCommand,"ax",%progbits
 6281              		.align	1
 6282              		.p2align 2,,3
 6283              		.global	SDMMC_CmdAppOperCommand
 6284              		.syntax unified
 6285              		.thumb
 6286              		.thumb_func
 6288              	SDMMC_CmdAppOperCommand:
 6289              	.LVL358:
 6290              	.LFB158:
 876:Drivers/STM32F4xx_HAL_Driver/Src/stm32f4xx_ll_sdmmc.c ****   SDIO_CmdInitTypeDef sdmmc_cmdinit;
 6291              		.loc 1 876 1 is_stmt 1 view -0
 6292              		.cfi_startproc
 6293              		@ args = 0, pretend = 0, frame = 0
 6294              		@ frame_needed = 0, uses_anonymous_args = 0
 6295              		@ link register save eliminated.
 877:Drivers/STM32F4xx_HAL_Driver/Src/stm32f4xx_ll_sdmmc.c ****   uint32_t errorstate;
 6296              		.loc 1 877 3 view .LVU2146
 878:Drivers/STM32F4xx_HAL_Driver/Src/stm32f4xx_ll_sdmmc.c **** 
 6297              		.loc 1 878 3 view .LVU2147
 880:Drivers/STM32F4xx_HAL_Driver/Src/stm32f4xx_ll_sdmmc.c ****   sdmmc_cmdinit.CmdIndex = SDMMC_CMD_SD_APP_OP_COND;
 6298              		.loc 1 880 3 view .LVU2148
 880:Drivers/STM32F4xx_HAL_Driver/Src/stm32f4xx_ll_sdmmc.c ****   sdmmc_cmdinit.CmdIndex = SDMMC_CMD_SD_APP_OP_COND;
 6299              		.loc 1 880 52 is_stmt 0 view .LVU2149
 6300 0000 41F00041 		orr	r1, r1, #-2147483648
 6301              	.LVL359:
ARM GAS  C:\Users\pw705\AppData\Local\Temp\cceieKfF.s 			page 172


 880:Drivers/STM32F4xx_HAL_Driver/Src/stm32f4xx_ll_sdmmc.c ****   sdmmc_cmdinit.CmdIndex = SDMMC_CMD_SD_APP_OP_COND;
 6302              		.loc 1 880 52 view .LVU2150
 6303 0004 41F48011 		orr	r1, r1, #1048576
 6304              	.LVL360:
 881:Drivers/STM32F4xx_HAL_Driver/Src/stm32f4xx_ll_sdmmc.c ****   sdmmc_cmdinit.Response = SDIO_RESPONSE_SHORT;
 6305              		.loc 1 881 3 is_stmt 1 view .LVU2151
 882:Drivers/STM32F4xx_HAL_Driver/Src/stm32f4xx_ll_sdmmc.c ****   sdmmc_cmdinit.WaitForInterrupt = SDIO_WAIT_NO;
 6306              		.loc 1 882 3 view .LVU2152
 883:Drivers/STM32F4xx_HAL_Driver/Src/stm32f4xx_ll_sdmmc.c ****   sdmmc_cmdinit.CPSM = SDIO_CPSM_ENABLE;
 6307              		.loc 1 883 3 view .LVU2153
 884:Drivers/STM32F4xx_HAL_Driver/Src/stm32f4xx_ll_sdmmc.c ****   (void)SDIO_SendCommand(SDIOx, &sdmmc_cmdinit);
 6308              		.loc 1 884 3 view .LVU2154
 885:Drivers/STM32F4xx_HAL_Driver/Src/stm32f4xx_ll_sdmmc.c **** 
 6309              		.loc 1 885 3 view .LVU2155
 6310              	.LBB732:
 6311              	.LBI732:
 345:Drivers/STM32F4xx_HAL_Driver/Src/stm32f4xx_ll_sdmmc.c **** {
 6312              		.loc 1 345 19 view .LVU2156
 6313              	.LBB733:
 347:Drivers/STM32F4xx_HAL_Driver/Src/stm32f4xx_ll_sdmmc.c **** 
 6314              		.loc 1 347 3 view .LVU2157
 350:Drivers/STM32F4xx_HAL_Driver/Src/stm32f4xx_ll_sdmmc.c ****   assert_param(IS_SDIO_RESPONSE(Command->Response));
 6315              		.loc 1 350 3 view .LVU2158
 351:Drivers/STM32F4xx_HAL_Driver/Src/stm32f4xx_ll_sdmmc.c ****   assert_param(IS_SDIO_WAIT(Command->WaitForInterrupt));
 6316              		.loc 1 351 3 view .LVU2159
 352:Drivers/STM32F4xx_HAL_Driver/Src/stm32f4xx_ll_sdmmc.c ****   assert_param(IS_SDIO_CPSM(Command->CPSM));
 6317              		.loc 1 352 3 view .LVU2160
 353:Drivers/STM32F4xx_HAL_Driver/Src/stm32f4xx_ll_sdmmc.c **** 
 6318              		.loc 1 353 3 view .LVU2161
 356:Drivers/STM32F4xx_HAL_Driver/Src/stm32f4xx_ll_sdmmc.c **** 
 6319              		.loc 1 356 3 view .LVU2162
 356:Drivers/STM32F4xx_HAL_Driver/Src/stm32f4xx_ll_sdmmc.c **** 
 6320              		.loc 1 356 14 is_stmt 0 view .LVU2163
 6321 0008 8160     		str	r1, [r0, #8]
 359:Drivers/STM32F4xx_HAL_Driver/Src/stm32f4xx_ll_sdmmc.c ****                        Command->Response |
 6322              		.loc 1 359 3 is_stmt 1 view .LVU2164
 6323              	.LVL361:
 365:Drivers/STM32F4xx_HAL_Driver/Src/stm32f4xx_ll_sdmmc.c **** 
 6324              		.loc 1 365 3 view .LVU2165
 6325              	.LBE733:
 6326              	.LBE732:
 6327              	.LBB739:
 6328              	.LBB740:
1370:Drivers/STM32F4xx_HAL_Driver/Src/stm32f4xx_ll_sdmmc.c **** 
 6329              		.loc 1 1370 60 is_stmt 0 view .LVU2166
 6330 000a 184A     		ldr	r2, .L584
 6331              	.LBE740:
 6332              	.LBE739:
 6333              	.LBB749:
 6334              	.LBB734:
 365:Drivers/STM32F4xx_HAL_Driver/Src/stm32f4xx_ll_sdmmc.c **** 
 6335              		.loc 1 365 3 view .LVU2167
 6336 000c C368     		ldr	r3, [r0, #12]
 6337              	.LBE734:
 6338              	.LBE749:
 6339              	.LBB750:
 6340              	.LBB743:
ARM GAS  C:\Users\pw705\AppData\Local\Temp\cceieKfF.s 			page 173


1370:Drivers/STM32F4xx_HAL_Driver/Src/stm32f4xx_ll_sdmmc.c **** 
 6341              		.loc 1 1370 60 view .LVU2168
 6342 000e 1849     		ldr	r1, .L584+4
 6343              	.LVL362:
1370:Drivers/STM32F4xx_HAL_Driver/Src/stm32f4xx_ll_sdmmc.c **** 
 6344              		.loc 1 1370 60 view .LVU2169
 6345 0010 1268     		ldr	r2, [r2]
 6346              	.LBE743:
 6347              	.LBE750:
 6348              	.LBB751:
 6349              	.LBB735:
 365:Drivers/STM32F4xx_HAL_Driver/Src/stm32f4xx_ll_sdmmc.c **** 
 6350              		.loc 1 365 3 view .LVU2170
 6351 0012 23F47F63 		bic	r3, r3, #4080
 6352              	.LBE735:
 6353              	.LBE751:
 6354              	.LBB752:
 6355              	.LBB744:
1370:Drivers/STM32F4xx_HAL_Driver/Src/stm32f4xx_ll_sdmmc.c **** 
 6356              		.loc 1 1370 60 view .LVU2171
 6357 0016 A1FB0212 		umull	r1, r2, r1, r2
 6358              	.LBE744:
 6359              	.LBE752:
 6360              	.LBB753:
 6361              	.LBB736:
 365:Drivers/STM32F4xx_HAL_Driver/Src/stm32f4xx_ll_sdmmc.c **** 
 6362              		.loc 1 365 3 view .LVU2172
 6363 001a 23F00F03 		bic	r3, r3, #15
 6364 001e 43F48D63 		orr	r3, r3, #1128
 6365              	.LBE736:
 6366              	.LBE753:
 6367              	.LBB754:
 6368              	.LBB745:
1370:Drivers/STM32F4xx_HAL_Driver/Src/stm32f4xx_ll_sdmmc.c **** 
 6369              		.loc 1 1370 60 view .LVU2173
 6370 0022 520A     		lsrs	r2, r2, #9
1370:Drivers/STM32F4xx_HAL_Driver/Src/stm32f4xx_ll_sdmmc.c **** 
 6371              		.loc 1 1370 12 view .LVU2174
 6372 0024 41F28831 		movw	r1, #5000
 6373              	.LBE745:
 6374              	.LBE754:
 6375              	.LBB755:
 6376              	.LBB737:
 365:Drivers/STM32F4xx_HAL_Driver/Src/stm32f4xx_ll_sdmmc.c **** 
 6377              		.loc 1 365 3 view .LVU2175
 6378 0028 43F00103 		orr	r3, r3, #1
 6379              	.LBE737:
 6380              	.LBE755:
 6381              	.LBB756:
 6382              	.LBB746:
1370:Drivers/STM32F4xx_HAL_Driver/Src/stm32f4xx_ll_sdmmc.c **** 
 6383              		.loc 1 1370 12 view .LVU2176
 6384 002c 01FB02F2 		mul	r2, r1, r2
 6385              	.LBE746:
 6386              	.LBE756:
 6387              	.LBB757:
 6388              	.LBB738:
ARM GAS  C:\Users\pw705\AppData\Local\Temp\cceieKfF.s 			page 174


 365:Drivers/STM32F4xx_HAL_Driver/Src/stm32f4xx_ll_sdmmc.c **** 
 6389              		.loc 1 365 3 view .LVU2177
 6390 0030 C360     		str	r3, [r0, #12]
 6391              	.LVL363:
 367:Drivers/STM32F4xx_HAL_Driver/Src/stm32f4xx_ll_sdmmc.c **** }
 6392              		.loc 1 367 3 is_stmt 1 view .LVU2178
 367:Drivers/STM32F4xx_HAL_Driver/Src/stm32f4xx_ll_sdmmc.c **** }
 6393              		.loc 1 367 3 is_stmt 0 view .LVU2179
 6394              	.LBE738:
 6395              	.LBE757:
 888:Drivers/STM32F4xx_HAL_Driver/Src/stm32f4xx_ll_sdmmc.c **** 
 6396              		.loc 1 888 3 is_stmt 1 view .LVU2180
 876:Drivers/STM32F4xx_HAL_Driver/Src/stm32f4xx_ll_sdmmc.c ****   SDIO_CmdInitTypeDef sdmmc_cmdinit;
 6397              		.loc 1 876 1 is_stmt 0 view .LVU2181
 6398 0032 8446     		mov	ip, r0
 6399              	.LVL364:
 6400              	.LBB758:
 6401              	.LBI739:
1365:Drivers/STM32F4xx_HAL_Driver/Src/stm32f4xx_ll_sdmmc.c **** {
 6402              		.loc 1 1365 10 is_stmt 1 view .LVU2182
 6403              	.LBB747:
1367:Drivers/STM32F4xx_HAL_Driver/Src/stm32f4xx_ll_sdmmc.c ****   /* 8 is the number of required instructions cycles for the below loop statement.
 6404              		.loc 1 1367 3 view .LVU2183
1370:Drivers/STM32F4xx_HAL_Driver/Src/stm32f4xx_ll_sdmmc.c **** 
 6405              		.loc 1 1370 3 view .LVU2184
1372:Drivers/STM32F4xx_HAL_Driver/Src/stm32f4xx_ll_sdmmc.c ****   {
 6406              		.loc 1 1372 3 view .LVU2185
1374:Drivers/STM32F4xx_HAL_Driver/Src/stm32f4xx_ll_sdmmc.c ****     {
 6407              		.loc 1 1374 5 view .LVU2186
1374:Drivers/STM32F4xx_HAL_Driver/Src/stm32f4xx_ll_sdmmc.c ****     {
 6408              		.loc 1 1374 14 is_stmt 0 view .LVU2187
 6409 0034 531E     		subs	r3, r2, #1
 6410              	.LVL365:
1374:Drivers/STM32F4xx_HAL_Driver/Src/stm32f4xx_ll_sdmmc.c ****     {
 6411              		.loc 1 1374 8 view .LVU2188
 6412 0036 52B1     		cbz	r2, .L578
 6413              	.L574:
1372:Drivers/STM32F4xx_HAL_Driver/Src/stm32f4xx_ll_sdmmc.c ****   {
 6414              		.loc 1 1372 3 is_stmt 1 view .LVU2189
1374:Drivers/STM32F4xx_HAL_Driver/Src/stm32f4xx_ll_sdmmc.c ****     {
 6415              		.loc 1 1374 5 view .LVU2190
1378:Drivers/STM32F4xx_HAL_Driver/Src/stm32f4xx_ll_sdmmc.c ****   } while (((sta_reg & (SDIO_FLAG_CCRCFAIL | SDIO_FLAG_CMDREND | SDIO_FLAG_CTIMEOUT)) == 0U) ||
 6416              		.loc 1 1378 5 view .LVU2191
1378:Drivers/STM32F4xx_HAL_Driver/Src/stm32f4xx_ll_sdmmc.c ****   } while (((sta_reg & (SDIO_FLAG_CCRCFAIL | SDIO_FLAG_CMDREND | SDIO_FLAG_CTIMEOUT)) == 0U) ||
 6417              		.loc 1 1378 13 is_stmt 0 view .LVU2192
 6418 0038 DCF83420 		ldr	r2, [ip, #52]
 6419              	.LVL366:
1379:Drivers/STM32F4xx_HAL_Driver/Src/stm32f4xx_ll_sdmmc.c ****            ((sta_reg & SDIO_FLAG_CMDACT) != 0U));
 6420              		.loc 1 1379 94 is_stmt 1 view .LVU2193
 6421 003c 12F0450F 		tst	r2, #69
1374:Drivers/STM32F4xx_HAL_Driver/Src/stm32f4xx_ll_sdmmc.c ****     {
 6422              		.loc 1 1374 14 is_stmt 0 view .LVU2194
 6423 0040 03F1FF33 		add	r3, r3, #-1
 6424              	.LVL367:
1379:Drivers/STM32F4xx_HAL_Driver/Src/stm32f4xx_ll_sdmmc.c ****            ((sta_reg & SDIO_FLAG_CMDACT) != 0U));
 6425              		.loc 1 1379 94 view .LVU2195
 6426 0044 01D0     		beq	.L575
ARM GAS  C:\Users\pw705\AppData\Local\Temp\cceieKfF.s 			page 175


 6427 0046 1205     		lsls	r2, r2, #20
 6428              	.LVL368:
1379:Drivers/STM32F4xx_HAL_Driver/Src/stm32f4xx_ll_sdmmc.c ****            ((sta_reg & SDIO_FLAG_CMDACT) != 0U));
 6429              		.loc 1 1379 94 view .LVU2196
 6430 0048 04D5     		bpl	.L583
 6431              	.L575:
1374:Drivers/STM32F4xx_HAL_Driver/Src/stm32f4xx_ll_sdmmc.c ****     {
 6432              		.loc 1 1374 8 view .LVU2197
 6433 004a 591C     		adds	r1, r3, #1
 6434 004c F4D1     		bne	.L574
 6435              	.LVL369:
 6436              	.L578:
1376:Drivers/STM32F4xx_HAL_Driver/Src/stm32f4xx_ll_sdmmc.c ****     }
 6437              		.loc 1 1376 14 view .LVU2198
 6438 004e 4FF00040 		mov	r0, #-2147483648
 6439              	.LVL370:
1376:Drivers/STM32F4xx_HAL_Driver/Src/stm32f4xx_ll_sdmmc.c ****     }
 6440              		.loc 1 1376 14 view .LVU2199
 6441              	.LBE747:
 6442              	.LBE758:
 890:Drivers/STM32F4xx_HAL_Driver/Src/stm32f4xx_ll_sdmmc.c **** }
 6443              		.loc 1 890 3 is_stmt 1 view .LVU2200
 891:Drivers/STM32F4xx_HAL_Driver/Src/stm32f4xx_ll_sdmmc.c **** 
 6444              		.loc 1 891 1 is_stmt 0 view .LVU2201
 6445 0052 7047     		bx	lr
 6446              	.LVL371:
 6447              	.L583:
 6448              	.LBB759:
 6449              	.LBB748:
 6450              	.LBB741:
 6451              	.LBI741:
1365:Drivers/STM32F4xx_HAL_Driver/Src/stm32f4xx_ll_sdmmc.c **** {
 6452              		.loc 1 1365 10 is_stmt 1 view .LVU2202
 6453              	.LBB742:
1382:Drivers/STM32F4xx_HAL_Driver/Src/stm32f4xx_ll_sdmmc.c ****   {
 6454              		.loc 1 1382 3 view .LVU2203
1382:Drivers/STM32F4xx_HAL_Driver/Src/stm32f4xx_ll_sdmmc.c ****   {
 6455              		.loc 1 1382 7 is_stmt 0 view .LVU2204
 6456 0054 DCF83400 		ldr	r0, [ip, #52]
 6457              	.LVL372:
1382:Drivers/STM32F4xx_HAL_Driver/Src/stm32f4xx_ll_sdmmc.c ****   {
 6458              		.loc 1 1382 6 view .LVU2205
 6459 0058 10F00400 		ands	r0, r0, #4
1384:Drivers/STM32F4xx_HAL_Driver/Src/stm32f4xx_ll_sdmmc.c **** 
 6460              		.loc 1 1384 5 is_stmt 1 view .LVU2206
 6461 005c 15BF     		itete	ne
 6462 005e 0420     		movne	r0, #4
1391:Drivers/STM32F4xx_HAL_Driver/Src/stm32f4xx_ll_sdmmc.c ****   }
 6463              		.loc 1 1391 5 is_stmt 0 view .LVU2207
 6464 0060 C523     		moveq	r3, #197
 6465              	.LVL373:
1384:Drivers/STM32F4xx_HAL_Driver/Src/stm32f4xx_ll_sdmmc.c **** 
 6466              		.loc 1 1384 5 view .LVU2208
 6467 0062 CCF83800 		strne	r0, [ip, #56]
1386:Drivers/STM32F4xx_HAL_Driver/Src/stm32f4xx_ll_sdmmc.c ****   }
 6468              		.loc 1 1386 5 is_stmt 1 view .LVU2209
1391:Drivers/STM32F4xx_HAL_Driver/Src/stm32f4xx_ll_sdmmc.c ****   }
ARM GAS  C:\Users\pw705\AppData\Local\Temp\cceieKfF.s 			page 176


 6469              		.loc 1 1391 5 is_stmt 0 view .LVU2210
 6470 0066 CCF83830 		streq	r3, [ip, #56]
1391:Drivers/STM32F4xx_HAL_Driver/Src/stm32f4xx_ll_sdmmc.c ****   }
 6471              		.loc 1 1391 5 is_stmt 1 view .LVU2211
1394:Drivers/STM32F4xx_HAL_Driver/Src/stm32f4xx_ll_sdmmc.c **** }
 6472              		.loc 1 1394 3 view .LVU2212
1394:Drivers/STM32F4xx_HAL_Driver/Src/stm32f4xx_ll_sdmmc.c **** }
 6473              		.loc 1 1394 10 is_stmt 0 view .LVU2213
 6474 006a 7047     		bx	lr
 6475              	.L585:
 6476              		.align	2
 6477              	.L584:
 6478 006c 00000000 		.word	SystemCoreClock
 6479 0070 D34D6210 		.word	274877907
 6480              	.LBE742:
 6481              	.LBE741:
 6482              	.LBE748:
 6483              	.LBE759:
 6484              		.cfi_endproc
 6485              	.LFE158:
 6487              		.section	.text.SDMMC_CmdBusWidth,"ax",%progbits
 6488              		.align	1
 6489              		.p2align 2,,3
 6490              		.global	SDMMC_CmdBusWidth
 6491              		.syntax unified
 6492              		.thumb
 6493              		.thumb_func
 6495              	SDMMC_CmdBusWidth:
 6496              	.LVL374:
 6497              	.LFB159:
 900:Drivers/STM32F4xx_HAL_Driver/Src/stm32f4xx_ll_sdmmc.c ****   SDIO_CmdInitTypeDef sdmmc_cmdinit;
 6498              		.loc 1 900 1 is_stmt 1 view -0
 6499              		.cfi_startproc
 6500              		@ args = 0, pretend = 0, frame = 0
 6501              		@ frame_needed = 0, uses_anonymous_args = 0
 6502              		@ link register save eliminated.
 901:Drivers/STM32F4xx_HAL_Driver/Src/stm32f4xx_ll_sdmmc.c ****   uint32_t errorstate;
 6503              		.loc 1 901 3 view .LVU2215
 902:Drivers/STM32F4xx_HAL_Driver/Src/stm32f4xx_ll_sdmmc.c **** 
 6504              		.loc 1 902 3 view .LVU2216
 904:Drivers/STM32F4xx_HAL_Driver/Src/stm32f4xx_ll_sdmmc.c ****   sdmmc_cmdinit.CmdIndex = SDMMC_CMD_APP_SD_SET_BUSWIDTH;
 6505              		.loc 1 904 3 view .LVU2217
 905:Drivers/STM32F4xx_HAL_Driver/Src/stm32f4xx_ll_sdmmc.c ****   sdmmc_cmdinit.Response = SDIO_RESPONSE_SHORT;
 6506              		.loc 1 905 3 view .LVU2218
 906:Drivers/STM32F4xx_HAL_Driver/Src/stm32f4xx_ll_sdmmc.c ****   sdmmc_cmdinit.WaitForInterrupt = SDIO_WAIT_NO;
 6507              		.loc 1 906 3 view .LVU2219
 907:Drivers/STM32F4xx_HAL_Driver/Src/stm32f4xx_ll_sdmmc.c ****   sdmmc_cmdinit.CPSM = SDIO_CPSM_ENABLE;
 6508              		.loc 1 907 3 view .LVU2220
 908:Drivers/STM32F4xx_HAL_Driver/Src/stm32f4xx_ll_sdmmc.c ****   (void)SDIO_SendCommand(SDIOx, &sdmmc_cmdinit);
 6509              		.loc 1 908 3 view .LVU2221
 909:Drivers/STM32F4xx_HAL_Driver/Src/stm32f4xx_ll_sdmmc.c **** 
 6510              		.loc 1 909 3 view .LVU2222
 6511              	.LBB774:
 6512              	.LBI774:
 345:Drivers/STM32F4xx_HAL_Driver/Src/stm32f4xx_ll_sdmmc.c **** {
 6513              		.loc 1 345 19 view .LVU2223
 6514              	.LBB775:
ARM GAS  C:\Users\pw705\AppData\Local\Temp\cceieKfF.s 			page 177


 347:Drivers/STM32F4xx_HAL_Driver/Src/stm32f4xx_ll_sdmmc.c **** 
 6515              		.loc 1 347 3 view .LVU2224
 350:Drivers/STM32F4xx_HAL_Driver/Src/stm32f4xx_ll_sdmmc.c ****   assert_param(IS_SDIO_RESPONSE(Command->Response));
 6516              		.loc 1 350 3 view .LVU2225
 351:Drivers/STM32F4xx_HAL_Driver/Src/stm32f4xx_ll_sdmmc.c ****   assert_param(IS_SDIO_WAIT(Command->WaitForInterrupt));
 6517              		.loc 1 351 3 view .LVU2226
 352:Drivers/STM32F4xx_HAL_Driver/Src/stm32f4xx_ll_sdmmc.c ****   assert_param(IS_SDIO_CPSM(Command->CPSM));
 6518              		.loc 1 352 3 view .LVU2227
 353:Drivers/STM32F4xx_HAL_Driver/Src/stm32f4xx_ll_sdmmc.c **** 
 6519              		.loc 1 353 3 view .LVU2228
 356:Drivers/STM32F4xx_HAL_Driver/Src/stm32f4xx_ll_sdmmc.c **** 
 6520              		.loc 1 356 3 view .LVU2229
 356:Drivers/STM32F4xx_HAL_Driver/Src/stm32f4xx_ll_sdmmc.c **** 
 6521              		.loc 1 356 14 is_stmt 0 view .LVU2230
 6522 0000 8160     		str	r1, [r0, #8]
 359:Drivers/STM32F4xx_HAL_Driver/Src/stm32f4xx_ll_sdmmc.c ****                        Command->Response |
 6523              		.loc 1 359 3 is_stmt 1 view .LVU2231
 6524              	.LVL375:
 365:Drivers/STM32F4xx_HAL_Driver/Src/stm32f4xx_ll_sdmmc.c **** 
 6525              		.loc 1 365 3 view .LVU2232
 6526              	.LBE775:
 6527              	.LBE774:
 6528              	.LBB781:
 6529              	.LBB782:
1193:Drivers/STM32F4xx_HAL_Driver/Src/stm32f4xx_ll_sdmmc.c **** 
 6530              		.loc 1 1193 52 is_stmt 0 view .LVU2233
 6531 0002 4B4A     		ldr	r2, .L624
 6532              	.LBE782:
 6533              	.LBE781:
 6534              	.LBB797:
 6535              	.LBB776:
 365:Drivers/STM32F4xx_HAL_Driver/Src/stm32f4xx_ll_sdmmc.c **** 
 6536              		.loc 1 365 3 view .LVU2234
 6537 0004 C368     		ldr	r3, [r0, #12]
 6538              	.LBE776:
 6539              	.LBE797:
 6540              	.LBB798:
 6541              	.LBB791:
1193:Drivers/STM32F4xx_HAL_Driver/Src/stm32f4xx_ll_sdmmc.c **** 
 6542              		.loc 1 1193 52 view .LVU2235
 6543 0006 4B49     		ldr	r1, .L624+4
 6544              	.LVL376:
1193:Drivers/STM32F4xx_HAL_Driver/Src/stm32f4xx_ll_sdmmc.c **** 
 6545              		.loc 1 1193 52 view .LVU2236
 6546 0008 1268     		ldr	r2, [r2]
 6547              	.LBE791:
 6548              	.LBE798:
 6549              	.LBB799:
 6550              	.LBB777:
 365:Drivers/STM32F4xx_HAL_Driver/Src/stm32f4xx_ll_sdmmc.c **** 
 6551              		.loc 1 365 3 view .LVU2237
 6552 000a 23F47F63 		bic	r3, r3, #4080
 6553              	.LBE777:
 6554              	.LBE799:
 6555              	.LBB800:
 6556              	.LBB792:
1193:Drivers/STM32F4xx_HAL_Driver/Src/stm32f4xx_ll_sdmmc.c **** 
ARM GAS  C:\Users\pw705\AppData\Local\Temp\cceieKfF.s 			page 178


 6557              		.loc 1 1193 52 view .LVU2238
 6558 000e A1FB0212 		umull	r1, r2, r1, r2
 6559              	.LBE792:
 6560              	.LBE800:
 6561              	.LBB801:
 6562              	.LBB778:
 365:Drivers/STM32F4xx_HAL_Driver/Src/stm32f4xx_ll_sdmmc.c **** 
 6563              		.loc 1 365 3 view .LVU2239
 6564 0012 23F00F03 		bic	r3, r3, #15
 6565 0016 43F48863 		orr	r3, r3, #1088
 6566              	.LBE778:
 6567              	.LBE801:
 6568              	.LBB802:
 6569              	.LBB793:
1193:Drivers/STM32F4xx_HAL_Driver/Src/stm32f4xx_ll_sdmmc.c **** 
 6570              		.loc 1 1193 52 view .LVU2240
 6571 001a 520A     		lsrs	r2, r2, #9
1193:Drivers/STM32F4xx_HAL_Driver/Src/stm32f4xx_ll_sdmmc.c **** 
 6572              		.loc 1 1193 12 view .LVU2241
 6573 001c 41F28831 		movw	r1, #5000
 6574              	.LBE793:
 6575              	.LBE802:
 6576              	.LBB803:
 6577              	.LBB779:
 365:Drivers/STM32F4xx_HAL_Driver/Src/stm32f4xx_ll_sdmmc.c **** 
 6578              		.loc 1 365 3 view .LVU2242
 6579 0020 43F00603 		orr	r3, r3, #6
 6580              	.LBE779:
 6581              	.LBE803:
 6582              	.LBB804:
 6583              	.LBB794:
1193:Drivers/STM32F4xx_HAL_Driver/Src/stm32f4xx_ll_sdmmc.c **** 
 6584              		.loc 1 1193 12 view .LVU2243
 6585 0024 01FB02F2 		mul	r2, r1, r2
 6586              	.LBE794:
 6587              	.LBE804:
 6588              	.LBB805:
 6589              	.LBB780:
 365:Drivers/STM32F4xx_HAL_Driver/Src/stm32f4xx_ll_sdmmc.c **** 
 6590              		.loc 1 365 3 view .LVU2244
 6591 0028 C360     		str	r3, [r0, #12]
 6592              	.LVL377:
 367:Drivers/STM32F4xx_HAL_Driver/Src/stm32f4xx_ll_sdmmc.c **** }
 6593              		.loc 1 367 3 is_stmt 1 view .LVU2245
 367:Drivers/STM32F4xx_HAL_Driver/Src/stm32f4xx_ll_sdmmc.c **** }
 6594              		.loc 1 367 3 is_stmt 0 view .LVU2246
 6595              	.LBE780:
 6596              	.LBE805:
 912:Drivers/STM32F4xx_HAL_Driver/Src/stm32f4xx_ll_sdmmc.c **** 
 6597              		.loc 1 912 3 is_stmt 1 view .LVU2247
 6598              	.LBB806:
 6599              	.LBI781:
1186:Drivers/STM32F4xx_HAL_Driver/Src/stm32f4xx_ll_sdmmc.c **** {
 6600              		.loc 1 1186 10 view .LVU2248
 6601              	.LBB795:
1188:Drivers/STM32F4xx_HAL_Driver/Src/stm32f4xx_ll_sdmmc.c ****   uint32_t sta_reg;
 6602              		.loc 1 1188 3 view .LVU2249
ARM GAS  C:\Users\pw705\AppData\Local\Temp\cceieKfF.s 			page 179


1189:Drivers/STM32F4xx_HAL_Driver/Src/stm32f4xx_ll_sdmmc.c **** 
 6603              		.loc 1 1189 3 view .LVU2250
1193:Drivers/STM32F4xx_HAL_Driver/Src/stm32f4xx_ll_sdmmc.c **** 
 6604              		.loc 1 1193 3 view .LVU2251
1195:Drivers/STM32F4xx_HAL_Driver/Src/stm32f4xx_ll_sdmmc.c ****   {
 6605              		.loc 1 1195 3 view .LVU2252
1197:Drivers/STM32F4xx_HAL_Driver/Src/stm32f4xx_ll_sdmmc.c ****     {
 6606              		.loc 1 1197 5 view .LVU2253
1197:Drivers/STM32F4xx_HAL_Driver/Src/stm32f4xx_ll_sdmmc.c ****     {
 6607              		.loc 1 1197 14 is_stmt 0 view .LVU2254
 6608 002a 531E     		subs	r3, r2, #1
 6609              	.LVL378:
1197:Drivers/STM32F4xx_HAL_Driver/Src/stm32f4xx_ll_sdmmc.c ****     {
 6610              		.loc 1 1197 8 view .LVU2255
 6611 002c 4AB1     		cbz	r2, .L595
 6612              	.L588:
1195:Drivers/STM32F4xx_HAL_Driver/Src/stm32f4xx_ll_sdmmc.c ****   {
 6613              		.loc 1 1195 3 is_stmt 1 view .LVU2256
1197:Drivers/STM32F4xx_HAL_Driver/Src/stm32f4xx_ll_sdmmc.c ****     {
 6614              		.loc 1 1197 5 view .LVU2257
1201:Drivers/STM32F4xx_HAL_Driver/Src/stm32f4xx_ll_sdmmc.c ****   } while (((sta_reg & (SDIO_FLAG_CCRCFAIL | SDIO_FLAG_CMDREND | SDIO_FLAG_CTIMEOUT)) == 0U) ||
 6615              		.loc 1 1201 5 view .LVU2258
1201:Drivers/STM32F4xx_HAL_Driver/Src/stm32f4xx_ll_sdmmc.c ****   } while (((sta_reg & (SDIO_FLAG_CCRCFAIL | SDIO_FLAG_CMDREND | SDIO_FLAG_CTIMEOUT)) == 0U) ||
 6616              		.loc 1 1201 13 is_stmt 0 view .LVU2259
 6617 002e 426B     		ldr	r2, [r0, #52]
 6618              	.LVL379:
1202:Drivers/STM32F4xx_HAL_Driver/Src/stm32f4xx_ll_sdmmc.c ****            ((sta_reg & SDIO_FLAG_CMDACT) != 0U));
 6619              		.loc 1 1202 94 is_stmt 1 view .LVU2260
 6620 0030 12F0450F 		tst	r2, #69
1197:Drivers/STM32F4xx_HAL_Driver/Src/stm32f4xx_ll_sdmmc.c ****     {
 6621              		.loc 1 1197 14 is_stmt 0 view .LVU2261
 6622 0034 03F1FF33 		add	r3, r3, #-1
 6623              	.LVL380:
1202:Drivers/STM32F4xx_HAL_Driver/Src/stm32f4xx_ll_sdmmc.c ****            ((sta_reg & SDIO_FLAG_CMDACT) != 0U));
 6624              		.loc 1 1202 94 view .LVU2262
 6625 0038 01D0     		beq	.L589
 6626 003a 1105     		lsls	r1, r2, #20
 6627 003c 04D5     		bpl	.L621
 6628              	.L589:
1197:Drivers/STM32F4xx_HAL_Driver/Src/stm32f4xx_ll_sdmmc.c ****     {
 6629              		.loc 1 1197 8 view .LVU2263
 6630 003e 5A1C     		adds	r2, r3, #1
 6631              	.LVL381:
1197:Drivers/STM32F4xx_HAL_Driver/Src/stm32f4xx_ll_sdmmc.c ****     {
 6632              		.loc 1 1197 8 view .LVU2264
 6633 0040 F5D1     		bne	.L588
 6634              	.LVL382:
 6635              	.L595:
1199:Drivers/STM32F4xx_HAL_Driver/Src/stm32f4xx_ll_sdmmc.c ****     }
 6636              		.loc 1 1199 14 view .LVU2265
 6637 0042 4FF00040 		mov	r0, #-2147483648
 6638              	.LVL383:
1199:Drivers/STM32F4xx_HAL_Driver/Src/stm32f4xx_ll_sdmmc.c ****     }
 6639              		.loc 1 1199 14 view .LVU2266
 6640 0046 7047     		bx	lr
 6641              	.LVL384:
 6642              	.L621:
ARM GAS  C:\Users\pw705\AppData\Local\Temp\cceieKfF.s 			page 180


1205:Drivers/STM32F4xx_HAL_Driver/Src/stm32f4xx_ll_sdmmc.c ****   {
 6643              		.loc 1 1205 3 is_stmt 1 view .LVU2267
1205:Drivers/STM32F4xx_HAL_Driver/Src/stm32f4xx_ll_sdmmc.c ****   {
 6644              		.loc 1 1205 7 is_stmt 0 view .LVU2268
 6645 0048 436B     		ldr	r3, [r0, #52]
 6646              	.LVL385:
1205:Drivers/STM32F4xx_HAL_Driver/Src/stm32f4xx_ll_sdmmc.c ****   {
 6647              		.loc 1 1205 6 view .LVU2269
 6648 004a 5A07     		lsls	r2, r3, #29
 6649              	.LVL386:
1205:Drivers/STM32F4xx_HAL_Driver/Src/stm32f4xx_ll_sdmmc.c ****   {
 6650              		.loc 1 1205 6 view .LVU2270
 6651 004c 3ED4     		bmi	.L622
1211:Drivers/STM32F4xx_HAL_Driver/Src/stm32f4xx_ll_sdmmc.c ****   {
 6652              		.loc 1 1211 8 is_stmt 1 view .LVU2271
1211:Drivers/STM32F4xx_HAL_Driver/Src/stm32f4xx_ll_sdmmc.c ****   {
 6653              		.loc 1 1211 12 is_stmt 0 view .LVU2272
 6654 004e 436B     		ldr	r3, [r0, #52]
1211:Drivers/STM32F4xx_HAL_Driver/Src/stm32f4xx_ll_sdmmc.c ****   {
 6655              		.loc 1 1211 11 view .LVU2273
 6656 0050 DB07     		lsls	r3, r3, #31
 6657 0052 07D4     		bmi	.L623
1220:Drivers/STM32F4xx_HAL_Driver/Src/stm32f4xx_ll_sdmmc.c **** 
 6658              		.loc 1 1220 3 is_stmt 1 view .LVU2274
1223:Drivers/STM32F4xx_HAL_Driver/Src/stm32f4xx_ll_sdmmc.c **** 
 6659              		.loc 1 1223 3 view .LVU2275
 6660 0054 C523     		movs	r3, #197
 6661 0056 8363     		str	r3, [r0, #56]
1226:Drivers/STM32F4xx_HAL_Driver/Src/stm32f4xx_ll_sdmmc.c ****   {
 6662              		.loc 1 1226 3 view .LVU2276
 6663              	.LVL387:
 6664              	.LBB783:
 6665              	.LBI783:
 375:Drivers/STM32F4xx_HAL_Driver/Src/stm32f4xx_ll_sdmmc.c **** {
 6666              		.loc 1 375 9 view .LVU2277
 6667              	.LBB784:
 377:Drivers/STM32F4xx_HAL_Driver/Src/stm32f4xx_ll_sdmmc.c **** }
 6668              		.loc 1 377 3 view .LVU2278
 377:Drivers/STM32F4xx_HAL_Driver/Src/stm32f4xx_ll_sdmmc.c **** }
 6669              		.loc 1 377 25 is_stmt 0 view .LVU2279
 6670 0058 0369     		ldr	r3, [r0, #16]
 6671              	.LVL388:
 377:Drivers/STM32F4xx_HAL_Driver/Src/stm32f4xx_ll_sdmmc.c **** }
 6672              		.loc 1 377 25 view .LVU2280
 6673              	.LBE784:
 6674              	.LBE783:
1226:Drivers/STM32F4xx_HAL_Driver/Src/stm32f4xx_ll_sdmmc.c ****   {
 6675              		.loc 1 1226 6 view .LVU2281
 6676 005a DBB2     		uxtb	r3, r3
 6677 005c 062B     		cmp	r3, #6
 6678 005e 04D0     		beq	.L593
 6679              	.L592:
1215:Drivers/STM32F4xx_HAL_Driver/Src/stm32f4xx_ll_sdmmc.c ****   }
 6680              		.loc 1 1215 12 view .LVU2282
 6681 0060 0120     		movs	r0, #1
 6682              	.LVL389:
1215:Drivers/STM32F4xx_HAL_Driver/Src/stm32f4xx_ll_sdmmc.c ****   }
ARM GAS  C:\Users\pw705\AppData\Local\Temp\cceieKfF.s 			page 181


 6683              		.loc 1 1215 12 view .LVU2283
 6684 0062 7047     		bx	lr
 6685              	.LVL390:
 6686              	.L623:
1213:Drivers/STM32F4xx_HAL_Driver/Src/stm32f4xx_ll_sdmmc.c **** 
 6687              		.loc 1 1213 5 is_stmt 1 view .LVU2284
 6688 0064 0123     		movs	r3, #1
 6689 0066 8363     		str	r3, [r0, #56]
1215:Drivers/STM32F4xx_HAL_Driver/Src/stm32f4xx_ll_sdmmc.c ****   }
 6690              		.loc 1 1215 5 view .LVU2285
1215:Drivers/STM32F4xx_HAL_Driver/Src/stm32f4xx_ll_sdmmc.c ****   }
 6691              		.loc 1 1215 12 is_stmt 0 view .LVU2286
 6692 0068 FAE7     		b	.L592
 6693              	.L593:
 6694              	.LVL391:
 6695              	.LBB785:
 6696              	.LBI785:
1186:Drivers/STM32F4xx_HAL_Driver/Src/stm32f4xx_ll_sdmmc.c **** {
 6697              		.loc 1 1186 10 is_stmt 1 view .LVU2287
 6698              	.LBB786:
1232:Drivers/STM32F4xx_HAL_Driver/Src/stm32f4xx_ll_sdmmc.c **** 
 6699              		.loc 1 1232 3 view .LVU2288
 6700              	.LBB787:
 6701              	.LBI787:
 391:Drivers/STM32F4xx_HAL_Driver/Src/stm32f4xx_ll_sdmmc.c **** {
 6702              		.loc 1 391 10 view .LVU2289
 6703              	.LBB788:
 393:Drivers/STM32F4xx_HAL_Driver/Src/stm32f4xx_ll_sdmmc.c **** 
 6704              		.loc 1 393 3 view .LVU2290
 396:Drivers/STM32F4xx_HAL_Driver/Src/stm32f4xx_ll_sdmmc.c **** 
 6705              		.loc 1 396 3 view .LVU2291
 399:Drivers/STM32F4xx_HAL_Driver/Src/stm32f4xx_ll_sdmmc.c **** 
 6706              		.loc 1 399 3 view .LVU2292
 401:Drivers/STM32F4xx_HAL_Driver/Src/stm32f4xx_ll_sdmmc.c **** }
 6707              		.loc 1 401 3 view .LVU2293
 401:Drivers/STM32F4xx_HAL_Driver/Src/stm32f4xx_ll_sdmmc.c **** }
 6708              		.loc 1 401 11 is_stmt 0 view .LVU2294
 6709 006a 4369     		ldr	r3, [r0, #20]
 6710              	.LVL392:
 401:Drivers/STM32F4xx_HAL_Driver/Src/stm32f4xx_ll_sdmmc.c **** }
 6711              		.loc 1 401 11 view .LVU2295
 6712              	.LBE788:
 6713              	.LBE787:
1234:Drivers/STM32F4xx_HAL_Driver/Src/stm32f4xx_ll_sdmmc.c ****   {
 6714              		.loc 1 1234 3 is_stmt 1 view .LVU2296
1234:Drivers/STM32F4xx_HAL_Driver/Src/stm32f4xx_ll_sdmmc.c ****   {
 6715              		.loc 1 1234 20 is_stmt 0 view .LVU2297
 6716 006c 3248     		ldr	r0, .L624+8
 6717              	.LVL393:
1234:Drivers/STM32F4xx_HAL_Driver/Src/stm32f4xx_ll_sdmmc.c ****   {
 6718              		.loc 1 1234 20 view .LVU2298
 6719 006e 1840     		ands	r0, r0, r3
1234:Drivers/STM32F4xx_HAL_Driver/Src/stm32f4xx_ll_sdmmc.c ****   {
 6720              		.loc 1 1234 6 view .LVU2299
 6721 0070 58B3     		cbz	r0, .L586
1238:Drivers/STM32F4xx_HAL_Driver/Src/stm32f4xx_ll_sdmmc.c ****   {
 6722              		.loc 1 1238 8 is_stmt 1 view .LVU2300
ARM GAS  C:\Users\pw705\AppData\Local\Temp\cceieKfF.s 			page 182


1238:Drivers/STM32F4xx_HAL_Driver/Src/stm32f4xx_ll_sdmmc.c ****   {
 6723              		.loc 1 1238 11 is_stmt 0 view .LVU2301
 6724 0072 002B     		cmp	r3, #0
 6725 0074 2EDB     		blt	.L596
1242:Drivers/STM32F4xx_HAL_Driver/Src/stm32f4xx_ll_sdmmc.c ****   {
 6726              		.loc 1 1242 8 is_stmt 1 view .LVU2302
1242:Drivers/STM32F4xx_HAL_Driver/Src/stm32f4xx_ll_sdmmc.c ****   {
 6727              		.loc 1 1242 11 is_stmt 0 view .LVU2303
 6728 0076 5900     		lsls	r1, r3, #1
 6729 0078 2FD4     		bmi	.L597
1246:Drivers/STM32F4xx_HAL_Driver/Src/stm32f4xx_ll_sdmmc.c ****   {
 6730              		.loc 1 1246 8 is_stmt 1 view .LVU2304
1246:Drivers/STM32F4xx_HAL_Driver/Src/stm32f4xx_ll_sdmmc.c ****   {
 6731              		.loc 1 1246 11 is_stmt 0 view .LVU2305
 6732 007a 9A00     		lsls	r2, r3, #2
 6733 007c 2FD4     		bmi	.L598
1250:Drivers/STM32F4xx_HAL_Driver/Src/stm32f4xx_ll_sdmmc.c ****   {
 6734              		.loc 1 1250 8 is_stmt 1 view .LVU2306
1250:Drivers/STM32F4xx_HAL_Driver/Src/stm32f4xx_ll_sdmmc.c ****   {
 6735              		.loc 1 1250 11 is_stmt 0 view .LVU2307
 6736 007e D900     		lsls	r1, r3, #3
 6737 0080 2FD4     		bmi	.L599
1254:Drivers/STM32F4xx_HAL_Driver/Src/stm32f4xx_ll_sdmmc.c ****   {
 6738              		.loc 1 1254 8 is_stmt 1 view .LVU2308
1254:Drivers/STM32F4xx_HAL_Driver/Src/stm32f4xx_ll_sdmmc.c ****   {
 6739              		.loc 1 1254 11 is_stmt 0 view .LVU2309
 6740 0082 1A01     		lsls	r2, r3, #4
 6741 0084 30D4     		bmi	.L600
1258:Drivers/STM32F4xx_HAL_Driver/Src/stm32f4xx_ll_sdmmc.c ****   {
 6742              		.loc 1 1258 8 is_stmt 1 view .LVU2310
1258:Drivers/STM32F4xx_HAL_Driver/Src/stm32f4xx_ll_sdmmc.c ****   {
 6743              		.loc 1 1258 11 is_stmt 0 view .LVU2311
 6744 0086 5901     		lsls	r1, r3, #5
 6745 0088 31D4     		bmi	.L601
1262:Drivers/STM32F4xx_HAL_Driver/Src/stm32f4xx_ll_sdmmc.c ****   {
 6746              		.loc 1 1262 8 is_stmt 1 view .LVU2312
1262:Drivers/STM32F4xx_HAL_Driver/Src/stm32f4xx_ll_sdmmc.c ****   {
 6747              		.loc 1 1262 11 is_stmt 0 view .LVU2313
 6748 008a DA01     		lsls	r2, r3, #7
 6749 008c 32D4     		bmi	.L602
1266:Drivers/STM32F4xx_HAL_Driver/Src/stm32f4xx_ll_sdmmc.c ****   {
 6750              		.loc 1 1266 8 is_stmt 1 view .LVU2314
1266:Drivers/STM32F4xx_HAL_Driver/Src/stm32f4xx_ll_sdmmc.c ****   {
 6751              		.loc 1 1266 11 is_stmt 0 view .LVU2315
 6752 008e 1902     		lsls	r1, r3, #8
 6753 0090 33D4     		bmi	.L603
1270:Drivers/STM32F4xx_HAL_Driver/Src/stm32f4xx_ll_sdmmc.c ****   {
 6754              		.loc 1 1270 8 is_stmt 1 view .LVU2316
1270:Drivers/STM32F4xx_HAL_Driver/Src/stm32f4xx_ll_sdmmc.c ****   {
 6755              		.loc 1 1270 11 is_stmt 0 view .LVU2317
 6756 0092 5A02     		lsls	r2, r3, #9
 6757 0094 34D4     		bmi	.L604
1274:Drivers/STM32F4xx_HAL_Driver/Src/stm32f4xx_ll_sdmmc.c ****   {
 6758              		.loc 1 1274 8 is_stmt 1 view .LVU2318
1274:Drivers/STM32F4xx_HAL_Driver/Src/stm32f4xx_ll_sdmmc.c ****   {
 6759              		.loc 1 1274 11 is_stmt 0 view .LVU2319
 6760 0096 9902     		lsls	r1, r3, #10
ARM GAS  C:\Users\pw705\AppData\Local\Temp\cceieKfF.s 			page 183


 6761 0098 3ED4     		bmi	.L605
1278:Drivers/STM32F4xx_HAL_Driver/Src/stm32f4xx_ll_sdmmc.c ****   {
 6762              		.loc 1 1278 8 is_stmt 1 view .LVU2320
1278:Drivers/STM32F4xx_HAL_Driver/Src/stm32f4xx_ll_sdmmc.c ****   {
 6763              		.loc 1 1278 11 is_stmt 0 view .LVU2321
 6764 009a DA02     		lsls	r2, r3, #11
 6765 009c 39D4     		bmi	.L606
1282:Drivers/STM32F4xx_HAL_Driver/Src/stm32f4xx_ll_sdmmc.c ****   {
 6766              		.loc 1 1282 8 is_stmt 1 view .LVU2322
1282:Drivers/STM32F4xx_HAL_Driver/Src/stm32f4xx_ll_sdmmc.c ****   {
 6767              		.loc 1 1282 11 is_stmt 0 view .LVU2323
 6768 009e 5903     		lsls	r1, r3, #13
 6769 00a0 34D4     		bmi	.L607
1286:Drivers/STM32F4xx_HAL_Driver/Src/stm32f4xx_ll_sdmmc.c ****   {
 6770              		.loc 1 1286 8 is_stmt 1 view .LVU2324
1286:Drivers/STM32F4xx_HAL_Driver/Src/stm32f4xx_ll_sdmmc.c ****   {
 6771              		.loc 1 1286 11 is_stmt 0 view .LVU2325
 6772 00a2 9A03     		lsls	r2, r3, #14
 6773 00a4 2FD4     		bmi	.L608
1290:Drivers/STM32F4xx_HAL_Driver/Src/stm32f4xx_ll_sdmmc.c ****   {
 6774              		.loc 1 1290 8 is_stmt 1 view .LVU2326
1290:Drivers/STM32F4xx_HAL_Driver/Src/stm32f4xx_ll_sdmmc.c ****   {
 6775              		.loc 1 1290 11 is_stmt 0 view .LVU2327
 6776 00a6 D903     		lsls	r1, r3, #15
 6777 00a8 3FD4     		bmi	.L609
1294:Drivers/STM32F4xx_HAL_Driver/Src/stm32f4xx_ll_sdmmc.c ****   {
 6778              		.loc 1 1294 8 is_stmt 1 view .LVU2328
1294:Drivers/STM32F4xx_HAL_Driver/Src/stm32f4xx_ll_sdmmc.c ****   {
 6779              		.loc 1 1294 11 is_stmt 0 view .LVU2329
 6780 00aa 1A04     		lsls	r2, r3, #16
 6781 00ac 3AD4     		bmi	.L610
1298:Drivers/STM32F4xx_HAL_Driver/Src/stm32f4xx_ll_sdmmc.c ****   {
 6782              		.loc 1 1298 8 is_stmt 1 view .LVU2330
1298:Drivers/STM32F4xx_HAL_Driver/Src/stm32f4xx_ll_sdmmc.c ****   {
 6783              		.loc 1 1298 11 is_stmt 0 view .LVU2331
 6784 00ae 5904     		lsls	r1, r3, #17
 6785 00b0 35D4     		bmi	.L611
1302:Drivers/STM32F4xx_HAL_Driver/Src/stm32f4xx_ll_sdmmc.c ****   {
 6786              		.loc 1 1302 8 is_stmt 1 view .LVU2332
1302:Drivers/STM32F4xx_HAL_Driver/Src/stm32f4xx_ll_sdmmc.c ****   {
 6787              		.loc 1 1302 11 is_stmt 0 view .LVU2333
 6788 00b2 9A04     		lsls	r2, r3, #18
 6789 00b4 07D4     		bmi	.L612
1306:Drivers/STM32F4xx_HAL_Driver/Src/stm32f4xx_ll_sdmmc.c ****   {
 6790              		.loc 1 1306 8 is_stmt 1 view .LVU2334
1308:Drivers/STM32F4xx_HAL_Driver/Src/stm32f4xx_ll_sdmmc.c ****   }
 6791              		.loc 1 1308 12 is_stmt 0 view .LVU2335
 6792 00b6 13F0080F 		tst	r3, #8
 6793 00ba 0CBF     		ite	eq
 6794 00bc 4FF48030 		moveq	r0, #65536
 6795 00c0 4FF40000 		movne	r0, #8388608
 6796 00c4 7047     		bx	lr
 6797              	.L612:
1304:Drivers/STM32F4xx_HAL_Driver/Src/stm32f4xx_ll_sdmmc.c ****   }
 6798              		.loc 1 1304 12 view .LVU2336
 6799 00c6 4FF48000 		mov	r0, #4194304
 6800              	.L586:
ARM GAS  C:\Users\pw705\AppData\Local\Temp\cceieKfF.s 			page 184


1304:Drivers/STM32F4xx_HAL_Driver/Src/stm32f4xx_ll_sdmmc.c ****   }
 6801              		.loc 1 1304 12 view .LVU2337
 6802              	.LBE786:
 6803              	.LBE785:
 6804              	.LBE795:
 6805              	.LBE806:
 915:Drivers/STM32F4xx_HAL_Driver/Src/stm32f4xx_ll_sdmmc.c **** 
 6806              		.loc 1 915 1 view .LVU2338
 6807 00ca 7047     		bx	lr
 6808              	.LVL394:
 6809              	.L622:
 6810              	.LBB807:
 6811              	.LBB796:
1207:Drivers/STM32F4xx_HAL_Driver/Src/stm32f4xx_ll_sdmmc.c **** 
 6812              		.loc 1 1207 5 is_stmt 1 view .LVU2339
 6813 00cc 0423     		movs	r3, #4
 6814 00ce 8363     		str	r3, [r0, #56]
1209:Drivers/STM32F4xx_HAL_Driver/Src/stm32f4xx_ll_sdmmc.c ****   }
 6815              		.loc 1 1209 5 view .LVU2340
1209:Drivers/STM32F4xx_HAL_Driver/Src/stm32f4xx_ll_sdmmc.c ****   }
 6816              		.loc 1 1209 12 is_stmt 0 view .LVU2341
 6817 00d0 1846     		mov	r0, r3
 6818              	.LVL395:
1209:Drivers/STM32F4xx_HAL_Driver/Src/stm32f4xx_ll_sdmmc.c ****   }
 6819              		.loc 1 1209 12 view .LVU2342
 6820 00d2 7047     		bx	lr
 6821              	.LVL396:
 6822              	.L596:
 6823              	.LBB790:
 6824              	.LBB789:
1240:Drivers/STM32F4xx_HAL_Driver/Src/stm32f4xx_ll_sdmmc.c ****   }
 6825              		.loc 1 1240 12 view .LVU2343
 6826 00d4 4FF00070 		mov	r0, #33554432
 6827 00d8 7047     		bx	lr
 6828              	.L597:
1244:Drivers/STM32F4xx_HAL_Driver/Src/stm32f4xx_ll_sdmmc.c ****   }
 6829              		.loc 1 1244 12 view .LVU2344
 6830 00da 4020     		movs	r0, #64
 6831 00dc 7047     		bx	lr
 6832              	.L598:
1248:Drivers/STM32F4xx_HAL_Driver/Src/stm32f4xx_ll_sdmmc.c ****   }
 6833              		.loc 1 1248 12 view .LVU2345
 6834 00de 8020     		movs	r0, #128
 6835 00e0 7047     		bx	lr
 6836              	.L599:
1252:Drivers/STM32F4xx_HAL_Driver/Src/stm32f4xx_ll_sdmmc.c ****   }
 6837              		.loc 1 1252 12 view .LVU2346
 6838 00e2 4FF48070 		mov	r0, #256
 6839 00e6 7047     		bx	lr
 6840              	.L600:
1256:Drivers/STM32F4xx_HAL_Driver/Src/stm32f4xx_ll_sdmmc.c ****   }
 6841              		.loc 1 1256 12 view .LVU2347
 6842 00e8 4FF40070 		mov	r0, #512
 6843 00ec 7047     		bx	lr
 6844              	.L601:
1260:Drivers/STM32F4xx_HAL_Driver/Src/stm32f4xx_ll_sdmmc.c ****   }
 6845              		.loc 1 1260 12 view .LVU2348
ARM GAS  C:\Users\pw705\AppData\Local\Temp\cceieKfF.s 			page 185


 6846 00ee 4FF48060 		mov	r0, #1024
 6847 00f2 7047     		bx	lr
 6848              	.L602:
1264:Drivers/STM32F4xx_HAL_Driver/Src/stm32f4xx_ll_sdmmc.c ****   }
 6849              		.loc 1 1264 12 view .LVU2349
 6850 00f4 4FF40060 		mov	r0, #2048
 6851 00f8 7047     		bx	lr
 6852              	.L603:
1268:Drivers/STM32F4xx_HAL_Driver/Src/stm32f4xx_ll_sdmmc.c ****   }
 6853              		.loc 1 1268 12 view .LVU2350
 6854 00fa 4FF48050 		mov	r0, #4096
 6855 00fe 7047     		bx	lr
 6856              	.L604:
1272:Drivers/STM32F4xx_HAL_Driver/Src/stm32f4xx_ll_sdmmc.c ****   }
 6857              		.loc 1 1272 12 view .LVU2351
 6858 0100 4FF40050 		mov	r0, #8192
 6859 0104 7047     		bx	lr
 6860              	.L608:
1288:Drivers/STM32F4xx_HAL_Driver/Src/stm32f4xx_ll_sdmmc.c ****   }
 6861              		.loc 1 1288 12 view .LVU2352
 6862 0106 4FF48020 		mov	r0, #262144
 6863 010a 7047     		bx	lr
 6864              	.L607:
1284:Drivers/STM32F4xx_HAL_Driver/Src/stm32f4xx_ll_sdmmc.c ****   }
 6865              		.loc 1 1284 12 view .LVU2353
 6866 010c 4FF40030 		mov	r0, #131072
 6867 0110 7047     		bx	lr
 6868              	.L606:
1280:Drivers/STM32F4xx_HAL_Driver/Src/stm32f4xx_ll_sdmmc.c ****   }
 6869              		.loc 1 1280 12 view .LVU2354
 6870 0112 4FF40040 		mov	r0, #32768
 6871 0116 7047     		bx	lr
 6872              	.L605:
1276:Drivers/STM32F4xx_HAL_Driver/Src/stm32f4xx_ll_sdmmc.c ****   }
 6873              		.loc 1 1276 12 view .LVU2355
 6874 0118 4FF48040 		mov	r0, #16384
 6875 011c 7047     		bx	lr
 6876              	.L611:
1300:Drivers/STM32F4xx_HAL_Driver/Src/stm32f4xx_ll_sdmmc.c ****   }
 6877              		.loc 1 1300 12 view .LVU2356
 6878 011e 4FF40010 		mov	r0, #2097152
 6879 0122 7047     		bx	lr
 6880              	.L610:
1296:Drivers/STM32F4xx_HAL_Driver/Src/stm32f4xx_ll_sdmmc.c ****   }
 6881              		.loc 1 1296 12 view .LVU2357
 6882 0124 4FF48010 		mov	r0, #1048576
 6883 0128 7047     		bx	lr
 6884              	.L609:
1292:Drivers/STM32F4xx_HAL_Driver/Src/stm32f4xx_ll_sdmmc.c ****   }
 6885              		.loc 1 1292 12 view .LVU2358
 6886 012a 4FF40020 		mov	r0, #524288
 6887 012e 7047     		bx	lr
 6888              	.L625:
 6889              		.align	2
 6890              	.L624:
 6891 0130 00000000 		.word	SystemCoreClock
 6892 0134 D34D6210 		.word	274877907
ARM GAS  C:\Users\pw705\AppData\Local\Temp\cceieKfF.s 			page 186


 6893 0138 08E0FFFD 		.word	-33562616
 6894              	.LBE789:
 6895              	.LBE790:
 6896              	.LBE796:
 6897              	.LBE807:
 6898              		.cfi_endproc
 6899              	.LFE159:
 6901              		.section	.text.SDMMC_CmdSendSCR,"ax",%progbits
 6902              		.align	1
 6903              		.p2align 2,,3
 6904              		.global	SDMMC_CmdSendSCR
 6905              		.syntax unified
 6906              		.thumb
 6907              		.thumb_func
 6909              	SDMMC_CmdSendSCR:
 6910              	.LVL397:
 6911              	.LFB160:
 923:Drivers/STM32F4xx_HAL_Driver/Src/stm32f4xx_ll_sdmmc.c ****   SDIO_CmdInitTypeDef sdmmc_cmdinit;
 6912              		.loc 1 923 1 is_stmt 1 view -0
 6913              		.cfi_startproc
 6914              		@ args = 0, pretend = 0, frame = 0
 6915              		@ frame_needed = 0, uses_anonymous_args = 0
 6916              		@ link register save eliminated.
 924:Drivers/STM32F4xx_HAL_Driver/Src/stm32f4xx_ll_sdmmc.c ****   uint32_t errorstate;
 6917              		.loc 1 924 3 view .LVU2360
 925:Drivers/STM32F4xx_HAL_Driver/Src/stm32f4xx_ll_sdmmc.c **** 
 6918              		.loc 1 925 3 view .LVU2361
 928:Drivers/STM32F4xx_HAL_Driver/Src/stm32f4xx_ll_sdmmc.c ****   sdmmc_cmdinit.CmdIndex = SDMMC_CMD_SD_APP_SEND_SCR;
 6919              		.loc 1 928 3 view .LVU2362
 929:Drivers/STM32F4xx_HAL_Driver/Src/stm32f4xx_ll_sdmmc.c ****   sdmmc_cmdinit.Response = SDIO_RESPONSE_SHORT;
 6920              		.loc 1 929 3 view .LVU2363
 930:Drivers/STM32F4xx_HAL_Driver/Src/stm32f4xx_ll_sdmmc.c ****   sdmmc_cmdinit.WaitForInterrupt = SDIO_WAIT_NO;
 6921              		.loc 1 930 3 view .LVU2364
 931:Drivers/STM32F4xx_HAL_Driver/Src/stm32f4xx_ll_sdmmc.c ****   sdmmc_cmdinit.CPSM = SDIO_CPSM_ENABLE;
 6922              		.loc 1 931 3 view .LVU2365
 932:Drivers/STM32F4xx_HAL_Driver/Src/stm32f4xx_ll_sdmmc.c ****   (void)SDIO_SendCommand(SDIOx, &sdmmc_cmdinit);
 6923              		.loc 1 932 3 view .LVU2366
 933:Drivers/STM32F4xx_HAL_Driver/Src/stm32f4xx_ll_sdmmc.c **** 
 6924              		.loc 1 933 3 view .LVU2367
 6925              	.LBB820:
 6926              	.LBI820:
 345:Drivers/STM32F4xx_HAL_Driver/Src/stm32f4xx_ll_sdmmc.c **** {
 6927              		.loc 1 345 19 view .LVU2368
 6928              	.LBB821:
 347:Drivers/STM32F4xx_HAL_Driver/Src/stm32f4xx_ll_sdmmc.c **** 
 6929              		.loc 1 347 3 view .LVU2369
 350:Drivers/STM32F4xx_HAL_Driver/Src/stm32f4xx_ll_sdmmc.c ****   assert_param(IS_SDIO_RESPONSE(Command->Response));
 6930              		.loc 1 350 3 view .LVU2370
 351:Drivers/STM32F4xx_HAL_Driver/Src/stm32f4xx_ll_sdmmc.c ****   assert_param(IS_SDIO_WAIT(Command->WaitForInterrupt));
 6931              		.loc 1 351 3 view .LVU2371
 352:Drivers/STM32F4xx_HAL_Driver/Src/stm32f4xx_ll_sdmmc.c ****   assert_param(IS_SDIO_CPSM(Command->CPSM));
 6932              		.loc 1 352 3 view .LVU2372
 353:Drivers/STM32F4xx_HAL_Driver/Src/stm32f4xx_ll_sdmmc.c **** 
 6933              		.loc 1 353 3 view .LVU2373
 356:Drivers/STM32F4xx_HAL_Driver/Src/stm32f4xx_ll_sdmmc.c **** 
 6934              		.loc 1 356 3 view .LVU2374
 356:Drivers/STM32F4xx_HAL_Driver/Src/stm32f4xx_ll_sdmmc.c **** 
ARM GAS  C:\Users\pw705\AppData\Local\Temp\cceieKfF.s 			page 187


 6935              		.loc 1 356 14 is_stmt 0 view .LVU2375
 6936 0000 0023     		movs	r3, #0
 6937 0002 8360     		str	r3, [r0, #8]
 359:Drivers/STM32F4xx_HAL_Driver/Src/stm32f4xx_ll_sdmmc.c ****                        Command->Response |
 6938              		.loc 1 359 3 is_stmt 1 view .LVU2376
 6939              	.LVL398:
 365:Drivers/STM32F4xx_HAL_Driver/Src/stm32f4xx_ll_sdmmc.c **** 
 6940              		.loc 1 365 3 view .LVU2377
 6941              	.LBE821:
 6942              	.LBE820:
 6943              	.LBB827:
 6944              	.LBB828:
1193:Drivers/STM32F4xx_HAL_Driver/Src/stm32f4xx_ll_sdmmc.c **** 
 6945              		.loc 1 1193 52 is_stmt 0 view .LVU2378
 6946 0004 4B4A     		ldr	r2, .L664
 6947              	.LBE828:
 6948              	.LBE827:
 6949              	.LBB843:
 6950              	.LBB822:
 365:Drivers/STM32F4xx_HAL_Driver/Src/stm32f4xx_ll_sdmmc.c **** 
 6951              		.loc 1 365 3 view .LVU2379
 6952 0006 C368     		ldr	r3, [r0, #12]
 6953              	.LBE822:
 6954              	.LBE843:
 6955              	.LBB844:
 6956              	.LBB837:
1193:Drivers/STM32F4xx_HAL_Driver/Src/stm32f4xx_ll_sdmmc.c **** 
 6957              		.loc 1 1193 52 view .LVU2380
 6958 0008 4B49     		ldr	r1, .L664+4
 6959 000a 1268     		ldr	r2, [r2]
 6960              	.LBE837:
 6961              	.LBE844:
 6962              	.LBB845:
 6963              	.LBB823:
 365:Drivers/STM32F4xx_HAL_Driver/Src/stm32f4xx_ll_sdmmc.c **** 
 6964              		.loc 1 365 3 view .LVU2381
 6965 000c 23F47F63 		bic	r3, r3, #4080
 6966              	.LBE823:
 6967              	.LBE845:
 6968              	.LBB846:
 6969              	.LBB838:
1193:Drivers/STM32F4xx_HAL_Driver/Src/stm32f4xx_ll_sdmmc.c **** 
 6970              		.loc 1 1193 52 view .LVU2382
 6971 0010 A1FB0212 		umull	r1, r2, r1, r2
 6972              	.LBE838:
 6973              	.LBE846:
 6974              	.LBB847:
 6975              	.LBB824:
 365:Drivers/STM32F4xx_HAL_Driver/Src/stm32f4xx_ll_sdmmc.c **** 
 6976              		.loc 1 365 3 view .LVU2383
 6977 0014 23F00F03 		bic	r3, r3, #15
 6978 0018 43F48E63 		orr	r3, r3, #1136
 6979              	.LBE824:
 6980              	.LBE847:
 6981              	.LBB848:
 6982              	.LBB839:
1193:Drivers/STM32F4xx_HAL_Driver/Src/stm32f4xx_ll_sdmmc.c **** 
ARM GAS  C:\Users\pw705\AppData\Local\Temp\cceieKfF.s 			page 188


 6983              		.loc 1 1193 52 view .LVU2384
 6984 001c 520A     		lsrs	r2, r2, #9
1193:Drivers/STM32F4xx_HAL_Driver/Src/stm32f4xx_ll_sdmmc.c **** 
 6985              		.loc 1 1193 12 view .LVU2385
 6986 001e 41F28831 		movw	r1, #5000
 6987              	.LBE839:
 6988              	.LBE848:
 6989              	.LBB849:
 6990              	.LBB825:
 365:Drivers/STM32F4xx_HAL_Driver/Src/stm32f4xx_ll_sdmmc.c **** 
 6991              		.loc 1 365 3 view .LVU2386
 6992 0022 43F00303 		orr	r3, r3, #3
 6993              	.LBE825:
 6994              	.LBE849:
 6995              	.LBB850:
 6996              	.LBB840:
1193:Drivers/STM32F4xx_HAL_Driver/Src/stm32f4xx_ll_sdmmc.c **** 
 6997              		.loc 1 1193 12 view .LVU2387
 6998 0026 01FB02F2 		mul	r2, r1, r2
 6999              	.LBE840:
 7000              	.LBE850:
 7001              	.LBB851:
 7002              	.LBB826:
 365:Drivers/STM32F4xx_HAL_Driver/Src/stm32f4xx_ll_sdmmc.c **** 
 7003              		.loc 1 365 3 view .LVU2388
 7004 002a C360     		str	r3, [r0, #12]
 367:Drivers/STM32F4xx_HAL_Driver/Src/stm32f4xx_ll_sdmmc.c **** }
 7005              		.loc 1 367 3 is_stmt 1 view .LVU2389
 7006              	.LVL399:
 367:Drivers/STM32F4xx_HAL_Driver/Src/stm32f4xx_ll_sdmmc.c **** }
 7007              		.loc 1 367 3 is_stmt 0 view .LVU2390
 7008              	.LBE826:
 7009              	.LBE851:
 936:Drivers/STM32F4xx_HAL_Driver/Src/stm32f4xx_ll_sdmmc.c **** 
 7010              		.loc 1 936 3 is_stmt 1 view .LVU2391
 7011              	.LBB852:
 7012              	.LBI827:
1186:Drivers/STM32F4xx_HAL_Driver/Src/stm32f4xx_ll_sdmmc.c **** {
 7013              		.loc 1 1186 10 view .LVU2392
 7014              	.LBB841:
1188:Drivers/STM32F4xx_HAL_Driver/Src/stm32f4xx_ll_sdmmc.c ****   uint32_t sta_reg;
 7015              		.loc 1 1188 3 view .LVU2393
1189:Drivers/STM32F4xx_HAL_Driver/Src/stm32f4xx_ll_sdmmc.c **** 
 7016              		.loc 1 1189 3 view .LVU2394
1193:Drivers/STM32F4xx_HAL_Driver/Src/stm32f4xx_ll_sdmmc.c **** 
 7017              		.loc 1 1193 3 view .LVU2395
1195:Drivers/STM32F4xx_HAL_Driver/Src/stm32f4xx_ll_sdmmc.c ****   {
 7018              		.loc 1 1195 3 view .LVU2396
1197:Drivers/STM32F4xx_HAL_Driver/Src/stm32f4xx_ll_sdmmc.c ****     {
 7019              		.loc 1 1197 5 view .LVU2397
1197:Drivers/STM32F4xx_HAL_Driver/Src/stm32f4xx_ll_sdmmc.c ****     {
 7020              		.loc 1 1197 14 is_stmt 0 view .LVU2398
 7021 002c 531E     		subs	r3, r2, #1
 7022              	.LVL400:
1197:Drivers/STM32F4xx_HAL_Driver/Src/stm32f4xx_ll_sdmmc.c ****     {
 7023              		.loc 1 1197 8 view .LVU2399
 7024 002e 4AB1     		cbz	r2, .L635
ARM GAS  C:\Users\pw705\AppData\Local\Temp\cceieKfF.s 			page 189


 7025              	.L628:
1195:Drivers/STM32F4xx_HAL_Driver/Src/stm32f4xx_ll_sdmmc.c ****   {
 7026              		.loc 1 1195 3 is_stmt 1 view .LVU2400
1197:Drivers/STM32F4xx_HAL_Driver/Src/stm32f4xx_ll_sdmmc.c ****     {
 7027              		.loc 1 1197 5 view .LVU2401
1201:Drivers/STM32F4xx_HAL_Driver/Src/stm32f4xx_ll_sdmmc.c ****   } while (((sta_reg & (SDIO_FLAG_CCRCFAIL | SDIO_FLAG_CMDREND | SDIO_FLAG_CTIMEOUT)) == 0U) ||
 7028              		.loc 1 1201 5 view .LVU2402
1201:Drivers/STM32F4xx_HAL_Driver/Src/stm32f4xx_ll_sdmmc.c ****   } while (((sta_reg & (SDIO_FLAG_CCRCFAIL | SDIO_FLAG_CMDREND | SDIO_FLAG_CTIMEOUT)) == 0U) ||
 7029              		.loc 1 1201 13 is_stmt 0 view .LVU2403
 7030 0030 426B     		ldr	r2, [r0, #52]
 7031              	.LVL401:
1202:Drivers/STM32F4xx_HAL_Driver/Src/stm32f4xx_ll_sdmmc.c ****            ((sta_reg & SDIO_FLAG_CMDACT) != 0U));
 7032              		.loc 1 1202 94 is_stmt 1 view .LVU2404
 7033 0032 12F0450F 		tst	r2, #69
1197:Drivers/STM32F4xx_HAL_Driver/Src/stm32f4xx_ll_sdmmc.c ****     {
 7034              		.loc 1 1197 14 is_stmt 0 view .LVU2405
 7035 0036 03F1FF33 		add	r3, r3, #-1
 7036              	.LVL402:
1202:Drivers/STM32F4xx_HAL_Driver/Src/stm32f4xx_ll_sdmmc.c ****            ((sta_reg & SDIO_FLAG_CMDACT) != 0U));
 7037              		.loc 1 1202 94 view .LVU2406
 7038 003a 01D0     		beq	.L629
 7039 003c 1105     		lsls	r1, r2, #20
 7040 003e 04D5     		bpl	.L661
 7041              	.L629:
1197:Drivers/STM32F4xx_HAL_Driver/Src/stm32f4xx_ll_sdmmc.c ****     {
 7042              		.loc 1 1197 8 view .LVU2407
 7043 0040 5A1C     		adds	r2, r3, #1
 7044              	.LVL403:
1197:Drivers/STM32F4xx_HAL_Driver/Src/stm32f4xx_ll_sdmmc.c ****     {
 7045              		.loc 1 1197 8 view .LVU2408
 7046 0042 F5D1     		bne	.L628
 7047              	.LVL404:
 7048              	.L635:
1199:Drivers/STM32F4xx_HAL_Driver/Src/stm32f4xx_ll_sdmmc.c ****     }
 7049              		.loc 1 1199 14 view .LVU2409
 7050 0044 4FF00040 		mov	r0, #-2147483648
 7051              	.LVL405:
1199:Drivers/STM32F4xx_HAL_Driver/Src/stm32f4xx_ll_sdmmc.c ****     }
 7052              		.loc 1 1199 14 view .LVU2410
 7053 0048 7047     		bx	lr
 7054              	.LVL406:
 7055              	.L661:
1205:Drivers/STM32F4xx_HAL_Driver/Src/stm32f4xx_ll_sdmmc.c ****   {
 7056              		.loc 1 1205 3 is_stmt 1 view .LVU2411
1205:Drivers/STM32F4xx_HAL_Driver/Src/stm32f4xx_ll_sdmmc.c ****   {
 7057              		.loc 1 1205 7 is_stmt 0 view .LVU2412
 7058 004a 436B     		ldr	r3, [r0, #52]
 7059              	.LVL407:
1205:Drivers/STM32F4xx_HAL_Driver/Src/stm32f4xx_ll_sdmmc.c ****   {
 7060              		.loc 1 1205 6 view .LVU2413
 7061 004c 5A07     		lsls	r2, r3, #29
 7062              	.LVL408:
1205:Drivers/STM32F4xx_HAL_Driver/Src/stm32f4xx_ll_sdmmc.c ****   {
 7063              		.loc 1 1205 6 view .LVU2414
 7064 004e 3ED4     		bmi	.L662
1211:Drivers/STM32F4xx_HAL_Driver/Src/stm32f4xx_ll_sdmmc.c ****   {
 7065              		.loc 1 1211 8 is_stmt 1 view .LVU2415
ARM GAS  C:\Users\pw705\AppData\Local\Temp\cceieKfF.s 			page 190


1211:Drivers/STM32F4xx_HAL_Driver/Src/stm32f4xx_ll_sdmmc.c ****   {
 7066              		.loc 1 1211 12 is_stmt 0 view .LVU2416
 7067 0050 436B     		ldr	r3, [r0, #52]
1211:Drivers/STM32F4xx_HAL_Driver/Src/stm32f4xx_ll_sdmmc.c ****   {
 7068              		.loc 1 1211 11 view .LVU2417
 7069 0052 DB07     		lsls	r3, r3, #31
 7070 0054 07D4     		bmi	.L663
1220:Drivers/STM32F4xx_HAL_Driver/Src/stm32f4xx_ll_sdmmc.c **** 
 7071              		.loc 1 1220 3 is_stmt 1 view .LVU2418
1223:Drivers/STM32F4xx_HAL_Driver/Src/stm32f4xx_ll_sdmmc.c **** 
 7072              		.loc 1 1223 3 view .LVU2419
 7073 0056 C523     		movs	r3, #197
 7074 0058 8363     		str	r3, [r0, #56]
1226:Drivers/STM32F4xx_HAL_Driver/Src/stm32f4xx_ll_sdmmc.c ****   {
 7075              		.loc 1 1226 3 view .LVU2420
 7076              	.LVL409:
 7077              	.LBB829:
 7078              	.LBI829:
 375:Drivers/STM32F4xx_HAL_Driver/Src/stm32f4xx_ll_sdmmc.c **** {
 7079              		.loc 1 375 9 view .LVU2421
 7080              	.LBB830:
 377:Drivers/STM32F4xx_HAL_Driver/Src/stm32f4xx_ll_sdmmc.c **** }
 7081              		.loc 1 377 3 view .LVU2422
 377:Drivers/STM32F4xx_HAL_Driver/Src/stm32f4xx_ll_sdmmc.c **** }
 7082              		.loc 1 377 25 is_stmt 0 view .LVU2423
 7083 005a 0369     		ldr	r3, [r0, #16]
 7084              	.LVL410:
 377:Drivers/STM32F4xx_HAL_Driver/Src/stm32f4xx_ll_sdmmc.c **** }
 7085              		.loc 1 377 25 view .LVU2424
 7086              	.LBE830:
 7087              	.LBE829:
1226:Drivers/STM32F4xx_HAL_Driver/Src/stm32f4xx_ll_sdmmc.c ****   {
 7088              		.loc 1 1226 6 view .LVU2425
 7089 005c DBB2     		uxtb	r3, r3
 7090 005e 332B     		cmp	r3, #51
 7091 0060 04D0     		beq	.L633
 7092              	.L632:
1215:Drivers/STM32F4xx_HAL_Driver/Src/stm32f4xx_ll_sdmmc.c ****   }
 7093              		.loc 1 1215 12 view .LVU2426
 7094 0062 0120     		movs	r0, #1
 7095              	.LVL411:
1215:Drivers/STM32F4xx_HAL_Driver/Src/stm32f4xx_ll_sdmmc.c ****   }
 7096              		.loc 1 1215 12 view .LVU2427
 7097 0064 7047     		bx	lr
 7098              	.LVL412:
 7099              	.L663:
1213:Drivers/STM32F4xx_HAL_Driver/Src/stm32f4xx_ll_sdmmc.c **** 
 7100              		.loc 1 1213 5 is_stmt 1 view .LVU2428
 7101 0066 0123     		movs	r3, #1
 7102 0068 8363     		str	r3, [r0, #56]
1215:Drivers/STM32F4xx_HAL_Driver/Src/stm32f4xx_ll_sdmmc.c ****   }
 7103              		.loc 1 1215 5 view .LVU2429
1215:Drivers/STM32F4xx_HAL_Driver/Src/stm32f4xx_ll_sdmmc.c ****   }
 7104              		.loc 1 1215 12 is_stmt 0 view .LVU2430
 7105 006a FAE7     		b	.L632
 7106              	.L633:
 7107              	.LVL413:
ARM GAS  C:\Users\pw705\AppData\Local\Temp\cceieKfF.s 			page 191


 7108              	.LBB831:
 7109              	.LBI831:
1186:Drivers/STM32F4xx_HAL_Driver/Src/stm32f4xx_ll_sdmmc.c **** {
 7110              		.loc 1 1186 10 is_stmt 1 view .LVU2431
 7111              	.LBB832:
1232:Drivers/STM32F4xx_HAL_Driver/Src/stm32f4xx_ll_sdmmc.c **** 
 7112              		.loc 1 1232 3 view .LVU2432
 7113              	.LBB833:
 7114              	.LBI833:
 391:Drivers/STM32F4xx_HAL_Driver/Src/stm32f4xx_ll_sdmmc.c **** {
 7115              		.loc 1 391 10 view .LVU2433
 7116              	.LBB834:
 393:Drivers/STM32F4xx_HAL_Driver/Src/stm32f4xx_ll_sdmmc.c **** 
 7117              		.loc 1 393 3 view .LVU2434
 396:Drivers/STM32F4xx_HAL_Driver/Src/stm32f4xx_ll_sdmmc.c **** 
 7118              		.loc 1 396 3 view .LVU2435
 399:Drivers/STM32F4xx_HAL_Driver/Src/stm32f4xx_ll_sdmmc.c **** 
 7119              		.loc 1 399 3 view .LVU2436
 401:Drivers/STM32F4xx_HAL_Driver/Src/stm32f4xx_ll_sdmmc.c **** }
 7120              		.loc 1 401 3 view .LVU2437
 401:Drivers/STM32F4xx_HAL_Driver/Src/stm32f4xx_ll_sdmmc.c **** }
 7121              		.loc 1 401 11 is_stmt 0 view .LVU2438
 7122 006c 4369     		ldr	r3, [r0, #20]
 7123              	.LVL414:
 401:Drivers/STM32F4xx_HAL_Driver/Src/stm32f4xx_ll_sdmmc.c **** }
 7124              		.loc 1 401 11 view .LVU2439
 7125              	.LBE834:
 7126              	.LBE833:
1234:Drivers/STM32F4xx_HAL_Driver/Src/stm32f4xx_ll_sdmmc.c ****   {
 7127              		.loc 1 1234 3 is_stmt 1 view .LVU2440
1234:Drivers/STM32F4xx_HAL_Driver/Src/stm32f4xx_ll_sdmmc.c ****   {
 7128              		.loc 1 1234 20 is_stmt 0 view .LVU2441
 7129 006e 3348     		ldr	r0, .L664+8
 7130              	.LVL415:
1234:Drivers/STM32F4xx_HAL_Driver/Src/stm32f4xx_ll_sdmmc.c ****   {
 7131              		.loc 1 1234 20 view .LVU2442
 7132 0070 1840     		ands	r0, r0, r3
1234:Drivers/STM32F4xx_HAL_Driver/Src/stm32f4xx_ll_sdmmc.c ****   {
 7133              		.loc 1 1234 6 view .LVU2443
 7134 0072 58B3     		cbz	r0, .L626
1238:Drivers/STM32F4xx_HAL_Driver/Src/stm32f4xx_ll_sdmmc.c ****   {
 7135              		.loc 1 1238 8 is_stmt 1 view .LVU2444
1238:Drivers/STM32F4xx_HAL_Driver/Src/stm32f4xx_ll_sdmmc.c ****   {
 7136              		.loc 1 1238 11 is_stmt 0 view .LVU2445
 7137 0074 002B     		cmp	r3, #0
 7138 0076 2EDB     		blt	.L636
1242:Drivers/STM32F4xx_HAL_Driver/Src/stm32f4xx_ll_sdmmc.c ****   {
 7139              		.loc 1 1242 8 is_stmt 1 view .LVU2446
1242:Drivers/STM32F4xx_HAL_Driver/Src/stm32f4xx_ll_sdmmc.c ****   {
 7140              		.loc 1 1242 11 is_stmt 0 view .LVU2447
 7141 0078 5900     		lsls	r1, r3, #1
 7142 007a 2FD4     		bmi	.L637
1246:Drivers/STM32F4xx_HAL_Driver/Src/stm32f4xx_ll_sdmmc.c ****   {
 7143              		.loc 1 1246 8 is_stmt 1 view .LVU2448
1246:Drivers/STM32F4xx_HAL_Driver/Src/stm32f4xx_ll_sdmmc.c ****   {
 7144              		.loc 1 1246 11 is_stmt 0 view .LVU2449
 7145 007c 9A00     		lsls	r2, r3, #2
ARM GAS  C:\Users\pw705\AppData\Local\Temp\cceieKfF.s 			page 192


 7146 007e 2FD4     		bmi	.L638
1250:Drivers/STM32F4xx_HAL_Driver/Src/stm32f4xx_ll_sdmmc.c ****   {
 7147              		.loc 1 1250 8 is_stmt 1 view .LVU2450
1250:Drivers/STM32F4xx_HAL_Driver/Src/stm32f4xx_ll_sdmmc.c ****   {
 7148              		.loc 1 1250 11 is_stmt 0 view .LVU2451
 7149 0080 D900     		lsls	r1, r3, #3
 7150 0082 2FD4     		bmi	.L639
1254:Drivers/STM32F4xx_HAL_Driver/Src/stm32f4xx_ll_sdmmc.c ****   {
 7151              		.loc 1 1254 8 is_stmt 1 view .LVU2452
1254:Drivers/STM32F4xx_HAL_Driver/Src/stm32f4xx_ll_sdmmc.c ****   {
 7152              		.loc 1 1254 11 is_stmt 0 view .LVU2453
 7153 0084 1A01     		lsls	r2, r3, #4
 7154 0086 30D4     		bmi	.L640
1258:Drivers/STM32F4xx_HAL_Driver/Src/stm32f4xx_ll_sdmmc.c ****   {
 7155              		.loc 1 1258 8 is_stmt 1 view .LVU2454
1258:Drivers/STM32F4xx_HAL_Driver/Src/stm32f4xx_ll_sdmmc.c ****   {
 7156              		.loc 1 1258 11 is_stmt 0 view .LVU2455
 7157 0088 5901     		lsls	r1, r3, #5
 7158 008a 31D4     		bmi	.L641
1262:Drivers/STM32F4xx_HAL_Driver/Src/stm32f4xx_ll_sdmmc.c ****   {
 7159              		.loc 1 1262 8 is_stmt 1 view .LVU2456
1262:Drivers/STM32F4xx_HAL_Driver/Src/stm32f4xx_ll_sdmmc.c ****   {
 7160              		.loc 1 1262 11 is_stmt 0 view .LVU2457
 7161 008c DA01     		lsls	r2, r3, #7
 7162 008e 32D4     		bmi	.L642
1266:Drivers/STM32F4xx_HAL_Driver/Src/stm32f4xx_ll_sdmmc.c ****   {
 7163              		.loc 1 1266 8 is_stmt 1 view .LVU2458
1266:Drivers/STM32F4xx_HAL_Driver/Src/stm32f4xx_ll_sdmmc.c ****   {
 7164              		.loc 1 1266 11 is_stmt 0 view .LVU2459
 7165 0090 1902     		lsls	r1, r3, #8
 7166 0092 33D4     		bmi	.L643
1270:Drivers/STM32F4xx_HAL_Driver/Src/stm32f4xx_ll_sdmmc.c ****   {
 7167              		.loc 1 1270 8 is_stmt 1 view .LVU2460
1270:Drivers/STM32F4xx_HAL_Driver/Src/stm32f4xx_ll_sdmmc.c ****   {
 7168              		.loc 1 1270 11 is_stmt 0 view .LVU2461
 7169 0094 5A02     		lsls	r2, r3, #9
 7170 0096 34D4     		bmi	.L644
1274:Drivers/STM32F4xx_HAL_Driver/Src/stm32f4xx_ll_sdmmc.c ****   {
 7171              		.loc 1 1274 8 is_stmt 1 view .LVU2462
1274:Drivers/STM32F4xx_HAL_Driver/Src/stm32f4xx_ll_sdmmc.c ****   {
 7172              		.loc 1 1274 11 is_stmt 0 view .LVU2463
 7173 0098 9902     		lsls	r1, r3, #10
 7174 009a 3ED4     		bmi	.L645
1278:Drivers/STM32F4xx_HAL_Driver/Src/stm32f4xx_ll_sdmmc.c ****   {
 7175              		.loc 1 1278 8 is_stmt 1 view .LVU2464
1278:Drivers/STM32F4xx_HAL_Driver/Src/stm32f4xx_ll_sdmmc.c ****   {
 7176              		.loc 1 1278 11 is_stmt 0 view .LVU2465
 7177 009c DA02     		lsls	r2, r3, #11
 7178 009e 39D4     		bmi	.L646
1282:Drivers/STM32F4xx_HAL_Driver/Src/stm32f4xx_ll_sdmmc.c ****   {
 7179              		.loc 1 1282 8 is_stmt 1 view .LVU2466
1282:Drivers/STM32F4xx_HAL_Driver/Src/stm32f4xx_ll_sdmmc.c ****   {
 7180              		.loc 1 1282 11 is_stmt 0 view .LVU2467
 7181 00a0 5903     		lsls	r1, r3, #13
 7182 00a2 34D4     		bmi	.L647
1286:Drivers/STM32F4xx_HAL_Driver/Src/stm32f4xx_ll_sdmmc.c ****   {
 7183              		.loc 1 1286 8 is_stmt 1 view .LVU2468
ARM GAS  C:\Users\pw705\AppData\Local\Temp\cceieKfF.s 			page 193


1286:Drivers/STM32F4xx_HAL_Driver/Src/stm32f4xx_ll_sdmmc.c ****   {
 7184              		.loc 1 1286 11 is_stmt 0 view .LVU2469
 7185 00a4 9A03     		lsls	r2, r3, #14
 7186 00a6 2FD4     		bmi	.L648
1290:Drivers/STM32F4xx_HAL_Driver/Src/stm32f4xx_ll_sdmmc.c ****   {
 7187              		.loc 1 1290 8 is_stmt 1 view .LVU2470
1290:Drivers/STM32F4xx_HAL_Driver/Src/stm32f4xx_ll_sdmmc.c ****   {
 7188              		.loc 1 1290 11 is_stmt 0 view .LVU2471
 7189 00a8 D903     		lsls	r1, r3, #15
 7190 00aa 3FD4     		bmi	.L649
1294:Drivers/STM32F4xx_HAL_Driver/Src/stm32f4xx_ll_sdmmc.c ****   {
 7191              		.loc 1 1294 8 is_stmt 1 view .LVU2472
1294:Drivers/STM32F4xx_HAL_Driver/Src/stm32f4xx_ll_sdmmc.c ****   {
 7192              		.loc 1 1294 11 is_stmt 0 view .LVU2473
 7193 00ac 1A04     		lsls	r2, r3, #16
 7194 00ae 3AD4     		bmi	.L650
1298:Drivers/STM32F4xx_HAL_Driver/Src/stm32f4xx_ll_sdmmc.c ****   {
 7195              		.loc 1 1298 8 is_stmt 1 view .LVU2474
1298:Drivers/STM32F4xx_HAL_Driver/Src/stm32f4xx_ll_sdmmc.c ****   {
 7196              		.loc 1 1298 11 is_stmt 0 view .LVU2475
 7197 00b0 5904     		lsls	r1, r3, #17
 7198 00b2 35D4     		bmi	.L651
1302:Drivers/STM32F4xx_HAL_Driver/Src/stm32f4xx_ll_sdmmc.c ****   {
 7199              		.loc 1 1302 8 is_stmt 1 view .LVU2476
1302:Drivers/STM32F4xx_HAL_Driver/Src/stm32f4xx_ll_sdmmc.c ****   {
 7200              		.loc 1 1302 11 is_stmt 0 view .LVU2477
 7201 00b4 9A04     		lsls	r2, r3, #18
 7202 00b6 07D4     		bmi	.L652
1306:Drivers/STM32F4xx_HAL_Driver/Src/stm32f4xx_ll_sdmmc.c ****   {
 7203              		.loc 1 1306 8 is_stmt 1 view .LVU2478
1308:Drivers/STM32F4xx_HAL_Driver/Src/stm32f4xx_ll_sdmmc.c ****   }
 7204              		.loc 1 1308 12 is_stmt 0 view .LVU2479
 7205 00b8 13F0080F 		tst	r3, #8
 7206 00bc 0CBF     		ite	eq
 7207 00be 4FF48030 		moveq	r0, #65536
 7208 00c2 4FF40000 		movne	r0, #8388608
 7209 00c6 7047     		bx	lr
 7210              	.L652:
1304:Drivers/STM32F4xx_HAL_Driver/Src/stm32f4xx_ll_sdmmc.c ****   }
 7211              		.loc 1 1304 12 view .LVU2480
 7212 00c8 4FF48000 		mov	r0, #4194304
 7213              	.L626:
1304:Drivers/STM32F4xx_HAL_Driver/Src/stm32f4xx_ll_sdmmc.c ****   }
 7214              		.loc 1 1304 12 view .LVU2481
 7215              	.LBE832:
 7216              	.LBE831:
 7217              	.LBE841:
 7218              	.LBE852:
 939:Drivers/STM32F4xx_HAL_Driver/Src/stm32f4xx_ll_sdmmc.c **** 
 7219              		.loc 1 939 1 view .LVU2482
 7220 00cc 7047     		bx	lr
 7221              	.LVL416:
 7222              	.L662:
 7223              	.LBB853:
 7224              	.LBB842:
1207:Drivers/STM32F4xx_HAL_Driver/Src/stm32f4xx_ll_sdmmc.c **** 
 7225              		.loc 1 1207 5 is_stmt 1 view .LVU2483
ARM GAS  C:\Users\pw705\AppData\Local\Temp\cceieKfF.s 			page 194


 7226 00ce 0423     		movs	r3, #4
 7227 00d0 8363     		str	r3, [r0, #56]
1209:Drivers/STM32F4xx_HAL_Driver/Src/stm32f4xx_ll_sdmmc.c ****   }
 7228              		.loc 1 1209 5 view .LVU2484
1209:Drivers/STM32F4xx_HAL_Driver/Src/stm32f4xx_ll_sdmmc.c ****   }
 7229              		.loc 1 1209 12 is_stmt 0 view .LVU2485
 7230 00d2 1846     		mov	r0, r3
 7231              	.LVL417:
1209:Drivers/STM32F4xx_HAL_Driver/Src/stm32f4xx_ll_sdmmc.c ****   }
 7232              		.loc 1 1209 12 view .LVU2486
 7233 00d4 7047     		bx	lr
 7234              	.LVL418:
 7235              	.L636:
 7236              	.LBB836:
 7237              	.LBB835:
1240:Drivers/STM32F4xx_HAL_Driver/Src/stm32f4xx_ll_sdmmc.c ****   }
 7238              		.loc 1 1240 12 view .LVU2487
 7239 00d6 4FF00070 		mov	r0, #33554432
 7240 00da 7047     		bx	lr
 7241              	.L637:
1244:Drivers/STM32F4xx_HAL_Driver/Src/stm32f4xx_ll_sdmmc.c ****   }
 7242              		.loc 1 1244 12 view .LVU2488
 7243 00dc 4020     		movs	r0, #64
 7244 00de 7047     		bx	lr
 7245              	.L638:
1248:Drivers/STM32F4xx_HAL_Driver/Src/stm32f4xx_ll_sdmmc.c ****   }
 7246              		.loc 1 1248 12 view .LVU2489
 7247 00e0 8020     		movs	r0, #128
 7248 00e2 7047     		bx	lr
 7249              	.L639:
1252:Drivers/STM32F4xx_HAL_Driver/Src/stm32f4xx_ll_sdmmc.c ****   }
 7250              		.loc 1 1252 12 view .LVU2490
 7251 00e4 4FF48070 		mov	r0, #256
 7252 00e8 7047     		bx	lr
 7253              	.L640:
1256:Drivers/STM32F4xx_HAL_Driver/Src/stm32f4xx_ll_sdmmc.c ****   }
 7254              		.loc 1 1256 12 view .LVU2491
 7255 00ea 4FF40070 		mov	r0, #512
 7256 00ee 7047     		bx	lr
 7257              	.L641:
1260:Drivers/STM32F4xx_HAL_Driver/Src/stm32f4xx_ll_sdmmc.c ****   }
 7258              		.loc 1 1260 12 view .LVU2492
 7259 00f0 4FF48060 		mov	r0, #1024
 7260 00f4 7047     		bx	lr
 7261              	.L642:
1264:Drivers/STM32F4xx_HAL_Driver/Src/stm32f4xx_ll_sdmmc.c ****   }
 7262              		.loc 1 1264 12 view .LVU2493
 7263 00f6 4FF40060 		mov	r0, #2048
 7264 00fa 7047     		bx	lr
 7265              	.L643:
1268:Drivers/STM32F4xx_HAL_Driver/Src/stm32f4xx_ll_sdmmc.c ****   }
 7266              		.loc 1 1268 12 view .LVU2494
 7267 00fc 4FF48050 		mov	r0, #4096
 7268 0100 7047     		bx	lr
 7269              	.L644:
1272:Drivers/STM32F4xx_HAL_Driver/Src/stm32f4xx_ll_sdmmc.c ****   }
 7270              		.loc 1 1272 12 view .LVU2495
ARM GAS  C:\Users\pw705\AppData\Local\Temp\cceieKfF.s 			page 195


 7271 0102 4FF40050 		mov	r0, #8192
 7272 0106 7047     		bx	lr
 7273              	.L648:
1288:Drivers/STM32F4xx_HAL_Driver/Src/stm32f4xx_ll_sdmmc.c ****   }
 7274              		.loc 1 1288 12 view .LVU2496
 7275 0108 4FF48020 		mov	r0, #262144
 7276 010c 7047     		bx	lr
 7277              	.L647:
1284:Drivers/STM32F4xx_HAL_Driver/Src/stm32f4xx_ll_sdmmc.c ****   }
 7278              		.loc 1 1284 12 view .LVU2497
 7279 010e 4FF40030 		mov	r0, #131072
 7280 0112 7047     		bx	lr
 7281              	.L646:
1280:Drivers/STM32F4xx_HAL_Driver/Src/stm32f4xx_ll_sdmmc.c ****   }
 7282              		.loc 1 1280 12 view .LVU2498
 7283 0114 4FF40040 		mov	r0, #32768
 7284 0118 7047     		bx	lr
 7285              	.L645:
1276:Drivers/STM32F4xx_HAL_Driver/Src/stm32f4xx_ll_sdmmc.c ****   }
 7286              		.loc 1 1276 12 view .LVU2499
 7287 011a 4FF48040 		mov	r0, #16384
 7288 011e 7047     		bx	lr
 7289              	.L651:
1300:Drivers/STM32F4xx_HAL_Driver/Src/stm32f4xx_ll_sdmmc.c ****   }
 7290              		.loc 1 1300 12 view .LVU2500
 7291 0120 4FF40010 		mov	r0, #2097152
 7292 0124 7047     		bx	lr
 7293              	.L650:
1296:Drivers/STM32F4xx_HAL_Driver/Src/stm32f4xx_ll_sdmmc.c ****   }
 7294              		.loc 1 1296 12 view .LVU2501
 7295 0126 4FF48010 		mov	r0, #1048576
 7296 012a 7047     		bx	lr
 7297              	.L649:
1292:Drivers/STM32F4xx_HAL_Driver/Src/stm32f4xx_ll_sdmmc.c ****   }
 7298              		.loc 1 1292 12 view .LVU2502
 7299 012c 4FF40020 		mov	r0, #524288
 7300 0130 7047     		bx	lr
 7301              	.L665:
 7302 0132 00BF     		.align	2
 7303              	.L664:
 7304 0134 00000000 		.word	SystemCoreClock
 7305 0138 D34D6210 		.word	274877907
 7306 013c 08E0FFFD 		.word	-33562616
 7307              	.LBE835:
 7308              	.LBE836:
 7309              	.LBE842:
 7310              	.LBE853:
 7311              		.cfi_endproc
 7312              	.LFE160:
 7314              		.section	.text.SDMMC_CmdSendCID,"ax",%progbits
 7315              		.align	1
 7316              		.p2align 2,,3
 7317              		.global	SDMMC_CmdSendCID
 7318              		.syntax unified
 7319              		.thumb
 7320              		.thumb_func
 7322              	SDMMC_CmdSendCID:
ARM GAS  C:\Users\pw705\AppData\Local\Temp\cceieKfF.s 			page 196


 7323              	.LVL419:
 7324              	.LFB161:
 947:Drivers/STM32F4xx_HAL_Driver/Src/stm32f4xx_ll_sdmmc.c ****   SDIO_CmdInitTypeDef sdmmc_cmdinit;
 7325              		.loc 1 947 1 is_stmt 1 view -0
 7326              		.cfi_startproc
 7327              		@ args = 0, pretend = 0, frame = 0
 7328              		@ frame_needed = 0, uses_anonymous_args = 0
 7329              		@ link register save eliminated.
 948:Drivers/STM32F4xx_HAL_Driver/Src/stm32f4xx_ll_sdmmc.c ****   uint32_t errorstate;
 7330              		.loc 1 948 3 view .LVU2504
 949:Drivers/STM32F4xx_HAL_Driver/Src/stm32f4xx_ll_sdmmc.c **** 
 7331              		.loc 1 949 3 view .LVU2505
 952:Drivers/STM32F4xx_HAL_Driver/Src/stm32f4xx_ll_sdmmc.c ****   sdmmc_cmdinit.CmdIndex = SDMMC_CMD_ALL_SEND_CID;
 7332              		.loc 1 952 3 view .LVU2506
 953:Drivers/STM32F4xx_HAL_Driver/Src/stm32f4xx_ll_sdmmc.c ****   sdmmc_cmdinit.Response = SDIO_RESPONSE_LONG;
 7333              		.loc 1 953 3 view .LVU2507
 954:Drivers/STM32F4xx_HAL_Driver/Src/stm32f4xx_ll_sdmmc.c ****   sdmmc_cmdinit.WaitForInterrupt = SDIO_WAIT_NO;
 7334              		.loc 1 954 3 view .LVU2508
 955:Drivers/STM32F4xx_HAL_Driver/Src/stm32f4xx_ll_sdmmc.c ****   sdmmc_cmdinit.CPSM = SDIO_CPSM_ENABLE;
 7335              		.loc 1 955 3 view .LVU2509
 956:Drivers/STM32F4xx_HAL_Driver/Src/stm32f4xx_ll_sdmmc.c ****   (void)SDIO_SendCommand(SDIOx, &sdmmc_cmdinit);
 7336              		.loc 1 956 3 view .LVU2510
 957:Drivers/STM32F4xx_HAL_Driver/Src/stm32f4xx_ll_sdmmc.c **** 
 7337              		.loc 1 957 3 view .LVU2511
 7338              	.LBB860:
 7339              	.LBB861:
 356:Drivers/STM32F4xx_HAL_Driver/Src/stm32f4xx_ll_sdmmc.c **** 
 7340              		.loc 1 356 14 is_stmt 0 view .LVU2512
 7341 0000 0023     		movs	r3, #0
 7342 0002 8360     		str	r3, [r0, #8]
 7343              	.LBE861:
 7344              	.LBE860:
 7345              	.LBB868:
 7346              	.LBB869:
1326:Drivers/STM32F4xx_HAL_Driver/Src/stm32f4xx_ll_sdmmc.c **** 
 7347              		.loc 1 1326 60 view .LVU2513
 7348 0004 184A     		ldr	r2, .L680
 7349              	.LBE869:
 7350              	.LBE868:
 7351              	.LBB879:
 7352              	.LBB862:
 365:Drivers/STM32F4xx_HAL_Driver/Src/stm32f4xx_ll_sdmmc.c **** 
 7353              		.loc 1 365 3 view .LVU2514
 7354 0006 C368     		ldr	r3, [r0, #12]
 7355              	.LBE862:
 7356              	.LBE879:
 7357              	.LBB880:
 7358              	.LBB872:
1326:Drivers/STM32F4xx_HAL_Driver/Src/stm32f4xx_ll_sdmmc.c **** 
 7359              		.loc 1 1326 60 view .LVU2515
 7360 0008 1268     		ldr	r2, [r2]
 7361              	.LBE872:
 7362              	.LBE880:
 947:Drivers/STM32F4xx_HAL_Driver/Src/stm32f4xx_ll_sdmmc.c ****   SDIO_CmdInitTypeDef sdmmc_cmdinit;
 7363              		.loc 1 947 1 view .LVU2516
 7364 000a 0146     		mov	r1, r0
 7365              	.LVL420:
ARM GAS  C:\Users\pw705\AppData\Local\Temp\cceieKfF.s 			page 197


 7366              	.LBB881:
 7367              	.LBI860:
 345:Drivers/STM32F4xx_HAL_Driver/Src/stm32f4xx_ll_sdmmc.c **** {
 7368              		.loc 1 345 19 is_stmt 1 view .LVU2517
 7369              	.LBB863:
 347:Drivers/STM32F4xx_HAL_Driver/Src/stm32f4xx_ll_sdmmc.c **** 
 7370              		.loc 1 347 3 view .LVU2518
 350:Drivers/STM32F4xx_HAL_Driver/Src/stm32f4xx_ll_sdmmc.c ****   assert_param(IS_SDIO_RESPONSE(Command->Response));
 7371              		.loc 1 350 3 view .LVU2519
 351:Drivers/STM32F4xx_HAL_Driver/Src/stm32f4xx_ll_sdmmc.c ****   assert_param(IS_SDIO_WAIT(Command->WaitForInterrupt));
 7372              		.loc 1 351 3 view .LVU2520
 352:Drivers/STM32F4xx_HAL_Driver/Src/stm32f4xx_ll_sdmmc.c ****   assert_param(IS_SDIO_CPSM(Command->CPSM));
 7373              		.loc 1 352 3 view .LVU2521
 353:Drivers/STM32F4xx_HAL_Driver/Src/stm32f4xx_ll_sdmmc.c **** 
 7374              		.loc 1 353 3 view .LVU2522
 356:Drivers/STM32F4xx_HAL_Driver/Src/stm32f4xx_ll_sdmmc.c **** 
 7375              		.loc 1 356 3 view .LVU2523
 359:Drivers/STM32F4xx_HAL_Driver/Src/stm32f4xx_ll_sdmmc.c ****                        Command->Response |
 7376              		.loc 1 359 3 view .LVU2524
 365:Drivers/STM32F4xx_HAL_Driver/Src/stm32f4xx_ll_sdmmc.c **** 
 7377              		.loc 1 365 3 view .LVU2525
 7378              	.LBE863:
 7379              	.LBE881:
 7380              	.LBB882:
 7381              	.LBB873:
1326:Drivers/STM32F4xx_HAL_Driver/Src/stm32f4xx_ll_sdmmc.c **** 
 7382              		.loc 1 1326 60 is_stmt 0 view .LVU2526
 7383 000c 1748     		ldr	r0, .L680+4
 7384              	.LVL421:
1326:Drivers/STM32F4xx_HAL_Driver/Src/stm32f4xx_ll_sdmmc.c **** 
 7385              		.loc 1 1326 60 view .LVU2527
 7386              	.LBE873:
 7387              	.LBE882:
 7388              	.LBB883:
 7389              	.LBB864:
 365:Drivers/STM32F4xx_HAL_Driver/Src/stm32f4xx_ll_sdmmc.c **** 
 7390              		.loc 1 365 3 view .LVU2528
 7391 000e 23F47F63 		bic	r3, r3, #4080
 7392              	.LBE864:
 7393              	.LBE883:
 7394              	.LBB884:
 7395              	.LBB874:
1326:Drivers/STM32F4xx_HAL_Driver/Src/stm32f4xx_ll_sdmmc.c **** 
 7396              		.loc 1 1326 60 view .LVU2529
 7397 0012 A0FB0202 		umull	r0, r2, r0, r2
 7398              	.LBE874:
 7399              	.LBE884:
 7400              	.LBB885:
 7401              	.LBB865:
 365:Drivers/STM32F4xx_HAL_Driver/Src/stm32f4xx_ll_sdmmc.c **** 
 7402              		.loc 1 365 3 view .LVU2530
 7403 0016 23F00F03 		bic	r3, r3, #15
 7404 001a 43F49863 		orr	r3, r3, #1216
 7405              	.LBE865:
 7406              	.LBE885:
 7407              	.LBB886:
 7408              	.LBB875:
ARM GAS  C:\Users\pw705\AppData\Local\Temp\cceieKfF.s 			page 198


1326:Drivers/STM32F4xx_HAL_Driver/Src/stm32f4xx_ll_sdmmc.c **** 
 7409              		.loc 1 1326 60 view .LVU2531
 7410 001e 520A     		lsrs	r2, r2, #9
1326:Drivers/STM32F4xx_HAL_Driver/Src/stm32f4xx_ll_sdmmc.c **** 
 7411              		.loc 1 1326 12 view .LVU2532
 7412 0020 41F28830 		movw	r0, #5000
 7413              	.LBE875:
 7414              	.LBE886:
 7415              	.LBB887:
 7416              	.LBB866:
 365:Drivers/STM32F4xx_HAL_Driver/Src/stm32f4xx_ll_sdmmc.c **** 
 7417              		.loc 1 365 3 view .LVU2533
 7418 0024 43F00203 		orr	r3, r3, #2
 7419              	.LBE866:
 7420              	.LBE887:
 7421              	.LBB888:
 7422              	.LBB876:
1326:Drivers/STM32F4xx_HAL_Driver/Src/stm32f4xx_ll_sdmmc.c **** 
 7423              		.loc 1 1326 12 view .LVU2534
 7424 0028 00FB02F2 		mul	r2, r0, r2
 7425              	.LBE876:
 7426              	.LBE888:
 7427              	.LBB889:
 7428              	.LBB867:
 365:Drivers/STM32F4xx_HAL_Driver/Src/stm32f4xx_ll_sdmmc.c **** 
 7429              		.loc 1 365 3 view .LVU2535
 7430 002c CB60     		str	r3, [r1, #12]
 367:Drivers/STM32F4xx_HAL_Driver/Src/stm32f4xx_ll_sdmmc.c **** }
 7431              		.loc 1 367 3 is_stmt 1 view .LVU2536
 7432              	.LVL422:
 367:Drivers/STM32F4xx_HAL_Driver/Src/stm32f4xx_ll_sdmmc.c **** }
 7433              		.loc 1 367 3 is_stmt 0 view .LVU2537
 7434              	.LBE867:
 7435              	.LBE889:
 960:Drivers/STM32F4xx_HAL_Driver/Src/stm32f4xx_ll_sdmmc.c **** 
 7436              		.loc 1 960 3 is_stmt 1 view .LVU2538
 7437              	.LBB890:
 7438              	.LBI868:
1321:Drivers/STM32F4xx_HAL_Driver/Src/stm32f4xx_ll_sdmmc.c **** {
 7439              		.loc 1 1321 10 view .LVU2539
 7440              	.LBB877:
1323:Drivers/STM32F4xx_HAL_Driver/Src/stm32f4xx_ll_sdmmc.c ****   /* 8 is the number of required instructions cycles for the below loop statement.
 7441              		.loc 1 1323 3 view .LVU2540
1326:Drivers/STM32F4xx_HAL_Driver/Src/stm32f4xx_ll_sdmmc.c **** 
 7442              		.loc 1 1326 3 view .LVU2541
1328:Drivers/STM32F4xx_HAL_Driver/Src/stm32f4xx_ll_sdmmc.c ****   {
 7443              		.loc 1 1328 3 view .LVU2542
1330:Drivers/STM32F4xx_HAL_Driver/Src/stm32f4xx_ll_sdmmc.c ****     {
 7444              		.loc 1 1330 5 view .LVU2543
1330:Drivers/STM32F4xx_HAL_Driver/Src/stm32f4xx_ll_sdmmc.c ****     {
 7445              		.loc 1 1330 14 is_stmt 0 view .LVU2544
 7446 002e 531E     		subs	r3, r2, #1
 7447              	.LVL423:
1330:Drivers/STM32F4xx_HAL_Driver/Src/stm32f4xx_ll_sdmmc.c ****     {
 7448              		.loc 1 1330 8 view .LVU2545
 7449 0030 4AB1     		cbz	r2, .L673
 7450              	.L668:
ARM GAS  C:\Users\pw705\AppData\Local\Temp\cceieKfF.s 			page 199


1328:Drivers/STM32F4xx_HAL_Driver/Src/stm32f4xx_ll_sdmmc.c ****   {
 7451              		.loc 1 1328 3 is_stmt 1 view .LVU2546
1330:Drivers/STM32F4xx_HAL_Driver/Src/stm32f4xx_ll_sdmmc.c ****     {
 7452              		.loc 1 1330 5 view .LVU2547
1334:Drivers/STM32F4xx_HAL_Driver/Src/stm32f4xx_ll_sdmmc.c ****   } while (((sta_reg & (SDIO_FLAG_CCRCFAIL | SDIO_FLAG_CMDREND | SDIO_FLAG_CTIMEOUT)) == 0U) ||
 7453              		.loc 1 1334 5 view .LVU2548
1334:Drivers/STM32F4xx_HAL_Driver/Src/stm32f4xx_ll_sdmmc.c ****   } while (((sta_reg & (SDIO_FLAG_CCRCFAIL | SDIO_FLAG_CMDREND | SDIO_FLAG_CTIMEOUT)) == 0U) ||
 7454              		.loc 1 1334 13 is_stmt 0 view .LVU2549
 7455 0032 4A6B     		ldr	r2, [r1, #52]
 7456              	.LVL424:
1335:Drivers/STM32F4xx_HAL_Driver/Src/stm32f4xx_ll_sdmmc.c ****            ((sta_reg & SDIO_FLAG_CMDACT) != 0U));
 7457              		.loc 1 1335 94 is_stmt 1 view .LVU2550
 7458 0034 12F0450F 		tst	r2, #69
1330:Drivers/STM32F4xx_HAL_Driver/Src/stm32f4xx_ll_sdmmc.c ****     {
 7459              		.loc 1 1330 14 is_stmt 0 view .LVU2551
 7460 0038 03F1FF33 		add	r3, r3, #-1
 7461              	.LVL425:
1335:Drivers/STM32F4xx_HAL_Driver/Src/stm32f4xx_ll_sdmmc.c ****            ((sta_reg & SDIO_FLAG_CMDACT) != 0U));
 7462              		.loc 1 1335 94 view .LVU2552
 7463 003c 01D0     		beq	.L669
 7464 003e 1205     		lsls	r2, r2, #20
 7465              	.LVL426:
1335:Drivers/STM32F4xx_HAL_Driver/Src/stm32f4xx_ll_sdmmc.c ****            ((sta_reg & SDIO_FLAG_CMDACT) != 0U));
 7466              		.loc 1 1335 94 view .LVU2553
 7467 0040 04D5     		bpl	.L678
 7468              	.L669:
1330:Drivers/STM32F4xx_HAL_Driver/Src/stm32f4xx_ll_sdmmc.c ****     {
 7469              		.loc 1 1330 8 view .LVU2554
 7470 0042 581C     		adds	r0, r3, #1
 7471 0044 F5D1     		bne	.L668
 7472              	.LVL427:
 7473              	.L673:
1332:Drivers/STM32F4xx_HAL_Driver/Src/stm32f4xx_ll_sdmmc.c ****     }
 7474              		.loc 1 1332 14 view .LVU2555
 7475 0046 4FF00040 		mov	r0, #-2147483648
 7476              	.LVL428:
1332:Drivers/STM32F4xx_HAL_Driver/Src/stm32f4xx_ll_sdmmc.c ****     }
 7477              		.loc 1 1332 14 view .LVU2556
 7478              	.LBE877:
 7479              	.LBE890:
 962:Drivers/STM32F4xx_HAL_Driver/Src/stm32f4xx_ll_sdmmc.c **** }
 7480              		.loc 1 962 3 is_stmt 1 view .LVU2557
 963:Drivers/STM32F4xx_HAL_Driver/Src/stm32f4xx_ll_sdmmc.c **** 
 7481              		.loc 1 963 1 is_stmt 0 view .LVU2558
 7482 004a 7047     		bx	lr
 7483              	.LVL429:
 7484              	.L678:
 7485              	.LBB891:
 7486              	.LBB878:
1338:Drivers/STM32F4xx_HAL_Driver/Src/stm32f4xx_ll_sdmmc.c ****   {
 7487              		.loc 1 1338 3 is_stmt 1 view .LVU2559
1338:Drivers/STM32F4xx_HAL_Driver/Src/stm32f4xx_ll_sdmmc.c ****   {
 7488              		.loc 1 1338 7 is_stmt 0 view .LVU2560
 7489 004c 4B6B     		ldr	r3, [r1, #52]
 7490              	.LVL430:
1338:Drivers/STM32F4xx_HAL_Driver/Src/stm32f4xx_ll_sdmmc.c ****   {
 7491              		.loc 1 1338 6 view .LVU2561
ARM GAS  C:\Users\pw705\AppData\Local\Temp\cceieKfF.s 			page 200


 7492 004e 5B07     		lsls	r3, r3, #29
 7493 0050 07D4     		bmi	.L679
 7494              	.LVL431:
 7495              	.LBB870:
 7496              	.LBI870:
1321:Drivers/STM32F4xx_HAL_Driver/Src/stm32f4xx_ll_sdmmc.c **** {
 7497              		.loc 1 1321 10 is_stmt 1 view .LVU2562
 7498              	.LBB871:
1344:Drivers/STM32F4xx_HAL_Driver/Src/stm32f4xx_ll_sdmmc.c ****   {
 7499              		.loc 1 1344 8 view .LVU2563
1344:Drivers/STM32F4xx_HAL_Driver/Src/stm32f4xx_ll_sdmmc.c ****   {
 7500              		.loc 1 1344 12 is_stmt 0 view .LVU2564
 7501 0052 486B     		ldr	r0, [r1, #52]
1344:Drivers/STM32F4xx_HAL_Driver/Src/stm32f4xx_ll_sdmmc.c ****   {
 7502              		.loc 1 1344 11 view .LVU2565
 7503 0054 10F00100 		ands	r0, r0, #1
1346:Drivers/STM32F4xx_HAL_Driver/Src/stm32f4xx_ll_sdmmc.c **** 
 7504              		.loc 1 1346 5 is_stmt 1 view .LVU2566
 7505 0058 14BF     		ite	ne
 7506 005a 0123     		movne	r3, #1
1354:Drivers/STM32F4xx_HAL_Driver/Src/stm32f4xx_ll_sdmmc.c ****   }
 7507              		.loc 1 1354 5 view .LVU2567
 7508 005c C523     		moveq	r3, #197
 7509 005e 8B63     		str	r3, [r1, #56]
1357:Drivers/STM32F4xx_HAL_Driver/Src/stm32f4xx_ll_sdmmc.c **** }
 7510              		.loc 1 1357 3 view .LVU2568
1357:Drivers/STM32F4xx_HAL_Driver/Src/stm32f4xx_ll_sdmmc.c **** }
 7511              		.loc 1 1357 10 is_stmt 0 view .LVU2569
 7512 0060 7047     		bx	lr
 7513              	.LVL432:
 7514              	.L679:
1357:Drivers/STM32F4xx_HAL_Driver/Src/stm32f4xx_ll_sdmmc.c **** }
 7515              		.loc 1 1357 10 view .LVU2570
 7516              	.LBE871:
 7517              	.LBE870:
1340:Drivers/STM32F4xx_HAL_Driver/Src/stm32f4xx_ll_sdmmc.c **** 
 7518              		.loc 1 1340 5 is_stmt 1 view .LVU2571
 7519 0062 0420     		movs	r0, #4
 7520 0064 8863     		str	r0, [r1, #56]
1342:Drivers/STM32F4xx_HAL_Driver/Src/stm32f4xx_ll_sdmmc.c ****   }
 7521              		.loc 1 1342 5 view .LVU2572
1342:Drivers/STM32F4xx_HAL_Driver/Src/stm32f4xx_ll_sdmmc.c ****   }
 7522              		.loc 1 1342 12 is_stmt 0 view .LVU2573
 7523 0066 7047     		bx	lr
 7524              	.L681:
 7525              		.align	2
 7526              	.L680:
 7527 0068 00000000 		.word	SystemCoreClock
 7528 006c D34D6210 		.word	274877907
 7529              	.LBE878:
 7530              	.LBE891:
 7531              		.cfi_endproc
 7532              	.LFE161:
 7534              		.section	.text.SDMMC_CmdSendCSD,"ax",%progbits
 7535              		.align	1
 7536              		.p2align 2,,3
 7537              		.global	SDMMC_CmdSendCSD
ARM GAS  C:\Users\pw705\AppData\Local\Temp\cceieKfF.s 			page 201


 7538              		.syntax unified
 7539              		.thumb
 7540              		.thumb_func
 7542              	SDMMC_CmdSendCSD:
 7543              	.LVL433:
 7544              	.LFB162:
 972:Drivers/STM32F4xx_HAL_Driver/Src/stm32f4xx_ll_sdmmc.c ****   SDIO_CmdInitTypeDef sdmmc_cmdinit;
 7545              		.loc 1 972 1 is_stmt 1 view -0
 7546              		.cfi_startproc
 7547              		@ args = 0, pretend = 0, frame = 0
 7548              		@ frame_needed = 0, uses_anonymous_args = 0
 7549              		@ link register save eliminated.
 973:Drivers/STM32F4xx_HAL_Driver/Src/stm32f4xx_ll_sdmmc.c ****   uint32_t errorstate;
 7550              		.loc 1 973 3 view .LVU2575
 974:Drivers/STM32F4xx_HAL_Driver/Src/stm32f4xx_ll_sdmmc.c **** 
 7551              		.loc 1 974 3 view .LVU2576
 977:Drivers/STM32F4xx_HAL_Driver/Src/stm32f4xx_ll_sdmmc.c ****   sdmmc_cmdinit.CmdIndex = SDMMC_CMD_SEND_CSD;
 7552              		.loc 1 977 3 view .LVU2577
 7553              	.LBB898:
 7554              	.LBB899:
 356:Drivers/STM32F4xx_HAL_Driver/Src/stm32f4xx_ll_sdmmc.c **** 
 7555              		.loc 1 356 14 is_stmt 0 view .LVU2578
 7556 0000 8160     		str	r1, [r0, #8]
 7557              	.LBE899:
 7558              	.LBE898:
 7559              	.LBB906:
 7560              	.LBB907:
1326:Drivers/STM32F4xx_HAL_Driver/Src/stm32f4xx_ll_sdmmc.c **** 
 7561              		.loc 1 1326 60 view .LVU2579
 7562 0002 1B4A     		ldr	r2, .L696
 7563              	.LBE907:
 7564              	.LBE906:
 7565              	.LBB916:
 7566              	.LBB900:
 365:Drivers/STM32F4xx_HAL_Driver/Src/stm32f4xx_ll_sdmmc.c **** 
 7567              		.loc 1 365 3 view .LVU2580
 7568 0004 C368     		ldr	r3, [r0, #12]
 7569              	.LBE900:
 7570              	.LBE916:
 7571              	.LBB917:
 7572              	.LBB910:
1326:Drivers/STM32F4xx_HAL_Driver/Src/stm32f4xx_ll_sdmmc.c **** 
 7573              		.loc 1 1326 60 view .LVU2581
 7574 0006 1B49     		ldr	r1, .L696+4
 7575              	.LVL434:
1326:Drivers/STM32F4xx_HAL_Driver/Src/stm32f4xx_ll_sdmmc.c **** 
 7576              		.loc 1 1326 60 view .LVU2582
 7577 0008 1268     		ldr	r2, [r2]
 7578              	.LBE910:
 7579              	.LBE917:
 7580              	.LBB918:
 7581              	.LBB901:
 365:Drivers/STM32F4xx_HAL_Driver/Src/stm32f4xx_ll_sdmmc.c **** 
 7582              		.loc 1 365 3 view .LVU2583
 7583 000a 23F47F63 		bic	r3, r3, #4080
 7584              	.LBE901:
 7585              	.LBE918:
ARM GAS  C:\Users\pw705\AppData\Local\Temp\cceieKfF.s 			page 202


 7586              	.LBB919:
 7587              	.LBB911:
1326:Drivers/STM32F4xx_HAL_Driver/Src/stm32f4xx_ll_sdmmc.c **** 
 7588              		.loc 1 1326 60 view .LVU2584
 7589 000e A1FB0212 		umull	r1, r2, r1, r2
 7590              	.LBE911:
 7591              	.LBE919:
 7592              	.LBB920:
 7593              	.LBB902:
 365:Drivers/STM32F4xx_HAL_Driver/Src/stm32f4xx_ll_sdmmc.c **** 
 7594              		.loc 1 365 3 view .LVU2585
 7595 0012 23F00F03 		bic	r3, r3, #15
 7596 0016 43F49963 		orr	r3, r3, #1224
 7597              	.LBE902:
 7598              	.LBE920:
 7599              	.LBB921:
 7600              	.LBB912:
1326:Drivers/STM32F4xx_HAL_Driver/Src/stm32f4xx_ll_sdmmc.c **** 
 7601              		.loc 1 1326 60 view .LVU2586
 7602 001a 520A     		lsrs	r2, r2, #9
1326:Drivers/STM32F4xx_HAL_Driver/Src/stm32f4xx_ll_sdmmc.c **** 
 7603              		.loc 1 1326 12 view .LVU2587
 7604 001c 41F28831 		movw	r1, #5000
 7605              	.LBE912:
 7606              	.LBE921:
 7607              	.LBB922:
 7608              	.LBB903:
 365:Drivers/STM32F4xx_HAL_Driver/Src/stm32f4xx_ll_sdmmc.c **** 
 7609              		.loc 1 365 3 view .LVU2588
 7610 0020 43F00103 		orr	r3, r3, #1
 7611              	.LBE903:
 7612              	.LBE922:
 7613              	.LBB923:
 7614              	.LBB913:
1326:Drivers/STM32F4xx_HAL_Driver/Src/stm32f4xx_ll_sdmmc.c **** 
 7615              		.loc 1 1326 12 view .LVU2589
 7616 0024 01FB02F2 		mul	r2, r1, r2
 7617              	.LBE913:
 7618              	.LBE923:
 7619              	.LBB924:
 7620              	.LBB904:
 365:Drivers/STM32F4xx_HAL_Driver/Src/stm32f4xx_ll_sdmmc.c **** 
 7621              		.loc 1 365 3 view .LVU2590
 7622 0028 C360     		str	r3, [r0, #12]
 7623              	.LVL435:
 365:Drivers/STM32F4xx_HAL_Driver/Src/stm32f4xx_ll_sdmmc.c **** 
 7624              		.loc 1 365 3 view .LVU2591
 7625              	.LBE904:
 7626              	.LBE924:
 972:Drivers/STM32F4xx_HAL_Driver/Src/stm32f4xx_ll_sdmmc.c ****   SDIO_CmdInitTypeDef sdmmc_cmdinit;
 7627              		.loc 1 972 1 view .LVU2592
 7628 002a 8446     		mov	ip, r0
 978:Drivers/STM32F4xx_HAL_Driver/Src/stm32f4xx_ll_sdmmc.c ****   sdmmc_cmdinit.Response = SDIO_RESPONSE_LONG;
 7629              		.loc 1 978 3 is_stmt 1 view .LVU2593
 7630              	.LVL436:
 979:Drivers/STM32F4xx_HAL_Driver/Src/stm32f4xx_ll_sdmmc.c ****   sdmmc_cmdinit.WaitForInterrupt = SDIO_WAIT_NO;
 7631              		.loc 1 979 3 view .LVU2594
ARM GAS  C:\Users\pw705\AppData\Local\Temp\cceieKfF.s 			page 203


 980:Drivers/STM32F4xx_HAL_Driver/Src/stm32f4xx_ll_sdmmc.c ****   sdmmc_cmdinit.CPSM = SDIO_CPSM_ENABLE;
 7632              		.loc 1 980 3 view .LVU2595
 981:Drivers/STM32F4xx_HAL_Driver/Src/stm32f4xx_ll_sdmmc.c ****   (void)SDIO_SendCommand(SDIOx, &sdmmc_cmdinit);
 7633              		.loc 1 981 3 view .LVU2596
 982:Drivers/STM32F4xx_HAL_Driver/Src/stm32f4xx_ll_sdmmc.c **** 
 7634              		.loc 1 982 3 view .LVU2597
 7635              	.LBB925:
 7636              	.LBI898:
 345:Drivers/STM32F4xx_HAL_Driver/Src/stm32f4xx_ll_sdmmc.c **** {
 7637              		.loc 1 345 19 view .LVU2598
 7638              	.LBB905:
 347:Drivers/STM32F4xx_HAL_Driver/Src/stm32f4xx_ll_sdmmc.c **** 
 7639              		.loc 1 347 3 view .LVU2599
 350:Drivers/STM32F4xx_HAL_Driver/Src/stm32f4xx_ll_sdmmc.c ****   assert_param(IS_SDIO_RESPONSE(Command->Response));
 7640              		.loc 1 350 3 view .LVU2600
 351:Drivers/STM32F4xx_HAL_Driver/Src/stm32f4xx_ll_sdmmc.c ****   assert_param(IS_SDIO_WAIT(Command->WaitForInterrupt));
 7641              		.loc 1 351 3 view .LVU2601
 352:Drivers/STM32F4xx_HAL_Driver/Src/stm32f4xx_ll_sdmmc.c ****   assert_param(IS_SDIO_CPSM(Command->CPSM));
 7642              		.loc 1 352 3 view .LVU2602
 353:Drivers/STM32F4xx_HAL_Driver/Src/stm32f4xx_ll_sdmmc.c **** 
 7643              		.loc 1 353 3 view .LVU2603
 356:Drivers/STM32F4xx_HAL_Driver/Src/stm32f4xx_ll_sdmmc.c **** 
 7644              		.loc 1 356 3 view .LVU2604
 359:Drivers/STM32F4xx_HAL_Driver/Src/stm32f4xx_ll_sdmmc.c ****                        Command->Response |
 7645              		.loc 1 359 3 view .LVU2605
 365:Drivers/STM32F4xx_HAL_Driver/Src/stm32f4xx_ll_sdmmc.c **** 
 7646              		.loc 1 365 3 view .LVU2606
 367:Drivers/STM32F4xx_HAL_Driver/Src/stm32f4xx_ll_sdmmc.c **** }
 7647              		.loc 1 367 3 view .LVU2607
 367:Drivers/STM32F4xx_HAL_Driver/Src/stm32f4xx_ll_sdmmc.c **** }
 7648              		.loc 1 367 3 is_stmt 0 view .LVU2608
 7649              	.LBE905:
 7650              	.LBE925:
 985:Drivers/STM32F4xx_HAL_Driver/Src/stm32f4xx_ll_sdmmc.c **** 
 7651              		.loc 1 985 3 is_stmt 1 view .LVU2609
 7652              	.LBB926:
 7653              	.LBI906:
1321:Drivers/STM32F4xx_HAL_Driver/Src/stm32f4xx_ll_sdmmc.c **** {
 7654              		.loc 1 1321 10 view .LVU2610
 7655              	.LBB914:
1323:Drivers/STM32F4xx_HAL_Driver/Src/stm32f4xx_ll_sdmmc.c ****   /* 8 is the number of required instructions cycles for the below loop statement.
 7656              		.loc 1 1323 3 view .LVU2611
1326:Drivers/STM32F4xx_HAL_Driver/Src/stm32f4xx_ll_sdmmc.c **** 
 7657              		.loc 1 1326 3 view .LVU2612
1328:Drivers/STM32F4xx_HAL_Driver/Src/stm32f4xx_ll_sdmmc.c ****   {
 7658              		.loc 1 1328 3 view .LVU2613
1330:Drivers/STM32F4xx_HAL_Driver/Src/stm32f4xx_ll_sdmmc.c ****     {
 7659              		.loc 1 1330 5 view .LVU2614
1330:Drivers/STM32F4xx_HAL_Driver/Src/stm32f4xx_ll_sdmmc.c ****     {
 7660              		.loc 1 1330 14 is_stmt 0 view .LVU2615
 7661 002c 531E     		subs	r3, r2, #1
 7662              	.LVL437:
1330:Drivers/STM32F4xx_HAL_Driver/Src/stm32f4xx_ll_sdmmc.c ****     {
 7663              		.loc 1 1330 8 view .LVU2616
 7664 002e 52B1     		cbz	r2, .L689
 7665              	.L684:
1328:Drivers/STM32F4xx_HAL_Driver/Src/stm32f4xx_ll_sdmmc.c ****   {
ARM GAS  C:\Users\pw705\AppData\Local\Temp\cceieKfF.s 			page 204


 7666              		.loc 1 1328 3 is_stmt 1 view .LVU2617
1330:Drivers/STM32F4xx_HAL_Driver/Src/stm32f4xx_ll_sdmmc.c ****     {
 7667              		.loc 1 1330 5 view .LVU2618
1334:Drivers/STM32F4xx_HAL_Driver/Src/stm32f4xx_ll_sdmmc.c ****   } while (((sta_reg & (SDIO_FLAG_CCRCFAIL | SDIO_FLAG_CMDREND | SDIO_FLAG_CTIMEOUT)) == 0U) ||
 7668              		.loc 1 1334 5 view .LVU2619
1334:Drivers/STM32F4xx_HAL_Driver/Src/stm32f4xx_ll_sdmmc.c ****   } while (((sta_reg & (SDIO_FLAG_CCRCFAIL | SDIO_FLAG_CMDREND | SDIO_FLAG_CTIMEOUT)) == 0U) ||
 7669              		.loc 1 1334 13 is_stmt 0 view .LVU2620
 7670 0030 DCF83420 		ldr	r2, [ip, #52]
 7671              	.LVL438:
1335:Drivers/STM32F4xx_HAL_Driver/Src/stm32f4xx_ll_sdmmc.c ****            ((sta_reg & SDIO_FLAG_CMDACT) != 0U));
 7672              		.loc 1 1335 94 is_stmt 1 view .LVU2621
 7673 0034 12F0450F 		tst	r2, #69
1330:Drivers/STM32F4xx_HAL_Driver/Src/stm32f4xx_ll_sdmmc.c ****     {
 7674              		.loc 1 1330 14 is_stmt 0 view .LVU2622
 7675 0038 03F1FF33 		add	r3, r3, #-1
 7676              	.LVL439:
1335:Drivers/STM32F4xx_HAL_Driver/Src/stm32f4xx_ll_sdmmc.c ****            ((sta_reg & SDIO_FLAG_CMDACT) != 0U));
 7677              		.loc 1 1335 94 view .LVU2623
 7678 003c 01D0     		beq	.L685
 7679 003e 1205     		lsls	r2, r2, #20
 7680              	.LVL440:
1335:Drivers/STM32F4xx_HAL_Driver/Src/stm32f4xx_ll_sdmmc.c ****            ((sta_reg & SDIO_FLAG_CMDACT) != 0U));
 7681              		.loc 1 1335 94 view .LVU2624
 7682 0040 04D5     		bpl	.L694
 7683              	.L685:
1330:Drivers/STM32F4xx_HAL_Driver/Src/stm32f4xx_ll_sdmmc.c ****     {
 7684              		.loc 1 1330 8 view .LVU2625
 7685 0042 591C     		adds	r1, r3, #1
 7686 0044 F4D1     		bne	.L684
 7687              	.LVL441:
 7688              	.L689:
1332:Drivers/STM32F4xx_HAL_Driver/Src/stm32f4xx_ll_sdmmc.c ****     }
 7689              		.loc 1 1332 14 view .LVU2626
 7690 0046 4FF00040 		mov	r0, #-2147483648
 7691              	.LVL442:
1332:Drivers/STM32F4xx_HAL_Driver/Src/stm32f4xx_ll_sdmmc.c ****     }
 7692              		.loc 1 1332 14 view .LVU2627
 7693              	.LBE914:
 7694              	.LBE926:
 987:Drivers/STM32F4xx_HAL_Driver/Src/stm32f4xx_ll_sdmmc.c **** }
 7695              		.loc 1 987 3 is_stmt 1 view .LVU2628
 988:Drivers/STM32F4xx_HAL_Driver/Src/stm32f4xx_ll_sdmmc.c **** 
 7696              		.loc 1 988 1 is_stmt 0 view .LVU2629
 7697 004a 7047     		bx	lr
 7698              	.LVL443:
 7699              	.L694:
 7700              	.LBB927:
 7701              	.LBB915:
1338:Drivers/STM32F4xx_HAL_Driver/Src/stm32f4xx_ll_sdmmc.c ****   {
 7702              		.loc 1 1338 3 is_stmt 1 view .LVU2630
1338:Drivers/STM32F4xx_HAL_Driver/Src/stm32f4xx_ll_sdmmc.c ****   {
 7703              		.loc 1 1338 7 is_stmt 0 view .LVU2631
 7704 004c DCF83430 		ldr	r3, [ip, #52]
 7705              	.LVL444:
1338:Drivers/STM32F4xx_HAL_Driver/Src/stm32f4xx_ll_sdmmc.c ****   {
 7706              		.loc 1 1338 6 view .LVU2632
 7707 0050 5B07     		lsls	r3, r3, #29
ARM GAS  C:\Users\pw705\AppData\Local\Temp\cceieKfF.s 			page 205


 7708 0052 09D4     		bmi	.L695
 7709              	.LVL445:
 7710              	.LBB908:
 7711              	.LBI908:
1321:Drivers/STM32F4xx_HAL_Driver/Src/stm32f4xx_ll_sdmmc.c **** {
 7712              		.loc 1 1321 10 is_stmt 1 view .LVU2633
 7713              	.LBB909:
1344:Drivers/STM32F4xx_HAL_Driver/Src/stm32f4xx_ll_sdmmc.c ****   {
 7714              		.loc 1 1344 8 view .LVU2634
1344:Drivers/STM32F4xx_HAL_Driver/Src/stm32f4xx_ll_sdmmc.c ****   {
 7715              		.loc 1 1344 12 is_stmt 0 view .LVU2635
 7716 0054 DCF83400 		ldr	r0, [ip, #52]
 7717              	.LVL446:
1344:Drivers/STM32F4xx_HAL_Driver/Src/stm32f4xx_ll_sdmmc.c ****   {
 7718              		.loc 1 1344 11 view .LVU2636
 7719 0058 10F00100 		ands	r0, r0, #1
1346:Drivers/STM32F4xx_HAL_Driver/Src/stm32f4xx_ll_sdmmc.c **** 
 7720              		.loc 1 1346 5 is_stmt 1 view .LVU2637
 7721 005c 14BF     		ite	ne
 7722 005e 0123     		movne	r3, #1
1354:Drivers/STM32F4xx_HAL_Driver/Src/stm32f4xx_ll_sdmmc.c ****   }
 7723              		.loc 1 1354 5 view .LVU2638
 7724 0060 C523     		moveq	r3, #197
 7725 0062 CCF83830 		str	r3, [ip, #56]
1357:Drivers/STM32F4xx_HAL_Driver/Src/stm32f4xx_ll_sdmmc.c **** }
 7726              		.loc 1 1357 3 view .LVU2639
1357:Drivers/STM32F4xx_HAL_Driver/Src/stm32f4xx_ll_sdmmc.c **** }
 7727              		.loc 1 1357 10 is_stmt 0 view .LVU2640
 7728 0066 7047     		bx	lr
 7729              	.LVL447:
 7730              	.L695:
1357:Drivers/STM32F4xx_HAL_Driver/Src/stm32f4xx_ll_sdmmc.c **** }
 7731              		.loc 1 1357 10 view .LVU2641
 7732              	.LBE909:
 7733              	.LBE908:
1340:Drivers/STM32F4xx_HAL_Driver/Src/stm32f4xx_ll_sdmmc.c **** 
 7734              		.loc 1 1340 5 is_stmt 1 view .LVU2642
 7735 0068 0420     		movs	r0, #4
 7736              	.LVL448:
1340:Drivers/STM32F4xx_HAL_Driver/Src/stm32f4xx_ll_sdmmc.c **** 
 7737              		.loc 1 1340 5 is_stmt 0 view .LVU2643
 7738 006a CCF83800 		str	r0, [ip, #56]
1342:Drivers/STM32F4xx_HAL_Driver/Src/stm32f4xx_ll_sdmmc.c ****   }
 7739              		.loc 1 1342 5 is_stmt 1 view .LVU2644
1342:Drivers/STM32F4xx_HAL_Driver/Src/stm32f4xx_ll_sdmmc.c ****   }
 7740              		.loc 1 1342 12 is_stmt 0 view .LVU2645
 7741 006e 7047     		bx	lr
 7742              	.L697:
 7743              		.align	2
 7744              	.L696:
 7745 0070 00000000 		.word	SystemCoreClock
 7746 0074 D34D6210 		.word	274877907
 7747              	.LBE915:
 7748              	.LBE927:
 7749              		.cfi_endproc
 7750              	.LFE162:
 7752              		.section	.text.SDMMC_CmdSetRelAdd,"ax",%progbits
ARM GAS  C:\Users\pw705\AppData\Local\Temp\cceieKfF.s 			page 206


 7753              		.align	1
 7754              		.p2align 2,,3
 7755              		.global	SDMMC_CmdSetRelAdd
 7756              		.syntax unified
 7757              		.thumb
 7758              		.thumb_func
 7760              	SDMMC_CmdSetRelAdd:
 7761              	.LVL449:
 7762              	.LFB163:
 997:Drivers/STM32F4xx_HAL_Driver/Src/stm32f4xx_ll_sdmmc.c ****   SDIO_CmdInitTypeDef sdmmc_cmdinit;
 7763              		.loc 1 997 1 is_stmt 1 view -0
 7764              		.cfi_startproc
 7765              		@ args = 0, pretend = 0, frame = 0
 7766              		@ frame_needed = 0, uses_anonymous_args = 0
 7767              		@ link register save eliminated.
 998:Drivers/STM32F4xx_HAL_Driver/Src/stm32f4xx_ll_sdmmc.c ****   uint32_t errorstate;
 7768              		.loc 1 998 3 view .LVU2647
 999:Drivers/STM32F4xx_HAL_Driver/Src/stm32f4xx_ll_sdmmc.c **** 
 7769              		.loc 1 999 3 view .LVU2648
1002:Drivers/STM32F4xx_HAL_Driver/Src/stm32f4xx_ll_sdmmc.c ****   sdmmc_cmdinit.CmdIndex = SDMMC_CMD_SET_REL_ADDR;
 7770              		.loc 1 1002 3 view .LVU2649
1003:Drivers/STM32F4xx_HAL_Driver/Src/stm32f4xx_ll_sdmmc.c ****   sdmmc_cmdinit.Response = SDIO_RESPONSE_SHORT;
 7771              		.loc 1 1003 3 view .LVU2650
1004:Drivers/STM32F4xx_HAL_Driver/Src/stm32f4xx_ll_sdmmc.c ****   sdmmc_cmdinit.WaitForInterrupt = SDIO_WAIT_NO;
 7772              		.loc 1 1004 3 view .LVU2651
1005:Drivers/STM32F4xx_HAL_Driver/Src/stm32f4xx_ll_sdmmc.c ****   sdmmc_cmdinit.CPSM = SDIO_CPSM_ENABLE;
 7773              		.loc 1 1005 3 view .LVU2652
1006:Drivers/STM32F4xx_HAL_Driver/Src/stm32f4xx_ll_sdmmc.c ****   (void)SDIO_SendCommand(SDIOx, &sdmmc_cmdinit);
 7774              		.loc 1 1006 3 view .LVU2653
1007:Drivers/STM32F4xx_HAL_Driver/Src/stm32f4xx_ll_sdmmc.c **** 
 7775              		.loc 1 1007 3 view .LVU2654
 7776              	.LBB940:
 7777              	.LBI940:
 345:Drivers/STM32F4xx_HAL_Driver/Src/stm32f4xx_ll_sdmmc.c **** {
 7778              		.loc 1 345 19 view .LVU2655
 7779              	.LBB941:
 347:Drivers/STM32F4xx_HAL_Driver/Src/stm32f4xx_ll_sdmmc.c **** 
 7780              		.loc 1 347 3 view .LVU2656
 350:Drivers/STM32F4xx_HAL_Driver/Src/stm32f4xx_ll_sdmmc.c ****   assert_param(IS_SDIO_RESPONSE(Command->Response));
 7781              		.loc 1 350 3 view .LVU2657
 351:Drivers/STM32F4xx_HAL_Driver/Src/stm32f4xx_ll_sdmmc.c ****   assert_param(IS_SDIO_WAIT(Command->WaitForInterrupt));
 7782              		.loc 1 351 3 view .LVU2658
 352:Drivers/STM32F4xx_HAL_Driver/Src/stm32f4xx_ll_sdmmc.c ****   assert_param(IS_SDIO_CPSM(Command->CPSM));
 7783              		.loc 1 352 3 view .LVU2659
 353:Drivers/STM32F4xx_HAL_Driver/Src/stm32f4xx_ll_sdmmc.c **** 
 7784              		.loc 1 353 3 view .LVU2660
 356:Drivers/STM32F4xx_HAL_Driver/Src/stm32f4xx_ll_sdmmc.c **** 
 7785              		.loc 1 356 3 view .LVU2661
 356:Drivers/STM32F4xx_HAL_Driver/Src/stm32f4xx_ll_sdmmc.c **** 
 7786              		.loc 1 356 14 is_stmt 0 view .LVU2662
 7787 0000 0023     		movs	r3, #0
 7788              	.LBE941:
 7789              	.LBE940:
 997:Drivers/STM32F4xx_HAL_Driver/Src/stm32f4xx_ll_sdmmc.c ****   SDIO_CmdInitTypeDef sdmmc_cmdinit;
 7790              		.loc 1 997 1 view .LVU2663
 7791 0002 10B4     		push	{r4}
 7792              		.cfi_def_cfa_offset 4
ARM GAS  C:\Users\pw705\AppData\Local\Temp\cceieKfF.s 			page 207


 7793              		.cfi_offset 4, -4
 7794              	.LBB947:
 7795              	.LBB948:
1412:Drivers/STM32F4xx_HAL_Driver/Src/stm32f4xx_ll_sdmmc.c **** 
 7796              		.loc 1 1412 60 view .LVU2664
 7797 0004 274A     		ldr	r2, .L721
 7798              	.LBE948:
 7799              	.LBE947:
 7800              	.LBB963:
 7801              	.LBB942:
 356:Drivers/STM32F4xx_HAL_Driver/Src/stm32f4xx_ll_sdmmc.c **** 
 7802              		.loc 1 356 14 view .LVU2665
 7803 0006 8360     		str	r3, [r0, #8]
 359:Drivers/STM32F4xx_HAL_Driver/Src/stm32f4xx_ll_sdmmc.c ****                        Command->Response |
 7804              		.loc 1 359 3 is_stmt 1 view .LVU2666
 7805              	.LVL450:
 365:Drivers/STM32F4xx_HAL_Driver/Src/stm32f4xx_ll_sdmmc.c **** 
 7806              		.loc 1 365 3 view .LVU2667
 7807 0008 C368     		ldr	r3, [r0, #12]
 7808              	.LBE942:
 7809              	.LBE963:
 7810              	.LBB964:
 7811              	.LBB957:
1412:Drivers/STM32F4xx_HAL_Driver/Src/stm32f4xx_ll_sdmmc.c **** 
 7812              		.loc 1 1412 60 is_stmt 0 view .LVU2668
 7813 000a 274C     		ldr	r4, .L721+4
 7814 000c 1268     		ldr	r2, [r2]
 7815              	.LBE957:
 7816              	.LBE964:
 7817              	.LBB965:
 7818              	.LBB943:
 365:Drivers/STM32F4xx_HAL_Driver/Src/stm32f4xx_ll_sdmmc.c **** 
 7819              		.loc 1 365 3 view .LVU2669
 7820 000e 23F47F63 		bic	r3, r3, #4080
 7821              	.LBE943:
 7822              	.LBE965:
 7823              	.LBB966:
 7824              	.LBB958:
1412:Drivers/STM32F4xx_HAL_Driver/Src/stm32f4xx_ll_sdmmc.c **** 
 7825              		.loc 1 1412 60 view .LVU2670
 7826 0012 A4FB0242 		umull	r4, r2, r4, r2
 7827              	.LBE958:
 7828              	.LBE966:
 7829              	.LBB967:
 7830              	.LBB944:
 365:Drivers/STM32F4xx_HAL_Driver/Src/stm32f4xx_ll_sdmmc.c **** 
 7831              		.loc 1 365 3 view .LVU2671
 7832 0016 23F00F03 		bic	r3, r3, #15
 7833 001a 43F48863 		orr	r3, r3, #1088
 7834              	.LBE944:
 7835              	.LBE967:
 7836              	.LBB968:
 7837              	.LBB959:
1412:Drivers/STM32F4xx_HAL_Driver/Src/stm32f4xx_ll_sdmmc.c **** 
 7838              		.loc 1 1412 60 view .LVU2672
 7839 001e 520A     		lsrs	r2, r2, #9
1412:Drivers/STM32F4xx_HAL_Driver/Src/stm32f4xx_ll_sdmmc.c **** 
ARM GAS  C:\Users\pw705\AppData\Local\Temp\cceieKfF.s 			page 208


 7840              		.loc 1 1412 12 view .LVU2673
 7841 0020 41F28834 		movw	r4, #5000
 7842              	.LBE959:
 7843              	.LBE968:
 7844              	.LBB969:
 7845              	.LBB945:
 365:Drivers/STM32F4xx_HAL_Driver/Src/stm32f4xx_ll_sdmmc.c **** 
 7846              		.loc 1 365 3 view .LVU2674
 7847 0024 43F00303 		orr	r3, r3, #3
 7848              	.LBE945:
 7849              	.LBE969:
 7850              	.LBB970:
 7851              	.LBB960:
1412:Drivers/STM32F4xx_HAL_Driver/Src/stm32f4xx_ll_sdmmc.c **** 
 7852              		.loc 1 1412 12 view .LVU2675
 7853 0028 04FB02F2 		mul	r2, r4, r2
 7854              	.LBE960:
 7855              	.LBE970:
 7856              	.LBB971:
 7857              	.LBB946:
 365:Drivers/STM32F4xx_HAL_Driver/Src/stm32f4xx_ll_sdmmc.c **** 
 7858              		.loc 1 365 3 view .LVU2676
 7859 002c C360     		str	r3, [r0, #12]
 367:Drivers/STM32F4xx_HAL_Driver/Src/stm32f4xx_ll_sdmmc.c **** }
 7860              		.loc 1 367 3 is_stmt 1 view .LVU2677
 7861              	.LVL451:
 367:Drivers/STM32F4xx_HAL_Driver/Src/stm32f4xx_ll_sdmmc.c **** }
 7862              		.loc 1 367 3 is_stmt 0 view .LVU2678
 7863              	.LBE946:
 7864              	.LBE971:
1010:Drivers/STM32F4xx_HAL_Driver/Src/stm32f4xx_ll_sdmmc.c **** 
 7865              		.loc 1 1010 3 is_stmt 1 view .LVU2679
 7866              	.LBB972:
 7867              	.LBI947:
1405:Drivers/STM32F4xx_HAL_Driver/Src/stm32f4xx_ll_sdmmc.c **** {
 7868              		.loc 1 1405 10 view .LVU2680
 7869              	.LBB961:
1407:Drivers/STM32F4xx_HAL_Driver/Src/stm32f4xx_ll_sdmmc.c ****   uint32_t sta_reg;
 7870              		.loc 1 1407 3 view .LVU2681
1408:Drivers/STM32F4xx_HAL_Driver/Src/stm32f4xx_ll_sdmmc.c **** 
 7871              		.loc 1 1408 3 view .LVU2682
1412:Drivers/STM32F4xx_HAL_Driver/Src/stm32f4xx_ll_sdmmc.c **** 
 7872              		.loc 1 1412 3 view .LVU2683
1414:Drivers/STM32F4xx_HAL_Driver/Src/stm32f4xx_ll_sdmmc.c ****   {
 7873              		.loc 1 1414 3 view .LVU2684
1416:Drivers/STM32F4xx_HAL_Driver/Src/stm32f4xx_ll_sdmmc.c ****     {
 7874              		.loc 1 1416 5 view .LVU2685
1416:Drivers/STM32F4xx_HAL_Driver/Src/stm32f4xx_ll_sdmmc.c ****     {
 7875              		.loc 1 1416 5 is_stmt 0 view .LVU2686
 7876 002e 531E     		subs	r3, r2, #1
 7877              	.LVL452:
1416:Drivers/STM32F4xx_HAL_Driver/Src/stm32f4xx_ll_sdmmc.c ****     {
 7878              		.loc 1 1416 8 view .LVU2687
 7879 0030 4AB1     		cbz	r2, .L708
 7880              	.LVL453:
 7881              	.L700:
1414:Drivers/STM32F4xx_HAL_Driver/Src/stm32f4xx_ll_sdmmc.c ****   {
ARM GAS  C:\Users\pw705\AppData\Local\Temp\cceieKfF.s 			page 209


 7882              		.loc 1 1414 3 is_stmt 1 view .LVU2688
1416:Drivers/STM32F4xx_HAL_Driver/Src/stm32f4xx_ll_sdmmc.c ****     {
 7883              		.loc 1 1416 5 view .LVU2689
1420:Drivers/STM32F4xx_HAL_Driver/Src/stm32f4xx_ll_sdmmc.c ****   } while (((sta_reg & (SDIO_FLAG_CCRCFAIL | SDIO_FLAG_CMDREND | SDIO_FLAG_CTIMEOUT)) == 0U) ||
 7884              		.loc 1 1420 5 view .LVU2690
1420:Drivers/STM32F4xx_HAL_Driver/Src/stm32f4xx_ll_sdmmc.c ****   } while (((sta_reg & (SDIO_FLAG_CCRCFAIL | SDIO_FLAG_CMDREND | SDIO_FLAG_CTIMEOUT)) == 0U) ||
 7885              		.loc 1 1420 13 is_stmt 0 view .LVU2691
 7886 0032 426B     		ldr	r2, [r0, #52]
 7887              	.LVL454:
1421:Drivers/STM32F4xx_HAL_Driver/Src/stm32f4xx_ll_sdmmc.c ****            ((sta_reg & SDIO_FLAG_CMDACT) != 0U));
 7888              		.loc 1 1421 94 is_stmt 1 view .LVU2692
 7889 0034 12F0450F 		tst	r2, #69
1416:Drivers/STM32F4xx_HAL_Driver/Src/stm32f4xx_ll_sdmmc.c ****     {
 7890              		.loc 1 1416 14 is_stmt 0 view .LVU2693
 7891 0038 03F1FF33 		add	r3, r3, #-1
 7892              	.LVL455:
1421:Drivers/STM32F4xx_HAL_Driver/Src/stm32f4xx_ll_sdmmc.c ****            ((sta_reg & SDIO_FLAG_CMDACT) != 0U));
 7893              		.loc 1 1421 94 view .LVU2694
 7894 003c 01D0     		beq	.L701
 7895 003e 1205     		lsls	r2, r2, #20
 7896              	.LVL456:
1421:Drivers/STM32F4xx_HAL_Driver/Src/stm32f4xx_ll_sdmmc.c ****            ((sta_reg & SDIO_FLAG_CMDACT) != 0U));
 7897              		.loc 1 1421 94 view .LVU2695
 7898 0040 06D5     		bpl	.L717
 7899              	.L701:
1416:Drivers/STM32F4xx_HAL_Driver/Src/stm32f4xx_ll_sdmmc.c ****     {
 7900              		.loc 1 1416 8 view .LVU2696
 7901 0042 5C1C     		adds	r4, r3, #1
 7902 0044 F5D1     		bne	.L700
 7903              	.LVL457:
 7904              	.L708:
1418:Drivers/STM32F4xx_HAL_Driver/Src/stm32f4xx_ll_sdmmc.c ****     }
 7905              		.loc 1 1418 14 view .LVU2697
 7906 0046 4FF00040 		mov	r0, #-2147483648
 7907              	.LVL458:
 7908              	.L698:
1418:Drivers/STM32F4xx_HAL_Driver/Src/stm32f4xx_ll_sdmmc.c ****     }
 7909              		.loc 1 1418 14 view .LVU2698
 7910              	.LBE961:
 7911              	.LBE972:
1013:Drivers/STM32F4xx_HAL_Driver/Src/stm32f4xx_ll_sdmmc.c **** 
 7912              		.loc 1 1013 1 view .LVU2699
 7913 004a 5DF8044B 		ldr	r4, [sp], #4
 7914              		.cfi_remember_state
 7915              		.cfi_restore 4
 7916              		.cfi_def_cfa_offset 0
 7917 004e 7047     		bx	lr
 7918              	.LVL459:
 7919              	.L717:
 7920              		.cfi_restore_state
 7921              	.LBB973:
 7922              	.LBB962:
1424:Drivers/STM32F4xx_HAL_Driver/Src/stm32f4xx_ll_sdmmc.c ****   {
 7923              		.loc 1 1424 3 is_stmt 1 view .LVU2700
1424:Drivers/STM32F4xx_HAL_Driver/Src/stm32f4xx_ll_sdmmc.c ****   {
 7924              		.loc 1 1424 7 is_stmt 0 view .LVU2701
 7925 0050 436B     		ldr	r3, [r0, #52]
ARM GAS  C:\Users\pw705\AppData\Local\Temp\cceieKfF.s 			page 210


 7926              	.LVL460:
1424:Drivers/STM32F4xx_HAL_Driver/Src/stm32f4xx_ll_sdmmc.c ****   {
 7927              		.loc 1 1424 6 view .LVU2702
 7928 0052 5B07     		lsls	r3, r3, #29
 7929 0054 1BD4     		bmi	.L718
1430:Drivers/STM32F4xx_HAL_Driver/Src/stm32f4xx_ll_sdmmc.c ****   {
 7930              		.loc 1 1430 8 is_stmt 1 view .LVU2703
1430:Drivers/STM32F4xx_HAL_Driver/Src/stm32f4xx_ll_sdmmc.c ****   {
 7931              		.loc 1 1430 12 is_stmt 0 view .LVU2704
 7932 0056 436B     		ldr	r3, [r0, #52]
1430:Drivers/STM32F4xx_HAL_Driver/Src/stm32f4xx_ll_sdmmc.c ****   {
 7933              		.loc 1 1430 11 view .LVU2705
 7934 0058 DC07     		lsls	r4, r3, #31
 7935 005a 05D4     		bmi	.L719
1439:Drivers/STM32F4xx_HAL_Driver/Src/stm32f4xx_ll_sdmmc.c **** 
 7936              		.loc 1 1439 3 is_stmt 1 view .LVU2706
1442:Drivers/STM32F4xx_HAL_Driver/Src/stm32f4xx_ll_sdmmc.c ****   {
 7937              		.loc 1 1442 3 view .LVU2707
 7938              	.LVL461:
 7939              	.LBB949:
 7940              	.LBI949:
 375:Drivers/STM32F4xx_HAL_Driver/Src/stm32f4xx_ll_sdmmc.c **** {
 7941              		.loc 1 375 9 view .LVU2708
 7942              	.LBB950:
 377:Drivers/STM32F4xx_HAL_Driver/Src/stm32f4xx_ll_sdmmc.c **** }
 7943              		.loc 1 377 3 view .LVU2709
 377:Drivers/STM32F4xx_HAL_Driver/Src/stm32f4xx_ll_sdmmc.c **** }
 7944              		.loc 1 377 25 is_stmt 0 view .LVU2710
 7945 005c 0369     		ldr	r3, [r0, #16]
 7946              	.LVL462:
 377:Drivers/STM32F4xx_HAL_Driver/Src/stm32f4xx_ll_sdmmc.c **** }
 7947              		.loc 1 377 25 view .LVU2711
 7948              	.LBE950:
 7949              	.LBE949:
1442:Drivers/STM32F4xx_HAL_Driver/Src/stm32f4xx_ll_sdmmc.c ****   {
 7950              		.loc 1 1442 6 view .LVU2712
 7951 005e DBB2     		uxtb	r3, r3
 7952 0060 032B     		cmp	r3, #3
 7953 0062 04D0     		beq	.L705
 7954              	.L704:
1434:Drivers/STM32F4xx_HAL_Driver/Src/stm32f4xx_ll_sdmmc.c ****   }
 7955              		.loc 1 1434 12 view .LVU2713
 7956 0064 0120     		movs	r0, #1
 7957              	.LVL463:
1434:Drivers/STM32F4xx_HAL_Driver/Src/stm32f4xx_ll_sdmmc.c ****   }
 7958              		.loc 1 1434 12 view .LVU2714
 7959 0066 F0E7     		b	.L698
 7960              	.LVL464:
 7961              	.L719:
1432:Drivers/STM32F4xx_HAL_Driver/Src/stm32f4xx_ll_sdmmc.c **** 
 7962              		.loc 1 1432 5 is_stmt 1 view .LVU2715
 7963 0068 0123     		movs	r3, #1
 7964 006a 8363     		str	r3, [r0, #56]
1434:Drivers/STM32F4xx_HAL_Driver/Src/stm32f4xx_ll_sdmmc.c ****   }
 7965              		.loc 1 1434 5 view .LVU2716
1434:Drivers/STM32F4xx_HAL_Driver/Src/stm32f4xx_ll_sdmmc.c ****   }
 7966              		.loc 1 1434 12 is_stmt 0 view .LVU2717
ARM GAS  C:\Users\pw705\AppData\Local\Temp\cceieKfF.s 			page 211


 7967 006c FAE7     		b	.L704
 7968              	.L705:
 7969              	.LVL465:
 7970              	.LBB951:
 7971              	.LBI951:
1405:Drivers/STM32F4xx_HAL_Driver/Src/stm32f4xx_ll_sdmmc.c **** {
 7972              		.loc 1 1405 10 is_stmt 1 view .LVU2718
 7973              	.LBB952:
1448:Drivers/STM32F4xx_HAL_Driver/Src/stm32f4xx_ll_sdmmc.c **** 
 7974              		.loc 1 1448 3 view .LVU2719
 7975 006e C523     		movs	r3, #197
 7976 0070 8363     		str	r3, [r0, #56]
1451:Drivers/STM32F4xx_HAL_Driver/Src/stm32f4xx_ll_sdmmc.c **** 
 7977              		.loc 1 1451 3 view .LVU2720
 7978              	.LVL466:
 7979              	.LBB953:
 7980              	.LBI953:
 391:Drivers/STM32F4xx_HAL_Driver/Src/stm32f4xx_ll_sdmmc.c **** {
 7981              		.loc 1 391 10 view .LVU2721
 7982              	.LBB954:
 393:Drivers/STM32F4xx_HAL_Driver/Src/stm32f4xx_ll_sdmmc.c **** 
 7983              		.loc 1 393 3 view .LVU2722
 396:Drivers/STM32F4xx_HAL_Driver/Src/stm32f4xx_ll_sdmmc.c **** 
 7984              		.loc 1 396 3 view .LVU2723
 399:Drivers/STM32F4xx_HAL_Driver/Src/stm32f4xx_ll_sdmmc.c **** 
 7985              		.loc 1 399 3 view .LVU2724
 401:Drivers/STM32F4xx_HAL_Driver/Src/stm32f4xx_ll_sdmmc.c **** }
 7986              		.loc 1 401 3 view .LVU2725
 401:Drivers/STM32F4xx_HAL_Driver/Src/stm32f4xx_ll_sdmmc.c **** }
 7987              		.loc 1 401 11 is_stmt 0 view .LVU2726
 7988 0072 4369     		ldr	r3, [r0, #20]
 7989              	.LVL467:
 401:Drivers/STM32F4xx_HAL_Driver/Src/stm32f4xx_ll_sdmmc.c **** }
 7990              		.loc 1 401 11 view .LVU2727
 7991              	.LBE954:
 7992              	.LBE953:
1453:Drivers/STM32F4xx_HAL_Driver/Src/stm32f4xx_ll_sdmmc.c ****   {
 7993              		.loc 1 1453 3 is_stmt 1 view .LVU2728
1453:Drivers/STM32F4xx_HAL_Driver/Src/stm32f4xx_ll_sdmmc.c ****   {
 7994              		.loc 1 1453 6 is_stmt 0 view .LVU2729
 7995 0074 13F46040 		ands	r0, r3, #57344
 7996              	.LVL468:
1453:Drivers/STM32F4xx_HAL_Driver/Src/stm32f4xx_ll_sdmmc.c ****   {
 7997              		.loc 1 1453 6 view .LVU2730
 7998 0078 10D0     		beq	.L720
1459:Drivers/STM32F4xx_HAL_Driver/Src/stm32f4xx_ll_sdmmc.c ****   {
 7999              		.loc 1 1459 8 is_stmt 1 view .LVU2731
1459:Drivers/STM32F4xx_HAL_Driver/Src/stm32f4xx_ll_sdmmc.c ****   {
 8000              		.loc 1 1459 11 is_stmt 0 view .LVU2732
 8001 007a 5A04     		lsls	r2, r3, #17
 8002 007c 0BD4     		bmi	.L709
1463:Drivers/STM32F4xx_HAL_Driver/Src/stm32f4xx_ll_sdmmc.c ****   {
 8003              		.loc 1 1463 8 is_stmt 1 view .LVU2733
1465:Drivers/STM32F4xx_HAL_Driver/Src/stm32f4xx_ll_sdmmc.c ****   }
 8004              		.loc 1 1465 12 is_stmt 0 view .LVU2734
 8005 007e 13F4004F 		tst	r3, #32768
 8006 0082 0CBF     		ite	eq
ARM GAS  C:\Users\pw705\AppData\Local\Temp\cceieKfF.s 			page 212


 8007 0084 4FF48030 		moveq	r0, #65536
 8008 0088 4FF48050 		movne	r0, #4096
 8009 008c DDE7     		b	.L698
 8010              	.LVL469:
 8011              	.L718:
1465:Drivers/STM32F4xx_HAL_Driver/Src/stm32f4xx_ll_sdmmc.c ****   }
 8012              		.loc 1 1465 12 view .LVU2735
 8013              	.LBE952:
 8014              	.LBE951:
1426:Drivers/STM32F4xx_HAL_Driver/Src/stm32f4xx_ll_sdmmc.c **** 
 8015              		.loc 1 1426 5 is_stmt 1 view .LVU2736
 8016 008e 0423     		movs	r3, #4
 8017 0090 8363     		str	r3, [r0, #56]
1428:Drivers/STM32F4xx_HAL_Driver/Src/stm32f4xx_ll_sdmmc.c ****   }
 8018              		.loc 1 1428 5 view .LVU2737
1428:Drivers/STM32F4xx_HAL_Driver/Src/stm32f4xx_ll_sdmmc.c ****   }
 8019              		.loc 1 1428 12 is_stmt 0 view .LVU2738
 8020 0092 1846     		mov	r0, r3
 8021              	.LVL470:
1428:Drivers/STM32F4xx_HAL_Driver/Src/stm32f4xx_ll_sdmmc.c ****   }
 8022              		.loc 1 1428 12 view .LVU2739
 8023 0094 D9E7     		b	.L698
 8024              	.LVL471:
 8025              	.L709:
 8026              	.LBB956:
 8027              	.LBB955:
1461:Drivers/STM32F4xx_HAL_Driver/Src/stm32f4xx_ll_sdmmc.c ****   }
 8028              		.loc 1 1461 12 view .LVU2740
 8029 0096 4FF40050 		mov	r0, #8192
 8030 009a D6E7     		b	.L698
 8031              	.L720:
1455:Drivers/STM32F4xx_HAL_Driver/Src/stm32f4xx_ll_sdmmc.c **** 
 8032              		.loc 1 1455 5 is_stmt 1 view .LVU2741
1455:Drivers/STM32F4xx_HAL_Driver/Src/stm32f4xx_ll_sdmmc.c **** 
 8033              		.loc 1 1455 36 is_stmt 0 view .LVU2742
 8034 009c 1B0C     		lsrs	r3, r3, #16
 8035              	.LVL472:
1455:Drivers/STM32F4xx_HAL_Driver/Src/stm32f4xx_ll_sdmmc.c **** 
 8036              		.loc 1 1455 13 view .LVU2743
 8037 009e 0B80     		strh	r3, [r1]	@ movhi
1457:Drivers/STM32F4xx_HAL_Driver/Src/stm32f4xx_ll_sdmmc.c ****   }
 8038              		.loc 1 1457 5 is_stmt 1 view .LVU2744
1457:Drivers/STM32F4xx_HAL_Driver/Src/stm32f4xx_ll_sdmmc.c ****   }
 8039              		.loc 1 1457 12 is_stmt 0 view .LVU2745
 8040 00a0 D3E7     		b	.L698
 8041              	.L722:
 8042 00a2 00BF     		.align	2
 8043              	.L721:
 8044 00a4 00000000 		.word	SystemCoreClock
 8045 00a8 D34D6210 		.word	274877907
 8046              	.LBE955:
 8047              	.LBE956:
 8048              	.LBE962:
 8049              	.LBE973:
 8050              		.cfi_endproc
 8051              	.LFE163:
 8053              		.section	.text.SDMMC_CmdSetRelAddMmc,"ax",%progbits
ARM GAS  C:\Users\pw705\AppData\Local\Temp\cceieKfF.s 			page 213


 8054              		.align	1
 8055              		.p2align 2,,3
 8056              		.global	SDMMC_CmdSetRelAddMmc
 8057              		.syntax unified
 8058              		.thumb
 8059              		.thumb_func
 8061              	SDMMC_CmdSetRelAddMmc:
 8062              	.LVL473:
 8063              	.LFB164:
1022:Drivers/STM32F4xx_HAL_Driver/Src/stm32f4xx_ll_sdmmc.c ****   SDIO_CmdInitTypeDef sdmmc_cmdinit;
 8064              		.loc 1 1022 1 is_stmt 1 view -0
 8065              		.cfi_startproc
 8066              		@ args = 0, pretend = 0, frame = 0
 8067              		@ frame_needed = 0, uses_anonymous_args = 0
 8068              		@ link register save eliminated.
1023:Drivers/STM32F4xx_HAL_Driver/Src/stm32f4xx_ll_sdmmc.c ****   uint32_t errorstate;
 8069              		.loc 1 1023 3 view .LVU2747
1024:Drivers/STM32F4xx_HAL_Driver/Src/stm32f4xx_ll_sdmmc.c **** 
 8070              		.loc 1 1024 3 view .LVU2748
1027:Drivers/STM32F4xx_HAL_Driver/Src/stm32f4xx_ll_sdmmc.c ****   sdmmc_cmdinit.CmdIndex = SDMMC_CMD_SET_REL_ADDR;
 8071              		.loc 1 1027 3 view .LVU2749
1027:Drivers/STM32F4xx_HAL_Driver/Src/stm32f4xx_ll_sdmmc.c ****   sdmmc_cmdinit.CmdIndex = SDMMC_CMD_SET_REL_ADDR;
 8072              		.loc 1 1027 43 is_stmt 0 view .LVU2750
 8073 0000 0904     		lsls	r1, r1, #16
 8074              	.LVL474:
1028:Drivers/STM32F4xx_HAL_Driver/Src/stm32f4xx_ll_sdmmc.c ****   sdmmc_cmdinit.Response = SDIO_RESPONSE_SHORT;
 8075              		.loc 1 1028 3 is_stmt 1 view .LVU2751
1029:Drivers/STM32F4xx_HAL_Driver/Src/stm32f4xx_ll_sdmmc.c ****   sdmmc_cmdinit.WaitForInterrupt = SDIO_WAIT_NO;
 8076              		.loc 1 1029 3 view .LVU2752
1030:Drivers/STM32F4xx_HAL_Driver/Src/stm32f4xx_ll_sdmmc.c ****   sdmmc_cmdinit.CPSM = SDIO_CPSM_ENABLE;
 8077              		.loc 1 1030 3 view .LVU2753
1031:Drivers/STM32F4xx_HAL_Driver/Src/stm32f4xx_ll_sdmmc.c ****   (void)SDIO_SendCommand(SDIOx, &sdmmc_cmdinit);
 8078              		.loc 1 1031 3 view .LVU2754
1032:Drivers/STM32F4xx_HAL_Driver/Src/stm32f4xx_ll_sdmmc.c **** 
 8079              		.loc 1 1032 3 view .LVU2755
 8080              	.LBB986:
 8081              	.LBI986:
 345:Drivers/STM32F4xx_HAL_Driver/Src/stm32f4xx_ll_sdmmc.c **** {
 8082              		.loc 1 345 19 view .LVU2756
 8083              	.LBB987:
 347:Drivers/STM32F4xx_HAL_Driver/Src/stm32f4xx_ll_sdmmc.c **** 
 8084              		.loc 1 347 3 view .LVU2757
 350:Drivers/STM32F4xx_HAL_Driver/Src/stm32f4xx_ll_sdmmc.c ****   assert_param(IS_SDIO_RESPONSE(Command->Response));
 8085              		.loc 1 350 3 view .LVU2758
 351:Drivers/STM32F4xx_HAL_Driver/Src/stm32f4xx_ll_sdmmc.c ****   assert_param(IS_SDIO_WAIT(Command->WaitForInterrupt));
 8086              		.loc 1 351 3 view .LVU2759
 352:Drivers/STM32F4xx_HAL_Driver/Src/stm32f4xx_ll_sdmmc.c ****   assert_param(IS_SDIO_CPSM(Command->CPSM));
 8087              		.loc 1 352 3 view .LVU2760
 353:Drivers/STM32F4xx_HAL_Driver/Src/stm32f4xx_ll_sdmmc.c **** 
 8088              		.loc 1 353 3 view .LVU2761
 356:Drivers/STM32F4xx_HAL_Driver/Src/stm32f4xx_ll_sdmmc.c **** 
 8089              		.loc 1 356 3 view .LVU2762
 356:Drivers/STM32F4xx_HAL_Driver/Src/stm32f4xx_ll_sdmmc.c **** 
 8090              		.loc 1 356 14 is_stmt 0 view .LVU2763
 8091 0002 8160     		str	r1, [r0, #8]
 359:Drivers/STM32F4xx_HAL_Driver/Src/stm32f4xx_ll_sdmmc.c ****                        Command->Response |
 8092              		.loc 1 359 3 is_stmt 1 view .LVU2764
ARM GAS  C:\Users\pw705\AppData\Local\Temp\cceieKfF.s 			page 214


 8093              	.LVL475:
 365:Drivers/STM32F4xx_HAL_Driver/Src/stm32f4xx_ll_sdmmc.c **** 
 8094              		.loc 1 365 3 view .LVU2765
 8095              	.LBE987:
 8096              	.LBE986:
 8097              	.LBB993:
 8098              	.LBB994:
1193:Drivers/STM32F4xx_HAL_Driver/Src/stm32f4xx_ll_sdmmc.c **** 
 8099              		.loc 1 1193 52 is_stmt 0 view .LVU2766
 8100 0004 4B4A     		ldr	r2, .L761
 8101              	.LBE994:
 8102              	.LBE993:
 8103              	.LBB1009:
 8104              	.LBB988:
 365:Drivers/STM32F4xx_HAL_Driver/Src/stm32f4xx_ll_sdmmc.c **** 
 8105              		.loc 1 365 3 view .LVU2767
 8106 0006 C368     		ldr	r3, [r0, #12]
 8107              	.LBE988:
 8108              	.LBE1009:
 8109              	.LBB1010:
 8110              	.LBB1003:
1193:Drivers/STM32F4xx_HAL_Driver/Src/stm32f4xx_ll_sdmmc.c **** 
 8111              		.loc 1 1193 52 view .LVU2768
 8112 0008 4B49     		ldr	r1, .L761+4
 8113              	.LVL476:
1193:Drivers/STM32F4xx_HAL_Driver/Src/stm32f4xx_ll_sdmmc.c **** 
 8114              		.loc 1 1193 52 view .LVU2769
 8115 000a 1268     		ldr	r2, [r2]
 8116              	.LBE1003:
 8117              	.LBE1010:
 8118              	.LBB1011:
 8119              	.LBB989:
 365:Drivers/STM32F4xx_HAL_Driver/Src/stm32f4xx_ll_sdmmc.c **** 
 8120              		.loc 1 365 3 view .LVU2770
 8121 000c 23F47F63 		bic	r3, r3, #4080
 8122              	.LBE989:
 8123              	.LBE1011:
 8124              	.LBB1012:
 8125              	.LBB1004:
1193:Drivers/STM32F4xx_HAL_Driver/Src/stm32f4xx_ll_sdmmc.c **** 
 8126              		.loc 1 1193 52 view .LVU2771
 8127 0010 A1FB0212 		umull	r1, r2, r1, r2
 8128              	.LBE1004:
 8129              	.LBE1012:
 8130              	.LBB1013:
 8131              	.LBB990:
 365:Drivers/STM32F4xx_HAL_Driver/Src/stm32f4xx_ll_sdmmc.c **** 
 8132              		.loc 1 365 3 view .LVU2772
 8133 0014 23F00F03 		bic	r3, r3, #15
 8134 0018 43F48863 		orr	r3, r3, #1088
 8135              	.LBE990:
 8136              	.LBE1013:
 8137              	.LBB1014:
 8138              	.LBB1005:
1193:Drivers/STM32F4xx_HAL_Driver/Src/stm32f4xx_ll_sdmmc.c **** 
 8139              		.loc 1 1193 52 view .LVU2773
 8140 001c 520A     		lsrs	r2, r2, #9
ARM GAS  C:\Users\pw705\AppData\Local\Temp\cceieKfF.s 			page 215


1193:Drivers/STM32F4xx_HAL_Driver/Src/stm32f4xx_ll_sdmmc.c **** 
 8141              		.loc 1 1193 12 view .LVU2774
 8142 001e 41F28831 		movw	r1, #5000
 8143              	.LBE1005:
 8144              	.LBE1014:
 8145              	.LBB1015:
 8146              	.LBB991:
 365:Drivers/STM32F4xx_HAL_Driver/Src/stm32f4xx_ll_sdmmc.c **** 
 8147              		.loc 1 365 3 view .LVU2775
 8148 0022 43F00303 		orr	r3, r3, #3
 8149              	.LBE991:
 8150              	.LBE1015:
 8151              	.LBB1016:
 8152              	.LBB1006:
1193:Drivers/STM32F4xx_HAL_Driver/Src/stm32f4xx_ll_sdmmc.c **** 
 8153              		.loc 1 1193 12 view .LVU2776
 8154 0026 01FB02F2 		mul	r2, r1, r2
 8155              	.LBE1006:
 8156              	.LBE1016:
 8157              	.LBB1017:
 8158              	.LBB992:
 365:Drivers/STM32F4xx_HAL_Driver/Src/stm32f4xx_ll_sdmmc.c **** 
 8159              		.loc 1 365 3 view .LVU2777
 8160 002a C360     		str	r3, [r0, #12]
 8161              	.LVL477:
 367:Drivers/STM32F4xx_HAL_Driver/Src/stm32f4xx_ll_sdmmc.c **** }
 8162              		.loc 1 367 3 is_stmt 1 view .LVU2778
 367:Drivers/STM32F4xx_HAL_Driver/Src/stm32f4xx_ll_sdmmc.c **** }
 8163              		.loc 1 367 3 is_stmt 0 view .LVU2779
 8164              	.LBE992:
 8165              	.LBE1017:
1035:Drivers/STM32F4xx_HAL_Driver/Src/stm32f4xx_ll_sdmmc.c **** 
 8166              		.loc 1 1035 3 is_stmt 1 view .LVU2780
 8167              	.LBB1018:
 8168              	.LBI993:
1186:Drivers/STM32F4xx_HAL_Driver/Src/stm32f4xx_ll_sdmmc.c **** {
 8169              		.loc 1 1186 10 view .LVU2781
 8170              	.LBB1007:
1188:Drivers/STM32F4xx_HAL_Driver/Src/stm32f4xx_ll_sdmmc.c ****   uint32_t sta_reg;
 8171              		.loc 1 1188 3 view .LVU2782
1189:Drivers/STM32F4xx_HAL_Driver/Src/stm32f4xx_ll_sdmmc.c **** 
 8172              		.loc 1 1189 3 view .LVU2783
1193:Drivers/STM32F4xx_HAL_Driver/Src/stm32f4xx_ll_sdmmc.c **** 
 8173              		.loc 1 1193 3 view .LVU2784
1195:Drivers/STM32F4xx_HAL_Driver/Src/stm32f4xx_ll_sdmmc.c ****   {
 8174              		.loc 1 1195 3 view .LVU2785
1197:Drivers/STM32F4xx_HAL_Driver/Src/stm32f4xx_ll_sdmmc.c ****     {
 8175              		.loc 1 1197 5 view .LVU2786
1197:Drivers/STM32F4xx_HAL_Driver/Src/stm32f4xx_ll_sdmmc.c ****     {
 8176              		.loc 1 1197 14 is_stmt 0 view .LVU2787
 8177 002c 531E     		subs	r3, r2, #1
 8178              	.LVL478:
1197:Drivers/STM32F4xx_HAL_Driver/Src/stm32f4xx_ll_sdmmc.c ****     {
 8179              		.loc 1 1197 8 view .LVU2788
 8180 002e 4AB1     		cbz	r2, .L732
 8181              	.L725:
1195:Drivers/STM32F4xx_HAL_Driver/Src/stm32f4xx_ll_sdmmc.c ****   {
ARM GAS  C:\Users\pw705\AppData\Local\Temp\cceieKfF.s 			page 216


 8182              		.loc 1 1195 3 is_stmt 1 view .LVU2789
1197:Drivers/STM32F4xx_HAL_Driver/Src/stm32f4xx_ll_sdmmc.c ****     {
 8183              		.loc 1 1197 5 view .LVU2790
1201:Drivers/STM32F4xx_HAL_Driver/Src/stm32f4xx_ll_sdmmc.c ****   } while (((sta_reg & (SDIO_FLAG_CCRCFAIL | SDIO_FLAG_CMDREND | SDIO_FLAG_CTIMEOUT)) == 0U) ||
 8184              		.loc 1 1201 5 view .LVU2791
1201:Drivers/STM32F4xx_HAL_Driver/Src/stm32f4xx_ll_sdmmc.c ****   } while (((sta_reg & (SDIO_FLAG_CCRCFAIL | SDIO_FLAG_CMDREND | SDIO_FLAG_CTIMEOUT)) == 0U) ||
 8185              		.loc 1 1201 13 is_stmt 0 view .LVU2792
 8186 0030 426B     		ldr	r2, [r0, #52]
 8187              	.LVL479:
1202:Drivers/STM32F4xx_HAL_Driver/Src/stm32f4xx_ll_sdmmc.c ****            ((sta_reg & SDIO_FLAG_CMDACT) != 0U));
 8188              		.loc 1 1202 94 is_stmt 1 view .LVU2793
 8189 0032 12F0450F 		tst	r2, #69
1197:Drivers/STM32F4xx_HAL_Driver/Src/stm32f4xx_ll_sdmmc.c ****     {
 8190              		.loc 1 1197 14 is_stmt 0 view .LVU2794
 8191 0036 03F1FF33 		add	r3, r3, #-1
 8192              	.LVL480:
1202:Drivers/STM32F4xx_HAL_Driver/Src/stm32f4xx_ll_sdmmc.c ****            ((sta_reg & SDIO_FLAG_CMDACT) != 0U));
 8193              		.loc 1 1202 94 view .LVU2795
 8194 003a 01D0     		beq	.L726
 8195 003c 1105     		lsls	r1, r2, #20
 8196 003e 04D5     		bpl	.L758
 8197              	.L726:
1197:Drivers/STM32F4xx_HAL_Driver/Src/stm32f4xx_ll_sdmmc.c ****     {
 8198              		.loc 1 1197 8 view .LVU2796
 8199 0040 5A1C     		adds	r2, r3, #1
 8200              	.LVL481:
1197:Drivers/STM32F4xx_HAL_Driver/Src/stm32f4xx_ll_sdmmc.c ****     {
 8201              		.loc 1 1197 8 view .LVU2797
 8202 0042 F5D1     		bne	.L725
 8203              	.LVL482:
 8204              	.L732:
1199:Drivers/STM32F4xx_HAL_Driver/Src/stm32f4xx_ll_sdmmc.c ****     }
 8205              		.loc 1 1199 14 view .LVU2798
 8206 0044 4FF00040 		mov	r0, #-2147483648
 8207              	.LVL483:
1199:Drivers/STM32F4xx_HAL_Driver/Src/stm32f4xx_ll_sdmmc.c ****     }
 8208              		.loc 1 1199 14 view .LVU2799
 8209 0048 7047     		bx	lr
 8210              	.LVL484:
 8211              	.L758:
1205:Drivers/STM32F4xx_HAL_Driver/Src/stm32f4xx_ll_sdmmc.c ****   {
 8212              		.loc 1 1205 3 is_stmt 1 view .LVU2800
1205:Drivers/STM32F4xx_HAL_Driver/Src/stm32f4xx_ll_sdmmc.c ****   {
 8213              		.loc 1 1205 7 is_stmt 0 view .LVU2801
 8214 004a 436B     		ldr	r3, [r0, #52]
 8215              	.LVL485:
1205:Drivers/STM32F4xx_HAL_Driver/Src/stm32f4xx_ll_sdmmc.c ****   {
 8216              		.loc 1 1205 6 view .LVU2802
 8217 004c 5A07     		lsls	r2, r3, #29
 8218              	.LVL486:
1205:Drivers/STM32F4xx_HAL_Driver/Src/stm32f4xx_ll_sdmmc.c ****   {
 8219              		.loc 1 1205 6 view .LVU2803
 8220 004e 3ED4     		bmi	.L759
1211:Drivers/STM32F4xx_HAL_Driver/Src/stm32f4xx_ll_sdmmc.c ****   {
 8221              		.loc 1 1211 8 is_stmt 1 view .LVU2804
1211:Drivers/STM32F4xx_HAL_Driver/Src/stm32f4xx_ll_sdmmc.c ****   {
 8222              		.loc 1 1211 12 is_stmt 0 view .LVU2805
ARM GAS  C:\Users\pw705\AppData\Local\Temp\cceieKfF.s 			page 217


 8223 0050 436B     		ldr	r3, [r0, #52]
1211:Drivers/STM32F4xx_HAL_Driver/Src/stm32f4xx_ll_sdmmc.c ****   {
 8224              		.loc 1 1211 11 view .LVU2806
 8225 0052 DB07     		lsls	r3, r3, #31
 8226 0054 07D4     		bmi	.L760
1220:Drivers/STM32F4xx_HAL_Driver/Src/stm32f4xx_ll_sdmmc.c **** 
 8227              		.loc 1 1220 3 is_stmt 1 view .LVU2807
1223:Drivers/STM32F4xx_HAL_Driver/Src/stm32f4xx_ll_sdmmc.c **** 
 8228              		.loc 1 1223 3 view .LVU2808
 8229 0056 C523     		movs	r3, #197
 8230 0058 8363     		str	r3, [r0, #56]
1226:Drivers/STM32F4xx_HAL_Driver/Src/stm32f4xx_ll_sdmmc.c ****   {
 8231              		.loc 1 1226 3 view .LVU2809
 8232              	.LVL487:
 8233              	.LBB995:
 8234              	.LBI995:
 375:Drivers/STM32F4xx_HAL_Driver/Src/stm32f4xx_ll_sdmmc.c **** {
 8235              		.loc 1 375 9 view .LVU2810
 8236              	.LBB996:
 377:Drivers/STM32F4xx_HAL_Driver/Src/stm32f4xx_ll_sdmmc.c **** }
 8237              		.loc 1 377 3 view .LVU2811
 377:Drivers/STM32F4xx_HAL_Driver/Src/stm32f4xx_ll_sdmmc.c **** }
 8238              		.loc 1 377 25 is_stmt 0 view .LVU2812
 8239 005a 0369     		ldr	r3, [r0, #16]
 8240              	.LVL488:
 377:Drivers/STM32F4xx_HAL_Driver/Src/stm32f4xx_ll_sdmmc.c **** }
 8241              		.loc 1 377 25 view .LVU2813
 8242              	.LBE996:
 8243              	.LBE995:
1226:Drivers/STM32F4xx_HAL_Driver/Src/stm32f4xx_ll_sdmmc.c ****   {
 8244              		.loc 1 1226 6 view .LVU2814
 8245 005c DBB2     		uxtb	r3, r3
 8246 005e 032B     		cmp	r3, #3
 8247 0060 04D0     		beq	.L730
 8248              	.L729:
1215:Drivers/STM32F4xx_HAL_Driver/Src/stm32f4xx_ll_sdmmc.c ****   }
 8249              		.loc 1 1215 12 view .LVU2815
 8250 0062 0120     		movs	r0, #1
 8251              	.LVL489:
1215:Drivers/STM32F4xx_HAL_Driver/Src/stm32f4xx_ll_sdmmc.c ****   }
 8252              		.loc 1 1215 12 view .LVU2816
 8253 0064 7047     		bx	lr
 8254              	.LVL490:
 8255              	.L760:
1213:Drivers/STM32F4xx_HAL_Driver/Src/stm32f4xx_ll_sdmmc.c **** 
 8256              		.loc 1 1213 5 is_stmt 1 view .LVU2817
 8257 0066 0123     		movs	r3, #1
 8258 0068 8363     		str	r3, [r0, #56]
1215:Drivers/STM32F4xx_HAL_Driver/Src/stm32f4xx_ll_sdmmc.c ****   }
 8259              		.loc 1 1215 5 view .LVU2818
1215:Drivers/STM32F4xx_HAL_Driver/Src/stm32f4xx_ll_sdmmc.c ****   }
 8260              		.loc 1 1215 12 is_stmt 0 view .LVU2819
 8261 006a FAE7     		b	.L729
 8262              	.L730:
 8263              	.LVL491:
 8264              	.LBB997:
 8265              	.LBI997:
ARM GAS  C:\Users\pw705\AppData\Local\Temp\cceieKfF.s 			page 218


1186:Drivers/STM32F4xx_HAL_Driver/Src/stm32f4xx_ll_sdmmc.c **** {
 8266              		.loc 1 1186 10 is_stmt 1 view .LVU2820
 8267              	.LBB998:
1232:Drivers/STM32F4xx_HAL_Driver/Src/stm32f4xx_ll_sdmmc.c **** 
 8268              		.loc 1 1232 3 view .LVU2821
 8269              	.LBB999:
 8270              	.LBI999:
 391:Drivers/STM32F4xx_HAL_Driver/Src/stm32f4xx_ll_sdmmc.c **** {
 8271              		.loc 1 391 10 view .LVU2822
 8272              	.LBB1000:
 393:Drivers/STM32F4xx_HAL_Driver/Src/stm32f4xx_ll_sdmmc.c **** 
 8273              		.loc 1 393 3 view .LVU2823
 396:Drivers/STM32F4xx_HAL_Driver/Src/stm32f4xx_ll_sdmmc.c **** 
 8274              		.loc 1 396 3 view .LVU2824
 399:Drivers/STM32F4xx_HAL_Driver/Src/stm32f4xx_ll_sdmmc.c **** 
 8275              		.loc 1 399 3 view .LVU2825
 401:Drivers/STM32F4xx_HAL_Driver/Src/stm32f4xx_ll_sdmmc.c **** }
 8276              		.loc 1 401 3 view .LVU2826
 401:Drivers/STM32F4xx_HAL_Driver/Src/stm32f4xx_ll_sdmmc.c **** }
 8277              		.loc 1 401 11 is_stmt 0 view .LVU2827
 8278 006c 4369     		ldr	r3, [r0, #20]
 8279              	.LVL492:
 401:Drivers/STM32F4xx_HAL_Driver/Src/stm32f4xx_ll_sdmmc.c **** }
 8280              		.loc 1 401 11 view .LVU2828
 8281              	.LBE1000:
 8282              	.LBE999:
1234:Drivers/STM32F4xx_HAL_Driver/Src/stm32f4xx_ll_sdmmc.c ****   {
 8283              		.loc 1 1234 3 is_stmt 1 view .LVU2829
1234:Drivers/STM32F4xx_HAL_Driver/Src/stm32f4xx_ll_sdmmc.c ****   {
 8284              		.loc 1 1234 20 is_stmt 0 view .LVU2830
 8285 006e 3348     		ldr	r0, .L761+8
 8286              	.LVL493:
1234:Drivers/STM32F4xx_HAL_Driver/Src/stm32f4xx_ll_sdmmc.c ****   {
 8287              		.loc 1 1234 20 view .LVU2831
 8288 0070 1840     		ands	r0, r0, r3
1234:Drivers/STM32F4xx_HAL_Driver/Src/stm32f4xx_ll_sdmmc.c ****   {
 8289              		.loc 1 1234 6 view .LVU2832
 8290 0072 58B3     		cbz	r0, .L723
1238:Drivers/STM32F4xx_HAL_Driver/Src/stm32f4xx_ll_sdmmc.c ****   {
 8291              		.loc 1 1238 8 is_stmt 1 view .LVU2833
1238:Drivers/STM32F4xx_HAL_Driver/Src/stm32f4xx_ll_sdmmc.c ****   {
 8292              		.loc 1 1238 11 is_stmt 0 view .LVU2834
 8293 0074 002B     		cmp	r3, #0
 8294 0076 2EDB     		blt	.L733
1242:Drivers/STM32F4xx_HAL_Driver/Src/stm32f4xx_ll_sdmmc.c ****   {
 8295              		.loc 1 1242 8 is_stmt 1 view .LVU2835
1242:Drivers/STM32F4xx_HAL_Driver/Src/stm32f4xx_ll_sdmmc.c ****   {
 8296              		.loc 1 1242 11 is_stmt 0 view .LVU2836
 8297 0078 5900     		lsls	r1, r3, #1
 8298 007a 2FD4     		bmi	.L734
1246:Drivers/STM32F4xx_HAL_Driver/Src/stm32f4xx_ll_sdmmc.c ****   {
 8299              		.loc 1 1246 8 is_stmt 1 view .LVU2837
1246:Drivers/STM32F4xx_HAL_Driver/Src/stm32f4xx_ll_sdmmc.c ****   {
 8300              		.loc 1 1246 11 is_stmt 0 view .LVU2838
 8301 007c 9A00     		lsls	r2, r3, #2
 8302 007e 2FD4     		bmi	.L735
1250:Drivers/STM32F4xx_HAL_Driver/Src/stm32f4xx_ll_sdmmc.c ****   {
ARM GAS  C:\Users\pw705\AppData\Local\Temp\cceieKfF.s 			page 219


 8303              		.loc 1 1250 8 is_stmt 1 view .LVU2839
1250:Drivers/STM32F4xx_HAL_Driver/Src/stm32f4xx_ll_sdmmc.c ****   {
 8304              		.loc 1 1250 11 is_stmt 0 view .LVU2840
 8305 0080 D900     		lsls	r1, r3, #3
 8306 0082 2FD4     		bmi	.L736
1254:Drivers/STM32F4xx_HAL_Driver/Src/stm32f4xx_ll_sdmmc.c ****   {
 8307              		.loc 1 1254 8 is_stmt 1 view .LVU2841
1254:Drivers/STM32F4xx_HAL_Driver/Src/stm32f4xx_ll_sdmmc.c ****   {
 8308              		.loc 1 1254 11 is_stmt 0 view .LVU2842
 8309 0084 1A01     		lsls	r2, r3, #4
 8310 0086 30D4     		bmi	.L737
1258:Drivers/STM32F4xx_HAL_Driver/Src/stm32f4xx_ll_sdmmc.c ****   {
 8311              		.loc 1 1258 8 is_stmt 1 view .LVU2843
1258:Drivers/STM32F4xx_HAL_Driver/Src/stm32f4xx_ll_sdmmc.c ****   {
 8312              		.loc 1 1258 11 is_stmt 0 view .LVU2844
 8313 0088 5901     		lsls	r1, r3, #5
 8314 008a 31D4     		bmi	.L738
1262:Drivers/STM32F4xx_HAL_Driver/Src/stm32f4xx_ll_sdmmc.c ****   {
 8315              		.loc 1 1262 8 is_stmt 1 view .LVU2845
1262:Drivers/STM32F4xx_HAL_Driver/Src/stm32f4xx_ll_sdmmc.c ****   {
 8316              		.loc 1 1262 11 is_stmt 0 view .LVU2846
 8317 008c DA01     		lsls	r2, r3, #7
 8318 008e 32D4     		bmi	.L739
1266:Drivers/STM32F4xx_HAL_Driver/Src/stm32f4xx_ll_sdmmc.c ****   {
 8319              		.loc 1 1266 8 is_stmt 1 view .LVU2847
1266:Drivers/STM32F4xx_HAL_Driver/Src/stm32f4xx_ll_sdmmc.c ****   {
 8320              		.loc 1 1266 11 is_stmt 0 view .LVU2848
 8321 0090 1902     		lsls	r1, r3, #8
 8322 0092 33D4     		bmi	.L740
1270:Drivers/STM32F4xx_HAL_Driver/Src/stm32f4xx_ll_sdmmc.c ****   {
 8323              		.loc 1 1270 8 is_stmt 1 view .LVU2849
1270:Drivers/STM32F4xx_HAL_Driver/Src/stm32f4xx_ll_sdmmc.c ****   {
 8324              		.loc 1 1270 11 is_stmt 0 view .LVU2850
 8325 0094 5A02     		lsls	r2, r3, #9
 8326 0096 34D4     		bmi	.L741
1274:Drivers/STM32F4xx_HAL_Driver/Src/stm32f4xx_ll_sdmmc.c ****   {
 8327              		.loc 1 1274 8 is_stmt 1 view .LVU2851
1274:Drivers/STM32F4xx_HAL_Driver/Src/stm32f4xx_ll_sdmmc.c ****   {
 8328              		.loc 1 1274 11 is_stmt 0 view .LVU2852
 8329 0098 9902     		lsls	r1, r3, #10
 8330 009a 3ED4     		bmi	.L742
1278:Drivers/STM32F4xx_HAL_Driver/Src/stm32f4xx_ll_sdmmc.c ****   {
 8331              		.loc 1 1278 8 is_stmt 1 view .LVU2853
1278:Drivers/STM32F4xx_HAL_Driver/Src/stm32f4xx_ll_sdmmc.c ****   {
 8332              		.loc 1 1278 11 is_stmt 0 view .LVU2854
 8333 009c DA02     		lsls	r2, r3, #11
 8334 009e 39D4     		bmi	.L743
1282:Drivers/STM32F4xx_HAL_Driver/Src/stm32f4xx_ll_sdmmc.c ****   {
 8335              		.loc 1 1282 8 is_stmt 1 view .LVU2855
1282:Drivers/STM32F4xx_HAL_Driver/Src/stm32f4xx_ll_sdmmc.c ****   {
 8336              		.loc 1 1282 11 is_stmt 0 view .LVU2856
 8337 00a0 5903     		lsls	r1, r3, #13
 8338 00a2 34D4     		bmi	.L744
1286:Drivers/STM32F4xx_HAL_Driver/Src/stm32f4xx_ll_sdmmc.c ****   {
 8339              		.loc 1 1286 8 is_stmt 1 view .LVU2857
1286:Drivers/STM32F4xx_HAL_Driver/Src/stm32f4xx_ll_sdmmc.c ****   {
 8340              		.loc 1 1286 11 is_stmt 0 view .LVU2858
ARM GAS  C:\Users\pw705\AppData\Local\Temp\cceieKfF.s 			page 220


 8341 00a4 9A03     		lsls	r2, r3, #14
 8342 00a6 2FD4     		bmi	.L745
1290:Drivers/STM32F4xx_HAL_Driver/Src/stm32f4xx_ll_sdmmc.c ****   {
 8343              		.loc 1 1290 8 is_stmt 1 view .LVU2859
1290:Drivers/STM32F4xx_HAL_Driver/Src/stm32f4xx_ll_sdmmc.c ****   {
 8344              		.loc 1 1290 11 is_stmt 0 view .LVU2860
 8345 00a8 D903     		lsls	r1, r3, #15
 8346 00aa 3FD4     		bmi	.L746
1294:Drivers/STM32F4xx_HAL_Driver/Src/stm32f4xx_ll_sdmmc.c ****   {
 8347              		.loc 1 1294 8 is_stmt 1 view .LVU2861
1294:Drivers/STM32F4xx_HAL_Driver/Src/stm32f4xx_ll_sdmmc.c ****   {
 8348              		.loc 1 1294 11 is_stmt 0 view .LVU2862
 8349 00ac 1A04     		lsls	r2, r3, #16
 8350 00ae 3AD4     		bmi	.L747
1298:Drivers/STM32F4xx_HAL_Driver/Src/stm32f4xx_ll_sdmmc.c ****   {
 8351              		.loc 1 1298 8 is_stmt 1 view .LVU2863
1298:Drivers/STM32F4xx_HAL_Driver/Src/stm32f4xx_ll_sdmmc.c ****   {
 8352              		.loc 1 1298 11 is_stmt 0 view .LVU2864
 8353 00b0 5904     		lsls	r1, r3, #17
 8354 00b2 35D4     		bmi	.L748
1302:Drivers/STM32F4xx_HAL_Driver/Src/stm32f4xx_ll_sdmmc.c ****   {
 8355              		.loc 1 1302 8 is_stmt 1 view .LVU2865
1302:Drivers/STM32F4xx_HAL_Driver/Src/stm32f4xx_ll_sdmmc.c ****   {
 8356              		.loc 1 1302 11 is_stmt 0 view .LVU2866
 8357 00b4 9A04     		lsls	r2, r3, #18
 8358 00b6 07D4     		bmi	.L749
1306:Drivers/STM32F4xx_HAL_Driver/Src/stm32f4xx_ll_sdmmc.c ****   {
 8359              		.loc 1 1306 8 is_stmt 1 view .LVU2867
1308:Drivers/STM32F4xx_HAL_Driver/Src/stm32f4xx_ll_sdmmc.c ****   }
 8360              		.loc 1 1308 12 is_stmt 0 view .LVU2868
 8361 00b8 13F0080F 		tst	r3, #8
 8362 00bc 0CBF     		ite	eq
 8363 00be 4FF48030 		moveq	r0, #65536
 8364 00c2 4FF40000 		movne	r0, #8388608
 8365 00c6 7047     		bx	lr
 8366              	.L749:
1304:Drivers/STM32F4xx_HAL_Driver/Src/stm32f4xx_ll_sdmmc.c ****   }
 8367              		.loc 1 1304 12 view .LVU2869
 8368 00c8 4FF48000 		mov	r0, #4194304
 8369              	.L723:
1304:Drivers/STM32F4xx_HAL_Driver/Src/stm32f4xx_ll_sdmmc.c ****   }
 8370              		.loc 1 1304 12 view .LVU2870
 8371              	.LBE998:
 8372              	.LBE997:
 8373              	.LBE1007:
 8374              	.LBE1018:
1038:Drivers/STM32F4xx_HAL_Driver/Src/stm32f4xx_ll_sdmmc.c **** 
 8375              		.loc 1 1038 1 view .LVU2871
 8376 00cc 7047     		bx	lr
 8377              	.LVL494:
 8378              	.L759:
 8379              	.LBB1019:
 8380              	.LBB1008:
1207:Drivers/STM32F4xx_HAL_Driver/Src/stm32f4xx_ll_sdmmc.c **** 
 8381              		.loc 1 1207 5 is_stmt 1 view .LVU2872
 8382 00ce 0423     		movs	r3, #4
 8383 00d0 8363     		str	r3, [r0, #56]
ARM GAS  C:\Users\pw705\AppData\Local\Temp\cceieKfF.s 			page 221


1209:Drivers/STM32F4xx_HAL_Driver/Src/stm32f4xx_ll_sdmmc.c ****   }
 8384              		.loc 1 1209 5 view .LVU2873
1209:Drivers/STM32F4xx_HAL_Driver/Src/stm32f4xx_ll_sdmmc.c ****   }
 8385              		.loc 1 1209 12 is_stmt 0 view .LVU2874
 8386 00d2 1846     		mov	r0, r3
 8387              	.LVL495:
1209:Drivers/STM32F4xx_HAL_Driver/Src/stm32f4xx_ll_sdmmc.c ****   }
 8388              		.loc 1 1209 12 view .LVU2875
 8389 00d4 7047     		bx	lr
 8390              	.LVL496:
 8391              	.L733:
 8392              	.LBB1002:
 8393              	.LBB1001:
1240:Drivers/STM32F4xx_HAL_Driver/Src/stm32f4xx_ll_sdmmc.c ****   }
 8394              		.loc 1 1240 12 view .LVU2876
 8395 00d6 4FF00070 		mov	r0, #33554432
 8396 00da 7047     		bx	lr
 8397              	.L734:
1244:Drivers/STM32F4xx_HAL_Driver/Src/stm32f4xx_ll_sdmmc.c ****   }
 8398              		.loc 1 1244 12 view .LVU2877
 8399 00dc 4020     		movs	r0, #64
 8400 00de 7047     		bx	lr
 8401              	.L735:
1248:Drivers/STM32F4xx_HAL_Driver/Src/stm32f4xx_ll_sdmmc.c ****   }
 8402              		.loc 1 1248 12 view .LVU2878
 8403 00e0 8020     		movs	r0, #128
 8404 00e2 7047     		bx	lr
 8405              	.L736:
1252:Drivers/STM32F4xx_HAL_Driver/Src/stm32f4xx_ll_sdmmc.c ****   }
 8406              		.loc 1 1252 12 view .LVU2879
 8407 00e4 4FF48070 		mov	r0, #256
 8408 00e8 7047     		bx	lr
 8409              	.L737:
1256:Drivers/STM32F4xx_HAL_Driver/Src/stm32f4xx_ll_sdmmc.c ****   }
 8410              		.loc 1 1256 12 view .LVU2880
 8411 00ea 4FF40070 		mov	r0, #512
 8412 00ee 7047     		bx	lr
 8413              	.L738:
1260:Drivers/STM32F4xx_HAL_Driver/Src/stm32f4xx_ll_sdmmc.c ****   }
 8414              		.loc 1 1260 12 view .LVU2881
 8415 00f0 4FF48060 		mov	r0, #1024
 8416 00f4 7047     		bx	lr
 8417              	.L739:
1264:Drivers/STM32F4xx_HAL_Driver/Src/stm32f4xx_ll_sdmmc.c ****   }
 8418              		.loc 1 1264 12 view .LVU2882
 8419 00f6 4FF40060 		mov	r0, #2048
 8420 00fa 7047     		bx	lr
 8421              	.L740:
1268:Drivers/STM32F4xx_HAL_Driver/Src/stm32f4xx_ll_sdmmc.c ****   }
 8422              		.loc 1 1268 12 view .LVU2883
 8423 00fc 4FF48050 		mov	r0, #4096
 8424 0100 7047     		bx	lr
 8425              	.L741:
1272:Drivers/STM32F4xx_HAL_Driver/Src/stm32f4xx_ll_sdmmc.c ****   }
 8426              		.loc 1 1272 12 view .LVU2884
 8427 0102 4FF40050 		mov	r0, #8192
 8428 0106 7047     		bx	lr
ARM GAS  C:\Users\pw705\AppData\Local\Temp\cceieKfF.s 			page 222


 8429              	.L745:
1288:Drivers/STM32F4xx_HAL_Driver/Src/stm32f4xx_ll_sdmmc.c ****   }
 8430              		.loc 1 1288 12 view .LVU2885
 8431 0108 4FF48020 		mov	r0, #262144
 8432 010c 7047     		bx	lr
 8433              	.L744:
1284:Drivers/STM32F4xx_HAL_Driver/Src/stm32f4xx_ll_sdmmc.c ****   }
 8434              		.loc 1 1284 12 view .LVU2886
 8435 010e 4FF40030 		mov	r0, #131072
 8436 0112 7047     		bx	lr
 8437              	.L743:
1280:Drivers/STM32F4xx_HAL_Driver/Src/stm32f4xx_ll_sdmmc.c ****   }
 8438              		.loc 1 1280 12 view .LVU2887
 8439 0114 4FF40040 		mov	r0, #32768
 8440 0118 7047     		bx	lr
 8441              	.L742:
1276:Drivers/STM32F4xx_HAL_Driver/Src/stm32f4xx_ll_sdmmc.c ****   }
 8442              		.loc 1 1276 12 view .LVU2888
 8443 011a 4FF48040 		mov	r0, #16384
 8444 011e 7047     		bx	lr
 8445              	.L748:
1300:Drivers/STM32F4xx_HAL_Driver/Src/stm32f4xx_ll_sdmmc.c ****   }
 8446              		.loc 1 1300 12 view .LVU2889
 8447 0120 4FF40010 		mov	r0, #2097152
 8448 0124 7047     		bx	lr
 8449              	.L747:
1296:Drivers/STM32F4xx_HAL_Driver/Src/stm32f4xx_ll_sdmmc.c ****   }
 8450              		.loc 1 1296 12 view .LVU2890
 8451 0126 4FF48010 		mov	r0, #1048576
 8452 012a 7047     		bx	lr
 8453              	.L746:
1292:Drivers/STM32F4xx_HAL_Driver/Src/stm32f4xx_ll_sdmmc.c ****   }
 8454              		.loc 1 1292 12 view .LVU2891
 8455 012c 4FF40020 		mov	r0, #524288
 8456 0130 7047     		bx	lr
 8457              	.L762:
 8458 0132 00BF     		.align	2
 8459              	.L761:
 8460 0134 00000000 		.word	SystemCoreClock
 8461 0138 D34D6210 		.word	274877907
 8462 013c 08E0FFFD 		.word	-33562616
 8463              	.LBE1001:
 8464              	.LBE1002:
 8465              	.LBE1008:
 8466              	.LBE1019:
 8467              		.cfi_endproc
 8468              	.LFE164:
 8470              		.section	.text.SDMMC_CmdSendStatus,"ax",%progbits
 8471              		.align	1
 8472              		.p2align 2,,3
 8473              		.global	SDMMC_CmdSendStatus
 8474              		.syntax unified
 8475              		.thumb
 8476              		.thumb_func
 8478              	SDMMC_CmdSendStatus:
 8479              	.LVL497:
 8480              	.LFB165:
ARM GAS  C:\Users\pw705\AppData\Local\Temp\cceieKfF.s 			page 223


1047:Drivers/STM32F4xx_HAL_Driver/Src/stm32f4xx_ll_sdmmc.c ****   SDIO_CmdInitTypeDef sdmmc_cmdinit;
 8481              		.loc 1 1047 1 is_stmt 1 view -0
 8482              		.cfi_startproc
 8483              		@ args = 0, pretend = 0, frame = 0
 8484              		@ frame_needed = 0, uses_anonymous_args = 0
 8485              		@ link register save eliminated.
1048:Drivers/STM32F4xx_HAL_Driver/Src/stm32f4xx_ll_sdmmc.c ****   uint32_t errorstate;
 8486              		.loc 1 1048 3 view .LVU2893
1049:Drivers/STM32F4xx_HAL_Driver/Src/stm32f4xx_ll_sdmmc.c **** 
 8487              		.loc 1 1049 3 view .LVU2894
1051:Drivers/STM32F4xx_HAL_Driver/Src/stm32f4xx_ll_sdmmc.c ****   sdmmc_cmdinit.CmdIndex = SDMMC_CMD_SEND_STATUS;
 8488              		.loc 1 1051 3 view .LVU2895
1052:Drivers/STM32F4xx_HAL_Driver/Src/stm32f4xx_ll_sdmmc.c ****   sdmmc_cmdinit.Response = SDIO_RESPONSE_SHORT;
 8489              		.loc 1 1052 3 view .LVU2896
1053:Drivers/STM32F4xx_HAL_Driver/Src/stm32f4xx_ll_sdmmc.c ****   sdmmc_cmdinit.WaitForInterrupt = SDIO_WAIT_NO;
 8490              		.loc 1 1053 3 view .LVU2897
1054:Drivers/STM32F4xx_HAL_Driver/Src/stm32f4xx_ll_sdmmc.c ****   sdmmc_cmdinit.CPSM = SDIO_CPSM_ENABLE;
 8491              		.loc 1 1054 3 view .LVU2898
1055:Drivers/STM32F4xx_HAL_Driver/Src/stm32f4xx_ll_sdmmc.c ****   (void)SDIO_SendCommand(SDIOx, &sdmmc_cmdinit);
 8492              		.loc 1 1055 3 view .LVU2899
1056:Drivers/STM32F4xx_HAL_Driver/Src/stm32f4xx_ll_sdmmc.c **** 
 8493              		.loc 1 1056 3 view .LVU2900
 8494              	.LBB1032:
 8495              	.LBI1032:
 345:Drivers/STM32F4xx_HAL_Driver/Src/stm32f4xx_ll_sdmmc.c **** {
 8496              		.loc 1 345 19 view .LVU2901
 8497              	.LBB1033:
 347:Drivers/STM32F4xx_HAL_Driver/Src/stm32f4xx_ll_sdmmc.c **** 
 8498              		.loc 1 347 3 view .LVU2902
 350:Drivers/STM32F4xx_HAL_Driver/Src/stm32f4xx_ll_sdmmc.c ****   assert_param(IS_SDIO_RESPONSE(Command->Response));
 8499              		.loc 1 350 3 view .LVU2903
 351:Drivers/STM32F4xx_HAL_Driver/Src/stm32f4xx_ll_sdmmc.c ****   assert_param(IS_SDIO_WAIT(Command->WaitForInterrupt));
 8500              		.loc 1 351 3 view .LVU2904
 352:Drivers/STM32F4xx_HAL_Driver/Src/stm32f4xx_ll_sdmmc.c ****   assert_param(IS_SDIO_CPSM(Command->CPSM));
 8501              		.loc 1 352 3 view .LVU2905
 353:Drivers/STM32F4xx_HAL_Driver/Src/stm32f4xx_ll_sdmmc.c **** 
 8502              		.loc 1 353 3 view .LVU2906
 356:Drivers/STM32F4xx_HAL_Driver/Src/stm32f4xx_ll_sdmmc.c **** 
 8503              		.loc 1 356 3 view .LVU2907
 356:Drivers/STM32F4xx_HAL_Driver/Src/stm32f4xx_ll_sdmmc.c **** 
 8504              		.loc 1 356 14 is_stmt 0 view .LVU2908
 8505 0000 8160     		str	r1, [r0, #8]
 359:Drivers/STM32F4xx_HAL_Driver/Src/stm32f4xx_ll_sdmmc.c ****                        Command->Response |
 8506              		.loc 1 359 3 is_stmt 1 view .LVU2909
 8507              	.LVL498:
 365:Drivers/STM32F4xx_HAL_Driver/Src/stm32f4xx_ll_sdmmc.c **** 
 8508              		.loc 1 365 3 view .LVU2910
 8509              	.LBE1033:
 8510              	.LBE1032:
 8511              	.LBB1039:
 8512              	.LBB1040:
1193:Drivers/STM32F4xx_HAL_Driver/Src/stm32f4xx_ll_sdmmc.c **** 
 8513              		.loc 1 1193 52 is_stmt 0 view .LVU2911
 8514 0002 4B4A     		ldr	r2, .L801
 8515              	.LBE1040:
 8516              	.LBE1039:
 8517              	.LBB1055:
ARM GAS  C:\Users\pw705\AppData\Local\Temp\cceieKfF.s 			page 224


 8518              	.LBB1034:
 365:Drivers/STM32F4xx_HAL_Driver/Src/stm32f4xx_ll_sdmmc.c **** 
 8519              		.loc 1 365 3 view .LVU2912
 8520 0004 C368     		ldr	r3, [r0, #12]
 8521              	.LBE1034:
 8522              	.LBE1055:
 8523              	.LBB1056:
 8524              	.LBB1049:
1193:Drivers/STM32F4xx_HAL_Driver/Src/stm32f4xx_ll_sdmmc.c **** 
 8525              		.loc 1 1193 52 view .LVU2913
 8526 0006 4B49     		ldr	r1, .L801+4
 8527              	.LVL499:
1193:Drivers/STM32F4xx_HAL_Driver/Src/stm32f4xx_ll_sdmmc.c **** 
 8528              		.loc 1 1193 52 view .LVU2914
 8529 0008 1268     		ldr	r2, [r2]
 8530              	.LBE1049:
 8531              	.LBE1056:
 8532              	.LBB1057:
 8533              	.LBB1035:
 365:Drivers/STM32F4xx_HAL_Driver/Src/stm32f4xx_ll_sdmmc.c **** 
 8534              		.loc 1 365 3 view .LVU2915
 8535 000a 23F47F63 		bic	r3, r3, #4080
 8536              	.LBE1035:
 8537              	.LBE1057:
 8538              	.LBB1058:
 8539              	.LBB1050:
1193:Drivers/STM32F4xx_HAL_Driver/Src/stm32f4xx_ll_sdmmc.c **** 
 8540              		.loc 1 1193 52 view .LVU2916
 8541 000e A1FB0212 		umull	r1, r2, r1, r2
 8542              	.LBE1050:
 8543              	.LBE1058:
 8544              	.LBB1059:
 8545              	.LBB1036:
 365:Drivers/STM32F4xx_HAL_Driver/Src/stm32f4xx_ll_sdmmc.c **** 
 8546              		.loc 1 365 3 view .LVU2917
 8547 0012 23F00F03 		bic	r3, r3, #15
 8548 0016 43F48963 		orr	r3, r3, #1096
 8549              	.LBE1036:
 8550              	.LBE1059:
 8551              	.LBB1060:
 8552              	.LBB1051:
1193:Drivers/STM32F4xx_HAL_Driver/Src/stm32f4xx_ll_sdmmc.c **** 
 8553              		.loc 1 1193 52 view .LVU2918
 8554 001a 520A     		lsrs	r2, r2, #9
1193:Drivers/STM32F4xx_HAL_Driver/Src/stm32f4xx_ll_sdmmc.c **** 
 8555              		.loc 1 1193 12 view .LVU2919
 8556 001c 41F28831 		movw	r1, #5000
 8557              	.LBE1051:
 8558              	.LBE1060:
 8559              	.LBB1061:
 8560              	.LBB1037:
 365:Drivers/STM32F4xx_HAL_Driver/Src/stm32f4xx_ll_sdmmc.c **** 
 8561              		.loc 1 365 3 view .LVU2920
 8562 0020 43F00503 		orr	r3, r3, #5
 8563              	.LBE1037:
 8564              	.LBE1061:
 8565              	.LBB1062:
ARM GAS  C:\Users\pw705\AppData\Local\Temp\cceieKfF.s 			page 225


 8566              	.LBB1052:
1193:Drivers/STM32F4xx_HAL_Driver/Src/stm32f4xx_ll_sdmmc.c **** 
 8567              		.loc 1 1193 12 view .LVU2921
 8568 0024 01FB02F2 		mul	r2, r1, r2
 8569              	.LBE1052:
 8570              	.LBE1062:
 8571              	.LBB1063:
 8572              	.LBB1038:
 365:Drivers/STM32F4xx_HAL_Driver/Src/stm32f4xx_ll_sdmmc.c **** 
 8573              		.loc 1 365 3 view .LVU2922
 8574 0028 C360     		str	r3, [r0, #12]
 8575              	.LVL500:
 367:Drivers/STM32F4xx_HAL_Driver/Src/stm32f4xx_ll_sdmmc.c **** }
 8576              		.loc 1 367 3 is_stmt 1 view .LVU2923
 367:Drivers/STM32F4xx_HAL_Driver/Src/stm32f4xx_ll_sdmmc.c **** }
 8577              		.loc 1 367 3 is_stmt 0 view .LVU2924
 8578              	.LBE1038:
 8579              	.LBE1063:
1059:Drivers/STM32F4xx_HAL_Driver/Src/stm32f4xx_ll_sdmmc.c **** 
 8580              		.loc 1 1059 3 is_stmt 1 view .LVU2925
 8581              	.LBB1064:
 8582              	.LBI1039:
1186:Drivers/STM32F4xx_HAL_Driver/Src/stm32f4xx_ll_sdmmc.c **** {
 8583              		.loc 1 1186 10 view .LVU2926
 8584              	.LBB1053:
1188:Drivers/STM32F4xx_HAL_Driver/Src/stm32f4xx_ll_sdmmc.c ****   uint32_t sta_reg;
 8585              		.loc 1 1188 3 view .LVU2927
1189:Drivers/STM32F4xx_HAL_Driver/Src/stm32f4xx_ll_sdmmc.c **** 
 8586              		.loc 1 1189 3 view .LVU2928
1193:Drivers/STM32F4xx_HAL_Driver/Src/stm32f4xx_ll_sdmmc.c **** 
 8587              		.loc 1 1193 3 view .LVU2929
1195:Drivers/STM32F4xx_HAL_Driver/Src/stm32f4xx_ll_sdmmc.c ****   {
 8588              		.loc 1 1195 3 view .LVU2930
1197:Drivers/STM32F4xx_HAL_Driver/Src/stm32f4xx_ll_sdmmc.c ****     {
 8589              		.loc 1 1197 5 view .LVU2931
1197:Drivers/STM32F4xx_HAL_Driver/Src/stm32f4xx_ll_sdmmc.c ****     {
 8590              		.loc 1 1197 14 is_stmt 0 view .LVU2932
 8591 002a 531E     		subs	r3, r2, #1
 8592              	.LVL501:
1197:Drivers/STM32F4xx_HAL_Driver/Src/stm32f4xx_ll_sdmmc.c ****     {
 8593              		.loc 1 1197 8 view .LVU2933
 8594 002c 4AB1     		cbz	r2, .L772
 8595              	.L765:
1195:Drivers/STM32F4xx_HAL_Driver/Src/stm32f4xx_ll_sdmmc.c ****   {
 8596              		.loc 1 1195 3 is_stmt 1 view .LVU2934
1197:Drivers/STM32F4xx_HAL_Driver/Src/stm32f4xx_ll_sdmmc.c ****     {
 8597              		.loc 1 1197 5 view .LVU2935
1201:Drivers/STM32F4xx_HAL_Driver/Src/stm32f4xx_ll_sdmmc.c ****   } while (((sta_reg & (SDIO_FLAG_CCRCFAIL | SDIO_FLAG_CMDREND | SDIO_FLAG_CTIMEOUT)) == 0U) ||
 8598              		.loc 1 1201 5 view .LVU2936
1201:Drivers/STM32F4xx_HAL_Driver/Src/stm32f4xx_ll_sdmmc.c ****   } while (((sta_reg & (SDIO_FLAG_CCRCFAIL | SDIO_FLAG_CMDREND | SDIO_FLAG_CTIMEOUT)) == 0U) ||
 8599              		.loc 1 1201 13 is_stmt 0 view .LVU2937
 8600 002e 426B     		ldr	r2, [r0, #52]
 8601              	.LVL502:
1202:Drivers/STM32F4xx_HAL_Driver/Src/stm32f4xx_ll_sdmmc.c ****            ((sta_reg & SDIO_FLAG_CMDACT) != 0U));
 8602              		.loc 1 1202 94 is_stmt 1 view .LVU2938
 8603 0030 12F0450F 		tst	r2, #69
1197:Drivers/STM32F4xx_HAL_Driver/Src/stm32f4xx_ll_sdmmc.c ****     {
ARM GAS  C:\Users\pw705\AppData\Local\Temp\cceieKfF.s 			page 226


 8604              		.loc 1 1197 14 is_stmt 0 view .LVU2939
 8605 0034 03F1FF33 		add	r3, r3, #-1
 8606              	.LVL503:
1202:Drivers/STM32F4xx_HAL_Driver/Src/stm32f4xx_ll_sdmmc.c ****            ((sta_reg & SDIO_FLAG_CMDACT) != 0U));
 8607              		.loc 1 1202 94 view .LVU2940
 8608 0038 01D0     		beq	.L766
 8609 003a 1105     		lsls	r1, r2, #20
 8610 003c 04D5     		bpl	.L798
 8611              	.L766:
1197:Drivers/STM32F4xx_HAL_Driver/Src/stm32f4xx_ll_sdmmc.c ****     {
 8612              		.loc 1 1197 8 view .LVU2941
 8613 003e 5A1C     		adds	r2, r3, #1
 8614              	.LVL504:
1197:Drivers/STM32F4xx_HAL_Driver/Src/stm32f4xx_ll_sdmmc.c ****     {
 8615              		.loc 1 1197 8 view .LVU2942
 8616 0040 F5D1     		bne	.L765
 8617              	.LVL505:
 8618              	.L772:
1199:Drivers/STM32F4xx_HAL_Driver/Src/stm32f4xx_ll_sdmmc.c ****     }
 8619              		.loc 1 1199 14 view .LVU2943
 8620 0042 4FF00040 		mov	r0, #-2147483648
 8621              	.LVL506:
1199:Drivers/STM32F4xx_HAL_Driver/Src/stm32f4xx_ll_sdmmc.c ****     }
 8622              		.loc 1 1199 14 view .LVU2944
 8623 0046 7047     		bx	lr
 8624              	.LVL507:
 8625              	.L798:
1205:Drivers/STM32F4xx_HAL_Driver/Src/stm32f4xx_ll_sdmmc.c ****   {
 8626              		.loc 1 1205 3 is_stmt 1 view .LVU2945
1205:Drivers/STM32F4xx_HAL_Driver/Src/stm32f4xx_ll_sdmmc.c ****   {
 8627              		.loc 1 1205 7 is_stmt 0 view .LVU2946
 8628 0048 436B     		ldr	r3, [r0, #52]
 8629              	.LVL508:
1205:Drivers/STM32F4xx_HAL_Driver/Src/stm32f4xx_ll_sdmmc.c ****   {
 8630              		.loc 1 1205 6 view .LVU2947
 8631 004a 5A07     		lsls	r2, r3, #29
 8632              	.LVL509:
1205:Drivers/STM32F4xx_HAL_Driver/Src/stm32f4xx_ll_sdmmc.c ****   {
 8633              		.loc 1 1205 6 view .LVU2948
 8634 004c 3ED4     		bmi	.L799
1211:Drivers/STM32F4xx_HAL_Driver/Src/stm32f4xx_ll_sdmmc.c ****   {
 8635              		.loc 1 1211 8 is_stmt 1 view .LVU2949
1211:Drivers/STM32F4xx_HAL_Driver/Src/stm32f4xx_ll_sdmmc.c ****   {
 8636              		.loc 1 1211 12 is_stmt 0 view .LVU2950
 8637 004e 436B     		ldr	r3, [r0, #52]
1211:Drivers/STM32F4xx_HAL_Driver/Src/stm32f4xx_ll_sdmmc.c ****   {
 8638              		.loc 1 1211 11 view .LVU2951
 8639 0050 DB07     		lsls	r3, r3, #31
 8640 0052 07D4     		bmi	.L800
1220:Drivers/STM32F4xx_HAL_Driver/Src/stm32f4xx_ll_sdmmc.c **** 
 8641              		.loc 1 1220 3 is_stmt 1 view .LVU2952
1223:Drivers/STM32F4xx_HAL_Driver/Src/stm32f4xx_ll_sdmmc.c **** 
 8642              		.loc 1 1223 3 view .LVU2953
 8643 0054 C523     		movs	r3, #197
 8644 0056 8363     		str	r3, [r0, #56]
1226:Drivers/STM32F4xx_HAL_Driver/Src/stm32f4xx_ll_sdmmc.c ****   {
 8645              		.loc 1 1226 3 view .LVU2954
ARM GAS  C:\Users\pw705\AppData\Local\Temp\cceieKfF.s 			page 227


 8646              	.LVL510:
 8647              	.LBB1041:
 8648              	.LBI1041:
 375:Drivers/STM32F4xx_HAL_Driver/Src/stm32f4xx_ll_sdmmc.c **** {
 8649              		.loc 1 375 9 view .LVU2955
 8650              	.LBB1042:
 377:Drivers/STM32F4xx_HAL_Driver/Src/stm32f4xx_ll_sdmmc.c **** }
 8651              		.loc 1 377 3 view .LVU2956
 377:Drivers/STM32F4xx_HAL_Driver/Src/stm32f4xx_ll_sdmmc.c **** }
 8652              		.loc 1 377 25 is_stmt 0 view .LVU2957
 8653 0058 0369     		ldr	r3, [r0, #16]
 8654              	.LVL511:
 377:Drivers/STM32F4xx_HAL_Driver/Src/stm32f4xx_ll_sdmmc.c **** }
 8655              		.loc 1 377 25 view .LVU2958
 8656              	.LBE1042:
 8657              	.LBE1041:
1226:Drivers/STM32F4xx_HAL_Driver/Src/stm32f4xx_ll_sdmmc.c ****   {
 8658              		.loc 1 1226 6 view .LVU2959
 8659 005a DBB2     		uxtb	r3, r3
 8660 005c 0D2B     		cmp	r3, #13
 8661 005e 04D0     		beq	.L770
 8662              	.L769:
1215:Drivers/STM32F4xx_HAL_Driver/Src/stm32f4xx_ll_sdmmc.c ****   }
 8663              		.loc 1 1215 12 view .LVU2960
 8664 0060 0120     		movs	r0, #1
 8665              	.LVL512:
1215:Drivers/STM32F4xx_HAL_Driver/Src/stm32f4xx_ll_sdmmc.c ****   }
 8666              		.loc 1 1215 12 view .LVU2961
 8667 0062 7047     		bx	lr
 8668              	.LVL513:
 8669              	.L800:
1213:Drivers/STM32F4xx_HAL_Driver/Src/stm32f4xx_ll_sdmmc.c **** 
 8670              		.loc 1 1213 5 is_stmt 1 view .LVU2962
 8671 0064 0123     		movs	r3, #1
 8672 0066 8363     		str	r3, [r0, #56]
1215:Drivers/STM32F4xx_HAL_Driver/Src/stm32f4xx_ll_sdmmc.c ****   }
 8673              		.loc 1 1215 5 view .LVU2963
1215:Drivers/STM32F4xx_HAL_Driver/Src/stm32f4xx_ll_sdmmc.c ****   }
 8674              		.loc 1 1215 12 is_stmt 0 view .LVU2964
 8675 0068 FAE7     		b	.L769
 8676              	.L770:
 8677              	.LVL514:
 8678              	.LBB1043:
 8679              	.LBI1043:
1186:Drivers/STM32F4xx_HAL_Driver/Src/stm32f4xx_ll_sdmmc.c **** {
 8680              		.loc 1 1186 10 is_stmt 1 view .LVU2965
 8681              	.LBB1044:
1232:Drivers/STM32F4xx_HAL_Driver/Src/stm32f4xx_ll_sdmmc.c **** 
 8682              		.loc 1 1232 3 view .LVU2966
 8683              	.LBB1045:
 8684              	.LBI1045:
 391:Drivers/STM32F4xx_HAL_Driver/Src/stm32f4xx_ll_sdmmc.c **** {
 8685              		.loc 1 391 10 view .LVU2967
 8686              	.LBB1046:
 393:Drivers/STM32F4xx_HAL_Driver/Src/stm32f4xx_ll_sdmmc.c **** 
 8687              		.loc 1 393 3 view .LVU2968
 396:Drivers/STM32F4xx_HAL_Driver/Src/stm32f4xx_ll_sdmmc.c **** 
ARM GAS  C:\Users\pw705\AppData\Local\Temp\cceieKfF.s 			page 228


 8688              		.loc 1 396 3 view .LVU2969
 399:Drivers/STM32F4xx_HAL_Driver/Src/stm32f4xx_ll_sdmmc.c **** 
 8689              		.loc 1 399 3 view .LVU2970
 401:Drivers/STM32F4xx_HAL_Driver/Src/stm32f4xx_ll_sdmmc.c **** }
 8690              		.loc 1 401 3 view .LVU2971
 401:Drivers/STM32F4xx_HAL_Driver/Src/stm32f4xx_ll_sdmmc.c **** }
 8691              		.loc 1 401 11 is_stmt 0 view .LVU2972
 8692 006a 4369     		ldr	r3, [r0, #20]
 8693              	.LVL515:
 401:Drivers/STM32F4xx_HAL_Driver/Src/stm32f4xx_ll_sdmmc.c **** }
 8694              		.loc 1 401 11 view .LVU2973
 8695              	.LBE1046:
 8696              	.LBE1045:
1234:Drivers/STM32F4xx_HAL_Driver/Src/stm32f4xx_ll_sdmmc.c ****   {
 8697              		.loc 1 1234 3 is_stmt 1 view .LVU2974
1234:Drivers/STM32F4xx_HAL_Driver/Src/stm32f4xx_ll_sdmmc.c ****   {
 8698              		.loc 1 1234 20 is_stmt 0 view .LVU2975
 8699 006c 3248     		ldr	r0, .L801+8
 8700              	.LVL516:
1234:Drivers/STM32F4xx_HAL_Driver/Src/stm32f4xx_ll_sdmmc.c ****   {
 8701              		.loc 1 1234 20 view .LVU2976
 8702 006e 1840     		ands	r0, r0, r3
1234:Drivers/STM32F4xx_HAL_Driver/Src/stm32f4xx_ll_sdmmc.c ****   {
 8703              		.loc 1 1234 6 view .LVU2977
 8704 0070 58B3     		cbz	r0, .L763
1238:Drivers/STM32F4xx_HAL_Driver/Src/stm32f4xx_ll_sdmmc.c ****   {
 8705              		.loc 1 1238 8 is_stmt 1 view .LVU2978
1238:Drivers/STM32F4xx_HAL_Driver/Src/stm32f4xx_ll_sdmmc.c ****   {
 8706              		.loc 1 1238 11 is_stmt 0 view .LVU2979
 8707 0072 002B     		cmp	r3, #0
 8708 0074 2EDB     		blt	.L773
1242:Drivers/STM32F4xx_HAL_Driver/Src/stm32f4xx_ll_sdmmc.c ****   {
 8709              		.loc 1 1242 8 is_stmt 1 view .LVU2980
1242:Drivers/STM32F4xx_HAL_Driver/Src/stm32f4xx_ll_sdmmc.c ****   {
 8710              		.loc 1 1242 11 is_stmt 0 view .LVU2981
 8711 0076 5900     		lsls	r1, r3, #1
 8712 0078 2FD4     		bmi	.L774
1246:Drivers/STM32F4xx_HAL_Driver/Src/stm32f4xx_ll_sdmmc.c ****   {
 8713              		.loc 1 1246 8 is_stmt 1 view .LVU2982
1246:Drivers/STM32F4xx_HAL_Driver/Src/stm32f4xx_ll_sdmmc.c ****   {
 8714              		.loc 1 1246 11 is_stmt 0 view .LVU2983
 8715 007a 9A00     		lsls	r2, r3, #2
 8716 007c 2FD4     		bmi	.L775
1250:Drivers/STM32F4xx_HAL_Driver/Src/stm32f4xx_ll_sdmmc.c ****   {
 8717              		.loc 1 1250 8 is_stmt 1 view .LVU2984
1250:Drivers/STM32F4xx_HAL_Driver/Src/stm32f4xx_ll_sdmmc.c ****   {
 8718              		.loc 1 1250 11 is_stmt 0 view .LVU2985
 8719 007e D900     		lsls	r1, r3, #3
 8720 0080 2FD4     		bmi	.L776
1254:Drivers/STM32F4xx_HAL_Driver/Src/stm32f4xx_ll_sdmmc.c ****   {
 8721              		.loc 1 1254 8 is_stmt 1 view .LVU2986
1254:Drivers/STM32F4xx_HAL_Driver/Src/stm32f4xx_ll_sdmmc.c ****   {
 8722              		.loc 1 1254 11 is_stmt 0 view .LVU2987
 8723 0082 1A01     		lsls	r2, r3, #4
 8724 0084 30D4     		bmi	.L777
1258:Drivers/STM32F4xx_HAL_Driver/Src/stm32f4xx_ll_sdmmc.c ****   {
 8725              		.loc 1 1258 8 is_stmt 1 view .LVU2988
ARM GAS  C:\Users\pw705\AppData\Local\Temp\cceieKfF.s 			page 229


1258:Drivers/STM32F4xx_HAL_Driver/Src/stm32f4xx_ll_sdmmc.c ****   {
 8726              		.loc 1 1258 11 is_stmt 0 view .LVU2989
 8727 0086 5901     		lsls	r1, r3, #5
 8728 0088 31D4     		bmi	.L778
1262:Drivers/STM32F4xx_HAL_Driver/Src/stm32f4xx_ll_sdmmc.c ****   {
 8729              		.loc 1 1262 8 is_stmt 1 view .LVU2990
1262:Drivers/STM32F4xx_HAL_Driver/Src/stm32f4xx_ll_sdmmc.c ****   {
 8730              		.loc 1 1262 11 is_stmt 0 view .LVU2991
 8731 008a DA01     		lsls	r2, r3, #7
 8732 008c 32D4     		bmi	.L779
1266:Drivers/STM32F4xx_HAL_Driver/Src/stm32f4xx_ll_sdmmc.c ****   {
 8733              		.loc 1 1266 8 is_stmt 1 view .LVU2992
1266:Drivers/STM32F4xx_HAL_Driver/Src/stm32f4xx_ll_sdmmc.c ****   {
 8734              		.loc 1 1266 11 is_stmt 0 view .LVU2993
 8735 008e 1902     		lsls	r1, r3, #8
 8736 0090 33D4     		bmi	.L780
1270:Drivers/STM32F4xx_HAL_Driver/Src/stm32f4xx_ll_sdmmc.c ****   {
 8737              		.loc 1 1270 8 is_stmt 1 view .LVU2994
1270:Drivers/STM32F4xx_HAL_Driver/Src/stm32f4xx_ll_sdmmc.c ****   {
 8738              		.loc 1 1270 11 is_stmt 0 view .LVU2995
 8739 0092 5A02     		lsls	r2, r3, #9
 8740 0094 34D4     		bmi	.L781
1274:Drivers/STM32F4xx_HAL_Driver/Src/stm32f4xx_ll_sdmmc.c ****   {
 8741              		.loc 1 1274 8 is_stmt 1 view .LVU2996
1274:Drivers/STM32F4xx_HAL_Driver/Src/stm32f4xx_ll_sdmmc.c ****   {
 8742              		.loc 1 1274 11 is_stmt 0 view .LVU2997
 8743 0096 9902     		lsls	r1, r3, #10
 8744 0098 3ED4     		bmi	.L782
1278:Drivers/STM32F4xx_HAL_Driver/Src/stm32f4xx_ll_sdmmc.c ****   {
 8745              		.loc 1 1278 8 is_stmt 1 view .LVU2998
1278:Drivers/STM32F4xx_HAL_Driver/Src/stm32f4xx_ll_sdmmc.c ****   {
 8746              		.loc 1 1278 11 is_stmt 0 view .LVU2999
 8747 009a DA02     		lsls	r2, r3, #11
 8748 009c 39D4     		bmi	.L783
1282:Drivers/STM32F4xx_HAL_Driver/Src/stm32f4xx_ll_sdmmc.c ****   {
 8749              		.loc 1 1282 8 is_stmt 1 view .LVU3000
1282:Drivers/STM32F4xx_HAL_Driver/Src/stm32f4xx_ll_sdmmc.c ****   {
 8750              		.loc 1 1282 11 is_stmt 0 view .LVU3001
 8751 009e 5903     		lsls	r1, r3, #13
 8752 00a0 34D4     		bmi	.L784
1286:Drivers/STM32F4xx_HAL_Driver/Src/stm32f4xx_ll_sdmmc.c ****   {
 8753              		.loc 1 1286 8 is_stmt 1 view .LVU3002
1286:Drivers/STM32F4xx_HAL_Driver/Src/stm32f4xx_ll_sdmmc.c ****   {
 8754              		.loc 1 1286 11 is_stmt 0 view .LVU3003
 8755 00a2 9A03     		lsls	r2, r3, #14
 8756 00a4 2FD4     		bmi	.L785
1290:Drivers/STM32F4xx_HAL_Driver/Src/stm32f4xx_ll_sdmmc.c ****   {
 8757              		.loc 1 1290 8 is_stmt 1 view .LVU3004
1290:Drivers/STM32F4xx_HAL_Driver/Src/stm32f4xx_ll_sdmmc.c ****   {
 8758              		.loc 1 1290 11 is_stmt 0 view .LVU3005
 8759 00a6 D903     		lsls	r1, r3, #15
 8760 00a8 3FD4     		bmi	.L786
1294:Drivers/STM32F4xx_HAL_Driver/Src/stm32f4xx_ll_sdmmc.c ****   {
 8761              		.loc 1 1294 8 is_stmt 1 view .LVU3006
1294:Drivers/STM32F4xx_HAL_Driver/Src/stm32f4xx_ll_sdmmc.c ****   {
 8762              		.loc 1 1294 11 is_stmt 0 view .LVU3007
 8763 00aa 1A04     		lsls	r2, r3, #16
ARM GAS  C:\Users\pw705\AppData\Local\Temp\cceieKfF.s 			page 230


 8764 00ac 3AD4     		bmi	.L787
1298:Drivers/STM32F4xx_HAL_Driver/Src/stm32f4xx_ll_sdmmc.c ****   {
 8765              		.loc 1 1298 8 is_stmt 1 view .LVU3008
1298:Drivers/STM32F4xx_HAL_Driver/Src/stm32f4xx_ll_sdmmc.c ****   {
 8766              		.loc 1 1298 11 is_stmt 0 view .LVU3009
 8767 00ae 5904     		lsls	r1, r3, #17
 8768 00b0 35D4     		bmi	.L788
1302:Drivers/STM32F4xx_HAL_Driver/Src/stm32f4xx_ll_sdmmc.c ****   {
 8769              		.loc 1 1302 8 is_stmt 1 view .LVU3010
1302:Drivers/STM32F4xx_HAL_Driver/Src/stm32f4xx_ll_sdmmc.c ****   {
 8770              		.loc 1 1302 11 is_stmt 0 view .LVU3011
 8771 00b2 9A04     		lsls	r2, r3, #18
 8772 00b4 07D4     		bmi	.L789
1306:Drivers/STM32F4xx_HAL_Driver/Src/stm32f4xx_ll_sdmmc.c ****   {
 8773              		.loc 1 1306 8 is_stmt 1 view .LVU3012
1308:Drivers/STM32F4xx_HAL_Driver/Src/stm32f4xx_ll_sdmmc.c ****   }
 8774              		.loc 1 1308 12 is_stmt 0 view .LVU3013
 8775 00b6 13F0080F 		tst	r3, #8
 8776 00ba 0CBF     		ite	eq
 8777 00bc 4FF48030 		moveq	r0, #65536
 8778 00c0 4FF40000 		movne	r0, #8388608
 8779 00c4 7047     		bx	lr
 8780              	.L789:
1304:Drivers/STM32F4xx_HAL_Driver/Src/stm32f4xx_ll_sdmmc.c ****   }
 8781              		.loc 1 1304 12 view .LVU3014
 8782 00c6 4FF48000 		mov	r0, #4194304
 8783              	.L763:
1304:Drivers/STM32F4xx_HAL_Driver/Src/stm32f4xx_ll_sdmmc.c ****   }
 8784              		.loc 1 1304 12 view .LVU3015
 8785              	.LBE1044:
 8786              	.LBE1043:
 8787              	.LBE1053:
 8788              	.LBE1064:
1062:Drivers/STM32F4xx_HAL_Driver/Src/stm32f4xx_ll_sdmmc.c **** 
 8789              		.loc 1 1062 1 view .LVU3016
 8790 00ca 7047     		bx	lr
 8791              	.LVL517:
 8792              	.L799:
 8793              	.LBB1065:
 8794              	.LBB1054:
1207:Drivers/STM32F4xx_HAL_Driver/Src/stm32f4xx_ll_sdmmc.c **** 
 8795              		.loc 1 1207 5 is_stmt 1 view .LVU3017
 8796 00cc 0423     		movs	r3, #4
 8797 00ce 8363     		str	r3, [r0, #56]
1209:Drivers/STM32F4xx_HAL_Driver/Src/stm32f4xx_ll_sdmmc.c ****   }
 8798              		.loc 1 1209 5 view .LVU3018
1209:Drivers/STM32F4xx_HAL_Driver/Src/stm32f4xx_ll_sdmmc.c ****   }
 8799              		.loc 1 1209 12 is_stmt 0 view .LVU3019
 8800 00d0 1846     		mov	r0, r3
 8801              	.LVL518:
1209:Drivers/STM32F4xx_HAL_Driver/Src/stm32f4xx_ll_sdmmc.c ****   }
 8802              		.loc 1 1209 12 view .LVU3020
 8803 00d2 7047     		bx	lr
 8804              	.LVL519:
 8805              	.L773:
 8806              	.LBB1048:
 8807              	.LBB1047:
ARM GAS  C:\Users\pw705\AppData\Local\Temp\cceieKfF.s 			page 231


1240:Drivers/STM32F4xx_HAL_Driver/Src/stm32f4xx_ll_sdmmc.c ****   }
 8808              		.loc 1 1240 12 view .LVU3021
 8809 00d4 4FF00070 		mov	r0, #33554432
 8810 00d8 7047     		bx	lr
 8811              	.L774:
1244:Drivers/STM32F4xx_HAL_Driver/Src/stm32f4xx_ll_sdmmc.c ****   }
 8812              		.loc 1 1244 12 view .LVU3022
 8813 00da 4020     		movs	r0, #64
 8814 00dc 7047     		bx	lr
 8815              	.L775:
1248:Drivers/STM32F4xx_HAL_Driver/Src/stm32f4xx_ll_sdmmc.c ****   }
 8816              		.loc 1 1248 12 view .LVU3023
 8817 00de 8020     		movs	r0, #128
 8818 00e0 7047     		bx	lr
 8819              	.L776:
1252:Drivers/STM32F4xx_HAL_Driver/Src/stm32f4xx_ll_sdmmc.c ****   }
 8820              		.loc 1 1252 12 view .LVU3024
 8821 00e2 4FF48070 		mov	r0, #256
 8822 00e6 7047     		bx	lr
 8823              	.L777:
1256:Drivers/STM32F4xx_HAL_Driver/Src/stm32f4xx_ll_sdmmc.c ****   }
 8824              		.loc 1 1256 12 view .LVU3025
 8825 00e8 4FF40070 		mov	r0, #512
 8826 00ec 7047     		bx	lr
 8827              	.L778:
1260:Drivers/STM32F4xx_HAL_Driver/Src/stm32f4xx_ll_sdmmc.c ****   }
 8828              		.loc 1 1260 12 view .LVU3026
 8829 00ee 4FF48060 		mov	r0, #1024
 8830 00f2 7047     		bx	lr
 8831              	.L779:
1264:Drivers/STM32F4xx_HAL_Driver/Src/stm32f4xx_ll_sdmmc.c ****   }
 8832              		.loc 1 1264 12 view .LVU3027
 8833 00f4 4FF40060 		mov	r0, #2048
 8834 00f8 7047     		bx	lr
 8835              	.L780:
1268:Drivers/STM32F4xx_HAL_Driver/Src/stm32f4xx_ll_sdmmc.c ****   }
 8836              		.loc 1 1268 12 view .LVU3028
 8837 00fa 4FF48050 		mov	r0, #4096
 8838 00fe 7047     		bx	lr
 8839              	.L781:
1272:Drivers/STM32F4xx_HAL_Driver/Src/stm32f4xx_ll_sdmmc.c ****   }
 8840              		.loc 1 1272 12 view .LVU3029
 8841 0100 4FF40050 		mov	r0, #8192
 8842 0104 7047     		bx	lr
 8843              	.L785:
1288:Drivers/STM32F4xx_HAL_Driver/Src/stm32f4xx_ll_sdmmc.c ****   }
 8844              		.loc 1 1288 12 view .LVU3030
 8845 0106 4FF48020 		mov	r0, #262144
 8846 010a 7047     		bx	lr
 8847              	.L784:
1284:Drivers/STM32F4xx_HAL_Driver/Src/stm32f4xx_ll_sdmmc.c ****   }
 8848              		.loc 1 1284 12 view .LVU3031
 8849 010c 4FF40030 		mov	r0, #131072
 8850 0110 7047     		bx	lr
 8851              	.L783:
1280:Drivers/STM32F4xx_HAL_Driver/Src/stm32f4xx_ll_sdmmc.c ****   }
 8852              		.loc 1 1280 12 view .LVU3032
ARM GAS  C:\Users\pw705\AppData\Local\Temp\cceieKfF.s 			page 232


 8853 0112 4FF40040 		mov	r0, #32768
 8854 0116 7047     		bx	lr
 8855              	.L782:
1276:Drivers/STM32F4xx_HAL_Driver/Src/stm32f4xx_ll_sdmmc.c ****   }
 8856              		.loc 1 1276 12 view .LVU3033
 8857 0118 4FF48040 		mov	r0, #16384
 8858 011c 7047     		bx	lr
 8859              	.L788:
1300:Drivers/STM32F4xx_HAL_Driver/Src/stm32f4xx_ll_sdmmc.c ****   }
 8860              		.loc 1 1300 12 view .LVU3034
 8861 011e 4FF40010 		mov	r0, #2097152
 8862 0122 7047     		bx	lr
 8863              	.L787:
1296:Drivers/STM32F4xx_HAL_Driver/Src/stm32f4xx_ll_sdmmc.c ****   }
 8864              		.loc 1 1296 12 view .LVU3035
 8865 0124 4FF48010 		mov	r0, #1048576
 8866 0128 7047     		bx	lr
 8867              	.L786:
1292:Drivers/STM32F4xx_HAL_Driver/Src/stm32f4xx_ll_sdmmc.c ****   }
 8868              		.loc 1 1292 12 view .LVU3036
 8869 012a 4FF40020 		mov	r0, #524288
 8870 012e 7047     		bx	lr
 8871              	.L802:
 8872              		.align	2
 8873              	.L801:
 8874 0130 00000000 		.word	SystemCoreClock
 8875 0134 D34D6210 		.word	274877907
 8876 0138 08E0FFFD 		.word	-33562616
 8877              	.LBE1047:
 8878              	.LBE1048:
 8879              	.LBE1054:
 8880              	.LBE1065:
 8881              		.cfi_endproc
 8882              	.LFE165:
 8884              		.section	.text.SDMMC_CmdStatusRegister,"ax",%progbits
 8885              		.align	1
 8886              		.p2align 2,,3
 8887              		.global	SDMMC_CmdStatusRegister
 8888              		.syntax unified
 8889              		.thumb
 8890              		.thumb_func
 8892              	SDMMC_CmdStatusRegister:
 8893              	.LVL520:
 8894              	.LFB166:
1070:Drivers/STM32F4xx_HAL_Driver/Src/stm32f4xx_ll_sdmmc.c ****   SDIO_CmdInitTypeDef sdmmc_cmdinit;
 8895              		.loc 1 1070 1 is_stmt 1 view -0
 8896              		.cfi_startproc
 8897              		@ args = 0, pretend = 0, frame = 0
 8898              		@ frame_needed = 0, uses_anonymous_args = 0
 8899              		@ link register save eliminated.
1071:Drivers/STM32F4xx_HAL_Driver/Src/stm32f4xx_ll_sdmmc.c ****   uint32_t errorstate;
 8900              		.loc 1 1071 3 view .LVU3038
1072:Drivers/STM32F4xx_HAL_Driver/Src/stm32f4xx_ll_sdmmc.c **** 
 8901              		.loc 1 1072 3 view .LVU3039
1074:Drivers/STM32F4xx_HAL_Driver/Src/stm32f4xx_ll_sdmmc.c ****   sdmmc_cmdinit.CmdIndex = SDMMC_CMD_SD_APP_STATUS;
 8902              		.loc 1 1074 3 view .LVU3040
1075:Drivers/STM32F4xx_HAL_Driver/Src/stm32f4xx_ll_sdmmc.c ****   sdmmc_cmdinit.Response = SDIO_RESPONSE_SHORT;
ARM GAS  C:\Users\pw705\AppData\Local\Temp\cceieKfF.s 			page 233


 8903              		.loc 1 1075 3 view .LVU3041
1076:Drivers/STM32F4xx_HAL_Driver/Src/stm32f4xx_ll_sdmmc.c ****   sdmmc_cmdinit.WaitForInterrupt = SDIO_WAIT_NO;
 8904              		.loc 1 1076 3 view .LVU3042
1077:Drivers/STM32F4xx_HAL_Driver/Src/stm32f4xx_ll_sdmmc.c ****   sdmmc_cmdinit.CPSM = SDIO_CPSM_ENABLE;
 8905              		.loc 1 1077 3 view .LVU3043
1078:Drivers/STM32F4xx_HAL_Driver/Src/stm32f4xx_ll_sdmmc.c ****   (void)SDIO_SendCommand(SDIOx, &sdmmc_cmdinit);
 8906              		.loc 1 1078 3 view .LVU3044
1079:Drivers/STM32F4xx_HAL_Driver/Src/stm32f4xx_ll_sdmmc.c **** 
 8907              		.loc 1 1079 3 view .LVU3045
 8908              	.LBB1078:
 8909              	.LBI1078:
 345:Drivers/STM32F4xx_HAL_Driver/Src/stm32f4xx_ll_sdmmc.c **** {
 8910              		.loc 1 345 19 view .LVU3046
 8911              	.LBB1079:
 347:Drivers/STM32F4xx_HAL_Driver/Src/stm32f4xx_ll_sdmmc.c **** 
 8912              		.loc 1 347 3 view .LVU3047
 350:Drivers/STM32F4xx_HAL_Driver/Src/stm32f4xx_ll_sdmmc.c ****   assert_param(IS_SDIO_RESPONSE(Command->Response));
 8913              		.loc 1 350 3 view .LVU3048
 351:Drivers/STM32F4xx_HAL_Driver/Src/stm32f4xx_ll_sdmmc.c ****   assert_param(IS_SDIO_WAIT(Command->WaitForInterrupt));
 8914              		.loc 1 351 3 view .LVU3049
 352:Drivers/STM32F4xx_HAL_Driver/Src/stm32f4xx_ll_sdmmc.c ****   assert_param(IS_SDIO_CPSM(Command->CPSM));
 8915              		.loc 1 352 3 view .LVU3050
 353:Drivers/STM32F4xx_HAL_Driver/Src/stm32f4xx_ll_sdmmc.c **** 
 8916              		.loc 1 353 3 view .LVU3051
 356:Drivers/STM32F4xx_HAL_Driver/Src/stm32f4xx_ll_sdmmc.c **** 
 8917              		.loc 1 356 3 view .LVU3052
 356:Drivers/STM32F4xx_HAL_Driver/Src/stm32f4xx_ll_sdmmc.c **** 
 8918              		.loc 1 356 14 is_stmt 0 view .LVU3053
 8919 0000 0023     		movs	r3, #0
 8920 0002 8360     		str	r3, [r0, #8]
 359:Drivers/STM32F4xx_HAL_Driver/Src/stm32f4xx_ll_sdmmc.c ****                        Command->Response |
 8921              		.loc 1 359 3 is_stmt 1 view .LVU3054
 8922              	.LVL521:
 365:Drivers/STM32F4xx_HAL_Driver/Src/stm32f4xx_ll_sdmmc.c **** 
 8923              		.loc 1 365 3 view .LVU3055
 8924              	.LBE1079:
 8925              	.LBE1078:
 8926              	.LBB1085:
 8927              	.LBB1086:
1193:Drivers/STM32F4xx_HAL_Driver/Src/stm32f4xx_ll_sdmmc.c **** 
 8928              		.loc 1 1193 52 is_stmt 0 view .LVU3056
 8929 0004 4B4A     		ldr	r2, .L841
 8930              	.LBE1086:
 8931              	.LBE1085:
 8932              	.LBB1101:
 8933              	.LBB1080:
 365:Drivers/STM32F4xx_HAL_Driver/Src/stm32f4xx_ll_sdmmc.c **** 
 8934              		.loc 1 365 3 view .LVU3057
 8935 0006 C368     		ldr	r3, [r0, #12]
 8936              	.LBE1080:
 8937              	.LBE1101:
 8938              	.LBB1102:
 8939              	.LBB1095:
1193:Drivers/STM32F4xx_HAL_Driver/Src/stm32f4xx_ll_sdmmc.c **** 
 8940              		.loc 1 1193 52 view .LVU3058
 8941 0008 4B49     		ldr	r1, .L841+4
 8942 000a 1268     		ldr	r2, [r2]
ARM GAS  C:\Users\pw705\AppData\Local\Temp\cceieKfF.s 			page 234


 8943              	.LBE1095:
 8944              	.LBE1102:
 8945              	.LBB1103:
 8946              	.LBB1081:
 365:Drivers/STM32F4xx_HAL_Driver/Src/stm32f4xx_ll_sdmmc.c **** 
 8947              		.loc 1 365 3 view .LVU3059
 8948 000c 23F47F63 		bic	r3, r3, #4080
 8949              	.LBE1081:
 8950              	.LBE1103:
 8951              	.LBB1104:
 8952              	.LBB1096:
1193:Drivers/STM32F4xx_HAL_Driver/Src/stm32f4xx_ll_sdmmc.c **** 
 8953              		.loc 1 1193 52 view .LVU3060
 8954 0010 A1FB0212 		umull	r1, r2, r1, r2
 8955              	.LBE1096:
 8956              	.LBE1104:
 8957              	.LBB1105:
 8958              	.LBB1082:
 365:Drivers/STM32F4xx_HAL_Driver/Src/stm32f4xx_ll_sdmmc.c **** 
 8959              		.loc 1 365 3 view .LVU3061
 8960 0014 23F00F03 		bic	r3, r3, #15
 8961 0018 43F48963 		orr	r3, r3, #1096
 8962              	.LBE1082:
 8963              	.LBE1105:
 8964              	.LBB1106:
 8965              	.LBB1097:
1193:Drivers/STM32F4xx_HAL_Driver/Src/stm32f4xx_ll_sdmmc.c **** 
 8966              		.loc 1 1193 52 view .LVU3062
 8967 001c 520A     		lsrs	r2, r2, #9
1193:Drivers/STM32F4xx_HAL_Driver/Src/stm32f4xx_ll_sdmmc.c **** 
 8968              		.loc 1 1193 12 view .LVU3063
 8969 001e 41F28831 		movw	r1, #5000
 8970              	.LBE1097:
 8971              	.LBE1106:
 8972              	.LBB1107:
 8973              	.LBB1083:
 365:Drivers/STM32F4xx_HAL_Driver/Src/stm32f4xx_ll_sdmmc.c **** 
 8974              		.loc 1 365 3 view .LVU3064
 8975 0022 43F00503 		orr	r3, r3, #5
 8976              	.LBE1083:
 8977              	.LBE1107:
 8978              	.LBB1108:
 8979              	.LBB1098:
1193:Drivers/STM32F4xx_HAL_Driver/Src/stm32f4xx_ll_sdmmc.c **** 
 8980              		.loc 1 1193 12 view .LVU3065
 8981 0026 01FB02F2 		mul	r2, r1, r2
 8982              	.LBE1098:
 8983              	.LBE1108:
 8984              	.LBB1109:
 8985              	.LBB1084:
 365:Drivers/STM32F4xx_HAL_Driver/Src/stm32f4xx_ll_sdmmc.c **** 
 8986              		.loc 1 365 3 view .LVU3066
 8987 002a C360     		str	r3, [r0, #12]
 367:Drivers/STM32F4xx_HAL_Driver/Src/stm32f4xx_ll_sdmmc.c **** }
 8988              		.loc 1 367 3 is_stmt 1 view .LVU3067
 8989              	.LVL522:
 367:Drivers/STM32F4xx_HAL_Driver/Src/stm32f4xx_ll_sdmmc.c **** }
ARM GAS  C:\Users\pw705\AppData\Local\Temp\cceieKfF.s 			page 235


 8990              		.loc 1 367 3 is_stmt 0 view .LVU3068
 8991              	.LBE1084:
 8992              	.LBE1109:
1082:Drivers/STM32F4xx_HAL_Driver/Src/stm32f4xx_ll_sdmmc.c **** 
 8993              		.loc 1 1082 3 is_stmt 1 view .LVU3069
 8994              	.LBB1110:
 8995              	.LBI1085:
1186:Drivers/STM32F4xx_HAL_Driver/Src/stm32f4xx_ll_sdmmc.c **** {
 8996              		.loc 1 1186 10 view .LVU3070
 8997              	.LBB1099:
1188:Drivers/STM32F4xx_HAL_Driver/Src/stm32f4xx_ll_sdmmc.c ****   uint32_t sta_reg;
 8998              		.loc 1 1188 3 view .LVU3071
1189:Drivers/STM32F4xx_HAL_Driver/Src/stm32f4xx_ll_sdmmc.c **** 
 8999              		.loc 1 1189 3 view .LVU3072
1193:Drivers/STM32F4xx_HAL_Driver/Src/stm32f4xx_ll_sdmmc.c **** 
 9000              		.loc 1 1193 3 view .LVU3073
1195:Drivers/STM32F4xx_HAL_Driver/Src/stm32f4xx_ll_sdmmc.c ****   {
 9001              		.loc 1 1195 3 view .LVU3074
1197:Drivers/STM32F4xx_HAL_Driver/Src/stm32f4xx_ll_sdmmc.c ****     {
 9002              		.loc 1 1197 5 view .LVU3075
1197:Drivers/STM32F4xx_HAL_Driver/Src/stm32f4xx_ll_sdmmc.c ****     {
 9003              		.loc 1 1197 14 is_stmt 0 view .LVU3076
 9004 002c 531E     		subs	r3, r2, #1
 9005              	.LVL523:
1197:Drivers/STM32F4xx_HAL_Driver/Src/stm32f4xx_ll_sdmmc.c ****     {
 9006              		.loc 1 1197 8 view .LVU3077
 9007 002e 4AB1     		cbz	r2, .L812
 9008              	.L805:
1195:Drivers/STM32F4xx_HAL_Driver/Src/stm32f4xx_ll_sdmmc.c ****   {
 9009              		.loc 1 1195 3 is_stmt 1 view .LVU3078
1197:Drivers/STM32F4xx_HAL_Driver/Src/stm32f4xx_ll_sdmmc.c ****     {
 9010              		.loc 1 1197 5 view .LVU3079
1201:Drivers/STM32F4xx_HAL_Driver/Src/stm32f4xx_ll_sdmmc.c ****   } while (((sta_reg & (SDIO_FLAG_CCRCFAIL | SDIO_FLAG_CMDREND | SDIO_FLAG_CTIMEOUT)) == 0U) ||
 9011              		.loc 1 1201 5 view .LVU3080
1201:Drivers/STM32F4xx_HAL_Driver/Src/stm32f4xx_ll_sdmmc.c ****   } while (((sta_reg & (SDIO_FLAG_CCRCFAIL | SDIO_FLAG_CMDREND | SDIO_FLAG_CTIMEOUT)) == 0U) ||
 9012              		.loc 1 1201 13 is_stmt 0 view .LVU3081
 9013 0030 426B     		ldr	r2, [r0, #52]
 9014              	.LVL524:
1202:Drivers/STM32F4xx_HAL_Driver/Src/stm32f4xx_ll_sdmmc.c ****            ((sta_reg & SDIO_FLAG_CMDACT) != 0U));
 9015              		.loc 1 1202 94 is_stmt 1 view .LVU3082
 9016 0032 12F0450F 		tst	r2, #69
1197:Drivers/STM32F4xx_HAL_Driver/Src/stm32f4xx_ll_sdmmc.c ****     {
 9017              		.loc 1 1197 14 is_stmt 0 view .LVU3083
 9018 0036 03F1FF33 		add	r3, r3, #-1
 9019              	.LVL525:
1202:Drivers/STM32F4xx_HAL_Driver/Src/stm32f4xx_ll_sdmmc.c ****            ((sta_reg & SDIO_FLAG_CMDACT) != 0U));
 9020              		.loc 1 1202 94 view .LVU3084
 9021 003a 01D0     		beq	.L806
 9022 003c 1105     		lsls	r1, r2, #20
 9023 003e 04D5     		bpl	.L838
 9024              	.L806:
1197:Drivers/STM32F4xx_HAL_Driver/Src/stm32f4xx_ll_sdmmc.c ****     {
 9025              		.loc 1 1197 8 view .LVU3085
 9026 0040 5A1C     		adds	r2, r3, #1
 9027              	.LVL526:
1197:Drivers/STM32F4xx_HAL_Driver/Src/stm32f4xx_ll_sdmmc.c ****     {
 9028              		.loc 1 1197 8 view .LVU3086
ARM GAS  C:\Users\pw705\AppData\Local\Temp\cceieKfF.s 			page 236


 9029 0042 F5D1     		bne	.L805
 9030              	.LVL527:
 9031              	.L812:
1199:Drivers/STM32F4xx_HAL_Driver/Src/stm32f4xx_ll_sdmmc.c ****     }
 9032              		.loc 1 1199 14 view .LVU3087
 9033 0044 4FF00040 		mov	r0, #-2147483648
 9034              	.LVL528:
1199:Drivers/STM32F4xx_HAL_Driver/Src/stm32f4xx_ll_sdmmc.c ****     }
 9035              		.loc 1 1199 14 view .LVU3088
 9036 0048 7047     		bx	lr
 9037              	.LVL529:
 9038              	.L838:
1205:Drivers/STM32F4xx_HAL_Driver/Src/stm32f4xx_ll_sdmmc.c ****   {
 9039              		.loc 1 1205 3 is_stmt 1 view .LVU3089
1205:Drivers/STM32F4xx_HAL_Driver/Src/stm32f4xx_ll_sdmmc.c ****   {
 9040              		.loc 1 1205 7 is_stmt 0 view .LVU3090
 9041 004a 436B     		ldr	r3, [r0, #52]
 9042              	.LVL530:
1205:Drivers/STM32F4xx_HAL_Driver/Src/stm32f4xx_ll_sdmmc.c ****   {
 9043              		.loc 1 1205 6 view .LVU3091
 9044 004c 5A07     		lsls	r2, r3, #29
 9045              	.LVL531:
1205:Drivers/STM32F4xx_HAL_Driver/Src/stm32f4xx_ll_sdmmc.c ****   {
 9046              		.loc 1 1205 6 view .LVU3092
 9047 004e 3ED4     		bmi	.L839
1211:Drivers/STM32F4xx_HAL_Driver/Src/stm32f4xx_ll_sdmmc.c ****   {
 9048              		.loc 1 1211 8 is_stmt 1 view .LVU3093
1211:Drivers/STM32F4xx_HAL_Driver/Src/stm32f4xx_ll_sdmmc.c ****   {
 9049              		.loc 1 1211 12 is_stmt 0 view .LVU3094
 9050 0050 436B     		ldr	r3, [r0, #52]
1211:Drivers/STM32F4xx_HAL_Driver/Src/stm32f4xx_ll_sdmmc.c ****   {
 9051              		.loc 1 1211 11 view .LVU3095
 9052 0052 DB07     		lsls	r3, r3, #31
 9053 0054 07D4     		bmi	.L840
1220:Drivers/STM32F4xx_HAL_Driver/Src/stm32f4xx_ll_sdmmc.c **** 
 9054              		.loc 1 1220 3 is_stmt 1 view .LVU3096
1223:Drivers/STM32F4xx_HAL_Driver/Src/stm32f4xx_ll_sdmmc.c **** 
 9055              		.loc 1 1223 3 view .LVU3097
 9056 0056 C523     		movs	r3, #197
 9057 0058 8363     		str	r3, [r0, #56]
1226:Drivers/STM32F4xx_HAL_Driver/Src/stm32f4xx_ll_sdmmc.c ****   {
 9058              		.loc 1 1226 3 view .LVU3098
 9059              	.LVL532:
 9060              	.LBB1087:
 9061              	.LBI1087:
 375:Drivers/STM32F4xx_HAL_Driver/Src/stm32f4xx_ll_sdmmc.c **** {
 9062              		.loc 1 375 9 view .LVU3099
 9063              	.LBB1088:
 377:Drivers/STM32F4xx_HAL_Driver/Src/stm32f4xx_ll_sdmmc.c **** }
 9064              		.loc 1 377 3 view .LVU3100
 377:Drivers/STM32F4xx_HAL_Driver/Src/stm32f4xx_ll_sdmmc.c **** }
 9065              		.loc 1 377 25 is_stmt 0 view .LVU3101
 9066 005a 0369     		ldr	r3, [r0, #16]
 9067              	.LVL533:
 377:Drivers/STM32F4xx_HAL_Driver/Src/stm32f4xx_ll_sdmmc.c **** }
 9068              		.loc 1 377 25 view .LVU3102
 9069              	.LBE1088:
ARM GAS  C:\Users\pw705\AppData\Local\Temp\cceieKfF.s 			page 237


 9070              	.LBE1087:
1226:Drivers/STM32F4xx_HAL_Driver/Src/stm32f4xx_ll_sdmmc.c ****   {
 9071              		.loc 1 1226 6 view .LVU3103
 9072 005c DBB2     		uxtb	r3, r3
 9073 005e 0D2B     		cmp	r3, #13
 9074 0060 04D0     		beq	.L810
 9075              	.L809:
1215:Drivers/STM32F4xx_HAL_Driver/Src/stm32f4xx_ll_sdmmc.c ****   }
 9076              		.loc 1 1215 12 view .LVU3104
 9077 0062 0120     		movs	r0, #1
 9078              	.LVL534:
1215:Drivers/STM32F4xx_HAL_Driver/Src/stm32f4xx_ll_sdmmc.c ****   }
 9079              		.loc 1 1215 12 view .LVU3105
 9080 0064 7047     		bx	lr
 9081              	.LVL535:
 9082              	.L840:
1213:Drivers/STM32F4xx_HAL_Driver/Src/stm32f4xx_ll_sdmmc.c **** 
 9083              		.loc 1 1213 5 is_stmt 1 view .LVU3106
 9084 0066 0123     		movs	r3, #1
 9085 0068 8363     		str	r3, [r0, #56]
1215:Drivers/STM32F4xx_HAL_Driver/Src/stm32f4xx_ll_sdmmc.c ****   }
 9086              		.loc 1 1215 5 view .LVU3107
1215:Drivers/STM32F4xx_HAL_Driver/Src/stm32f4xx_ll_sdmmc.c ****   }
 9087              		.loc 1 1215 12 is_stmt 0 view .LVU3108
 9088 006a FAE7     		b	.L809
 9089              	.L810:
 9090              	.LVL536:
 9091              	.LBB1089:
 9092              	.LBI1089:
1186:Drivers/STM32F4xx_HAL_Driver/Src/stm32f4xx_ll_sdmmc.c **** {
 9093              		.loc 1 1186 10 is_stmt 1 view .LVU3109
 9094              	.LBB1090:
1232:Drivers/STM32F4xx_HAL_Driver/Src/stm32f4xx_ll_sdmmc.c **** 
 9095              		.loc 1 1232 3 view .LVU3110
 9096              	.LBB1091:
 9097              	.LBI1091:
 391:Drivers/STM32F4xx_HAL_Driver/Src/stm32f4xx_ll_sdmmc.c **** {
 9098              		.loc 1 391 10 view .LVU3111
 9099              	.LBB1092:
 393:Drivers/STM32F4xx_HAL_Driver/Src/stm32f4xx_ll_sdmmc.c **** 
 9100              		.loc 1 393 3 view .LVU3112
 396:Drivers/STM32F4xx_HAL_Driver/Src/stm32f4xx_ll_sdmmc.c **** 
 9101              		.loc 1 396 3 view .LVU3113
 399:Drivers/STM32F4xx_HAL_Driver/Src/stm32f4xx_ll_sdmmc.c **** 
 9102              		.loc 1 399 3 view .LVU3114
 401:Drivers/STM32F4xx_HAL_Driver/Src/stm32f4xx_ll_sdmmc.c **** }
 9103              		.loc 1 401 3 view .LVU3115
 401:Drivers/STM32F4xx_HAL_Driver/Src/stm32f4xx_ll_sdmmc.c **** }
 9104              		.loc 1 401 11 is_stmt 0 view .LVU3116
 9105 006c 4369     		ldr	r3, [r0, #20]
 9106              	.LVL537:
 401:Drivers/STM32F4xx_HAL_Driver/Src/stm32f4xx_ll_sdmmc.c **** }
 9107              		.loc 1 401 11 view .LVU3117
 9108              	.LBE1092:
 9109              	.LBE1091:
1234:Drivers/STM32F4xx_HAL_Driver/Src/stm32f4xx_ll_sdmmc.c ****   {
 9110              		.loc 1 1234 3 is_stmt 1 view .LVU3118
ARM GAS  C:\Users\pw705\AppData\Local\Temp\cceieKfF.s 			page 238


1234:Drivers/STM32F4xx_HAL_Driver/Src/stm32f4xx_ll_sdmmc.c ****   {
 9111              		.loc 1 1234 20 is_stmt 0 view .LVU3119
 9112 006e 3348     		ldr	r0, .L841+8
 9113              	.LVL538:
1234:Drivers/STM32F4xx_HAL_Driver/Src/stm32f4xx_ll_sdmmc.c ****   {
 9114              		.loc 1 1234 20 view .LVU3120
 9115 0070 1840     		ands	r0, r0, r3
1234:Drivers/STM32F4xx_HAL_Driver/Src/stm32f4xx_ll_sdmmc.c ****   {
 9116              		.loc 1 1234 6 view .LVU3121
 9117 0072 58B3     		cbz	r0, .L803
1238:Drivers/STM32F4xx_HAL_Driver/Src/stm32f4xx_ll_sdmmc.c ****   {
 9118              		.loc 1 1238 8 is_stmt 1 view .LVU3122
1238:Drivers/STM32F4xx_HAL_Driver/Src/stm32f4xx_ll_sdmmc.c ****   {
 9119              		.loc 1 1238 11 is_stmt 0 view .LVU3123
 9120 0074 002B     		cmp	r3, #0
 9121 0076 2EDB     		blt	.L813
1242:Drivers/STM32F4xx_HAL_Driver/Src/stm32f4xx_ll_sdmmc.c ****   {
 9122              		.loc 1 1242 8 is_stmt 1 view .LVU3124
1242:Drivers/STM32F4xx_HAL_Driver/Src/stm32f4xx_ll_sdmmc.c ****   {
 9123              		.loc 1 1242 11 is_stmt 0 view .LVU3125
 9124 0078 5900     		lsls	r1, r3, #1
 9125 007a 2FD4     		bmi	.L814
1246:Drivers/STM32F4xx_HAL_Driver/Src/stm32f4xx_ll_sdmmc.c ****   {
 9126              		.loc 1 1246 8 is_stmt 1 view .LVU3126
1246:Drivers/STM32F4xx_HAL_Driver/Src/stm32f4xx_ll_sdmmc.c ****   {
 9127              		.loc 1 1246 11 is_stmt 0 view .LVU3127
 9128 007c 9A00     		lsls	r2, r3, #2
 9129 007e 2FD4     		bmi	.L815
1250:Drivers/STM32F4xx_HAL_Driver/Src/stm32f4xx_ll_sdmmc.c ****   {
 9130              		.loc 1 1250 8 is_stmt 1 view .LVU3128
1250:Drivers/STM32F4xx_HAL_Driver/Src/stm32f4xx_ll_sdmmc.c ****   {
 9131              		.loc 1 1250 11 is_stmt 0 view .LVU3129
 9132 0080 D900     		lsls	r1, r3, #3
 9133 0082 2FD4     		bmi	.L816
1254:Drivers/STM32F4xx_HAL_Driver/Src/stm32f4xx_ll_sdmmc.c ****   {
 9134              		.loc 1 1254 8 is_stmt 1 view .LVU3130
1254:Drivers/STM32F4xx_HAL_Driver/Src/stm32f4xx_ll_sdmmc.c ****   {
 9135              		.loc 1 1254 11 is_stmt 0 view .LVU3131
 9136 0084 1A01     		lsls	r2, r3, #4
 9137 0086 30D4     		bmi	.L817
1258:Drivers/STM32F4xx_HAL_Driver/Src/stm32f4xx_ll_sdmmc.c ****   {
 9138              		.loc 1 1258 8 is_stmt 1 view .LVU3132
1258:Drivers/STM32F4xx_HAL_Driver/Src/stm32f4xx_ll_sdmmc.c ****   {
 9139              		.loc 1 1258 11 is_stmt 0 view .LVU3133
 9140 0088 5901     		lsls	r1, r3, #5
 9141 008a 31D4     		bmi	.L818
1262:Drivers/STM32F4xx_HAL_Driver/Src/stm32f4xx_ll_sdmmc.c ****   {
 9142              		.loc 1 1262 8 is_stmt 1 view .LVU3134
1262:Drivers/STM32F4xx_HAL_Driver/Src/stm32f4xx_ll_sdmmc.c ****   {
 9143              		.loc 1 1262 11 is_stmt 0 view .LVU3135
 9144 008c DA01     		lsls	r2, r3, #7
 9145 008e 32D4     		bmi	.L819
1266:Drivers/STM32F4xx_HAL_Driver/Src/stm32f4xx_ll_sdmmc.c ****   {
 9146              		.loc 1 1266 8 is_stmt 1 view .LVU3136
1266:Drivers/STM32F4xx_HAL_Driver/Src/stm32f4xx_ll_sdmmc.c ****   {
 9147              		.loc 1 1266 11 is_stmt 0 view .LVU3137
 9148 0090 1902     		lsls	r1, r3, #8
ARM GAS  C:\Users\pw705\AppData\Local\Temp\cceieKfF.s 			page 239


 9149 0092 33D4     		bmi	.L820
1270:Drivers/STM32F4xx_HAL_Driver/Src/stm32f4xx_ll_sdmmc.c ****   {
 9150              		.loc 1 1270 8 is_stmt 1 view .LVU3138
1270:Drivers/STM32F4xx_HAL_Driver/Src/stm32f4xx_ll_sdmmc.c ****   {
 9151              		.loc 1 1270 11 is_stmt 0 view .LVU3139
 9152 0094 5A02     		lsls	r2, r3, #9
 9153 0096 34D4     		bmi	.L821
1274:Drivers/STM32F4xx_HAL_Driver/Src/stm32f4xx_ll_sdmmc.c ****   {
 9154              		.loc 1 1274 8 is_stmt 1 view .LVU3140
1274:Drivers/STM32F4xx_HAL_Driver/Src/stm32f4xx_ll_sdmmc.c ****   {
 9155              		.loc 1 1274 11 is_stmt 0 view .LVU3141
 9156 0098 9902     		lsls	r1, r3, #10
 9157 009a 3ED4     		bmi	.L822
1278:Drivers/STM32F4xx_HAL_Driver/Src/stm32f4xx_ll_sdmmc.c ****   {
 9158              		.loc 1 1278 8 is_stmt 1 view .LVU3142
1278:Drivers/STM32F4xx_HAL_Driver/Src/stm32f4xx_ll_sdmmc.c ****   {
 9159              		.loc 1 1278 11 is_stmt 0 view .LVU3143
 9160 009c DA02     		lsls	r2, r3, #11
 9161 009e 39D4     		bmi	.L823
1282:Drivers/STM32F4xx_HAL_Driver/Src/stm32f4xx_ll_sdmmc.c ****   {
 9162              		.loc 1 1282 8 is_stmt 1 view .LVU3144
1282:Drivers/STM32F4xx_HAL_Driver/Src/stm32f4xx_ll_sdmmc.c ****   {
 9163              		.loc 1 1282 11 is_stmt 0 view .LVU3145
 9164 00a0 5903     		lsls	r1, r3, #13
 9165 00a2 34D4     		bmi	.L824
1286:Drivers/STM32F4xx_HAL_Driver/Src/stm32f4xx_ll_sdmmc.c ****   {
 9166              		.loc 1 1286 8 is_stmt 1 view .LVU3146
1286:Drivers/STM32F4xx_HAL_Driver/Src/stm32f4xx_ll_sdmmc.c ****   {
 9167              		.loc 1 1286 11 is_stmt 0 view .LVU3147
 9168 00a4 9A03     		lsls	r2, r3, #14
 9169 00a6 2FD4     		bmi	.L825
1290:Drivers/STM32F4xx_HAL_Driver/Src/stm32f4xx_ll_sdmmc.c ****   {
 9170              		.loc 1 1290 8 is_stmt 1 view .LVU3148
1290:Drivers/STM32F4xx_HAL_Driver/Src/stm32f4xx_ll_sdmmc.c ****   {
 9171              		.loc 1 1290 11 is_stmt 0 view .LVU3149
 9172 00a8 D903     		lsls	r1, r3, #15
 9173 00aa 3FD4     		bmi	.L826
1294:Drivers/STM32F4xx_HAL_Driver/Src/stm32f4xx_ll_sdmmc.c ****   {
 9174              		.loc 1 1294 8 is_stmt 1 view .LVU3150
1294:Drivers/STM32F4xx_HAL_Driver/Src/stm32f4xx_ll_sdmmc.c ****   {
 9175              		.loc 1 1294 11 is_stmt 0 view .LVU3151
 9176 00ac 1A04     		lsls	r2, r3, #16
 9177 00ae 3AD4     		bmi	.L827
1298:Drivers/STM32F4xx_HAL_Driver/Src/stm32f4xx_ll_sdmmc.c ****   {
 9178              		.loc 1 1298 8 is_stmt 1 view .LVU3152
1298:Drivers/STM32F4xx_HAL_Driver/Src/stm32f4xx_ll_sdmmc.c ****   {
 9179              		.loc 1 1298 11 is_stmt 0 view .LVU3153
 9180 00b0 5904     		lsls	r1, r3, #17
 9181 00b2 35D4     		bmi	.L828
1302:Drivers/STM32F4xx_HAL_Driver/Src/stm32f4xx_ll_sdmmc.c ****   {
 9182              		.loc 1 1302 8 is_stmt 1 view .LVU3154
1302:Drivers/STM32F4xx_HAL_Driver/Src/stm32f4xx_ll_sdmmc.c ****   {
 9183              		.loc 1 1302 11 is_stmt 0 view .LVU3155
 9184 00b4 9A04     		lsls	r2, r3, #18
 9185 00b6 07D4     		bmi	.L829
1306:Drivers/STM32F4xx_HAL_Driver/Src/stm32f4xx_ll_sdmmc.c ****   {
 9186              		.loc 1 1306 8 is_stmt 1 view .LVU3156
ARM GAS  C:\Users\pw705\AppData\Local\Temp\cceieKfF.s 			page 240


1308:Drivers/STM32F4xx_HAL_Driver/Src/stm32f4xx_ll_sdmmc.c ****   }
 9187              		.loc 1 1308 12 is_stmt 0 view .LVU3157
 9188 00b8 13F0080F 		tst	r3, #8
 9189 00bc 0CBF     		ite	eq
 9190 00be 4FF48030 		moveq	r0, #65536
 9191 00c2 4FF40000 		movne	r0, #8388608
 9192 00c6 7047     		bx	lr
 9193              	.L829:
1304:Drivers/STM32F4xx_HAL_Driver/Src/stm32f4xx_ll_sdmmc.c ****   }
 9194              		.loc 1 1304 12 view .LVU3158
 9195 00c8 4FF48000 		mov	r0, #4194304
 9196              	.L803:
1304:Drivers/STM32F4xx_HAL_Driver/Src/stm32f4xx_ll_sdmmc.c ****   }
 9197              		.loc 1 1304 12 view .LVU3159
 9198              	.LBE1090:
 9199              	.LBE1089:
 9200              	.LBE1099:
 9201              	.LBE1110:
1085:Drivers/STM32F4xx_HAL_Driver/Src/stm32f4xx_ll_sdmmc.c **** 
 9202              		.loc 1 1085 1 view .LVU3160
 9203 00cc 7047     		bx	lr
 9204              	.LVL539:
 9205              	.L839:
 9206              	.LBB1111:
 9207              	.LBB1100:
1207:Drivers/STM32F4xx_HAL_Driver/Src/stm32f4xx_ll_sdmmc.c **** 
 9208              		.loc 1 1207 5 is_stmt 1 view .LVU3161
 9209 00ce 0423     		movs	r3, #4
 9210 00d0 8363     		str	r3, [r0, #56]
1209:Drivers/STM32F4xx_HAL_Driver/Src/stm32f4xx_ll_sdmmc.c ****   }
 9211              		.loc 1 1209 5 view .LVU3162
1209:Drivers/STM32F4xx_HAL_Driver/Src/stm32f4xx_ll_sdmmc.c ****   }
 9212              		.loc 1 1209 12 is_stmt 0 view .LVU3163
 9213 00d2 1846     		mov	r0, r3
 9214              	.LVL540:
1209:Drivers/STM32F4xx_HAL_Driver/Src/stm32f4xx_ll_sdmmc.c ****   }
 9215              		.loc 1 1209 12 view .LVU3164
 9216 00d4 7047     		bx	lr
 9217              	.LVL541:
 9218              	.L813:
 9219              	.LBB1094:
 9220              	.LBB1093:
1240:Drivers/STM32F4xx_HAL_Driver/Src/stm32f4xx_ll_sdmmc.c ****   }
 9221              		.loc 1 1240 12 view .LVU3165
 9222 00d6 4FF00070 		mov	r0, #33554432
 9223 00da 7047     		bx	lr
 9224              	.L814:
1244:Drivers/STM32F4xx_HAL_Driver/Src/stm32f4xx_ll_sdmmc.c ****   }
 9225              		.loc 1 1244 12 view .LVU3166
 9226 00dc 4020     		movs	r0, #64
 9227 00de 7047     		bx	lr
 9228              	.L815:
1248:Drivers/STM32F4xx_HAL_Driver/Src/stm32f4xx_ll_sdmmc.c ****   }
 9229              		.loc 1 1248 12 view .LVU3167
 9230 00e0 8020     		movs	r0, #128
 9231 00e2 7047     		bx	lr
 9232              	.L816:
ARM GAS  C:\Users\pw705\AppData\Local\Temp\cceieKfF.s 			page 241


1252:Drivers/STM32F4xx_HAL_Driver/Src/stm32f4xx_ll_sdmmc.c ****   }
 9233              		.loc 1 1252 12 view .LVU3168
 9234 00e4 4FF48070 		mov	r0, #256
 9235 00e8 7047     		bx	lr
 9236              	.L817:
1256:Drivers/STM32F4xx_HAL_Driver/Src/stm32f4xx_ll_sdmmc.c ****   }
 9237              		.loc 1 1256 12 view .LVU3169
 9238 00ea 4FF40070 		mov	r0, #512
 9239 00ee 7047     		bx	lr
 9240              	.L818:
1260:Drivers/STM32F4xx_HAL_Driver/Src/stm32f4xx_ll_sdmmc.c ****   }
 9241              		.loc 1 1260 12 view .LVU3170
 9242 00f0 4FF48060 		mov	r0, #1024
 9243 00f4 7047     		bx	lr
 9244              	.L819:
1264:Drivers/STM32F4xx_HAL_Driver/Src/stm32f4xx_ll_sdmmc.c ****   }
 9245              		.loc 1 1264 12 view .LVU3171
 9246 00f6 4FF40060 		mov	r0, #2048
 9247 00fa 7047     		bx	lr
 9248              	.L820:
1268:Drivers/STM32F4xx_HAL_Driver/Src/stm32f4xx_ll_sdmmc.c ****   }
 9249              		.loc 1 1268 12 view .LVU3172
 9250 00fc 4FF48050 		mov	r0, #4096
 9251 0100 7047     		bx	lr
 9252              	.L821:
1272:Drivers/STM32F4xx_HAL_Driver/Src/stm32f4xx_ll_sdmmc.c ****   }
 9253              		.loc 1 1272 12 view .LVU3173
 9254 0102 4FF40050 		mov	r0, #8192
 9255 0106 7047     		bx	lr
 9256              	.L825:
1288:Drivers/STM32F4xx_HAL_Driver/Src/stm32f4xx_ll_sdmmc.c ****   }
 9257              		.loc 1 1288 12 view .LVU3174
 9258 0108 4FF48020 		mov	r0, #262144
 9259 010c 7047     		bx	lr
 9260              	.L824:
1284:Drivers/STM32F4xx_HAL_Driver/Src/stm32f4xx_ll_sdmmc.c ****   }
 9261              		.loc 1 1284 12 view .LVU3175
 9262 010e 4FF40030 		mov	r0, #131072
 9263 0112 7047     		bx	lr
 9264              	.L823:
1280:Drivers/STM32F4xx_HAL_Driver/Src/stm32f4xx_ll_sdmmc.c ****   }
 9265              		.loc 1 1280 12 view .LVU3176
 9266 0114 4FF40040 		mov	r0, #32768
 9267 0118 7047     		bx	lr
 9268              	.L822:
1276:Drivers/STM32F4xx_HAL_Driver/Src/stm32f4xx_ll_sdmmc.c ****   }
 9269              		.loc 1 1276 12 view .LVU3177
 9270 011a 4FF48040 		mov	r0, #16384
 9271 011e 7047     		bx	lr
 9272              	.L828:
1300:Drivers/STM32F4xx_HAL_Driver/Src/stm32f4xx_ll_sdmmc.c ****   }
 9273              		.loc 1 1300 12 view .LVU3178
 9274 0120 4FF40010 		mov	r0, #2097152
 9275 0124 7047     		bx	lr
 9276              	.L827:
1296:Drivers/STM32F4xx_HAL_Driver/Src/stm32f4xx_ll_sdmmc.c ****   }
 9277              		.loc 1 1296 12 view .LVU3179
ARM GAS  C:\Users\pw705\AppData\Local\Temp\cceieKfF.s 			page 242


 9278 0126 4FF48010 		mov	r0, #1048576
 9279 012a 7047     		bx	lr
 9280              	.L826:
1292:Drivers/STM32F4xx_HAL_Driver/Src/stm32f4xx_ll_sdmmc.c ****   }
 9281              		.loc 1 1292 12 view .LVU3180
 9282 012c 4FF40020 		mov	r0, #524288
 9283 0130 7047     		bx	lr
 9284              	.L842:
 9285 0132 00BF     		.align	2
 9286              	.L841:
 9287 0134 00000000 		.word	SystemCoreClock
 9288 0138 D34D6210 		.word	274877907
 9289 013c 08E0FFFD 		.word	-33562616
 9290              	.LBE1093:
 9291              	.LBE1094:
 9292              	.LBE1100:
 9293              	.LBE1111:
 9294              		.cfi_endproc
 9295              	.LFE166:
 9297              		.section	.text.SDMMC_CmdOpCondition,"ax",%progbits
 9298              		.align	1
 9299              		.p2align 2,,3
 9300              		.global	SDMMC_CmdOpCondition
 9301              		.syntax unified
 9302              		.thumb
 9303              		.thumb_func
 9305              	SDMMC_CmdOpCondition:
 9306              	.LVL542:
 9307              	.LFB167:
1095:Drivers/STM32F4xx_HAL_Driver/Src/stm32f4xx_ll_sdmmc.c ****   SDIO_CmdInitTypeDef sdmmc_cmdinit;
 9308              		.loc 1 1095 1 is_stmt 1 view -0
 9309              		.cfi_startproc
 9310              		@ args = 0, pretend = 0, frame = 0
 9311              		@ frame_needed = 0, uses_anonymous_args = 0
 9312              		@ link register save eliminated.
1096:Drivers/STM32F4xx_HAL_Driver/Src/stm32f4xx_ll_sdmmc.c ****   uint32_t errorstate;
 9313              		.loc 1 1096 3 view .LVU3182
1097:Drivers/STM32F4xx_HAL_Driver/Src/stm32f4xx_ll_sdmmc.c **** 
 9314              		.loc 1 1097 3 view .LVU3183
1099:Drivers/STM32F4xx_HAL_Driver/Src/stm32f4xx_ll_sdmmc.c ****   sdmmc_cmdinit.CmdIndex = SDMMC_CMD_SEND_OP_COND;
 9315              		.loc 1 1099 3 view .LVU3184
 9316              	.LBB1118:
 9317              	.LBB1119:
 356:Drivers/STM32F4xx_HAL_Driver/Src/stm32f4xx_ll_sdmmc.c **** 
 9318              		.loc 1 356 14 is_stmt 0 view .LVU3185
 9319 0000 8160     		str	r1, [r0, #8]
 9320              	.LBE1119:
 9321              	.LBE1118:
 9322              	.LBB1126:
 9323              	.LBB1127:
1370:Drivers/STM32F4xx_HAL_Driver/Src/stm32f4xx_ll_sdmmc.c **** 
 9324              		.loc 1 1370 60 view .LVU3186
 9325 0002 184A     		ldr	r2, .L855
 9326              	.LBE1127:
 9327              	.LBE1126:
 9328              	.LBB1136:
 9329              	.LBB1120:
ARM GAS  C:\Users\pw705\AppData\Local\Temp\cceieKfF.s 			page 243


 365:Drivers/STM32F4xx_HAL_Driver/Src/stm32f4xx_ll_sdmmc.c **** 
 9330              		.loc 1 365 3 view .LVU3187
 9331 0004 C368     		ldr	r3, [r0, #12]
 9332              	.LBE1120:
 9333              	.LBE1136:
 9334              	.LBB1137:
 9335              	.LBB1130:
1370:Drivers/STM32F4xx_HAL_Driver/Src/stm32f4xx_ll_sdmmc.c **** 
 9336              		.loc 1 1370 60 view .LVU3188
 9337 0006 1849     		ldr	r1, .L855+4
 9338              	.LVL543:
1370:Drivers/STM32F4xx_HAL_Driver/Src/stm32f4xx_ll_sdmmc.c **** 
 9339              		.loc 1 1370 60 view .LVU3189
 9340 0008 1268     		ldr	r2, [r2]
 9341              	.LBE1130:
 9342              	.LBE1137:
 9343              	.LBB1138:
 9344              	.LBB1121:
 365:Drivers/STM32F4xx_HAL_Driver/Src/stm32f4xx_ll_sdmmc.c **** 
 9345              		.loc 1 365 3 view .LVU3190
 9346 000a 23F47F63 		bic	r3, r3, #4080
 9347              	.LBE1121:
 9348              	.LBE1138:
 9349              	.LBB1139:
 9350              	.LBB1131:
1370:Drivers/STM32F4xx_HAL_Driver/Src/stm32f4xx_ll_sdmmc.c **** 
 9351              		.loc 1 1370 60 view .LVU3191
 9352 000e A1FB0212 		umull	r1, r2, r1, r2
 9353              	.LBE1131:
 9354              	.LBE1139:
 9355              	.LBB1140:
 9356              	.LBB1122:
 365:Drivers/STM32F4xx_HAL_Driver/Src/stm32f4xx_ll_sdmmc.c **** 
 9357              		.loc 1 365 3 view .LVU3192
 9358 0012 23F00F03 		bic	r3, r3, #15
 9359 0016 43F48863 		orr	r3, r3, #1088
 9360              	.LBE1122:
 9361              	.LBE1140:
 9362              	.LBB1141:
 9363              	.LBB1132:
1370:Drivers/STM32F4xx_HAL_Driver/Src/stm32f4xx_ll_sdmmc.c **** 
 9364              		.loc 1 1370 60 view .LVU3193
 9365 001a 520A     		lsrs	r2, r2, #9
1370:Drivers/STM32F4xx_HAL_Driver/Src/stm32f4xx_ll_sdmmc.c **** 
 9366              		.loc 1 1370 12 view .LVU3194
 9367 001c 41F28831 		movw	r1, #5000
 9368              	.LBE1132:
 9369              	.LBE1141:
 9370              	.LBB1142:
 9371              	.LBB1123:
 365:Drivers/STM32F4xx_HAL_Driver/Src/stm32f4xx_ll_sdmmc.c **** 
 9372              		.loc 1 365 3 view .LVU3195
 9373 0020 43F00103 		orr	r3, r3, #1
 9374              	.LBE1123:
 9375              	.LBE1142:
 9376              	.LBB1143:
 9377              	.LBB1133:
ARM GAS  C:\Users\pw705\AppData\Local\Temp\cceieKfF.s 			page 244


1370:Drivers/STM32F4xx_HAL_Driver/Src/stm32f4xx_ll_sdmmc.c **** 
 9378              		.loc 1 1370 12 view .LVU3196
 9379 0024 01FB02F2 		mul	r2, r1, r2
 9380              	.LBE1133:
 9381              	.LBE1143:
 9382              	.LBB1144:
 9383              	.LBB1124:
 365:Drivers/STM32F4xx_HAL_Driver/Src/stm32f4xx_ll_sdmmc.c **** 
 9384              		.loc 1 365 3 view .LVU3197
 9385 0028 C360     		str	r3, [r0, #12]
 9386              	.LVL544:
 365:Drivers/STM32F4xx_HAL_Driver/Src/stm32f4xx_ll_sdmmc.c **** 
 9387              		.loc 1 365 3 view .LVU3198
 9388              	.LBE1124:
 9389              	.LBE1144:
1095:Drivers/STM32F4xx_HAL_Driver/Src/stm32f4xx_ll_sdmmc.c ****   SDIO_CmdInitTypeDef sdmmc_cmdinit;
 9390              		.loc 1 1095 1 view .LVU3199
 9391 002a 8446     		mov	ip, r0
1100:Drivers/STM32F4xx_HAL_Driver/Src/stm32f4xx_ll_sdmmc.c ****   sdmmc_cmdinit.Response = SDIO_RESPONSE_SHORT;
 9392              		.loc 1 1100 3 is_stmt 1 view .LVU3200
 9393              	.LVL545:
1101:Drivers/STM32F4xx_HAL_Driver/Src/stm32f4xx_ll_sdmmc.c ****   sdmmc_cmdinit.WaitForInterrupt = SDIO_WAIT_NO;
 9394              		.loc 1 1101 3 view .LVU3201
1102:Drivers/STM32F4xx_HAL_Driver/Src/stm32f4xx_ll_sdmmc.c ****   sdmmc_cmdinit.CPSM = SDIO_CPSM_ENABLE;
 9395              		.loc 1 1102 3 view .LVU3202
1103:Drivers/STM32F4xx_HAL_Driver/Src/stm32f4xx_ll_sdmmc.c ****   (void)SDIO_SendCommand(SDIOx, &sdmmc_cmdinit);
 9396              		.loc 1 1103 3 view .LVU3203
1104:Drivers/STM32F4xx_HAL_Driver/Src/stm32f4xx_ll_sdmmc.c **** 
 9397              		.loc 1 1104 3 view .LVU3204
 9398              	.LBB1145:
 9399              	.LBI1118:
 345:Drivers/STM32F4xx_HAL_Driver/Src/stm32f4xx_ll_sdmmc.c **** {
 9400              		.loc 1 345 19 view .LVU3205
 9401              	.LBB1125:
 347:Drivers/STM32F4xx_HAL_Driver/Src/stm32f4xx_ll_sdmmc.c **** 
 9402              		.loc 1 347 3 view .LVU3206
 350:Drivers/STM32F4xx_HAL_Driver/Src/stm32f4xx_ll_sdmmc.c ****   assert_param(IS_SDIO_RESPONSE(Command->Response));
 9403              		.loc 1 350 3 view .LVU3207
 351:Drivers/STM32F4xx_HAL_Driver/Src/stm32f4xx_ll_sdmmc.c ****   assert_param(IS_SDIO_WAIT(Command->WaitForInterrupt));
 9404              		.loc 1 351 3 view .LVU3208
 352:Drivers/STM32F4xx_HAL_Driver/Src/stm32f4xx_ll_sdmmc.c ****   assert_param(IS_SDIO_CPSM(Command->CPSM));
 9405              		.loc 1 352 3 view .LVU3209
 353:Drivers/STM32F4xx_HAL_Driver/Src/stm32f4xx_ll_sdmmc.c **** 
 9406              		.loc 1 353 3 view .LVU3210
 356:Drivers/STM32F4xx_HAL_Driver/Src/stm32f4xx_ll_sdmmc.c **** 
 9407              		.loc 1 356 3 view .LVU3211
 359:Drivers/STM32F4xx_HAL_Driver/Src/stm32f4xx_ll_sdmmc.c ****                        Command->Response |
 9408              		.loc 1 359 3 view .LVU3212
 365:Drivers/STM32F4xx_HAL_Driver/Src/stm32f4xx_ll_sdmmc.c **** 
 9409              		.loc 1 365 3 view .LVU3213
 367:Drivers/STM32F4xx_HAL_Driver/Src/stm32f4xx_ll_sdmmc.c **** }
 9410              		.loc 1 367 3 view .LVU3214
 367:Drivers/STM32F4xx_HAL_Driver/Src/stm32f4xx_ll_sdmmc.c **** }
 9411              		.loc 1 367 3 is_stmt 0 view .LVU3215
 9412              	.LBE1125:
 9413              	.LBE1145:
1107:Drivers/STM32F4xx_HAL_Driver/Src/stm32f4xx_ll_sdmmc.c **** 
ARM GAS  C:\Users\pw705\AppData\Local\Temp\cceieKfF.s 			page 245


 9414              		.loc 1 1107 3 is_stmt 1 view .LVU3216
 9415              	.LBB1146:
 9416              	.LBI1126:
1365:Drivers/STM32F4xx_HAL_Driver/Src/stm32f4xx_ll_sdmmc.c **** {
 9417              		.loc 1 1365 10 view .LVU3217
 9418              	.LBB1134:
1367:Drivers/STM32F4xx_HAL_Driver/Src/stm32f4xx_ll_sdmmc.c ****   /* 8 is the number of required instructions cycles for the below loop statement.
 9419              		.loc 1 1367 3 view .LVU3218
1370:Drivers/STM32F4xx_HAL_Driver/Src/stm32f4xx_ll_sdmmc.c **** 
 9420              		.loc 1 1370 3 view .LVU3219
1372:Drivers/STM32F4xx_HAL_Driver/Src/stm32f4xx_ll_sdmmc.c ****   {
 9421              		.loc 1 1372 3 view .LVU3220
1374:Drivers/STM32F4xx_HAL_Driver/Src/stm32f4xx_ll_sdmmc.c ****     {
 9422              		.loc 1 1374 5 view .LVU3221
1374:Drivers/STM32F4xx_HAL_Driver/Src/stm32f4xx_ll_sdmmc.c ****     {
 9423              		.loc 1 1374 14 is_stmt 0 view .LVU3222
 9424 002c 531E     		subs	r3, r2, #1
 9425              	.LVL546:
1374:Drivers/STM32F4xx_HAL_Driver/Src/stm32f4xx_ll_sdmmc.c ****     {
 9426              		.loc 1 1374 8 view .LVU3223
 9427 002e 52B1     		cbz	r2, .L849
 9428              	.L845:
1372:Drivers/STM32F4xx_HAL_Driver/Src/stm32f4xx_ll_sdmmc.c ****   {
 9429              		.loc 1 1372 3 is_stmt 1 view .LVU3224
1374:Drivers/STM32F4xx_HAL_Driver/Src/stm32f4xx_ll_sdmmc.c ****     {
 9430              		.loc 1 1374 5 view .LVU3225
1378:Drivers/STM32F4xx_HAL_Driver/Src/stm32f4xx_ll_sdmmc.c ****   } while (((sta_reg & (SDIO_FLAG_CCRCFAIL | SDIO_FLAG_CMDREND | SDIO_FLAG_CTIMEOUT)) == 0U) ||
 9431              		.loc 1 1378 5 view .LVU3226
1378:Drivers/STM32F4xx_HAL_Driver/Src/stm32f4xx_ll_sdmmc.c ****   } while (((sta_reg & (SDIO_FLAG_CCRCFAIL | SDIO_FLAG_CMDREND | SDIO_FLAG_CTIMEOUT)) == 0U) ||
 9432              		.loc 1 1378 13 is_stmt 0 view .LVU3227
 9433 0030 DCF83420 		ldr	r2, [ip, #52]
 9434              	.LVL547:
1379:Drivers/STM32F4xx_HAL_Driver/Src/stm32f4xx_ll_sdmmc.c ****            ((sta_reg & SDIO_FLAG_CMDACT) != 0U));
 9435              		.loc 1 1379 94 is_stmt 1 view .LVU3228
 9436 0034 12F0450F 		tst	r2, #69
1374:Drivers/STM32F4xx_HAL_Driver/Src/stm32f4xx_ll_sdmmc.c ****     {
 9437              		.loc 1 1374 14 is_stmt 0 view .LVU3229
 9438 0038 03F1FF33 		add	r3, r3, #-1
 9439              	.LVL548:
1379:Drivers/STM32F4xx_HAL_Driver/Src/stm32f4xx_ll_sdmmc.c ****            ((sta_reg & SDIO_FLAG_CMDACT) != 0U));
 9440              		.loc 1 1379 94 view .LVU3230
 9441 003c 01D0     		beq	.L846
 9442 003e 1205     		lsls	r2, r2, #20
 9443              	.LVL549:
1379:Drivers/STM32F4xx_HAL_Driver/Src/stm32f4xx_ll_sdmmc.c ****            ((sta_reg & SDIO_FLAG_CMDACT) != 0U));
 9444              		.loc 1 1379 94 view .LVU3231
 9445 0040 04D5     		bpl	.L854
 9446              	.L846:
1374:Drivers/STM32F4xx_HAL_Driver/Src/stm32f4xx_ll_sdmmc.c ****     {
 9447              		.loc 1 1374 8 view .LVU3232
 9448 0042 591C     		adds	r1, r3, #1
 9449 0044 F4D1     		bne	.L845
 9450              	.LVL550:
 9451              	.L849:
1376:Drivers/STM32F4xx_HAL_Driver/Src/stm32f4xx_ll_sdmmc.c ****     }
 9452              		.loc 1 1376 14 view .LVU3233
 9453 0046 4FF00040 		mov	r0, #-2147483648
ARM GAS  C:\Users\pw705\AppData\Local\Temp\cceieKfF.s 			page 246


 9454              	.LVL551:
1376:Drivers/STM32F4xx_HAL_Driver/Src/stm32f4xx_ll_sdmmc.c ****     }
 9455              		.loc 1 1376 14 view .LVU3234
 9456              	.LBE1134:
 9457              	.LBE1146:
1109:Drivers/STM32F4xx_HAL_Driver/Src/stm32f4xx_ll_sdmmc.c **** }
 9458              		.loc 1 1109 3 is_stmt 1 view .LVU3235
1110:Drivers/STM32F4xx_HAL_Driver/Src/stm32f4xx_ll_sdmmc.c **** 
 9459              		.loc 1 1110 1 is_stmt 0 view .LVU3236
 9460 004a 7047     		bx	lr
 9461              	.LVL552:
 9462              	.L854:
 9463              	.LBB1147:
 9464              	.LBB1135:
 9465              	.LBB1128:
 9466              	.LBI1128:
1365:Drivers/STM32F4xx_HAL_Driver/Src/stm32f4xx_ll_sdmmc.c **** {
 9467              		.loc 1 1365 10 is_stmt 1 view .LVU3237
 9468              	.LBB1129:
1382:Drivers/STM32F4xx_HAL_Driver/Src/stm32f4xx_ll_sdmmc.c ****   {
 9469              		.loc 1 1382 3 view .LVU3238
1382:Drivers/STM32F4xx_HAL_Driver/Src/stm32f4xx_ll_sdmmc.c ****   {
 9470              		.loc 1 1382 7 is_stmt 0 view .LVU3239
 9471 004c DCF83400 		ldr	r0, [ip, #52]
 9472              	.LVL553:
1382:Drivers/STM32F4xx_HAL_Driver/Src/stm32f4xx_ll_sdmmc.c ****   {
 9473              		.loc 1 1382 6 view .LVU3240
 9474 0050 10F00400 		ands	r0, r0, #4
1384:Drivers/STM32F4xx_HAL_Driver/Src/stm32f4xx_ll_sdmmc.c **** 
 9475              		.loc 1 1384 5 is_stmt 1 view .LVU3241
 9476 0054 15BF     		itete	ne
 9477 0056 0420     		movne	r0, #4
1391:Drivers/STM32F4xx_HAL_Driver/Src/stm32f4xx_ll_sdmmc.c ****   }
 9478              		.loc 1 1391 5 is_stmt 0 view .LVU3242
 9479 0058 C523     		moveq	r3, #197
 9480              	.LVL554:
1384:Drivers/STM32F4xx_HAL_Driver/Src/stm32f4xx_ll_sdmmc.c **** 
 9481              		.loc 1 1384 5 view .LVU3243
 9482 005a CCF83800 		strne	r0, [ip, #56]
1386:Drivers/STM32F4xx_HAL_Driver/Src/stm32f4xx_ll_sdmmc.c ****   }
 9483              		.loc 1 1386 5 is_stmt 1 view .LVU3244
1391:Drivers/STM32F4xx_HAL_Driver/Src/stm32f4xx_ll_sdmmc.c ****   }
 9484              		.loc 1 1391 5 is_stmt 0 view .LVU3245
 9485 005e CCF83830 		streq	r3, [ip, #56]
1391:Drivers/STM32F4xx_HAL_Driver/Src/stm32f4xx_ll_sdmmc.c ****   }
 9486              		.loc 1 1391 5 is_stmt 1 view .LVU3246
1394:Drivers/STM32F4xx_HAL_Driver/Src/stm32f4xx_ll_sdmmc.c **** }
 9487              		.loc 1 1394 3 view .LVU3247
1394:Drivers/STM32F4xx_HAL_Driver/Src/stm32f4xx_ll_sdmmc.c **** }
 9488              		.loc 1 1394 10 is_stmt 0 view .LVU3248
 9489 0062 7047     		bx	lr
 9490              	.L856:
 9491              		.align	2
 9492              	.L855:
 9493 0064 00000000 		.word	SystemCoreClock
 9494 0068 D34D6210 		.word	274877907
 9495              	.LBE1129:
ARM GAS  C:\Users\pw705\AppData\Local\Temp\cceieKfF.s 			page 247


 9496              	.LBE1128:
 9497              	.LBE1135:
 9498              	.LBE1147:
 9499              		.cfi_endproc
 9500              	.LFE167:
 9502              		.section	.text.SDMMC_CmdSwitch,"ax",%progbits
 9503              		.align	1
 9504              		.p2align 2,,3
 9505              		.global	SDMMC_CmdSwitch
 9506              		.syntax unified
 9507              		.thumb
 9508              		.thumb_func
 9510              	SDMMC_CmdSwitch:
 9511              	.LFB184:
 9512              		.cfi_startproc
1118:Drivers/STM32F4xx_HAL_Driver/Src/stm32f4xx_ll_sdmmc.c **** {
 9513              		.loc 1 1118 10 is_stmt 1 view -0
 9514              		@ args = 0, pretend = 0, frame = 0
 9515              		@ frame_needed = 0, uses_anonymous_args = 0
 9516              		@ link register save eliminated.
 9517 0000 8160     		str	r1, [r0, #8]
 9518 0002 4B4A     		ldr	r2, .L895
 9519 0004 C368     		ldr	r3, [r0, #12]
 9520 0006 4B49     		ldr	r1, .L895+4
 9521 0008 1268     		ldr	r2, [r2]
 9522 000a 23F47F63 		bic	r3, r3, #4080
 9523 000e A1FB0212 		umull	r1, r2, r1, r2
 9524 0012 23F00F03 		bic	r3, r3, #15
 9525 0016 43F48863 		orr	r3, r3, #1088
 9526 001a 520A     		lsrs	r2, r2, #9
 9527 001c 41F28831 		movw	r1, #5000
 9528 0020 43F00603 		orr	r3, r3, #6
 9529 0024 01FB02F2 		mul	r2, r1, r2
 9530 0028 C360     		str	r3, [r0, #12]
 9531 002a 531E     		subs	r3, r2, #1
 9532 002c 4AB1     		cbz	r2, .L866
 9533              	.L859:
 9534 002e 426B     		ldr	r2, [r0, #52]
 9535 0030 12F0450F 		tst	r2, #69
 9536 0034 03F1FF33 		add	r3, r3, #-1
 9537 0038 01D0     		beq	.L860
 9538 003a 1105     		lsls	r1, r2, #20
 9539 003c 04D5     		bpl	.L892
 9540              	.L860:
 9541 003e 5A1C     		adds	r2, r3, #1
 9542 0040 F5D1     		bne	.L859
 9543              	.L866:
 9544 0042 4FF00040 		mov	r0, #-2147483648
 9545 0046 7047     		bx	lr
 9546              	.L892:
 9547 0048 436B     		ldr	r3, [r0, #52]
 9548 004a 5A07     		lsls	r2, r3, #29
 9549 004c 3ED4     		bmi	.L893
 9550 004e 436B     		ldr	r3, [r0, #52]
 9551 0050 DB07     		lsls	r3, r3, #31
 9552 0052 07D4     		bmi	.L894
 9553 0054 C523     		movs	r3, #197
ARM GAS  C:\Users\pw705\AppData\Local\Temp\cceieKfF.s 			page 248


 9554 0056 8363     		str	r3, [r0, #56]
 9555 0058 0369     		ldr	r3, [r0, #16]
 9556 005a DBB2     		uxtb	r3, r3
 9557 005c 062B     		cmp	r3, #6
 9558 005e 04D0     		beq	.L864
 9559              	.L863:
 9560 0060 0120     		movs	r0, #1
 9561 0062 7047     		bx	lr
 9562              	.L894:
 9563 0064 0123     		movs	r3, #1
 9564 0066 8363     		str	r3, [r0, #56]
 9565 0068 FAE7     		b	.L863
 9566              	.L864:
 9567 006a 4369     		ldr	r3, [r0, #20]
 9568 006c 3248     		ldr	r0, .L895+8
 9569 006e 1840     		ands	r0, r0, r3
 9570 0070 58B3     		cbz	r0, .L857
 9571 0072 002B     		cmp	r3, #0
 9572 0074 2EDB     		blt	.L867
 9573 0076 5900     		lsls	r1, r3, #1
 9574 0078 2FD4     		bmi	.L868
 9575 007a 9A00     		lsls	r2, r3, #2
 9576 007c 2FD4     		bmi	.L869
 9577 007e D900     		lsls	r1, r3, #3
 9578 0080 2FD4     		bmi	.L870
 9579 0082 1A01     		lsls	r2, r3, #4
 9580 0084 30D4     		bmi	.L871
 9581 0086 5901     		lsls	r1, r3, #5
 9582 0088 31D4     		bmi	.L872
 9583 008a DA01     		lsls	r2, r3, #7
 9584 008c 32D4     		bmi	.L873
 9585 008e 1902     		lsls	r1, r3, #8
 9586 0090 33D4     		bmi	.L874
 9587 0092 5A02     		lsls	r2, r3, #9
 9588 0094 34D4     		bmi	.L875
 9589 0096 9902     		lsls	r1, r3, #10
 9590 0098 3ED4     		bmi	.L876
 9591 009a DA02     		lsls	r2, r3, #11
 9592 009c 39D4     		bmi	.L877
 9593 009e 5903     		lsls	r1, r3, #13
 9594 00a0 34D4     		bmi	.L878
 9595 00a2 9A03     		lsls	r2, r3, #14
 9596 00a4 2FD4     		bmi	.L879
 9597 00a6 D903     		lsls	r1, r3, #15
 9598 00a8 3FD4     		bmi	.L880
 9599 00aa 1A04     		lsls	r2, r3, #16
 9600 00ac 3AD4     		bmi	.L881
 9601 00ae 5904     		lsls	r1, r3, #17
 9602 00b0 35D4     		bmi	.L882
 9603 00b2 9A04     		lsls	r2, r3, #18
 9604 00b4 07D4     		bmi	.L883
 9605 00b6 13F0080F 		tst	r3, #8
 9606 00ba 0CBF     		ite	eq
 9607 00bc 4FF48030 		moveq	r0, #65536
 9608 00c0 4FF40000 		movne	r0, #8388608
 9609 00c4 7047     		bx	lr
 9610              	.L883:
ARM GAS  C:\Users\pw705\AppData\Local\Temp\cceieKfF.s 			page 249


 9611 00c6 4FF48000 		mov	r0, #4194304
 9612              	.L857:
 9613 00ca 7047     		bx	lr
 9614              	.L893:
 9615 00cc 0423     		movs	r3, #4
 9616 00ce 8363     		str	r3, [r0, #56]
 9617 00d0 1846     		mov	r0, r3
 9618 00d2 7047     		bx	lr
 9619              	.L867:
 9620 00d4 4FF00070 		mov	r0, #33554432
 9621 00d8 7047     		bx	lr
 9622              	.L868:
 9623 00da 4020     		movs	r0, #64
 9624 00dc 7047     		bx	lr
 9625              	.L869:
 9626 00de 8020     		movs	r0, #128
 9627 00e0 7047     		bx	lr
 9628              	.L870:
 9629 00e2 4FF48070 		mov	r0, #256
 9630 00e6 7047     		bx	lr
 9631              	.L871:
 9632 00e8 4FF40070 		mov	r0, #512
 9633 00ec 7047     		bx	lr
 9634              	.L872:
 9635 00ee 4FF48060 		mov	r0, #1024
 9636 00f2 7047     		bx	lr
 9637              	.L873:
 9638 00f4 4FF40060 		mov	r0, #2048
 9639 00f8 7047     		bx	lr
 9640              	.L874:
 9641 00fa 4FF48050 		mov	r0, #4096
 9642 00fe 7047     		bx	lr
 9643              	.L875:
 9644 0100 4FF40050 		mov	r0, #8192
 9645 0104 7047     		bx	lr
 9646              	.L879:
 9647 0106 4FF48020 		mov	r0, #262144
 9648 010a 7047     		bx	lr
 9649              	.L878:
 9650 010c 4FF40030 		mov	r0, #131072
 9651 0110 7047     		bx	lr
 9652              	.L877:
 9653 0112 4FF40040 		mov	r0, #32768
 9654 0116 7047     		bx	lr
 9655              	.L876:
 9656 0118 4FF48040 		mov	r0, #16384
 9657 011c 7047     		bx	lr
 9658              	.L882:
 9659 011e 4FF40010 		mov	r0, #2097152
 9660 0122 7047     		bx	lr
 9661              	.L881:
 9662 0124 4FF48010 		mov	r0, #1048576
 9663 0128 7047     		bx	lr
 9664              	.L880:
 9665 012a 4FF40020 		mov	r0, #524288
 9666 012e 7047     		bx	lr
 9667              	.L896:
ARM GAS  C:\Users\pw705\AppData\Local\Temp\cceieKfF.s 			page 250


 9668              		.align	2
 9669              	.L895:
 9670 0130 00000000 		.word	SystemCoreClock
 9671 0134 D34D6210 		.word	274877907
 9672 0138 08E0FFFD 		.word	-33562616
 9673              		.cfi_endproc
 9674              	.LFE184:
 9676              		.section	.text.SDMMC_CmdSendEXTCSD,"ax",%progbits
 9677              		.align	1
 9678              		.p2align 2,,3
 9679              		.global	SDMMC_CmdSendEXTCSD
 9680              		.syntax unified
 9681              		.thumb
 9682              		.thumb_func
 9684              	SDMMC_CmdSendEXTCSD:
 9685              	.LVL555:
 9686              	.LFB169:
1145:Drivers/STM32F4xx_HAL_Driver/Src/stm32f4xx_ll_sdmmc.c ****   SDIO_CmdInitTypeDef sdmmc_cmdinit;
 9687              		.loc 1 1145 1 view -0
 9688              		.cfi_startproc
 9689              		@ args = 0, pretend = 0, frame = 0
 9690              		@ frame_needed = 0, uses_anonymous_args = 0
 9691              		@ link register save eliminated.
1146:Drivers/STM32F4xx_HAL_Driver/Src/stm32f4xx_ll_sdmmc.c ****   uint32_t errorstate;
 9692              		.loc 1 1146 3 view .LVU3251
1147:Drivers/STM32F4xx_HAL_Driver/Src/stm32f4xx_ll_sdmmc.c **** 
 9693              		.loc 1 1147 3 view .LVU3252
1150:Drivers/STM32F4xx_HAL_Driver/Src/stm32f4xx_ll_sdmmc.c ****   sdmmc_cmdinit.CmdIndex = SDMMC_CMD_HS_SEND_EXT_CSD;
 9694              		.loc 1 1150 3 view .LVU3253
 9695              	.LBB1160:
 9696              	.LBB1161:
1193:Drivers/STM32F4xx_HAL_Driver/Src/stm32f4xx_ll_sdmmc.c **** 
 9697              		.loc 1 1193 52 is_stmt 0 view .LVU3254
 9698 0000 4A4A     		ldr	r2, .L935
 9699              	.LVL556:
1193:Drivers/STM32F4xx_HAL_Driver/Src/stm32f4xx_ll_sdmmc.c **** 
 9700              		.loc 1 1193 52 view .LVU3255
 9701              	.LBE1161:
 9702              	.LBE1160:
1151:Drivers/STM32F4xx_HAL_Driver/Src/stm32f4xx_ll_sdmmc.c ****   sdmmc_cmdinit.Response = SDIO_RESPONSE_SHORT;
 9703              		.loc 1 1151 3 is_stmt 1 view .LVU3256
1152:Drivers/STM32F4xx_HAL_Driver/Src/stm32f4xx_ll_sdmmc.c ****   sdmmc_cmdinit.WaitForInterrupt = SDIO_WAIT_NO;
 9704              		.loc 1 1152 3 view .LVU3257
1153:Drivers/STM32F4xx_HAL_Driver/Src/stm32f4xx_ll_sdmmc.c ****   sdmmc_cmdinit.CPSM = SDIO_CPSM_ENABLE;
 9705              		.loc 1 1153 3 view .LVU3258
1154:Drivers/STM32F4xx_HAL_Driver/Src/stm32f4xx_ll_sdmmc.c ****   (void)SDIO_SendCommand(SDIOx, &sdmmc_cmdinit);
 9706              		.loc 1 1154 3 view .LVU3259
1155:Drivers/STM32F4xx_HAL_Driver/Src/stm32f4xx_ll_sdmmc.c **** 
 9707              		.loc 1 1155 3 view .LVU3260
 9708              	.LBB1176:
 9709              	.LBI1176:
 345:Drivers/STM32F4xx_HAL_Driver/Src/stm32f4xx_ll_sdmmc.c **** {
 9710              		.loc 1 345 19 view .LVU3261
 9711              	.LBB1177:
 347:Drivers/STM32F4xx_HAL_Driver/Src/stm32f4xx_ll_sdmmc.c **** 
 9712              		.loc 1 347 3 view .LVU3262
 350:Drivers/STM32F4xx_HAL_Driver/Src/stm32f4xx_ll_sdmmc.c ****   assert_param(IS_SDIO_RESPONSE(Command->Response));
ARM GAS  C:\Users\pw705\AppData\Local\Temp\cceieKfF.s 			page 251


 9713              		.loc 1 350 3 view .LVU3263
 351:Drivers/STM32F4xx_HAL_Driver/Src/stm32f4xx_ll_sdmmc.c ****   assert_param(IS_SDIO_WAIT(Command->WaitForInterrupt));
 9714              		.loc 1 351 3 view .LVU3264
 352:Drivers/STM32F4xx_HAL_Driver/Src/stm32f4xx_ll_sdmmc.c ****   assert_param(IS_SDIO_CPSM(Command->CPSM));
 9715              		.loc 1 352 3 view .LVU3265
 353:Drivers/STM32F4xx_HAL_Driver/Src/stm32f4xx_ll_sdmmc.c **** 
 9716              		.loc 1 353 3 view .LVU3266
 356:Drivers/STM32F4xx_HAL_Driver/Src/stm32f4xx_ll_sdmmc.c **** 
 9717              		.loc 1 356 3 view .LVU3267
 356:Drivers/STM32F4xx_HAL_Driver/Src/stm32f4xx_ll_sdmmc.c **** 
 9718              		.loc 1 356 14 is_stmt 0 view .LVU3268
 9719 0002 8160     		str	r1, [r0, #8]
 359:Drivers/STM32F4xx_HAL_Driver/Src/stm32f4xx_ll_sdmmc.c ****                        Command->Response |
 9720              		.loc 1 359 3 is_stmt 1 view .LVU3269
 9721              	.LVL557:
 365:Drivers/STM32F4xx_HAL_Driver/Src/stm32f4xx_ll_sdmmc.c **** 
 9722              		.loc 1 365 3 view .LVU3270
 9723 0004 C368     		ldr	r3, [r0, #12]
 9724              	.LBE1177:
 9725              	.LBE1176:
 9726              	.LBB1182:
 9727              	.LBB1170:
1193:Drivers/STM32F4xx_HAL_Driver/Src/stm32f4xx_ll_sdmmc.c **** 
 9728              		.loc 1 1193 52 is_stmt 0 view .LVU3271
 9729 0006 4A49     		ldr	r1, .L935+4
 9730              	.LVL558:
1193:Drivers/STM32F4xx_HAL_Driver/Src/stm32f4xx_ll_sdmmc.c **** 
 9731              		.loc 1 1193 52 view .LVU3272
 9732 0008 1268     		ldr	r2, [r2]
 9733              	.LBE1170:
 9734              	.LBE1182:
 9735              	.LBB1183:
 9736              	.LBB1178:
 365:Drivers/STM32F4xx_HAL_Driver/Src/stm32f4xx_ll_sdmmc.c **** 
 9737              		.loc 1 365 3 view .LVU3273
 9738 000a 23F47F63 		bic	r3, r3, #4080
 9739              	.LBE1178:
 9740              	.LBE1183:
 9741              	.LBB1184:
 9742              	.LBB1171:
1193:Drivers/STM32F4xx_HAL_Driver/Src/stm32f4xx_ll_sdmmc.c **** 
 9743              		.loc 1 1193 52 view .LVU3274
 9744 000e A1FB0212 		umull	r1, r2, r1, r2
 9745              	.LBE1171:
 9746              	.LBE1184:
 9747              	.LBB1185:
 9748              	.LBB1179:
 365:Drivers/STM32F4xx_HAL_Driver/Src/stm32f4xx_ll_sdmmc.c **** 
 9749              		.loc 1 365 3 view .LVU3275
 9750 0012 23F00F03 		bic	r3, r3, #15
 9751              	.LBE1179:
 9752              	.LBE1185:
 9753              	.LBB1186:
 9754              	.LBB1172:
1193:Drivers/STM32F4xx_HAL_Driver/Src/stm32f4xx_ll_sdmmc.c **** 
 9755              		.loc 1 1193 52 view .LVU3276
 9756 0016 520A     		lsrs	r2, r2, #9
ARM GAS  C:\Users\pw705\AppData\Local\Temp\cceieKfF.s 			page 252


1193:Drivers/STM32F4xx_HAL_Driver/Src/stm32f4xx_ll_sdmmc.c **** 
 9757              		.loc 1 1193 12 view .LVU3277
 9758 0018 41F28831 		movw	r1, #5000
 9759              	.LBE1172:
 9760              	.LBE1186:
 9761              	.LBB1187:
 9762              	.LBB1180:
 365:Drivers/STM32F4xx_HAL_Driver/Src/stm32f4xx_ll_sdmmc.c **** 
 9763              		.loc 1 365 3 view .LVU3278
 9764 001c 43F48963 		orr	r3, r3, #1096
 9765              	.LBE1180:
 9766              	.LBE1187:
 9767              	.LBB1188:
 9768              	.LBB1173:
1193:Drivers/STM32F4xx_HAL_Driver/Src/stm32f4xx_ll_sdmmc.c **** 
 9769              		.loc 1 1193 12 view .LVU3279
 9770 0020 01FB02F2 		mul	r2, r1, r2
 9771              	.LBE1173:
 9772              	.LBE1188:
 9773              	.LBB1189:
 9774              	.LBB1181:
 365:Drivers/STM32F4xx_HAL_Driver/Src/stm32f4xx_ll_sdmmc.c **** 
 9775              		.loc 1 365 3 view .LVU3280
 9776 0024 C360     		str	r3, [r0, #12]
 9777              	.LVL559:
 367:Drivers/STM32F4xx_HAL_Driver/Src/stm32f4xx_ll_sdmmc.c **** }
 9778              		.loc 1 367 3 is_stmt 1 view .LVU3281
 367:Drivers/STM32F4xx_HAL_Driver/Src/stm32f4xx_ll_sdmmc.c **** }
 9779              		.loc 1 367 3 is_stmt 0 view .LVU3282
 9780              	.LBE1181:
 9781              	.LBE1189:
1158:Drivers/STM32F4xx_HAL_Driver/Src/stm32f4xx_ll_sdmmc.c **** 
 9782              		.loc 1 1158 3 is_stmt 1 view .LVU3283
 9783              	.LBB1190:
 9784              	.LBI1160:
1186:Drivers/STM32F4xx_HAL_Driver/Src/stm32f4xx_ll_sdmmc.c **** {
 9785              		.loc 1 1186 10 view .LVU3284
 9786              	.LBB1174:
1188:Drivers/STM32F4xx_HAL_Driver/Src/stm32f4xx_ll_sdmmc.c ****   uint32_t sta_reg;
 9787              		.loc 1 1188 3 view .LVU3285
1189:Drivers/STM32F4xx_HAL_Driver/Src/stm32f4xx_ll_sdmmc.c **** 
 9788              		.loc 1 1189 3 view .LVU3286
1193:Drivers/STM32F4xx_HAL_Driver/Src/stm32f4xx_ll_sdmmc.c **** 
 9789              		.loc 1 1193 3 view .LVU3287
1195:Drivers/STM32F4xx_HAL_Driver/Src/stm32f4xx_ll_sdmmc.c ****   {
 9790              		.loc 1 1195 3 view .LVU3288
1197:Drivers/STM32F4xx_HAL_Driver/Src/stm32f4xx_ll_sdmmc.c ****     {
 9791              		.loc 1 1197 5 view .LVU3289
1197:Drivers/STM32F4xx_HAL_Driver/Src/stm32f4xx_ll_sdmmc.c ****     {
 9792              		.loc 1 1197 14 is_stmt 0 view .LVU3290
 9793 0026 531E     		subs	r3, r2, #1
 9794              	.LVL560:
1197:Drivers/STM32F4xx_HAL_Driver/Src/stm32f4xx_ll_sdmmc.c ****     {
 9795              		.loc 1 1197 8 view .LVU3291
 9796 0028 4AB1     		cbz	r2, .L906
 9797              	.L899:
1195:Drivers/STM32F4xx_HAL_Driver/Src/stm32f4xx_ll_sdmmc.c ****   {
ARM GAS  C:\Users\pw705\AppData\Local\Temp\cceieKfF.s 			page 253


 9798              		.loc 1 1195 3 is_stmt 1 view .LVU3292
1197:Drivers/STM32F4xx_HAL_Driver/Src/stm32f4xx_ll_sdmmc.c ****     {
 9799              		.loc 1 1197 5 view .LVU3293
1201:Drivers/STM32F4xx_HAL_Driver/Src/stm32f4xx_ll_sdmmc.c ****   } while (((sta_reg & (SDIO_FLAG_CCRCFAIL | SDIO_FLAG_CMDREND | SDIO_FLAG_CTIMEOUT)) == 0U) ||
 9800              		.loc 1 1201 5 view .LVU3294
1201:Drivers/STM32F4xx_HAL_Driver/Src/stm32f4xx_ll_sdmmc.c ****   } while (((sta_reg & (SDIO_FLAG_CCRCFAIL | SDIO_FLAG_CMDREND | SDIO_FLAG_CTIMEOUT)) == 0U) ||
 9801              		.loc 1 1201 13 is_stmt 0 view .LVU3295
 9802 002a 426B     		ldr	r2, [r0, #52]
 9803              	.LVL561:
1202:Drivers/STM32F4xx_HAL_Driver/Src/stm32f4xx_ll_sdmmc.c ****            ((sta_reg & SDIO_FLAG_CMDACT) != 0U));
 9804              		.loc 1 1202 94 is_stmt 1 view .LVU3296
 9805 002c 12F0450F 		tst	r2, #69
1197:Drivers/STM32F4xx_HAL_Driver/Src/stm32f4xx_ll_sdmmc.c ****     {
 9806              		.loc 1 1197 14 is_stmt 0 view .LVU3297
 9807 0030 03F1FF33 		add	r3, r3, #-1
 9808              	.LVL562:
1202:Drivers/STM32F4xx_HAL_Driver/Src/stm32f4xx_ll_sdmmc.c ****            ((sta_reg & SDIO_FLAG_CMDACT) != 0U));
 9809              		.loc 1 1202 94 view .LVU3298
 9810 0034 01D0     		beq	.L900
 9811 0036 1105     		lsls	r1, r2, #20
 9812 0038 04D5     		bpl	.L932
 9813              	.L900:
1197:Drivers/STM32F4xx_HAL_Driver/Src/stm32f4xx_ll_sdmmc.c ****     {
 9814              		.loc 1 1197 8 view .LVU3299
 9815 003a 5A1C     		adds	r2, r3, #1
 9816              	.LVL563:
1197:Drivers/STM32F4xx_HAL_Driver/Src/stm32f4xx_ll_sdmmc.c ****     {
 9817              		.loc 1 1197 8 view .LVU3300
 9818 003c F5D1     		bne	.L899
 9819              	.LVL564:
 9820              	.L906:
1199:Drivers/STM32F4xx_HAL_Driver/Src/stm32f4xx_ll_sdmmc.c ****     }
 9821              		.loc 1 1199 14 view .LVU3301
 9822 003e 4FF00040 		mov	r0, #-2147483648
 9823              	.LVL565:
1199:Drivers/STM32F4xx_HAL_Driver/Src/stm32f4xx_ll_sdmmc.c ****     }
 9824              		.loc 1 1199 14 view .LVU3302
 9825 0042 7047     		bx	lr
 9826              	.LVL566:
 9827              	.L932:
1205:Drivers/STM32F4xx_HAL_Driver/Src/stm32f4xx_ll_sdmmc.c ****   {
 9828              		.loc 1 1205 3 is_stmt 1 view .LVU3303
1205:Drivers/STM32F4xx_HAL_Driver/Src/stm32f4xx_ll_sdmmc.c ****   {
 9829              		.loc 1 1205 7 is_stmt 0 view .LVU3304
 9830 0044 436B     		ldr	r3, [r0, #52]
 9831              	.LVL567:
1205:Drivers/STM32F4xx_HAL_Driver/Src/stm32f4xx_ll_sdmmc.c ****   {
 9832              		.loc 1 1205 6 view .LVU3305
 9833 0046 5A07     		lsls	r2, r3, #29
 9834              	.LVL568:
1205:Drivers/STM32F4xx_HAL_Driver/Src/stm32f4xx_ll_sdmmc.c ****   {
 9835              		.loc 1 1205 6 view .LVU3306
 9836 0048 3ED4     		bmi	.L933
1211:Drivers/STM32F4xx_HAL_Driver/Src/stm32f4xx_ll_sdmmc.c ****   {
 9837              		.loc 1 1211 8 is_stmt 1 view .LVU3307
1211:Drivers/STM32F4xx_HAL_Driver/Src/stm32f4xx_ll_sdmmc.c ****   {
 9838              		.loc 1 1211 12 is_stmt 0 view .LVU3308
ARM GAS  C:\Users\pw705\AppData\Local\Temp\cceieKfF.s 			page 254


 9839 004a 436B     		ldr	r3, [r0, #52]
1211:Drivers/STM32F4xx_HAL_Driver/Src/stm32f4xx_ll_sdmmc.c ****   {
 9840              		.loc 1 1211 11 view .LVU3309
 9841 004c DB07     		lsls	r3, r3, #31
 9842 004e 07D4     		bmi	.L934
1220:Drivers/STM32F4xx_HAL_Driver/Src/stm32f4xx_ll_sdmmc.c **** 
 9843              		.loc 1 1220 3 is_stmt 1 view .LVU3310
1223:Drivers/STM32F4xx_HAL_Driver/Src/stm32f4xx_ll_sdmmc.c **** 
 9844              		.loc 1 1223 3 view .LVU3311
 9845 0050 C523     		movs	r3, #197
 9846 0052 8363     		str	r3, [r0, #56]
1226:Drivers/STM32F4xx_HAL_Driver/Src/stm32f4xx_ll_sdmmc.c ****   {
 9847              		.loc 1 1226 3 view .LVU3312
 9848              	.LVL569:
 9849              	.LBB1162:
 9850              	.LBI1162:
 375:Drivers/STM32F4xx_HAL_Driver/Src/stm32f4xx_ll_sdmmc.c **** {
 9851              		.loc 1 375 9 view .LVU3313
 9852              	.LBB1163:
 377:Drivers/STM32F4xx_HAL_Driver/Src/stm32f4xx_ll_sdmmc.c **** }
 9853              		.loc 1 377 3 view .LVU3314
 377:Drivers/STM32F4xx_HAL_Driver/Src/stm32f4xx_ll_sdmmc.c **** }
 9854              		.loc 1 377 25 is_stmt 0 view .LVU3315
 9855 0054 0369     		ldr	r3, [r0, #16]
 9856              	.LVL570:
 377:Drivers/STM32F4xx_HAL_Driver/Src/stm32f4xx_ll_sdmmc.c **** }
 9857              		.loc 1 377 25 view .LVU3316
 9858              	.LBE1163:
 9859              	.LBE1162:
1226:Drivers/STM32F4xx_HAL_Driver/Src/stm32f4xx_ll_sdmmc.c ****   {
 9860              		.loc 1 1226 6 view .LVU3317
 9861 0056 DBB2     		uxtb	r3, r3
 9862 0058 082B     		cmp	r3, #8
 9863 005a 04D0     		beq	.L904
 9864              	.L903:
1215:Drivers/STM32F4xx_HAL_Driver/Src/stm32f4xx_ll_sdmmc.c ****   }
 9865              		.loc 1 1215 12 view .LVU3318
 9866 005c 0120     		movs	r0, #1
 9867              	.LVL571:
1215:Drivers/STM32F4xx_HAL_Driver/Src/stm32f4xx_ll_sdmmc.c ****   }
 9868              		.loc 1 1215 12 view .LVU3319
 9869 005e 7047     		bx	lr
 9870              	.LVL572:
 9871              	.L934:
1213:Drivers/STM32F4xx_HAL_Driver/Src/stm32f4xx_ll_sdmmc.c **** 
 9872              		.loc 1 1213 5 is_stmt 1 view .LVU3320
 9873 0060 0123     		movs	r3, #1
 9874 0062 8363     		str	r3, [r0, #56]
1215:Drivers/STM32F4xx_HAL_Driver/Src/stm32f4xx_ll_sdmmc.c ****   }
 9875              		.loc 1 1215 5 view .LVU3321
1215:Drivers/STM32F4xx_HAL_Driver/Src/stm32f4xx_ll_sdmmc.c ****   }
 9876              		.loc 1 1215 12 is_stmt 0 view .LVU3322
 9877 0064 FAE7     		b	.L903
 9878              	.L904:
 9879              	.LVL573:
 9880              	.LBB1164:
 9881              	.LBI1164:
ARM GAS  C:\Users\pw705\AppData\Local\Temp\cceieKfF.s 			page 255


1186:Drivers/STM32F4xx_HAL_Driver/Src/stm32f4xx_ll_sdmmc.c **** {
 9882              		.loc 1 1186 10 is_stmt 1 view .LVU3323
 9883              	.LBB1165:
1232:Drivers/STM32F4xx_HAL_Driver/Src/stm32f4xx_ll_sdmmc.c **** 
 9884              		.loc 1 1232 3 view .LVU3324
 9885              	.LBB1166:
 9886              	.LBI1166:
 391:Drivers/STM32F4xx_HAL_Driver/Src/stm32f4xx_ll_sdmmc.c **** {
 9887              		.loc 1 391 10 view .LVU3325
 9888              	.LBB1167:
 393:Drivers/STM32F4xx_HAL_Driver/Src/stm32f4xx_ll_sdmmc.c **** 
 9889              		.loc 1 393 3 view .LVU3326
 396:Drivers/STM32F4xx_HAL_Driver/Src/stm32f4xx_ll_sdmmc.c **** 
 9890              		.loc 1 396 3 view .LVU3327
 399:Drivers/STM32F4xx_HAL_Driver/Src/stm32f4xx_ll_sdmmc.c **** 
 9891              		.loc 1 399 3 view .LVU3328
 401:Drivers/STM32F4xx_HAL_Driver/Src/stm32f4xx_ll_sdmmc.c **** }
 9892              		.loc 1 401 3 view .LVU3329
 401:Drivers/STM32F4xx_HAL_Driver/Src/stm32f4xx_ll_sdmmc.c **** }
 9893              		.loc 1 401 11 is_stmt 0 view .LVU3330
 9894 0066 4369     		ldr	r3, [r0, #20]
 9895              	.LVL574:
 401:Drivers/STM32F4xx_HAL_Driver/Src/stm32f4xx_ll_sdmmc.c **** }
 9896              		.loc 1 401 11 view .LVU3331
 9897              	.LBE1167:
 9898              	.LBE1166:
1234:Drivers/STM32F4xx_HAL_Driver/Src/stm32f4xx_ll_sdmmc.c ****   {
 9899              		.loc 1 1234 3 is_stmt 1 view .LVU3332
1234:Drivers/STM32F4xx_HAL_Driver/Src/stm32f4xx_ll_sdmmc.c ****   {
 9900              		.loc 1 1234 20 is_stmt 0 view .LVU3333
 9901 0068 3248     		ldr	r0, .L935+8
 9902              	.LVL575:
1234:Drivers/STM32F4xx_HAL_Driver/Src/stm32f4xx_ll_sdmmc.c ****   {
 9903              		.loc 1 1234 20 view .LVU3334
 9904 006a 1840     		ands	r0, r0, r3
1234:Drivers/STM32F4xx_HAL_Driver/Src/stm32f4xx_ll_sdmmc.c ****   {
 9905              		.loc 1 1234 6 view .LVU3335
 9906 006c 58B3     		cbz	r0, .L897
1238:Drivers/STM32F4xx_HAL_Driver/Src/stm32f4xx_ll_sdmmc.c ****   {
 9907              		.loc 1 1238 8 is_stmt 1 view .LVU3336
1238:Drivers/STM32F4xx_HAL_Driver/Src/stm32f4xx_ll_sdmmc.c ****   {
 9908              		.loc 1 1238 11 is_stmt 0 view .LVU3337
 9909 006e 002B     		cmp	r3, #0
 9910 0070 2EDB     		blt	.L907
1242:Drivers/STM32F4xx_HAL_Driver/Src/stm32f4xx_ll_sdmmc.c ****   {
 9911              		.loc 1 1242 8 is_stmt 1 view .LVU3338
1242:Drivers/STM32F4xx_HAL_Driver/Src/stm32f4xx_ll_sdmmc.c ****   {
 9912              		.loc 1 1242 11 is_stmt 0 view .LVU3339
 9913 0072 5900     		lsls	r1, r3, #1
 9914 0074 2FD4     		bmi	.L908
1246:Drivers/STM32F4xx_HAL_Driver/Src/stm32f4xx_ll_sdmmc.c ****   {
 9915              		.loc 1 1246 8 is_stmt 1 view .LVU3340
1246:Drivers/STM32F4xx_HAL_Driver/Src/stm32f4xx_ll_sdmmc.c ****   {
 9916              		.loc 1 1246 11 is_stmt 0 view .LVU3341
 9917 0076 9A00     		lsls	r2, r3, #2
 9918 0078 2FD4     		bmi	.L909
1250:Drivers/STM32F4xx_HAL_Driver/Src/stm32f4xx_ll_sdmmc.c ****   {
ARM GAS  C:\Users\pw705\AppData\Local\Temp\cceieKfF.s 			page 256


 9919              		.loc 1 1250 8 is_stmt 1 view .LVU3342
1250:Drivers/STM32F4xx_HAL_Driver/Src/stm32f4xx_ll_sdmmc.c ****   {
 9920              		.loc 1 1250 11 is_stmt 0 view .LVU3343
 9921 007a D900     		lsls	r1, r3, #3
 9922 007c 2FD4     		bmi	.L910
1254:Drivers/STM32F4xx_HAL_Driver/Src/stm32f4xx_ll_sdmmc.c ****   {
 9923              		.loc 1 1254 8 is_stmt 1 view .LVU3344
1254:Drivers/STM32F4xx_HAL_Driver/Src/stm32f4xx_ll_sdmmc.c ****   {
 9924              		.loc 1 1254 11 is_stmt 0 view .LVU3345
 9925 007e 1A01     		lsls	r2, r3, #4
 9926 0080 30D4     		bmi	.L911
1258:Drivers/STM32F4xx_HAL_Driver/Src/stm32f4xx_ll_sdmmc.c ****   {
 9927              		.loc 1 1258 8 is_stmt 1 view .LVU3346
1258:Drivers/STM32F4xx_HAL_Driver/Src/stm32f4xx_ll_sdmmc.c ****   {
 9928              		.loc 1 1258 11 is_stmt 0 view .LVU3347
 9929 0082 5901     		lsls	r1, r3, #5
 9930 0084 31D4     		bmi	.L912
1262:Drivers/STM32F4xx_HAL_Driver/Src/stm32f4xx_ll_sdmmc.c ****   {
 9931              		.loc 1 1262 8 is_stmt 1 view .LVU3348
1262:Drivers/STM32F4xx_HAL_Driver/Src/stm32f4xx_ll_sdmmc.c ****   {
 9932              		.loc 1 1262 11 is_stmt 0 view .LVU3349
 9933 0086 DA01     		lsls	r2, r3, #7
 9934 0088 32D4     		bmi	.L913
1266:Drivers/STM32F4xx_HAL_Driver/Src/stm32f4xx_ll_sdmmc.c ****   {
 9935              		.loc 1 1266 8 is_stmt 1 view .LVU3350
1266:Drivers/STM32F4xx_HAL_Driver/Src/stm32f4xx_ll_sdmmc.c ****   {
 9936              		.loc 1 1266 11 is_stmt 0 view .LVU3351
 9937 008a 1902     		lsls	r1, r3, #8
 9938 008c 33D4     		bmi	.L914
1270:Drivers/STM32F4xx_HAL_Driver/Src/stm32f4xx_ll_sdmmc.c ****   {
 9939              		.loc 1 1270 8 is_stmt 1 view .LVU3352
1270:Drivers/STM32F4xx_HAL_Driver/Src/stm32f4xx_ll_sdmmc.c ****   {
 9940              		.loc 1 1270 11 is_stmt 0 view .LVU3353
 9941 008e 5A02     		lsls	r2, r3, #9
 9942 0090 34D4     		bmi	.L915
1274:Drivers/STM32F4xx_HAL_Driver/Src/stm32f4xx_ll_sdmmc.c ****   {
 9943              		.loc 1 1274 8 is_stmt 1 view .LVU3354
1274:Drivers/STM32F4xx_HAL_Driver/Src/stm32f4xx_ll_sdmmc.c ****   {
 9944              		.loc 1 1274 11 is_stmt 0 view .LVU3355
 9945 0092 9902     		lsls	r1, r3, #10
 9946 0094 3ED4     		bmi	.L916
1278:Drivers/STM32F4xx_HAL_Driver/Src/stm32f4xx_ll_sdmmc.c ****   {
 9947              		.loc 1 1278 8 is_stmt 1 view .LVU3356
1278:Drivers/STM32F4xx_HAL_Driver/Src/stm32f4xx_ll_sdmmc.c ****   {
 9948              		.loc 1 1278 11 is_stmt 0 view .LVU3357
 9949 0096 DA02     		lsls	r2, r3, #11
 9950 0098 39D4     		bmi	.L917
1282:Drivers/STM32F4xx_HAL_Driver/Src/stm32f4xx_ll_sdmmc.c ****   {
 9951              		.loc 1 1282 8 is_stmt 1 view .LVU3358
1282:Drivers/STM32F4xx_HAL_Driver/Src/stm32f4xx_ll_sdmmc.c ****   {
 9952              		.loc 1 1282 11 is_stmt 0 view .LVU3359
 9953 009a 5903     		lsls	r1, r3, #13
 9954 009c 34D4     		bmi	.L918
1286:Drivers/STM32F4xx_HAL_Driver/Src/stm32f4xx_ll_sdmmc.c ****   {
 9955              		.loc 1 1286 8 is_stmt 1 view .LVU3360
1286:Drivers/STM32F4xx_HAL_Driver/Src/stm32f4xx_ll_sdmmc.c ****   {
 9956              		.loc 1 1286 11 is_stmt 0 view .LVU3361
ARM GAS  C:\Users\pw705\AppData\Local\Temp\cceieKfF.s 			page 257


 9957 009e 9A03     		lsls	r2, r3, #14
 9958 00a0 2FD4     		bmi	.L919
1290:Drivers/STM32F4xx_HAL_Driver/Src/stm32f4xx_ll_sdmmc.c ****   {
 9959              		.loc 1 1290 8 is_stmt 1 view .LVU3362
1290:Drivers/STM32F4xx_HAL_Driver/Src/stm32f4xx_ll_sdmmc.c ****   {
 9960              		.loc 1 1290 11 is_stmt 0 view .LVU3363
 9961 00a2 D903     		lsls	r1, r3, #15
 9962 00a4 3FD4     		bmi	.L920
1294:Drivers/STM32F4xx_HAL_Driver/Src/stm32f4xx_ll_sdmmc.c ****   {
 9963              		.loc 1 1294 8 is_stmt 1 view .LVU3364
1294:Drivers/STM32F4xx_HAL_Driver/Src/stm32f4xx_ll_sdmmc.c ****   {
 9964              		.loc 1 1294 11 is_stmt 0 view .LVU3365
 9965 00a6 1A04     		lsls	r2, r3, #16
 9966 00a8 3AD4     		bmi	.L921
1298:Drivers/STM32F4xx_HAL_Driver/Src/stm32f4xx_ll_sdmmc.c ****   {
 9967              		.loc 1 1298 8 is_stmt 1 view .LVU3366
1298:Drivers/STM32F4xx_HAL_Driver/Src/stm32f4xx_ll_sdmmc.c ****   {
 9968              		.loc 1 1298 11 is_stmt 0 view .LVU3367
 9969 00aa 5904     		lsls	r1, r3, #17
 9970 00ac 35D4     		bmi	.L922
1302:Drivers/STM32F4xx_HAL_Driver/Src/stm32f4xx_ll_sdmmc.c ****   {
 9971              		.loc 1 1302 8 is_stmt 1 view .LVU3368
1302:Drivers/STM32F4xx_HAL_Driver/Src/stm32f4xx_ll_sdmmc.c ****   {
 9972              		.loc 1 1302 11 is_stmt 0 view .LVU3369
 9973 00ae 9A04     		lsls	r2, r3, #18
 9974 00b0 07D4     		bmi	.L923
1306:Drivers/STM32F4xx_HAL_Driver/Src/stm32f4xx_ll_sdmmc.c ****   {
 9975              		.loc 1 1306 8 is_stmt 1 view .LVU3370
1308:Drivers/STM32F4xx_HAL_Driver/Src/stm32f4xx_ll_sdmmc.c ****   }
 9976              		.loc 1 1308 12 is_stmt 0 view .LVU3371
 9977 00b2 13F0080F 		tst	r3, #8
 9978 00b6 0CBF     		ite	eq
 9979 00b8 4FF48030 		moveq	r0, #65536
 9980 00bc 4FF40000 		movne	r0, #8388608
 9981 00c0 7047     		bx	lr
 9982              	.L923:
1304:Drivers/STM32F4xx_HAL_Driver/Src/stm32f4xx_ll_sdmmc.c ****   }
 9983              		.loc 1 1304 12 view .LVU3372
 9984 00c2 4FF48000 		mov	r0, #4194304
 9985              	.L897:
1304:Drivers/STM32F4xx_HAL_Driver/Src/stm32f4xx_ll_sdmmc.c ****   }
 9986              		.loc 1 1304 12 view .LVU3373
 9987              	.LBE1165:
 9988              	.LBE1164:
 9989              	.LBE1174:
 9990              	.LBE1190:
1161:Drivers/STM32F4xx_HAL_Driver/Src/stm32f4xx_ll_sdmmc.c **** 
 9991              		.loc 1 1161 1 view .LVU3374
 9992 00c6 7047     		bx	lr
 9993              	.LVL576:
 9994              	.L933:
 9995              	.LBB1191:
 9996              	.LBB1175:
1207:Drivers/STM32F4xx_HAL_Driver/Src/stm32f4xx_ll_sdmmc.c **** 
 9997              		.loc 1 1207 5 is_stmt 1 view .LVU3375
 9998 00c8 0423     		movs	r3, #4
 9999 00ca 8363     		str	r3, [r0, #56]
ARM GAS  C:\Users\pw705\AppData\Local\Temp\cceieKfF.s 			page 258


1209:Drivers/STM32F4xx_HAL_Driver/Src/stm32f4xx_ll_sdmmc.c ****   }
 10000              		.loc 1 1209 5 view .LVU3376
1209:Drivers/STM32F4xx_HAL_Driver/Src/stm32f4xx_ll_sdmmc.c ****   }
 10001              		.loc 1 1209 12 is_stmt 0 view .LVU3377
 10002 00cc 1846     		mov	r0, r3
 10003              	.LVL577:
1209:Drivers/STM32F4xx_HAL_Driver/Src/stm32f4xx_ll_sdmmc.c ****   }
 10004              		.loc 1 1209 12 view .LVU3378
 10005 00ce 7047     		bx	lr
 10006              	.LVL578:
 10007              	.L907:
 10008              	.LBB1169:
 10009              	.LBB1168:
1240:Drivers/STM32F4xx_HAL_Driver/Src/stm32f4xx_ll_sdmmc.c ****   }
 10010              		.loc 1 1240 12 view .LVU3379
 10011 00d0 4FF00070 		mov	r0, #33554432
 10012 00d4 7047     		bx	lr
 10013              	.L908:
1244:Drivers/STM32F4xx_HAL_Driver/Src/stm32f4xx_ll_sdmmc.c ****   }
 10014              		.loc 1 1244 12 view .LVU3380
 10015 00d6 4020     		movs	r0, #64
 10016 00d8 7047     		bx	lr
 10017              	.L909:
1248:Drivers/STM32F4xx_HAL_Driver/Src/stm32f4xx_ll_sdmmc.c ****   }
 10018              		.loc 1 1248 12 view .LVU3381
 10019 00da 8020     		movs	r0, #128
 10020 00dc 7047     		bx	lr
 10021              	.L910:
1252:Drivers/STM32F4xx_HAL_Driver/Src/stm32f4xx_ll_sdmmc.c ****   }
 10022              		.loc 1 1252 12 view .LVU3382
 10023 00de 4FF48070 		mov	r0, #256
 10024 00e2 7047     		bx	lr
 10025              	.L911:
1256:Drivers/STM32F4xx_HAL_Driver/Src/stm32f4xx_ll_sdmmc.c ****   }
 10026              		.loc 1 1256 12 view .LVU3383
 10027 00e4 4FF40070 		mov	r0, #512
 10028 00e8 7047     		bx	lr
 10029              	.L912:
1260:Drivers/STM32F4xx_HAL_Driver/Src/stm32f4xx_ll_sdmmc.c ****   }
 10030              		.loc 1 1260 12 view .LVU3384
 10031 00ea 4FF48060 		mov	r0, #1024
 10032 00ee 7047     		bx	lr
 10033              	.L913:
1264:Drivers/STM32F4xx_HAL_Driver/Src/stm32f4xx_ll_sdmmc.c ****   }
 10034              		.loc 1 1264 12 view .LVU3385
 10035 00f0 4FF40060 		mov	r0, #2048
 10036 00f4 7047     		bx	lr
 10037              	.L914:
1268:Drivers/STM32F4xx_HAL_Driver/Src/stm32f4xx_ll_sdmmc.c ****   }
 10038              		.loc 1 1268 12 view .LVU3386
 10039 00f6 4FF48050 		mov	r0, #4096
 10040 00fa 7047     		bx	lr
 10041              	.L915:
1272:Drivers/STM32F4xx_HAL_Driver/Src/stm32f4xx_ll_sdmmc.c ****   }
 10042              		.loc 1 1272 12 view .LVU3387
 10043 00fc 4FF40050 		mov	r0, #8192
 10044 0100 7047     		bx	lr
ARM GAS  C:\Users\pw705\AppData\Local\Temp\cceieKfF.s 			page 259


 10045              	.L919:
1288:Drivers/STM32F4xx_HAL_Driver/Src/stm32f4xx_ll_sdmmc.c ****   }
 10046              		.loc 1 1288 12 view .LVU3388
 10047 0102 4FF48020 		mov	r0, #262144
 10048 0106 7047     		bx	lr
 10049              	.L918:
1284:Drivers/STM32F4xx_HAL_Driver/Src/stm32f4xx_ll_sdmmc.c ****   }
 10050              		.loc 1 1284 12 view .LVU3389
 10051 0108 4FF40030 		mov	r0, #131072
 10052 010c 7047     		bx	lr
 10053              	.L917:
1280:Drivers/STM32F4xx_HAL_Driver/Src/stm32f4xx_ll_sdmmc.c ****   }
 10054              		.loc 1 1280 12 view .LVU3390
 10055 010e 4FF40040 		mov	r0, #32768
 10056 0112 7047     		bx	lr
 10057              	.L916:
1276:Drivers/STM32F4xx_HAL_Driver/Src/stm32f4xx_ll_sdmmc.c ****   }
 10058              		.loc 1 1276 12 view .LVU3391
 10059 0114 4FF48040 		mov	r0, #16384
 10060 0118 7047     		bx	lr
 10061              	.L922:
1300:Drivers/STM32F4xx_HAL_Driver/Src/stm32f4xx_ll_sdmmc.c ****   }
 10062              		.loc 1 1300 12 view .LVU3392
 10063 011a 4FF40010 		mov	r0, #2097152
 10064 011e 7047     		bx	lr
 10065              	.L921:
1296:Drivers/STM32F4xx_HAL_Driver/Src/stm32f4xx_ll_sdmmc.c ****   }
 10066              		.loc 1 1296 12 view .LVU3393
 10067 0120 4FF48010 		mov	r0, #1048576
 10068 0124 7047     		bx	lr
 10069              	.L920:
1292:Drivers/STM32F4xx_HAL_Driver/Src/stm32f4xx_ll_sdmmc.c ****   }
 10070              		.loc 1 1292 12 view .LVU3394
 10071 0126 4FF40020 		mov	r0, #524288
 10072 012a 7047     		bx	lr
 10073              	.L936:
 10074              		.align	2
 10075              	.L935:
 10076 012c 00000000 		.word	SystemCoreClock
 10077 0130 D34D6210 		.word	274877907
 10078 0134 08E0FFFD 		.word	-33562616
 10079              	.LBE1168:
 10080              	.LBE1169:
 10081              	.LBE1175:
 10082              	.LBE1191:
 10083              		.cfi_endproc
 10084              	.LFE169:
 10086              		.section	.text.SDMMC_GetCmdResp1,"ax",%progbits
 10087              		.align	1
 10088              		.p2align 2,,3
 10089              		.global	SDMMC_GetCmdResp1
 10090              		.syntax unified
 10091              		.thumb
 10092              		.thumb_func
 10094              	SDMMC_GetCmdResp1:
 10095              	.LVL579:
 10096              	.LFB170:
ARM GAS  C:\Users\pw705\AppData\Local\Temp\cceieKfF.s 			page 260


1187:Drivers/STM32F4xx_HAL_Driver/Src/stm32f4xx_ll_sdmmc.c ****   uint32_t response_r1;
 10097              		.loc 1 1187 1 is_stmt 1 view -0
 10098              		.cfi_startproc
 10099              		@ args = 0, pretend = 0, frame = 0
 10100              		@ frame_needed = 0, uses_anonymous_args = 0
 10101              		@ link register save eliminated.
1193:Drivers/STM32F4xx_HAL_Driver/Src/stm32f4xx_ll_sdmmc.c **** 
 10102              		.loc 1 1193 52 is_stmt 0 view .LVU3396
 10103 0000 474B     		ldr	r3, .L977
1187:Drivers/STM32F4xx_HAL_Driver/Src/stm32f4xx_ll_sdmmc.c ****   uint32_t response_r1;
 10104              		.loc 1 1187 1 view .LVU3397
 10105 0002 10B4     		push	{r4}
 10106              		.cfi_def_cfa_offset 4
 10107              		.cfi_offset 4, -4
1193:Drivers/STM32F4xx_HAL_Driver/Src/stm32f4xx_ll_sdmmc.c **** 
 10108              		.loc 1 1193 52 view .LVU3398
 10109 0004 1B68     		ldr	r3, [r3]
 10110 0006 474C     		ldr	r4, .L977+4
 10111 0008 A4FB0343 		umull	r4, r3, r4, r3
 10112 000c 5B0A     		lsrs	r3, r3, #9
1193:Drivers/STM32F4xx_HAL_Driver/Src/stm32f4xx_ll_sdmmc.c **** 
 10113              		.loc 1 1193 12 view .LVU3399
 10114 000e 03FB02F2 		mul	r2, r3, r2
 10115              	.LVL580:
1188:Drivers/STM32F4xx_HAL_Driver/Src/stm32f4xx_ll_sdmmc.c ****   uint32_t sta_reg;
 10116              		.loc 1 1188 3 is_stmt 1 view .LVU3400
1189:Drivers/STM32F4xx_HAL_Driver/Src/stm32f4xx_ll_sdmmc.c **** 
 10117              		.loc 1 1189 3 view .LVU3401
1193:Drivers/STM32F4xx_HAL_Driver/Src/stm32f4xx_ll_sdmmc.c **** 
 10118              		.loc 1 1193 3 view .LVU3402
1195:Drivers/STM32F4xx_HAL_Driver/Src/stm32f4xx_ll_sdmmc.c ****   {
 10119              		.loc 1 1195 3 view .LVU3403
1197:Drivers/STM32F4xx_HAL_Driver/Src/stm32f4xx_ll_sdmmc.c ****     {
 10120              		.loc 1 1197 5 view .LVU3404
1197:Drivers/STM32F4xx_HAL_Driver/Src/stm32f4xx_ll_sdmmc.c ****     {
 10121              		.loc 1 1197 5 is_stmt 0 view .LVU3405
 10122 0012 531E     		subs	r3, r2, #1
 10123              	.LVL581:
1197:Drivers/STM32F4xx_HAL_Driver/Src/stm32f4xx_ll_sdmmc.c ****     {
 10124              		.loc 1 1197 8 view .LVU3406
 10125 0014 4AB1     		cbz	r2, .L946
 10126              	.LVL582:
 10127              	.L939:
1195:Drivers/STM32F4xx_HAL_Driver/Src/stm32f4xx_ll_sdmmc.c ****   {
 10128              		.loc 1 1195 3 is_stmt 1 view .LVU3407
1197:Drivers/STM32F4xx_HAL_Driver/Src/stm32f4xx_ll_sdmmc.c ****     {
 10129              		.loc 1 1197 5 view .LVU3408
1201:Drivers/STM32F4xx_HAL_Driver/Src/stm32f4xx_ll_sdmmc.c ****   } while (((sta_reg & (SDIO_FLAG_CCRCFAIL | SDIO_FLAG_CMDREND | SDIO_FLAG_CTIMEOUT)) == 0U) ||
 10130              		.loc 1 1201 5 view .LVU3409
1201:Drivers/STM32F4xx_HAL_Driver/Src/stm32f4xx_ll_sdmmc.c ****   } while (((sta_reg & (SDIO_FLAG_CCRCFAIL | SDIO_FLAG_CMDREND | SDIO_FLAG_CTIMEOUT)) == 0U) ||
 10131              		.loc 1 1201 13 is_stmt 0 view .LVU3410
 10132 0016 426B     		ldr	r2, [r0, #52]
 10133              	.LVL583:
1202:Drivers/STM32F4xx_HAL_Driver/Src/stm32f4xx_ll_sdmmc.c ****            ((sta_reg & SDIO_FLAG_CMDACT) != 0U));
 10134              		.loc 1 1202 94 is_stmt 1 view .LVU3411
 10135 0018 12F0450F 		tst	r2, #69
1197:Drivers/STM32F4xx_HAL_Driver/Src/stm32f4xx_ll_sdmmc.c ****     {
ARM GAS  C:\Users\pw705\AppData\Local\Temp\cceieKfF.s 			page 261


 10136              		.loc 1 1197 14 is_stmt 0 view .LVU3412
 10137 001c 03F1FF33 		add	r3, r3, #-1
 10138              	.LVL584:
1202:Drivers/STM32F4xx_HAL_Driver/Src/stm32f4xx_ll_sdmmc.c ****            ((sta_reg & SDIO_FLAG_CMDACT) != 0U));
 10139              		.loc 1 1202 94 view .LVU3413
 10140 0020 01D0     		beq	.L940
1202:Drivers/STM32F4xx_HAL_Driver/Src/stm32f4xx_ll_sdmmc.c ****            ((sta_reg & SDIO_FLAG_CMDACT) != 0U));
 10141              		.loc 1 1202 94 discriminator 1 view .LVU3414
 10142 0022 1205     		lsls	r2, r2, #20
 10143              	.LVL585:
1202:Drivers/STM32F4xx_HAL_Driver/Src/stm32f4xx_ll_sdmmc.c ****            ((sta_reg & SDIO_FLAG_CMDACT) != 0U));
 10144              		.loc 1 1202 94 discriminator 1 view .LVU3415
 10145 0024 06D5     		bpl	.L974
 10146              	.L940:
1197:Drivers/STM32F4xx_HAL_Driver/Src/stm32f4xx_ll_sdmmc.c ****     {
 10147              		.loc 1 1197 8 view .LVU3416
 10148 0026 5C1C     		adds	r4, r3, #1
 10149 0028 F5D1     		bne	.L939
 10150              	.LVL586:
 10151              	.L946:
1199:Drivers/STM32F4xx_HAL_Driver/Src/stm32f4xx_ll_sdmmc.c ****     }
 10152              		.loc 1 1199 14 view .LVU3417
 10153 002a 4FF00040 		mov	r0, #-2147483648
 10154              	.LVL587:
 10155              	.L937:
1314:Drivers/STM32F4xx_HAL_Driver/Src/stm32f4xx_ll_sdmmc.c **** 
 10156              		.loc 1 1314 1 view .LVU3418
 10157 002e 5DF8044B 		ldr	r4, [sp], #4
 10158              		.cfi_remember_state
 10159              		.cfi_restore 4
 10160              		.cfi_def_cfa_offset 0
 10161 0032 7047     		bx	lr
 10162              	.LVL588:
 10163              	.L974:
 10164              		.cfi_restore_state
1205:Drivers/STM32F4xx_HAL_Driver/Src/stm32f4xx_ll_sdmmc.c ****   {
 10165              		.loc 1 1205 3 is_stmt 1 view .LVU3419
1205:Drivers/STM32F4xx_HAL_Driver/Src/stm32f4xx_ll_sdmmc.c ****   {
 10166              		.loc 1 1205 7 is_stmt 0 view .LVU3420
 10167 0034 436B     		ldr	r3, [r0, #52]
 10168              	.LVL589:
1205:Drivers/STM32F4xx_HAL_Driver/Src/stm32f4xx_ll_sdmmc.c ****   {
 10169              		.loc 1 1205 6 view .LVU3421
 10170 0036 5B07     		lsls	r3, r3, #29
 10171 0038 3CD4     		bmi	.L975
1211:Drivers/STM32F4xx_HAL_Driver/Src/stm32f4xx_ll_sdmmc.c ****   {
 10172              		.loc 1 1211 8 is_stmt 1 view .LVU3422
1211:Drivers/STM32F4xx_HAL_Driver/Src/stm32f4xx_ll_sdmmc.c ****   {
 10173              		.loc 1 1211 12 is_stmt 0 view .LVU3423
 10174 003a 436B     		ldr	r3, [r0, #52]
1211:Drivers/STM32F4xx_HAL_Driver/Src/stm32f4xx_ll_sdmmc.c ****   {
 10175              		.loc 1 1211 11 view .LVU3424
 10176 003c DC07     		lsls	r4, r3, #31
 10177 003e 07D4     		bmi	.L976
1220:Drivers/STM32F4xx_HAL_Driver/Src/stm32f4xx_ll_sdmmc.c **** 
 10178              		.loc 1 1220 3 is_stmt 1 view .LVU3425
1223:Drivers/STM32F4xx_HAL_Driver/Src/stm32f4xx_ll_sdmmc.c **** 
ARM GAS  C:\Users\pw705\AppData\Local\Temp\cceieKfF.s 			page 262


 10179              		.loc 1 1223 3 view .LVU3426
 10180 0040 C523     		movs	r3, #197
 10181 0042 8363     		str	r3, [r0, #56]
1226:Drivers/STM32F4xx_HAL_Driver/Src/stm32f4xx_ll_sdmmc.c ****   {
 10182              		.loc 1 1226 3 view .LVU3427
 10183              	.LVL590:
 10184              	.LBB1200:
 10185              	.LBI1200:
 375:Drivers/STM32F4xx_HAL_Driver/Src/stm32f4xx_ll_sdmmc.c **** {
 10186              		.loc 1 375 9 view .LVU3428
 10187              	.LBB1201:
 377:Drivers/STM32F4xx_HAL_Driver/Src/stm32f4xx_ll_sdmmc.c **** }
 10188              		.loc 1 377 3 view .LVU3429
 377:Drivers/STM32F4xx_HAL_Driver/Src/stm32f4xx_ll_sdmmc.c **** }
 10189              		.loc 1 377 25 is_stmt 0 view .LVU3430
 10190 0044 0369     		ldr	r3, [r0, #16]
 10191              	.LVL591:
 377:Drivers/STM32F4xx_HAL_Driver/Src/stm32f4xx_ll_sdmmc.c **** }
 10192              		.loc 1 377 25 view .LVU3431
 10193              	.LBE1201:
 10194              	.LBE1200:
1226:Drivers/STM32F4xx_HAL_Driver/Src/stm32f4xx_ll_sdmmc.c ****   {
 10195              		.loc 1 1226 6 view .LVU3432
 10196 0046 DBB2     		uxtb	r3, r3
 10197 0048 9942     		cmp	r1, r3
 10198 004a 04D0     		beq	.L944
 10199              	.L943:
1215:Drivers/STM32F4xx_HAL_Driver/Src/stm32f4xx_ll_sdmmc.c ****   }
 10200              		.loc 1 1215 12 view .LVU3433
 10201 004c 0120     		movs	r0, #1
 10202              	.LVL592:
1215:Drivers/STM32F4xx_HAL_Driver/Src/stm32f4xx_ll_sdmmc.c ****   }
 10203              		.loc 1 1215 12 view .LVU3434
 10204 004e EEE7     		b	.L937
 10205              	.LVL593:
 10206              	.L976:
1213:Drivers/STM32F4xx_HAL_Driver/Src/stm32f4xx_ll_sdmmc.c **** 
 10207              		.loc 1 1213 5 is_stmt 1 view .LVU3435
 10208 0050 0123     		movs	r3, #1
 10209 0052 8363     		str	r3, [r0, #56]
1215:Drivers/STM32F4xx_HAL_Driver/Src/stm32f4xx_ll_sdmmc.c ****   }
 10210              		.loc 1 1215 5 view .LVU3436
1215:Drivers/STM32F4xx_HAL_Driver/Src/stm32f4xx_ll_sdmmc.c ****   }
 10211              		.loc 1 1215 12 is_stmt 0 view .LVU3437
 10212 0054 FAE7     		b	.L943
 10213              	.L944:
 10214              	.LVL594:
 10215              	.LBB1202:
 10216              	.LBI1202:
1186:Drivers/STM32F4xx_HAL_Driver/Src/stm32f4xx_ll_sdmmc.c **** {
 10217              		.loc 1 1186 10 is_stmt 1 view .LVU3438
 10218              	.LBB1203:
1232:Drivers/STM32F4xx_HAL_Driver/Src/stm32f4xx_ll_sdmmc.c **** 
 10219              		.loc 1 1232 3 view .LVU3439
 10220              	.LBB1204:
 10221              	.LBI1204:
 391:Drivers/STM32F4xx_HAL_Driver/Src/stm32f4xx_ll_sdmmc.c **** {
ARM GAS  C:\Users\pw705\AppData\Local\Temp\cceieKfF.s 			page 263


 10222              		.loc 1 391 10 view .LVU3440
 10223              	.LBB1205:
 393:Drivers/STM32F4xx_HAL_Driver/Src/stm32f4xx_ll_sdmmc.c **** 
 10224              		.loc 1 393 3 view .LVU3441
 396:Drivers/STM32F4xx_HAL_Driver/Src/stm32f4xx_ll_sdmmc.c **** 
 10225              		.loc 1 396 3 view .LVU3442
 399:Drivers/STM32F4xx_HAL_Driver/Src/stm32f4xx_ll_sdmmc.c **** 
 10226              		.loc 1 399 3 view .LVU3443
 401:Drivers/STM32F4xx_HAL_Driver/Src/stm32f4xx_ll_sdmmc.c **** }
 10227              		.loc 1 401 3 view .LVU3444
 401:Drivers/STM32F4xx_HAL_Driver/Src/stm32f4xx_ll_sdmmc.c **** }
 10228              		.loc 1 401 11 is_stmt 0 view .LVU3445
 10229 0056 4369     		ldr	r3, [r0, #20]
 10230              	.LVL595:
 401:Drivers/STM32F4xx_HAL_Driver/Src/stm32f4xx_ll_sdmmc.c **** }
 10231              		.loc 1 401 11 view .LVU3446
 10232              	.LBE1205:
 10233              	.LBE1204:
1234:Drivers/STM32F4xx_HAL_Driver/Src/stm32f4xx_ll_sdmmc.c ****   {
 10234              		.loc 1 1234 3 is_stmt 1 view .LVU3447
1234:Drivers/STM32F4xx_HAL_Driver/Src/stm32f4xx_ll_sdmmc.c ****   {
 10235              		.loc 1 1234 20 is_stmt 0 view .LVU3448
 10236 0058 3348     		ldr	r0, .L977+8
 10237              	.LVL596:
1234:Drivers/STM32F4xx_HAL_Driver/Src/stm32f4xx_ll_sdmmc.c ****   {
 10238              		.loc 1 1234 20 view .LVU3449
 10239 005a 1840     		ands	r0, r0, r3
1234:Drivers/STM32F4xx_HAL_Driver/Src/stm32f4xx_ll_sdmmc.c ****   {
 10240              		.loc 1 1234 6 view .LVU3450
 10241 005c 0028     		cmp	r0, #0
 10242 005e E6D0     		beq	.L937
1238:Drivers/STM32F4xx_HAL_Driver/Src/stm32f4xx_ll_sdmmc.c ****   {
 10243              		.loc 1 1238 8 is_stmt 1 view .LVU3451
1238:Drivers/STM32F4xx_HAL_Driver/Src/stm32f4xx_ll_sdmmc.c ****   {
 10244              		.loc 1 1238 11 is_stmt 0 view .LVU3452
 10245 0060 002B     		cmp	r3, #0
 10246 0062 2BDB     		blt	.L947
1242:Drivers/STM32F4xx_HAL_Driver/Src/stm32f4xx_ll_sdmmc.c ****   {
 10247              		.loc 1 1242 8 is_stmt 1 view .LVU3453
1242:Drivers/STM32F4xx_HAL_Driver/Src/stm32f4xx_ll_sdmmc.c ****   {
 10248              		.loc 1 1242 11 is_stmt 0 view .LVU3454
 10249 0064 5A00     		lsls	r2, r3, #1
 10250 0066 2CD4     		bmi	.L948
1246:Drivers/STM32F4xx_HAL_Driver/Src/stm32f4xx_ll_sdmmc.c ****   {
 10251              		.loc 1 1246 8 is_stmt 1 view .LVU3455
1246:Drivers/STM32F4xx_HAL_Driver/Src/stm32f4xx_ll_sdmmc.c ****   {
 10252              		.loc 1 1246 11 is_stmt 0 view .LVU3456
 10253 0068 9C00     		lsls	r4, r3, #2
 10254 006a 2CD4     		bmi	.L949
1250:Drivers/STM32F4xx_HAL_Driver/Src/stm32f4xx_ll_sdmmc.c ****   {
 10255              		.loc 1 1250 8 is_stmt 1 view .LVU3457
1250:Drivers/STM32F4xx_HAL_Driver/Src/stm32f4xx_ll_sdmmc.c ****   {
 10256              		.loc 1 1250 11 is_stmt 0 view .LVU3458
 10257 006c D900     		lsls	r1, r3, #3
 10258              	.LVL597:
1250:Drivers/STM32F4xx_HAL_Driver/Src/stm32f4xx_ll_sdmmc.c ****   {
 10259              		.loc 1 1250 11 view .LVU3459
ARM GAS  C:\Users\pw705\AppData\Local\Temp\cceieKfF.s 			page 264


 10260 006e 2CD4     		bmi	.L950
1254:Drivers/STM32F4xx_HAL_Driver/Src/stm32f4xx_ll_sdmmc.c ****   {
 10261              		.loc 1 1254 8 is_stmt 1 view .LVU3460
1254:Drivers/STM32F4xx_HAL_Driver/Src/stm32f4xx_ll_sdmmc.c ****   {
 10262              		.loc 1 1254 11 is_stmt 0 view .LVU3461
 10263 0070 1A01     		lsls	r2, r3, #4
 10264 0072 2DD4     		bmi	.L951
1258:Drivers/STM32F4xx_HAL_Driver/Src/stm32f4xx_ll_sdmmc.c ****   {
 10265              		.loc 1 1258 8 is_stmt 1 view .LVU3462
1258:Drivers/STM32F4xx_HAL_Driver/Src/stm32f4xx_ll_sdmmc.c ****   {
 10266              		.loc 1 1258 11 is_stmt 0 view .LVU3463
 10267 0074 5C01     		lsls	r4, r3, #5
 10268 0076 2ED4     		bmi	.L952
1262:Drivers/STM32F4xx_HAL_Driver/Src/stm32f4xx_ll_sdmmc.c ****   {
 10269              		.loc 1 1262 8 is_stmt 1 view .LVU3464
1262:Drivers/STM32F4xx_HAL_Driver/Src/stm32f4xx_ll_sdmmc.c ****   {
 10270              		.loc 1 1262 11 is_stmt 0 view .LVU3465
 10271 0078 D901     		lsls	r1, r3, #7
 10272 007a 2FD4     		bmi	.L953
1266:Drivers/STM32F4xx_HAL_Driver/Src/stm32f4xx_ll_sdmmc.c ****   {
 10273              		.loc 1 1266 8 is_stmt 1 view .LVU3466
1266:Drivers/STM32F4xx_HAL_Driver/Src/stm32f4xx_ll_sdmmc.c ****   {
 10274              		.loc 1 1266 11 is_stmt 0 view .LVU3467
 10275 007c 1A02     		lsls	r2, r3, #8
 10276 007e 30D4     		bmi	.L954
1270:Drivers/STM32F4xx_HAL_Driver/Src/stm32f4xx_ll_sdmmc.c ****   {
 10277              		.loc 1 1270 8 is_stmt 1 view .LVU3468
1270:Drivers/STM32F4xx_HAL_Driver/Src/stm32f4xx_ll_sdmmc.c ****   {
 10278              		.loc 1 1270 11 is_stmt 0 view .LVU3469
 10279 0080 5C02     		lsls	r4, r3, #9
 10280 0082 31D4     		bmi	.L955
1274:Drivers/STM32F4xx_HAL_Driver/Src/stm32f4xx_ll_sdmmc.c ****   {
 10281              		.loc 1 1274 8 is_stmt 1 view .LVU3470
1274:Drivers/STM32F4xx_HAL_Driver/Src/stm32f4xx_ll_sdmmc.c ****   {
 10282              		.loc 1 1274 11 is_stmt 0 view .LVU3471
 10283 0084 9902     		lsls	r1, r3, #10
 10284 0086 3BD4     		bmi	.L956
1278:Drivers/STM32F4xx_HAL_Driver/Src/stm32f4xx_ll_sdmmc.c ****   {
 10285              		.loc 1 1278 8 is_stmt 1 view .LVU3472
1278:Drivers/STM32F4xx_HAL_Driver/Src/stm32f4xx_ll_sdmmc.c ****   {
 10286              		.loc 1 1278 11 is_stmt 0 view .LVU3473
 10287 0088 DA02     		lsls	r2, r3, #11
 10288 008a 36D4     		bmi	.L957
1282:Drivers/STM32F4xx_HAL_Driver/Src/stm32f4xx_ll_sdmmc.c ****   {
 10289              		.loc 1 1282 8 is_stmt 1 view .LVU3474
1282:Drivers/STM32F4xx_HAL_Driver/Src/stm32f4xx_ll_sdmmc.c ****   {
 10290              		.loc 1 1282 11 is_stmt 0 view .LVU3475
 10291 008c 5C03     		lsls	r4, r3, #13
 10292 008e 31D4     		bmi	.L958
1286:Drivers/STM32F4xx_HAL_Driver/Src/stm32f4xx_ll_sdmmc.c ****   {
 10293              		.loc 1 1286 8 is_stmt 1 view .LVU3476
1286:Drivers/STM32F4xx_HAL_Driver/Src/stm32f4xx_ll_sdmmc.c ****   {
 10294              		.loc 1 1286 11 is_stmt 0 view .LVU3477
 10295 0090 9903     		lsls	r1, r3, #14
 10296 0092 2CD4     		bmi	.L959
1290:Drivers/STM32F4xx_HAL_Driver/Src/stm32f4xx_ll_sdmmc.c ****   {
 10297              		.loc 1 1290 8 is_stmt 1 view .LVU3478
ARM GAS  C:\Users\pw705\AppData\Local\Temp\cceieKfF.s 			page 265


1290:Drivers/STM32F4xx_HAL_Driver/Src/stm32f4xx_ll_sdmmc.c ****   {
 10298              		.loc 1 1290 11 is_stmt 0 view .LVU3479
 10299 0094 DA03     		lsls	r2, r3, #15
 10300 0096 3FD4     		bmi	.L960
1294:Drivers/STM32F4xx_HAL_Driver/Src/stm32f4xx_ll_sdmmc.c ****   {
 10301              		.loc 1 1294 8 is_stmt 1 view .LVU3480
1294:Drivers/STM32F4xx_HAL_Driver/Src/stm32f4xx_ll_sdmmc.c ****   {
 10302              		.loc 1 1294 11 is_stmt 0 view .LVU3481
 10303 0098 1C04     		lsls	r4, r3, #16
 10304 009a 3AD4     		bmi	.L961
1298:Drivers/STM32F4xx_HAL_Driver/Src/stm32f4xx_ll_sdmmc.c ****   {
 10305              		.loc 1 1298 8 is_stmt 1 view .LVU3482
1298:Drivers/STM32F4xx_HAL_Driver/Src/stm32f4xx_ll_sdmmc.c ****   {
 10306              		.loc 1 1298 11 is_stmt 0 view .LVU3483
 10307 009c 5904     		lsls	r1, r3, #17
 10308 009e 35D4     		bmi	.L962
1302:Drivers/STM32F4xx_HAL_Driver/Src/stm32f4xx_ll_sdmmc.c ****   {
 10309              		.loc 1 1302 8 is_stmt 1 view .LVU3484
1302:Drivers/STM32F4xx_HAL_Driver/Src/stm32f4xx_ll_sdmmc.c ****   {
 10310              		.loc 1 1302 11 is_stmt 0 view .LVU3485
 10311 00a0 9A04     		lsls	r2, r3, #18
 10312 00a2 30D4     		bmi	.L963
1306:Drivers/STM32F4xx_HAL_Driver/Src/stm32f4xx_ll_sdmmc.c ****   {
 10313              		.loc 1 1306 8 is_stmt 1 view .LVU3486
1308:Drivers/STM32F4xx_HAL_Driver/Src/stm32f4xx_ll_sdmmc.c ****   }
 10314              		.loc 1 1308 12 is_stmt 0 view .LVU3487
 10315 00a4 13F0080F 		tst	r3, #8
 10316 00a8 0CBF     		ite	eq
 10317 00aa 4FF48030 		moveq	r0, #65536
 10318 00ae 4FF40000 		movne	r0, #8388608
 10319 00b2 BCE7     		b	.L937
 10320              	.LVL598:
 10321              	.L975:
1308:Drivers/STM32F4xx_HAL_Driver/Src/stm32f4xx_ll_sdmmc.c ****   }
 10322              		.loc 1 1308 12 view .LVU3488
 10323              	.LBE1203:
 10324              	.LBE1202:
1207:Drivers/STM32F4xx_HAL_Driver/Src/stm32f4xx_ll_sdmmc.c **** 
 10325              		.loc 1 1207 5 is_stmt 1 view .LVU3489
 10326 00b4 0423     		movs	r3, #4
 10327 00b6 8363     		str	r3, [r0, #56]
1209:Drivers/STM32F4xx_HAL_Driver/Src/stm32f4xx_ll_sdmmc.c ****   }
 10328              		.loc 1 1209 5 view .LVU3490
1209:Drivers/STM32F4xx_HAL_Driver/Src/stm32f4xx_ll_sdmmc.c ****   }
 10329              		.loc 1 1209 12 is_stmt 0 view .LVU3491
 10330 00b8 1846     		mov	r0, r3
 10331              	.LVL599:
1209:Drivers/STM32F4xx_HAL_Driver/Src/stm32f4xx_ll_sdmmc.c ****   }
 10332              		.loc 1 1209 12 view .LVU3492
 10333 00ba B8E7     		b	.L937
 10334              	.LVL600:
 10335              	.L947:
 10336              	.LBB1207:
 10337              	.LBB1206:
1240:Drivers/STM32F4xx_HAL_Driver/Src/stm32f4xx_ll_sdmmc.c ****   }
 10338              		.loc 1 1240 12 view .LVU3493
 10339 00bc 4FF00070 		mov	r0, #33554432
ARM GAS  C:\Users\pw705\AppData\Local\Temp\cceieKfF.s 			page 266


 10340 00c0 B5E7     		b	.L937
 10341              	.L948:
1244:Drivers/STM32F4xx_HAL_Driver/Src/stm32f4xx_ll_sdmmc.c ****   }
 10342              		.loc 1 1244 12 view .LVU3494
 10343 00c2 4020     		movs	r0, #64
 10344 00c4 B3E7     		b	.L937
 10345              	.L949:
1248:Drivers/STM32F4xx_HAL_Driver/Src/stm32f4xx_ll_sdmmc.c ****   }
 10346              		.loc 1 1248 12 view .LVU3495
 10347 00c6 8020     		movs	r0, #128
 10348 00c8 B1E7     		b	.L937
 10349              	.LVL601:
 10350              	.L950:
1252:Drivers/STM32F4xx_HAL_Driver/Src/stm32f4xx_ll_sdmmc.c ****   }
 10351              		.loc 1 1252 12 view .LVU3496
 10352 00ca 4FF48070 		mov	r0, #256
 10353 00ce AEE7     		b	.L937
 10354              	.L951:
1256:Drivers/STM32F4xx_HAL_Driver/Src/stm32f4xx_ll_sdmmc.c ****   }
 10355              		.loc 1 1256 12 view .LVU3497
 10356 00d0 4FF40070 		mov	r0, #512
 10357 00d4 ABE7     		b	.L937
 10358              	.L952:
1260:Drivers/STM32F4xx_HAL_Driver/Src/stm32f4xx_ll_sdmmc.c ****   }
 10359              		.loc 1 1260 12 view .LVU3498
 10360 00d6 4FF48060 		mov	r0, #1024
 10361 00da A8E7     		b	.L937
 10362              	.L953:
1264:Drivers/STM32F4xx_HAL_Driver/Src/stm32f4xx_ll_sdmmc.c ****   }
 10363              		.loc 1 1264 12 view .LVU3499
 10364 00dc 4FF40060 		mov	r0, #2048
 10365 00e0 A5E7     		b	.L937
 10366              	.L954:
1268:Drivers/STM32F4xx_HAL_Driver/Src/stm32f4xx_ll_sdmmc.c ****   }
 10367              		.loc 1 1268 12 view .LVU3500
 10368 00e2 4FF48050 		mov	r0, #4096
 10369 00e6 A2E7     		b	.L937
 10370              	.L955:
1272:Drivers/STM32F4xx_HAL_Driver/Src/stm32f4xx_ll_sdmmc.c ****   }
 10371              		.loc 1 1272 12 view .LVU3501
 10372 00e8 4FF40050 		mov	r0, #8192
 10373 00ec 9FE7     		b	.L937
 10374              	.L959:
1288:Drivers/STM32F4xx_HAL_Driver/Src/stm32f4xx_ll_sdmmc.c ****   }
 10375              		.loc 1 1288 12 view .LVU3502
 10376 00ee 4FF48020 		mov	r0, #262144
 10377 00f2 9CE7     		b	.L937
 10378              	.L958:
1284:Drivers/STM32F4xx_HAL_Driver/Src/stm32f4xx_ll_sdmmc.c ****   }
 10379              		.loc 1 1284 12 view .LVU3503
 10380 00f4 4FF40030 		mov	r0, #131072
 10381 00f8 99E7     		b	.L937
 10382              	.L957:
1280:Drivers/STM32F4xx_HAL_Driver/Src/stm32f4xx_ll_sdmmc.c ****   }
 10383              		.loc 1 1280 12 view .LVU3504
 10384 00fa 4FF40040 		mov	r0, #32768
 10385 00fe 96E7     		b	.L937
ARM GAS  C:\Users\pw705\AppData\Local\Temp\cceieKfF.s 			page 267


 10386              	.L956:
1276:Drivers/STM32F4xx_HAL_Driver/Src/stm32f4xx_ll_sdmmc.c ****   }
 10387              		.loc 1 1276 12 view .LVU3505
 10388 0100 4FF48040 		mov	r0, #16384
 10389 0104 93E7     		b	.L937
 10390              	.L963:
1304:Drivers/STM32F4xx_HAL_Driver/Src/stm32f4xx_ll_sdmmc.c ****   }
 10391              		.loc 1 1304 12 view .LVU3506
 10392 0106 4FF48000 		mov	r0, #4194304
 10393 010a 90E7     		b	.L937
 10394              	.L962:
1300:Drivers/STM32F4xx_HAL_Driver/Src/stm32f4xx_ll_sdmmc.c ****   }
 10395              		.loc 1 1300 12 view .LVU3507
 10396 010c 4FF40010 		mov	r0, #2097152
 10397 0110 8DE7     		b	.L937
 10398              	.L961:
1296:Drivers/STM32F4xx_HAL_Driver/Src/stm32f4xx_ll_sdmmc.c ****   }
 10399              		.loc 1 1296 12 view .LVU3508
 10400 0112 4FF48010 		mov	r0, #1048576
 10401 0116 8AE7     		b	.L937
 10402              	.L960:
1292:Drivers/STM32F4xx_HAL_Driver/Src/stm32f4xx_ll_sdmmc.c ****   }
 10403              		.loc 1 1292 12 view .LVU3509
 10404 0118 4FF40020 		mov	r0, #524288
 10405 011c 87E7     		b	.L937
 10406              	.L978:
 10407 011e 00BF     		.align	2
 10408              	.L977:
 10409 0120 00000000 		.word	SystemCoreClock
 10410 0124 D34D6210 		.word	274877907
 10411 0128 08E0FFFD 		.word	-33562616
 10412              	.LBE1206:
 10413              	.LBE1207:
 10414              		.cfi_endproc
 10415              	.LFE170:
 10417              		.section	.text.SDMMC_GetCmdResp2,"ax",%progbits
 10418              		.align	1
 10419              		.p2align 2,,3
 10420              		.global	SDMMC_GetCmdResp2
 10421              		.syntax unified
 10422              		.thumb
 10423              		.thumb_func
 10425              	SDMMC_GetCmdResp2:
 10426              	.LVL602:
 10427              	.LFB171:
1322:Drivers/STM32F4xx_HAL_Driver/Src/stm32f4xx_ll_sdmmc.c ****   uint32_t sta_reg;
 10428              		.loc 1 1322 1 is_stmt 1 view -0
 10429              		.cfi_startproc
 10430              		@ args = 0, pretend = 0, frame = 0
 10431              		@ frame_needed = 0, uses_anonymous_args = 0
 10432              		@ link register save eliminated.
1323:Drivers/STM32F4xx_HAL_Driver/Src/stm32f4xx_ll_sdmmc.c ****   /* 8 is the number of required instructions cycles for the below loop statement.
 10433              		.loc 1 1323 3 view .LVU3511
1326:Drivers/STM32F4xx_HAL_Driver/Src/stm32f4xx_ll_sdmmc.c **** 
 10434              		.loc 1 1326 3 view .LVU3512
1326:Drivers/STM32F4xx_HAL_Driver/Src/stm32f4xx_ll_sdmmc.c **** 
 10435              		.loc 1 1326 60 is_stmt 0 view .LVU3513
ARM GAS  C:\Users\pw705\AppData\Local\Temp\cceieKfF.s 			page 268


 10436 0000 134A     		ldr	r2, .L993
 10437 0002 144B     		ldr	r3, .L993+4
 10438 0004 1268     		ldr	r2, [r2]
 10439 0006 A3FB0232 		umull	r3, r2, r3, r2
1326:Drivers/STM32F4xx_HAL_Driver/Src/stm32f4xx_ll_sdmmc.c **** 
 10440              		.loc 1 1326 12 view .LVU3514
 10441 000a 41F28831 		movw	r1, #5000
1326:Drivers/STM32F4xx_HAL_Driver/Src/stm32f4xx_ll_sdmmc.c **** 
 10442              		.loc 1 1326 60 view .LVU3515
 10443 000e 520A     		lsrs	r2, r2, #9
1326:Drivers/STM32F4xx_HAL_Driver/Src/stm32f4xx_ll_sdmmc.c **** 
 10444              		.loc 1 1326 12 view .LVU3516
 10445 0010 01FB02F2 		mul	r2, r1, r2
 10446              	.LVL603:
1328:Drivers/STM32F4xx_HAL_Driver/Src/stm32f4xx_ll_sdmmc.c ****   {
 10447              		.loc 1 1328 3 is_stmt 1 view .LVU3517
1330:Drivers/STM32F4xx_HAL_Driver/Src/stm32f4xx_ll_sdmmc.c ****     {
 10448              		.loc 1 1330 5 view .LVU3518
1330:Drivers/STM32F4xx_HAL_Driver/Src/stm32f4xx_ll_sdmmc.c ****     {
 10449              		.loc 1 1330 14 is_stmt 0 view .LVU3519
 10450 0014 531E     		subs	r3, r2, #1
 10451              	.LVL604:
1322:Drivers/STM32F4xx_HAL_Driver/Src/stm32f4xx_ll_sdmmc.c ****   uint32_t sta_reg;
 10452              		.loc 1 1322 1 view .LVU3520
 10453 0016 0146     		mov	r1, r0
1330:Drivers/STM32F4xx_HAL_Driver/Src/stm32f4xx_ll_sdmmc.c ****     {
 10454              		.loc 1 1330 8 view .LVU3521
 10455 0018 4AB1     		cbz	r2, .L986
 10456              	.LVL605:
 10457              	.L981:
1328:Drivers/STM32F4xx_HAL_Driver/Src/stm32f4xx_ll_sdmmc.c ****   {
 10458              		.loc 1 1328 3 is_stmt 1 view .LVU3522
1330:Drivers/STM32F4xx_HAL_Driver/Src/stm32f4xx_ll_sdmmc.c ****     {
 10459              		.loc 1 1330 5 view .LVU3523
1334:Drivers/STM32F4xx_HAL_Driver/Src/stm32f4xx_ll_sdmmc.c ****   } while (((sta_reg & (SDIO_FLAG_CCRCFAIL | SDIO_FLAG_CMDREND | SDIO_FLAG_CTIMEOUT)) == 0U) ||
 10460              		.loc 1 1334 5 view .LVU3524
1334:Drivers/STM32F4xx_HAL_Driver/Src/stm32f4xx_ll_sdmmc.c ****   } while (((sta_reg & (SDIO_FLAG_CCRCFAIL | SDIO_FLAG_CMDREND | SDIO_FLAG_CTIMEOUT)) == 0U) ||
 10461              		.loc 1 1334 13 is_stmt 0 view .LVU3525
 10462 001a 4A6B     		ldr	r2, [r1, #52]
 10463              	.LVL606:
1335:Drivers/STM32F4xx_HAL_Driver/Src/stm32f4xx_ll_sdmmc.c ****            ((sta_reg & SDIO_FLAG_CMDACT) != 0U));
 10464              		.loc 1 1335 94 is_stmt 1 view .LVU3526
 10465 001c 12F0450F 		tst	r2, #69
1330:Drivers/STM32F4xx_HAL_Driver/Src/stm32f4xx_ll_sdmmc.c ****     {
 10466              		.loc 1 1330 14 is_stmt 0 view .LVU3527
 10467 0020 03F1FF33 		add	r3, r3, #-1
 10468              	.LVL607:
1335:Drivers/STM32F4xx_HAL_Driver/Src/stm32f4xx_ll_sdmmc.c ****            ((sta_reg & SDIO_FLAG_CMDACT) != 0U));
 10469              		.loc 1 1335 94 view .LVU3528
 10470 0024 01D0     		beq	.L982
1335:Drivers/STM32F4xx_HAL_Driver/Src/stm32f4xx_ll_sdmmc.c ****            ((sta_reg & SDIO_FLAG_CMDACT) != 0U));
 10471              		.loc 1 1335 94 discriminator 1 view .LVU3529
 10472 0026 1205     		lsls	r2, r2, #20
 10473              	.LVL608:
1335:Drivers/STM32F4xx_HAL_Driver/Src/stm32f4xx_ll_sdmmc.c ****            ((sta_reg & SDIO_FLAG_CMDACT) != 0U));
 10474              		.loc 1 1335 94 discriminator 1 view .LVU3530
 10475 0028 04D5     		bpl	.L991
ARM GAS  C:\Users\pw705\AppData\Local\Temp\cceieKfF.s 			page 269


 10476              	.L982:
1330:Drivers/STM32F4xx_HAL_Driver/Src/stm32f4xx_ll_sdmmc.c ****     {
 10477              		.loc 1 1330 8 view .LVU3531
 10478 002a 581C     		adds	r0, r3, #1
 10479 002c F5D1     		bne	.L981
 10480              	.LVL609:
 10481              	.L986:
1332:Drivers/STM32F4xx_HAL_Driver/Src/stm32f4xx_ll_sdmmc.c ****     }
 10482              		.loc 1 1332 14 view .LVU3532
 10483 002e 4FF00040 		mov	r0, #-2147483648
1358:Drivers/STM32F4xx_HAL_Driver/Src/stm32f4xx_ll_sdmmc.c **** 
 10484              		.loc 1 1358 1 view .LVU3533
 10485 0032 7047     		bx	lr
 10486              	.LVL610:
 10487              	.L991:
1338:Drivers/STM32F4xx_HAL_Driver/Src/stm32f4xx_ll_sdmmc.c ****   {
 10488              		.loc 1 1338 3 is_stmt 1 view .LVU3534
1338:Drivers/STM32F4xx_HAL_Driver/Src/stm32f4xx_ll_sdmmc.c ****   {
 10489              		.loc 1 1338 7 is_stmt 0 view .LVU3535
 10490 0034 4B6B     		ldr	r3, [r1, #52]
 10491              	.LVL611:
1338:Drivers/STM32F4xx_HAL_Driver/Src/stm32f4xx_ll_sdmmc.c ****   {
 10492              		.loc 1 1338 6 view .LVU3536
 10493 0036 5B07     		lsls	r3, r3, #29
 10494 0038 07D4     		bmi	.L992
 10495              	.LVL612:
 10496              	.LBB1210:
 10497              	.LBI1210:
1321:Drivers/STM32F4xx_HAL_Driver/Src/stm32f4xx_ll_sdmmc.c **** {
 10498              		.loc 1 1321 10 is_stmt 1 view .LVU3537
 10499              	.LBB1211:
1344:Drivers/STM32F4xx_HAL_Driver/Src/stm32f4xx_ll_sdmmc.c ****   {
 10500              		.loc 1 1344 8 view .LVU3538
1344:Drivers/STM32F4xx_HAL_Driver/Src/stm32f4xx_ll_sdmmc.c ****   {
 10501              		.loc 1 1344 12 is_stmt 0 view .LVU3539
 10502 003a 486B     		ldr	r0, [r1, #52]
1344:Drivers/STM32F4xx_HAL_Driver/Src/stm32f4xx_ll_sdmmc.c ****   {
 10503              		.loc 1 1344 11 view .LVU3540
 10504 003c 10F00100 		ands	r0, r0, #1
1346:Drivers/STM32F4xx_HAL_Driver/Src/stm32f4xx_ll_sdmmc.c **** 
 10505              		.loc 1 1346 5 is_stmt 1 view .LVU3541
 10506 0040 14BF     		ite	ne
 10507 0042 0123     		movne	r3, #1
1354:Drivers/STM32F4xx_HAL_Driver/Src/stm32f4xx_ll_sdmmc.c ****   }
 10508              		.loc 1 1354 5 view .LVU3542
 10509 0044 C523     		moveq	r3, #197
 10510 0046 8B63     		str	r3, [r1, #56]
1357:Drivers/STM32F4xx_HAL_Driver/Src/stm32f4xx_ll_sdmmc.c **** }
 10511              		.loc 1 1357 3 view .LVU3543
1357:Drivers/STM32F4xx_HAL_Driver/Src/stm32f4xx_ll_sdmmc.c **** }
 10512              		.loc 1 1357 10 is_stmt 0 view .LVU3544
 10513 0048 7047     		bx	lr
 10514              	.LVL613:
 10515              	.L992:
1357:Drivers/STM32F4xx_HAL_Driver/Src/stm32f4xx_ll_sdmmc.c **** }
 10516              		.loc 1 1357 10 view .LVU3545
 10517              	.LBE1211:
ARM GAS  C:\Users\pw705\AppData\Local\Temp\cceieKfF.s 			page 270


 10518              	.LBE1210:
1340:Drivers/STM32F4xx_HAL_Driver/Src/stm32f4xx_ll_sdmmc.c **** 
 10519              		.loc 1 1340 5 is_stmt 1 view .LVU3546
 10520 004a 0420     		movs	r0, #4
 10521 004c 8863     		str	r0, [r1, #56]
1342:Drivers/STM32F4xx_HAL_Driver/Src/stm32f4xx_ll_sdmmc.c ****   }
 10522              		.loc 1 1342 5 view .LVU3547
1342:Drivers/STM32F4xx_HAL_Driver/Src/stm32f4xx_ll_sdmmc.c ****   }
 10523              		.loc 1 1342 12 is_stmt 0 view .LVU3548
 10524 004e 7047     		bx	lr
 10525              	.L994:
 10526              		.align	2
 10527              	.L993:
 10528 0050 00000000 		.word	SystemCoreClock
 10529 0054 D34D6210 		.word	274877907
 10530              		.cfi_endproc
 10531              	.LFE171:
 10533              		.section	.text.SDMMC_GetCmdResp3,"ax",%progbits
 10534              		.align	1
 10535              		.p2align 2,,3
 10536              		.global	SDMMC_GetCmdResp3
 10537              		.syntax unified
 10538              		.thumb
 10539              		.thumb_func
 10541              	SDMMC_GetCmdResp3:
 10542              	.LVL614:
 10543              	.LFB172:
1366:Drivers/STM32F4xx_HAL_Driver/Src/stm32f4xx_ll_sdmmc.c ****   uint32_t sta_reg;
 10544              		.loc 1 1366 1 is_stmt 1 view -0
 10545              		.cfi_startproc
 10546              		@ args = 0, pretend = 0, frame = 0
 10547              		@ frame_needed = 0, uses_anonymous_args = 0
 10548              		@ link register save eliminated.
1367:Drivers/STM32F4xx_HAL_Driver/Src/stm32f4xx_ll_sdmmc.c ****   /* 8 is the number of required instructions cycles for the below loop statement.
 10549              		.loc 1 1367 3 view .LVU3550
1370:Drivers/STM32F4xx_HAL_Driver/Src/stm32f4xx_ll_sdmmc.c **** 
 10550              		.loc 1 1370 3 view .LVU3551
1370:Drivers/STM32F4xx_HAL_Driver/Src/stm32f4xx_ll_sdmmc.c **** 
 10551              		.loc 1 1370 60 is_stmt 0 view .LVU3552
 10552 0000 114A     		ldr	r2, .L1007
 10553 0002 124B     		ldr	r3, .L1007+4
 10554 0004 1268     		ldr	r2, [r2]
 10555 0006 A3FB0232 		umull	r3, r2, r3, r2
1370:Drivers/STM32F4xx_HAL_Driver/Src/stm32f4xx_ll_sdmmc.c **** 
 10556              		.loc 1 1370 12 view .LVU3553
 10557 000a 41F28831 		movw	r1, #5000
1370:Drivers/STM32F4xx_HAL_Driver/Src/stm32f4xx_ll_sdmmc.c **** 
 10558              		.loc 1 1370 60 view .LVU3554
 10559 000e 520A     		lsrs	r2, r2, #9
1370:Drivers/STM32F4xx_HAL_Driver/Src/stm32f4xx_ll_sdmmc.c **** 
 10560              		.loc 1 1370 12 view .LVU3555
 10561 0010 01FB02F2 		mul	r2, r1, r2
 10562              	.LVL615:
1372:Drivers/STM32F4xx_HAL_Driver/Src/stm32f4xx_ll_sdmmc.c ****   {
 10563              		.loc 1 1372 3 is_stmt 1 view .LVU3556
1374:Drivers/STM32F4xx_HAL_Driver/Src/stm32f4xx_ll_sdmmc.c ****     {
 10564              		.loc 1 1374 5 view .LVU3557
ARM GAS  C:\Users\pw705\AppData\Local\Temp\cceieKfF.s 			page 271


1374:Drivers/STM32F4xx_HAL_Driver/Src/stm32f4xx_ll_sdmmc.c ****     {
 10565              		.loc 1 1374 14 is_stmt 0 view .LVU3558
 10566 0014 531E     		subs	r3, r2, #1
 10567              	.LVL616:
1366:Drivers/STM32F4xx_HAL_Driver/Src/stm32f4xx_ll_sdmmc.c ****   uint32_t sta_reg;
 10568              		.loc 1 1366 1 view .LVU3559
 10569 0016 0146     		mov	r1, r0
1374:Drivers/STM32F4xx_HAL_Driver/Src/stm32f4xx_ll_sdmmc.c ****     {
 10570              		.loc 1 1374 8 view .LVU3560
 10571 0018 4AB1     		cbz	r2, .L1001
 10572              	.LVL617:
 10573              	.L997:
1372:Drivers/STM32F4xx_HAL_Driver/Src/stm32f4xx_ll_sdmmc.c ****   {
 10574              		.loc 1 1372 3 is_stmt 1 view .LVU3561
1374:Drivers/STM32F4xx_HAL_Driver/Src/stm32f4xx_ll_sdmmc.c ****     {
 10575              		.loc 1 1374 5 view .LVU3562
1378:Drivers/STM32F4xx_HAL_Driver/Src/stm32f4xx_ll_sdmmc.c ****   } while (((sta_reg & (SDIO_FLAG_CCRCFAIL | SDIO_FLAG_CMDREND | SDIO_FLAG_CTIMEOUT)) == 0U) ||
 10576              		.loc 1 1378 5 view .LVU3563
1378:Drivers/STM32F4xx_HAL_Driver/Src/stm32f4xx_ll_sdmmc.c ****   } while (((sta_reg & (SDIO_FLAG_CCRCFAIL | SDIO_FLAG_CMDREND | SDIO_FLAG_CTIMEOUT)) == 0U) ||
 10577              		.loc 1 1378 13 is_stmt 0 view .LVU3564
 10578 001a 4A6B     		ldr	r2, [r1, #52]
 10579              	.LVL618:
1379:Drivers/STM32F4xx_HAL_Driver/Src/stm32f4xx_ll_sdmmc.c ****            ((sta_reg & SDIO_FLAG_CMDACT) != 0U));
 10580              		.loc 1 1379 94 is_stmt 1 view .LVU3565
 10581 001c 12F0450F 		tst	r2, #69
1374:Drivers/STM32F4xx_HAL_Driver/Src/stm32f4xx_ll_sdmmc.c ****     {
 10582              		.loc 1 1374 14 is_stmt 0 view .LVU3566
 10583 0020 03F1FF33 		add	r3, r3, #-1
 10584              	.LVL619:
1379:Drivers/STM32F4xx_HAL_Driver/Src/stm32f4xx_ll_sdmmc.c ****            ((sta_reg & SDIO_FLAG_CMDACT) != 0U));
 10585              		.loc 1 1379 94 view .LVU3567
 10586 0024 01D0     		beq	.L998
1379:Drivers/STM32F4xx_HAL_Driver/Src/stm32f4xx_ll_sdmmc.c ****            ((sta_reg & SDIO_FLAG_CMDACT) != 0U));
 10587              		.loc 1 1379 94 discriminator 1 view .LVU3568
 10588 0026 1205     		lsls	r2, r2, #20
 10589              	.LVL620:
1379:Drivers/STM32F4xx_HAL_Driver/Src/stm32f4xx_ll_sdmmc.c ****            ((sta_reg & SDIO_FLAG_CMDACT) != 0U));
 10590              		.loc 1 1379 94 discriminator 1 view .LVU3569
 10591 0028 04D5     		bpl	.L1006
 10592              	.L998:
1374:Drivers/STM32F4xx_HAL_Driver/Src/stm32f4xx_ll_sdmmc.c ****     {
 10593              		.loc 1 1374 8 view .LVU3570
 10594 002a 581C     		adds	r0, r3, #1
 10595 002c F5D1     		bne	.L997
 10596              	.LVL621:
 10597              	.L1001:
1376:Drivers/STM32F4xx_HAL_Driver/Src/stm32f4xx_ll_sdmmc.c ****     }
 10598              		.loc 1 1376 14 view .LVU3571
 10599 002e 4FF00040 		mov	r0, #-2147483648
1395:Drivers/STM32F4xx_HAL_Driver/Src/stm32f4xx_ll_sdmmc.c **** 
 10600              		.loc 1 1395 1 view .LVU3572
 10601 0032 7047     		bx	lr
 10602              	.LVL622:
 10603              	.L1006:
 10604              	.LBB1214:
 10605              	.LBI1214:
1365:Drivers/STM32F4xx_HAL_Driver/Src/stm32f4xx_ll_sdmmc.c **** {
ARM GAS  C:\Users\pw705\AppData\Local\Temp\cceieKfF.s 			page 272


 10606              		.loc 1 1365 10 is_stmt 1 view .LVU3573
 10607              	.LBB1215:
1382:Drivers/STM32F4xx_HAL_Driver/Src/stm32f4xx_ll_sdmmc.c ****   {
 10608              		.loc 1 1382 3 view .LVU3574
1382:Drivers/STM32F4xx_HAL_Driver/Src/stm32f4xx_ll_sdmmc.c ****   {
 10609              		.loc 1 1382 7 is_stmt 0 view .LVU3575
 10610 0034 486B     		ldr	r0, [r1, #52]
1382:Drivers/STM32F4xx_HAL_Driver/Src/stm32f4xx_ll_sdmmc.c ****   {
 10611              		.loc 1 1382 6 view .LVU3576
 10612 0036 10F00400 		ands	r0, r0, #4
1384:Drivers/STM32F4xx_HAL_Driver/Src/stm32f4xx_ll_sdmmc.c **** 
 10613              		.loc 1 1384 5 is_stmt 1 view .LVU3577
 10614 003a 15BF     		itete	ne
 10615 003c 0420     		movne	r0, #4
1391:Drivers/STM32F4xx_HAL_Driver/Src/stm32f4xx_ll_sdmmc.c ****   }
 10616              		.loc 1 1391 5 is_stmt 0 view .LVU3578
 10617 003e C523     		moveq	r3, #197
 10618              	.LVL623:
1384:Drivers/STM32F4xx_HAL_Driver/Src/stm32f4xx_ll_sdmmc.c **** 
 10619              		.loc 1 1384 5 view .LVU3579
 10620 0040 8863     		strne	r0, [r1, #56]
1386:Drivers/STM32F4xx_HAL_Driver/Src/stm32f4xx_ll_sdmmc.c ****   }
 10621              		.loc 1 1386 5 is_stmt 1 view .LVU3580
1391:Drivers/STM32F4xx_HAL_Driver/Src/stm32f4xx_ll_sdmmc.c ****   }
 10622              		.loc 1 1391 5 is_stmt 0 view .LVU3581
 10623 0042 8B63     		streq	r3, [r1, #56]
1391:Drivers/STM32F4xx_HAL_Driver/Src/stm32f4xx_ll_sdmmc.c ****   }
 10624              		.loc 1 1391 5 is_stmt 1 view .LVU3582
1394:Drivers/STM32F4xx_HAL_Driver/Src/stm32f4xx_ll_sdmmc.c **** }
 10625              		.loc 1 1394 3 view .LVU3583
1394:Drivers/STM32F4xx_HAL_Driver/Src/stm32f4xx_ll_sdmmc.c **** }
 10626              		.loc 1 1394 10 is_stmt 0 view .LVU3584
 10627 0044 7047     		bx	lr
 10628              	.L1008:
 10629 0046 00BF     		.align	2
 10630              	.L1007:
 10631 0048 00000000 		.word	SystemCoreClock
 10632 004c D34D6210 		.word	274877907
 10633              	.LBE1215:
 10634              	.LBE1214:
 10635              		.cfi_endproc
 10636              	.LFE172:
 10638              		.section	.text.SDMMC_GetCmdResp6,"ax",%progbits
 10639              		.align	1
 10640              		.p2align 2,,3
 10641              		.global	SDMMC_GetCmdResp6
 10642              		.syntax unified
 10643              		.thumb
 10644              		.thumb_func
 10646              	SDMMC_GetCmdResp6:
 10647              	.LVL624:
 10648              	.LFB173:
1406:Drivers/STM32F4xx_HAL_Driver/Src/stm32f4xx_ll_sdmmc.c ****   uint32_t response_r1;
 10649              		.loc 1 1406 1 is_stmt 1 view -0
 10650              		.cfi_startproc
 10651              		@ args = 0, pretend = 0, frame = 0
 10652              		@ frame_needed = 0, uses_anonymous_args = 0
ARM GAS  C:\Users\pw705\AppData\Local\Temp\cceieKfF.s 			page 273


 10653              		@ link register save eliminated.
1406:Drivers/STM32F4xx_HAL_Driver/Src/stm32f4xx_ll_sdmmc.c ****   uint32_t response_r1;
 10654              		.loc 1 1406 1 is_stmt 0 view .LVU3586
 10655 0000 10B4     		push	{r4}
 10656              		.cfi_def_cfa_offset 4
 10657              		.cfi_offset 4, -4
1412:Drivers/STM32F4xx_HAL_Driver/Src/stm32f4xx_ll_sdmmc.c **** 
 10658              		.loc 1 1412 60 view .LVU3587
 10659 0002 224C     		ldr	r4, .L1032
 10660 0004 224B     		ldr	r3, .L1032+4
 10661 0006 2468     		ldr	r4, [r4]
 10662 0008 A3FB0434 		umull	r3, r4, r3, r4
 10663 000c 640A     		lsrs	r4, r4, #9
1412:Drivers/STM32F4xx_HAL_Driver/Src/stm32f4xx_ll_sdmmc.c **** 
 10664              		.loc 1 1412 12 view .LVU3588
 10665 000e 41F28833 		movw	r3, #5000
 10666 0012 03FB04F4 		mul	r4, r3, r4
1407:Drivers/STM32F4xx_HAL_Driver/Src/stm32f4xx_ll_sdmmc.c ****   uint32_t sta_reg;
 10667              		.loc 1 1407 3 is_stmt 1 view .LVU3589
1408:Drivers/STM32F4xx_HAL_Driver/Src/stm32f4xx_ll_sdmmc.c **** 
 10668              		.loc 1 1408 3 view .LVU3590
1412:Drivers/STM32F4xx_HAL_Driver/Src/stm32f4xx_ll_sdmmc.c **** 
 10669              		.loc 1 1412 3 view .LVU3591
 10670              	.LVL625:
1414:Drivers/STM32F4xx_HAL_Driver/Src/stm32f4xx_ll_sdmmc.c ****   {
 10671              		.loc 1 1414 3 view .LVU3592
1416:Drivers/STM32F4xx_HAL_Driver/Src/stm32f4xx_ll_sdmmc.c ****     {
 10672              		.loc 1 1416 5 view .LVU3593
1416:Drivers/STM32F4xx_HAL_Driver/Src/stm32f4xx_ll_sdmmc.c ****     {
 10673              		.loc 1 1416 5 is_stmt 0 view .LVU3594
 10674 0016 631E     		subs	r3, r4, #1
 10675              	.LVL626:
1416:Drivers/STM32F4xx_HAL_Driver/Src/stm32f4xx_ll_sdmmc.c ****     {
 10676              		.loc 1 1416 8 view .LVU3595
 10677 0018 4CB1     		cbz	r4, .L1019
 10678              	.LVL627:
 10679              	.L1011:
1414:Drivers/STM32F4xx_HAL_Driver/Src/stm32f4xx_ll_sdmmc.c ****   {
 10680              		.loc 1 1414 3 is_stmt 1 view .LVU3596
1416:Drivers/STM32F4xx_HAL_Driver/Src/stm32f4xx_ll_sdmmc.c ****     {
 10681              		.loc 1 1416 5 view .LVU3597
1420:Drivers/STM32F4xx_HAL_Driver/Src/stm32f4xx_ll_sdmmc.c ****   } while (((sta_reg & (SDIO_FLAG_CCRCFAIL | SDIO_FLAG_CMDREND | SDIO_FLAG_CTIMEOUT)) == 0U) ||
 10682              		.loc 1 1420 5 view .LVU3598
1420:Drivers/STM32F4xx_HAL_Driver/Src/stm32f4xx_ll_sdmmc.c ****   } while (((sta_reg & (SDIO_FLAG_CCRCFAIL | SDIO_FLAG_CMDREND | SDIO_FLAG_CTIMEOUT)) == 0U) ||
 10683              		.loc 1 1420 13 is_stmt 0 view .LVU3599
 10684 001a 446B     		ldr	r4, [r0, #52]
 10685              	.LVL628:
1421:Drivers/STM32F4xx_HAL_Driver/Src/stm32f4xx_ll_sdmmc.c ****            ((sta_reg & SDIO_FLAG_CMDACT) != 0U));
 10686              		.loc 1 1421 94 is_stmt 1 view .LVU3600
 10687 001c 14F0450F 		tst	r4, #69
1416:Drivers/STM32F4xx_HAL_Driver/Src/stm32f4xx_ll_sdmmc.c ****     {
 10688              		.loc 1 1416 14 is_stmt 0 view .LVU3601
 10689 0020 03F1FF33 		add	r3, r3, #-1
 10690              	.LVL629:
1421:Drivers/STM32F4xx_HAL_Driver/Src/stm32f4xx_ll_sdmmc.c ****            ((sta_reg & SDIO_FLAG_CMDACT) != 0U));
 10691              		.loc 1 1421 94 view .LVU3602
 10692 0024 01D0     		beq	.L1012
ARM GAS  C:\Users\pw705\AppData\Local\Temp\cceieKfF.s 			page 274


1421:Drivers/STM32F4xx_HAL_Driver/Src/stm32f4xx_ll_sdmmc.c ****            ((sta_reg & SDIO_FLAG_CMDACT) != 0U));
 10693              		.loc 1 1421 94 discriminator 1 view .LVU3603
 10694 0026 2405     		lsls	r4, r4, #20
 10695              	.LVL630:
1421:Drivers/STM32F4xx_HAL_Driver/Src/stm32f4xx_ll_sdmmc.c ****            ((sta_reg & SDIO_FLAG_CMDACT) != 0U));
 10696              		.loc 1 1421 94 discriminator 1 view .LVU3604
 10697 0028 06D5     		bpl	.L1028
 10698              	.L1012:
1416:Drivers/STM32F4xx_HAL_Driver/Src/stm32f4xx_ll_sdmmc.c ****     {
 10699              		.loc 1 1416 8 view .LVU3605
 10700 002a 5C1C     		adds	r4, r3, #1
 10701 002c F5D1     		bne	.L1011
 10702              	.LVL631:
 10703              	.L1019:
1418:Drivers/STM32F4xx_HAL_Driver/Src/stm32f4xx_ll_sdmmc.c ****     }
 10704              		.loc 1 1418 14 view .LVU3606
 10705 002e 4FF00040 		mov	r0, #-2147483648
 10706              	.LVL632:
 10707              	.L1009:
1471:Drivers/STM32F4xx_HAL_Driver/Src/stm32f4xx_ll_sdmmc.c **** 
 10708              		.loc 1 1471 1 view .LVU3607
 10709 0032 5DF8044B 		ldr	r4, [sp], #4
 10710              		.cfi_remember_state
 10711              		.cfi_restore 4
 10712              		.cfi_def_cfa_offset 0
 10713 0036 7047     		bx	lr
 10714              	.LVL633:
 10715              	.L1028:
 10716              		.cfi_restore_state
1424:Drivers/STM32F4xx_HAL_Driver/Src/stm32f4xx_ll_sdmmc.c ****   {
 10717              		.loc 1 1424 3 is_stmt 1 view .LVU3608
1424:Drivers/STM32F4xx_HAL_Driver/Src/stm32f4xx_ll_sdmmc.c ****   {
 10718              		.loc 1 1424 7 is_stmt 0 view .LVU3609
 10719 0038 436B     		ldr	r3, [r0, #52]
 10720              	.LVL634:
1424:Drivers/STM32F4xx_HAL_Driver/Src/stm32f4xx_ll_sdmmc.c ****   {
 10721              		.loc 1 1424 6 view .LVU3610
 10722 003a 5B07     		lsls	r3, r3, #29
 10723 003c 1BD4     		bmi	.L1029
1430:Drivers/STM32F4xx_HAL_Driver/Src/stm32f4xx_ll_sdmmc.c ****   {
 10724              		.loc 1 1430 8 is_stmt 1 view .LVU3611
1430:Drivers/STM32F4xx_HAL_Driver/Src/stm32f4xx_ll_sdmmc.c ****   {
 10725              		.loc 1 1430 12 is_stmt 0 view .LVU3612
 10726 003e 436B     		ldr	r3, [r0, #52]
1430:Drivers/STM32F4xx_HAL_Driver/Src/stm32f4xx_ll_sdmmc.c ****   {
 10727              		.loc 1 1430 11 view .LVU3613
 10728 0040 DC07     		lsls	r4, r3, #31
 10729 0042 05D4     		bmi	.L1030
1439:Drivers/STM32F4xx_HAL_Driver/Src/stm32f4xx_ll_sdmmc.c **** 
 10730              		.loc 1 1439 3 is_stmt 1 view .LVU3614
1442:Drivers/STM32F4xx_HAL_Driver/Src/stm32f4xx_ll_sdmmc.c ****   {
 10731              		.loc 1 1442 3 view .LVU3615
 10732              	.LVL635:
 10733              	.LBB1224:
 10734              	.LBI1224:
 375:Drivers/STM32F4xx_HAL_Driver/Src/stm32f4xx_ll_sdmmc.c **** {
 10735              		.loc 1 375 9 view .LVU3616
ARM GAS  C:\Users\pw705\AppData\Local\Temp\cceieKfF.s 			page 275


 10736              	.LBB1225:
 377:Drivers/STM32F4xx_HAL_Driver/Src/stm32f4xx_ll_sdmmc.c **** }
 10737              		.loc 1 377 3 view .LVU3617
 377:Drivers/STM32F4xx_HAL_Driver/Src/stm32f4xx_ll_sdmmc.c **** }
 10738              		.loc 1 377 25 is_stmt 0 view .LVU3618
 10739 0044 0369     		ldr	r3, [r0, #16]
 10740              	.LVL636:
 377:Drivers/STM32F4xx_HAL_Driver/Src/stm32f4xx_ll_sdmmc.c **** }
 10741              		.loc 1 377 25 view .LVU3619
 10742              	.LBE1225:
 10743              	.LBE1224:
1442:Drivers/STM32F4xx_HAL_Driver/Src/stm32f4xx_ll_sdmmc.c ****   {
 10744              		.loc 1 1442 6 view .LVU3620
 10745 0046 DBB2     		uxtb	r3, r3
 10746 0048 9942     		cmp	r1, r3
 10747 004a 04D0     		beq	.L1016
 10748              	.L1015:
1434:Drivers/STM32F4xx_HAL_Driver/Src/stm32f4xx_ll_sdmmc.c ****   }
 10749              		.loc 1 1434 12 view .LVU3621
 10750 004c 0120     		movs	r0, #1
 10751              	.LVL637:
1434:Drivers/STM32F4xx_HAL_Driver/Src/stm32f4xx_ll_sdmmc.c ****   }
 10752              		.loc 1 1434 12 view .LVU3622
 10753 004e F0E7     		b	.L1009
 10754              	.LVL638:
 10755              	.L1030:
1432:Drivers/STM32F4xx_HAL_Driver/Src/stm32f4xx_ll_sdmmc.c **** 
 10756              		.loc 1 1432 5 is_stmt 1 view .LVU3623
 10757 0050 0123     		movs	r3, #1
 10758 0052 8363     		str	r3, [r0, #56]
1434:Drivers/STM32F4xx_HAL_Driver/Src/stm32f4xx_ll_sdmmc.c ****   }
 10759              		.loc 1 1434 5 view .LVU3624
1434:Drivers/STM32F4xx_HAL_Driver/Src/stm32f4xx_ll_sdmmc.c ****   }
 10760              		.loc 1 1434 12 is_stmt 0 view .LVU3625
 10761 0054 FAE7     		b	.L1015
 10762              	.L1016:
 10763              	.LVL639:
 10764              	.LBB1226:
 10765              	.LBI1226:
1405:Drivers/STM32F4xx_HAL_Driver/Src/stm32f4xx_ll_sdmmc.c **** {
 10766              		.loc 1 1405 10 is_stmt 1 view .LVU3626
 10767              	.LBB1227:
1448:Drivers/STM32F4xx_HAL_Driver/Src/stm32f4xx_ll_sdmmc.c **** 
 10768              		.loc 1 1448 3 view .LVU3627
 10769 0056 C523     		movs	r3, #197
 10770 0058 8363     		str	r3, [r0, #56]
1451:Drivers/STM32F4xx_HAL_Driver/Src/stm32f4xx_ll_sdmmc.c **** 
 10771              		.loc 1 1451 3 view .LVU3628
 10772              	.LVL640:
 10773              	.LBB1228:
 10774              	.LBI1228:
 391:Drivers/STM32F4xx_HAL_Driver/Src/stm32f4xx_ll_sdmmc.c **** {
 10775              		.loc 1 391 10 view .LVU3629
 10776              	.LBB1229:
 393:Drivers/STM32F4xx_HAL_Driver/Src/stm32f4xx_ll_sdmmc.c **** 
 10777              		.loc 1 393 3 view .LVU3630
 396:Drivers/STM32F4xx_HAL_Driver/Src/stm32f4xx_ll_sdmmc.c **** 
ARM GAS  C:\Users\pw705\AppData\Local\Temp\cceieKfF.s 			page 276


 10778              		.loc 1 396 3 view .LVU3631
 399:Drivers/STM32F4xx_HAL_Driver/Src/stm32f4xx_ll_sdmmc.c **** 
 10779              		.loc 1 399 3 view .LVU3632
 401:Drivers/STM32F4xx_HAL_Driver/Src/stm32f4xx_ll_sdmmc.c **** }
 10780              		.loc 1 401 3 view .LVU3633
 401:Drivers/STM32F4xx_HAL_Driver/Src/stm32f4xx_ll_sdmmc.c **** }
 10781              		.loc 1 401 11 is_stmt 0 view .LVU3634
 10782 005a 4369     		ldr	r3, [r0, #20]
 10783              	.LVL641:
 401:Drivers/STM32F4xx_HAL_Driver/Src/stm32f4xx_ll_sdmmc.c **** }
 10784              		.loc 1 401 11 view .LVU3635
 10785              	.LBE1229:
 10786              	.LBE1228:
1453:Drivers/STM32F4xx_HAL_Driver/Src/stm32f4xx_ll_sdmmc.c ****   {
 10787              		.loc 1 1453 3 is_stmt 1 view .LVU3636
1453:Drivers/STM32F4xx_HAL_Driver/Src/stm32f4xx_ll_sdmmc.c ****   {
 10788              		.loc 1 1453 6 is_stmt 0 view .LVU3637
 10789 005c 13F46040 		ands	r0, r3, #57344
 10790              	.LVL642:
1453:Drivers/STM32F4xx_HAL_Driver/Src/stm32f4xx_ll_sdmmc.c ****   {
 10791              		.loc 1 1453 6 view .LVU3638
 10792 0060 10D0     		beq	.L1031
1459:Drivers/STM32F4xx_HAL_Driver/Src/stm32f4xx_ll_sdmmc.c ****   {
 10793              		.loc 1 1459 8 is_stmt 1 view .LVU3639
1459:Drivers/STM32F4xx_HAL_Driver/Src/stm32f4xx_ll_sdmmc.c ****   {
 10794              		.loc 1 1459 11 is_stmt 0 view .LVU3640
 10795 0062 5A04     		lsls	r2, r3, #17
 10796              	.LVL643:
1459:Drivers/STM32F4xx_HAL_Driver/Src/stm32f4xx_ll_sdmmc.c ****   {
 10797              		.loc 1 1459 11 view .LVU3641
 10798 0064 0BD4     		bmi	.L1020
1463:Drivers/STM32F4xx_HAL_Driver/Src/stm32f4xx_ll_sdmmc.c ****   {
 10799              		.loc 1 1463 8 is_stmt 1 view .LVU3642
1465:Drivers/STM32F4xx_HAL_Driver/Src/stm32f4xx_ll_sdmmc.c ****   }
 10800              		.loc 1 1465 12 is_stmt 0 view .LVU3643
 10801 0066 13F4004F 		tst	r3, #32768
 10802 006a 0CBF     		ite	eq
 10803 006c 4FF48030 		moveq	r0, #65536
 10804 0070 4FF48050 		movne	r0, #4096
 10805 0074 DDE7     		b	.L1009
 10806              	.LVL644:
 10807              	.L1029:
1465:Drivers/STM32F4xx_HAL_Driver/Src/stm32f4xx_ll_sdmmc.c ****   }
 10808              		.loc 1 1465 12 view .LVU3644
 10809              	.LBE1227:
 10810              	.LBE1226:
1426:Drivers/STM32F4xx_HAL_Driver/Src/stm32f4xx_ll_sdmmc.c **** 
 10811              		.loc 1 1426 5 is_stmt 1 view .LVU3645
 10812 0076 0423     		movs	r3, #4
 10813 0078 8363     		str	r3, [r0, #56]
1428:Drivers/STM32F4xx_HAL_Driver/Src/stm32f4xx_ll_sdmmc.c ****   }
 10814              		.loc 1 1428 5 view .LVU3646
1428:Drivers/STM32F4xx_HAL_Driver/Src/stm32f4xx_ll_sdmmc.c ****   }
 10815              		.loc 1 1428 12 is_stmt 0 view .LVU3647
 10816 007a 1846     		mov	r0, r3
 10817              	.LVL645:
1428:Drivers/STM32F4xx_HAL_Driver/Src/stm32f4xx_ll_sdmmc.c ****   }
ARM GAS  C:\Users\pw705\AppData\Local\Temp\cceieKfF.s 			page 277


 10818              		.loc 1 1428 12 view .LVU3648
 10819 007c D9E7     		b	.L1009
 10820              	.LVL646:
 10821              	.L1020:
 10822              	.LBB1231:
 10823              	.LBB1230:
1461:Drivers/STM32F4xx_HAL_Driver/Src/stm32f4xx_ll_sdmmc.c ****   }
 10824              		.loc 1 1461 12 view .LVU3649
 10825 007e 4FF40050 		mov	r0, #8192
 10826 0082 D6E7     		b	.L1009
 10827              	.LVL647:
 10828              	.L1031:
1455:Drivers/STM32F4xx_HAL_Driver/Src/stm32f4xx_ll_sdmmc.c **** 
 10829              		.loc 1 1455 5 is_stmt 1 view .LVU3650
1455:Drivers/STM32F4xx_HAL_Driver/Src/stm32f4xx_ll_sdmmc.c **** 
 10830              		.loc 1 1455 36 is_stmt 0 view .LVU3651
 10831 0084 1B0C     		lsrs	r3, r3, #16
 10832              	.LVL648:
1455:Drivers/STM32F4xx_HAL_Driver/Src/stm32f4xx_ll_sdmmc.c **** 
 10833              		.loc 1 1455 13 view .LVU3652
 10834 0086 1380     		strh	r3, [r2]	@ movhi
1457:Drivers/STM32F4xx_HAL_Driver/Src/stm32f4xx_ll_sdmmc.c ****   }
 10835              		.loc 1 1457 5 is_stmt 1 view .LVU3653
1457:Drivers/STM32F4xx_HAL_Driver/Src/stm32f4xx_ll_sdmmc.c ****   }
 10836              		.loc 1 1457 12 is_stmt 0 view .LVU3654
 10837 0088 D3E7     		b	.L1009
 10838              	.L1033:
 10839 008a 00BF     		.align	2
 10840              	.L1032:
 10841 008c 00000000 		.word	SystemCoreClock
 10842 0090 D34D6210 		.word	274877907
 10843              	.LBE1230:
 10844              	.LBE1231:
 10845              		.cfi_endproc
 10846              	.LFE173:
 10848              		.section	.text.SDMMC_GetCmdResp7,"ax",%progbits
 10849              		.align	1
 10850              		.p2align 2,,3
 10851              		.global	SDMMC_GetCmdResp7
 10852              		.syntax unified
 10853              		.thumb
 10854              		.thumb_func
 10856              	SDMMC_GetCmdResp7:
 10857              	.LVL649:
 10858              	.LFB174:
1479:Drivers/STM32F4xx_HAL_Driver/Src/stm32f4xx_ll_sdmmc.c ****   uint32_t sta_reg;
 10859              		.loc 1 1479 1 is_stmt 1 view -0
 10860              		.cfi_startproc
 10861              		@ args = 0, pretend = 0, frame = 0
 10862              		@ frame_needed = 0, uses_anonymous_args = 0
 10863              		@ link register save eliminated.
1480:Drivers/STM32F4xx_HAL_Driver/Src/stm32f4xx_ll_sdmmc.c ****   /* 8 is the number of required instructions cycles for the below loop statement.
 10864              		.loc 1 1480 3 view .LVU3656
1483:Drivers/STM32F4xx_HAL_Driver/Src/stm32f4xx_ll_sdmmc.c **** 
 10865              		.loc 1 1483 3 view .LVU3657
1483:Drivers/STM32F4xx_HAL_Driver/Src/stm32f4xx_ll_sdmmc.c **** 
 10866              		.loc 1 1483 60 is_stmt 0 view .LVU3658
ARM GAS  C:\Users\pw705\AppData\Local\Temp\cceieKfF.s 			page 278


 10867 0000 164A     		ldr	r2, .L1053
 10868 0002 174B     		ldr	r3, .L1053+4
 10869 0004 1268     		ldr	r2, [r2]
 10870 0006 A3FB0232 		umull	r3, r2, r3, r2
1483:Drivers/STM32F4xx_HAL_Driver/Src/stm32f4xx_ll_sdmmc.c **** 
 10871              		.loc 1 1483 12 view .LVU3659
 10872 000a 41F28831 		movw	r1, #5000
1483:Drivers/STM32F4xx_HAL_Driver/Src/stm32f4xx_ll_sdmmc.c **** 
 10873              		.loc 1 1483 60 view .LVU3660
 10874 000e 520A     		lsrs	r2, r2, #9
1483:Drivers/STM32F4xx_HAL_Driver/Src/stm32f4xx_ll_sdmmc.c **** 
 10875              		.loc 1 1483 12 view .LVU3661
 10876 0010 01FB02F2 		mul	r2, r1, r2
 10877              	.LVL650:
1485:Drivers/STM32F4xx_HAL_Driver/Src/stm32f4xx_ll_sdmmc.c ****   {
 10878              		.loc 1 1485 3 is_stmt 1 view .LVU3662
1487:Drivers/STM32F4xx_HAL_Driver/Src/stm32f4xx_ll_sdmmc.c ****     {
 10879              		.loc 1 1487 5 view .LVU3663
1487:Drivers/STM32F4xx_HAL_Driver/Src/stm32f4xx_ll_sdmmc.c ****     {
 10880              		.loc 1 1487 14 is_stmt 0 view .LVU3664
 10881 0014 531E     		subs	r3, r2, #1
 10882              	.LVL651:
1479:Drivers/STM32F4xx_HAL_Driver/Src/stm32f4xx_ll_sdmmc.c ****   uint32_t sta_reg;
 10883              		.loc 1 1479 1 view .LVU3665
 10884 0016 0146     		mov	r1, r0
1487:Drivers/STM32F4xx_HAL_Driver/Src/stm32f4xx_ll_sdmmc.c ****     {
 10885              		.loc 1 1487 8 view .LVU3666
 10886 0018 4AB1     		cbz	r2, .L1042
 10887              	.LVL652:
 10888              	.L1036:
1485:Drivers/STM32F4xx_HAL_Driver/Src/stm32f4xx_ll_sdmmc.c ****   {
 10889              		.loc 1 1485 3 is_stmt 1 view .LVU3667
1487:Drivers/STM32F4xx_HAL_Driver/Src/stm32f4xx_ll_sdmmc.c ****     {
 10890              		.loc 1 1487 5 view .LVU3668
1491:Drivers/STM32F4xx_HAL_Driver/Src/stm32f4xx_ll_sdmmc.c ****   } while (((sta_reg & (SDIO_FLAG_CCRCFAIL | SDIO_FLAG_CMDREND | SDIO_FLAG_CTIMEOUT)) == 0U) ||
 10891              		.loc 1 1491 5 view .LVU3669
1491:Drivers/STM32F4xx_HAL_Driver/Src/stm32f4xx_ll_sdmmc.c ****   } while (((sta_reg & (SDIO_FLAG_CCRCFAIL | SDIO_FLAG_CMDREND | SDIO_FLAG_CTIMEOUT)) == 0U) ||
 10892              		.loc 1 1491 13 is_stmt 0 view .LVU3670
 10893 001a 4A6B     		ldr	r2, [r1, #52]
 10894              	.LVL653:
1492:Drivers/STM32F4xx_HAL_Driver/Src/stm32f4xx_ll_sdmmc.c ****            ((sta_reg & SDIO_FLAG_CMDACT) != 0U));
 10895              		.loc 1 1492 94 is_stmt 1 view .LVU3671
 10896 001c 12F0450F 		tst	r2, #69
1487:Drivers/STM32F4xx_HAL_Driver/Src/stm32f4xx_ll_sdmmc.c ****     {
 10897              		.loc 1 1487 14 is_stmt 0 view .LVU3672
 10898 0020 03F1FF33 		add	r3, r3, #-1
 10899              	.LVL654:
1492:Drivers/STM32F4xx_HAL_Driver/Src/stm32f4xx_ll_sdmmc.c ****            ((sta_reg & SDIO_FLAG_CMDACT) != 0U));
 10900              		.loc 1 1492 94 view .LVU3673
 10901 0024 01D0     		beq	.L1037
1492:Drivers/STM32F4xx_HAL_Driver/Src/stm32f4xx_ll_sdmmc.c ****            ((sta_reg & SDIO_FLAG_CMDACT) != 0U));
 10902              		.loc 1 1492 94 discriminator 1 view .LVU3674
 10903 0026 1005     		lsls	r0, r2, #20
 10904 0028 04D5     		bpl	.L1050
 10905              	.L1037:
1487:Drivers/STM32F4xx_HAL_Driver/Src/stm32f4xx_ll_sdmmc.c ****     {
 10906              		.loc 1 1487 8 view .LVU3675
ARM GAS  C:\Users\pw705\AppData\Local\Temp\cceieKfF.s 			page 279


 10907 002a 5A1C     		adds	r2, r3, #1
 10908              	.LVL655:
1487:Drivers/STM32F4xx_HAL_Driver/Src/stm32f4xx_ll_sdmmc.c ****     {
 10909              		.loc 1 1487 8 view .LVU3676
 10910 002c F5D1     		bne	.L1036
 10911              	.LVL656:
 10912              	.L1042:
1489:Drivers/STM32F4xx_HAL_Driver/Src/stm32f4xx_ll_sdmmc.c ****     }
 10913              		.loc 1 1489 14 view .LVU3677
 10914 002e 4FF00040 		mov	r0, #-2147483648
 10915              	.LVL657:
 10916              	.L1034:
1521:Drivers/STM32F4xx_HAL_Driver/Src/stm32f4xx_ll_sdmmc.c **** 
 10917              		.loc 1 1521 1 view .LVU3678
 10918 0032 7047     		bx	lr
 10919              	.LVL658:
 10920              	.L1050:
1495:Drivers/STM32F4xx_HAL_Driver/Src/stm32f4xx_ll_sdmmc.c ****   {
 10921              		.loc 1 1495 3 is_stmt 1 view .LVU3679
1495:Drivers/STM32F4xx_HAL_Driver/Src/stm32f4xx_ll_sdmmc.c ****   {
 10922              		.loc 1 1495 7 is_stmt 0 view .LVU3680
 10923 0034 4B6B     		ldr	r3, [r1, #52]
 10924              	.LVL659:
1495:Drivers/STM32F4xx_HAL_Driver/Src/stm32f4xx_ll_sdmmc.c ****   {
 10925              		.loc 1 1495 6 view .LVU3681
 10926 0036 5A07     		lsls	r2, r3, #29
 10927              	.LVL660:
1495:Drivers/STM32F4xx_HAL_Driver/Src/stm32f4xx_ll_sdmmc.c ****   {
 10928              		.loc 1 1495 6 view .LVU3682
 10929 0038 0CD4     		bmi	.L1051
1502:Drivers/STM32F4xx_HAL_Driver/Src/stm32f4xx_ll_sdmmc.c ****   {
 10930              		.loc 1 1502 8 is_stmt 1 view .LVU3683
1502:Drivers/STM32F4xx_HAL_Driver/Src/stm32f4xx_ll_sdmmc.c ****   {
 10931              		.loc 1 1502 12 is_stmt 0 view .LVU3684
 10932 003a 486B     		ldr	r0, [r1, #52]
1502:Drivers/STM32F4xx_HAL_Driver/Src/stm32f4xx_ll_sdmmc.c ****   {
 10933              		.loc 1 1502 11 view .LVU3685
 10934 003c 10F00100 		ands	r0, r0, #1
 10935 0040 05D1     		bne	.L1052
 10936              	.LVL661:
 10937              	.LBB1234:
 10938              	.LBI1234:
1478:Drivers/STM32F4xx_HAL_Driver/Src/stm32f4xx_ll_sdmmc.c **** {
 10939              		.loc 1 1478 10 is_stmt 1 view .LVU3686
 10940              	.LBB1235:
1512:Drivers/STM32F4xx_HAL_Driver/Src/stm32f4xx_ll_sdmmc.c **** 
 10941              		.loc 1 1512 3 view .LVU3687
1514:Drivers/STM32F4xx_HAL_Driver/Src/stm32f4xx_ll_sdmmc.c ****   {
 10942              		.loc 1 1514 3 view .LVU3688
1514:Drivers/STM32F4xx_HAL_Driver/Src/stm32f4xx_ll_sdmmc.c ****   {
 10943              		.loc 1 1514 7 is_stmt 0 view .LVU3689
 10944 0042 4B6B     		ldr	r3, [r1, #52]
1514:Drivers/STM32F4xx_HAL_Driver/Src/stm32f4xx_ll_sdmmc.c ****   {
 10945              		.loc 1 1514 6 view .LVU3690
 10946 0044 5B06     		lsls	r3, r3, #25
 10947 0046 F4D5     		bpl	.L1034
1517:Drivers/STM32F4xx_HAL_Driver/Src/stm32f4xx_ll_sdmmc.c ****   }
ARM GAS  C:\Users\pw705\AppData\Local\Temp\cceieKfF.s 			page 280


 10948              		.loc 1 1517 5 is_stmt 1 view .LVU3691
 10949 0048 4023     		movs	r3, #64
 10950 004a 8B63     		str	r3, [r1, #56]
 10951 004c 7047     		bx	lr
 10952              	.LVL662:
 10953              	.L1052:
1517:Drivers/STM32F4xx_HAL_Driver/Src/stm32f4xx_ll_sdmmc.c ****   }
 10954              		.loc 1 1517 5 is_stmt 0 view .LVU3692
 10955              	.LBE1235:
 10956              	.LBE1234:
1505:Drivers/STM32F4xx_HAL_Driver/Src/stm32f4xx_ll_sdmmc.c **** 
 10957              		.loc 1 1505 5 is_stmt 1 view .LVU3693
 10958 004e 0123     		movs	r3, #1
 10959 0050 8B63     		str	r3, [r1, #56]
1507:Drivers/STM32F4xx_HAL_Driver/Src/stm32f4xx_ll_sdmmc.c ****   }
 10960              		.loc 1 1507 5 view .LVU3694
1507:Drivers/STM32F4xx_HAL_Driver/Src/stm32f4xx_ll_sdmmc.c ****   }
 10961              		.loc 1 1507 12 is_stmt 0 view .LVU3695
 10962 0052 7047     		bx	lr
 10963              	.L1051:
1498:Drivers/STM32F4xx_HAL_Driver/Src/stm32f4xx_ll_sdmmc.c **** 
 10964              		.loc 1 1498 5 is_stmt 1 view .LVU3696
 10965 0054 0420     		movs	r0, #4
 10966 0056 8863     		str	r0, [r1, #56]
1500:Drivers/STM32F4xx_HAL_Driver/Src/stm32f4xx_ll_sdmmc.c ****   }
 10967              		.loc 1 1500 5 view .LVU3697
1500:Drivers/STM32F4xx_HAL_Driver/Src/stm32f4xx_ll_sdmmc.c ****   }
 10968              		.loc 1 1500 12 is_stmt 0 view .LVU3698
 10969 0058 7047     		bx	lr
 10970              	.L1054:
 10971 005a 00BF     		.align	2
 10972              	.L1053:
 10973 005c 00000000 		.word	SystemCoreClock
 10974 0060 D34D6210 		.word	274877907
 10975              		.cfi_endproc
 10976              	.LFE174:
 10978              		.text
 10979              	.Letext0:
 10980              		.file 2 "c:\\users\\pw705\\appdata\\roaming\\code\\user\\globalstorage\\bmd.stm32-for-vscode\\@xpa
 10981              		.file 3 "c:\\users\\pw705\\appdata\\roaming\\code\\user\\globalstorage\\bmd.stm32-for-vscode\\@xpa
 10982              		.file 4 "Drivers/CMSIS/Device/ST/STM32F4xx/Include/stm32f427xx.h"
 10983              		.file 5 "Drivers/STM32F4xx_HAL_Driver/Inc/stm32f4xx_hal_def.h"
 10984              		.file 6 "Drivers/STM32F4xx_HAL_Driver/Inc/stm32f4xx_ll_sdmmc.h"
 10985              		.file 7 "Drivers/CMSIS/Device/ST/STM32F4xx/Include/system_stm32f4xx.h"
ARM GAS  C:\Users\pw705\AppData\Local\Temp\cceieKfF.s 			page 281


DEFINED SYMBOLS
                            *ABS*:00000000 stm32f4xx_ll_sdmmc.c
C:\Users\pw705\AppData\Local\Temp\cceieKfF.s:21     .text.SDIO_Init:00000000 $t
C:\Users\pw705\AppData\Local\Temp\cceieKfF.s:28     .text.SDIO_Init:00000000 SDIO_Init
C:\Users\pw705\AppData\Local\Temp\cceieKfF.s:101    .text.SDIO_ReadFIFO:00000000 $t
C:\Users\pw705\AppData\Local\Temp\cceieKfF.s:108    .text.SDIO_ReadFIFO:00000000 SDIO_ReadFIFO
C:\Users\pw705\AppData\Local\Temp\cceieKfF.s:126    .text.SDIO_WriteFIFO:00000000 $t
C:\Users\pw705\AppData\Local\Temp\cceieKfF.s:133    .text.SDIO_WriteFIFO:00000000 SDIO_WriteFIFO
C:\Users\pw705\AppData\Local\Temp\cceieKfF.s:156    .text.SDIO_PowerState_ON:00000000 $t
C:\Users\pw705\AppData\Local\Temp\cceieKfF.s:163    .text.SDIO_PowerState_ON:00000000 SDIO_PowerState_ON
C:\Users\pw705\AppData\Local\Temp\cceieKfF.s:185    .text.SDIO_PowerState_OFF:00000000 $t
C:\Users\pw705\AppData\Local\Temp\cceieKfF.s:192    .text.SDIO_PowerState_OFF:00000000 SDIO_PowerState_OFF
C:\Users\pw705\AppData\Local\Temp\cceieKfF.s:215    .text.SDIO_GetPowerState:00000000 $t
C:\Users\pw705\AppData\Local\Temp\cceieKfF.s:222    .text.SDIO_GetPowerState:00000000 SDIO_GetPowerState
C:\Users\pw705\AppData\Local\Temp\cceieKfF.s:241    .text.SDIO_SendCommand:00000000 $t
C:\Users\pw705\AppData\Local\Temp\cceieKfF.s:248    .text.SDIO_SendCommand:00000000 SDIO_SendCommand
C:\Users\pw705\AppData\Local\Temp\cceieKfF.s:305    .text.SDIO_GetCommandResponse:00000000 $t
C:\Users\pw705\AppData\Local\Temp\cceieKfF.s:312    .text.SDIO_GetCommandResponse:00000000 SDIO_GetCommandResponse
C:\Users\pw705\AppData\Local\Temp\cceieKfF.s:331    .text.SDIO_GetResponse:00000000 $t
C:\Users\pw705\AppData\Local\Temp\cceieKfF.s:338    .text.SDIO_GetResponse:00000000 SDIO_GetResponse
C:\Users\pw705\AppData\Local\Temp\cceieKfF.s:362    .text.SDIO_ConfigData:00000000 $t
C:\Users\pw705\AppData\Local\Temp\cceieKfF.s:369    .text.SDIO_ConfigData:00000000 SDIO_ConfigData
C:\Users\pw705\AppData\Local\Temp\cceieKfF.s:431    .text.SDIO_GetDataCounter:00000000 $t
C:\Users\pw705\AppData\Local\Temp\cceieKfF.s:438    .text.SDIO_GetDataCounter:00000000 SDIO_GetDataCounter
C:\Users\pw705\AppData\Local\Temp\cceieKfF.s:456    .text.SDIO_GetFIFOCount:00000000 $t
C:\Users\pw705\AppData\Local\Temp\cceieKfF.s:463    .text.SDIO_GetFIFOCount:00000000 SDIO_GetFIFOCount
C:\Users\pw705\AppData\Local\Temp\cceieKfF.s:476    .text.SDIO_SetSDMMCReadWaitMode:00000000 $t
C:\Users\pw705\AppData\Local\Temp\cceieKfF.s:483    .text.SDIO_SetSDMMCReadWaitMode:00000000 SDIO_SetSDMMCReadWaitMode
C:\Users\pw705\AppData\Local\Temp\cceieKfF.s:511    .text.SDMMC_CmdBlockLength:00000000 $t
C:\Users\pw705\AppData\Local\Temp\cceieKfF.s:518    .text.SDMMC_CmdBlockLength:00000000 SDMMC_CmdBlockLength
C:\Users\pw705\AppData\Local\Temp\cceieKfF.s:910    .text.SDMMC_CmdBlockLength:0000012c $d
C:\Users\pw705\AppData\Local\Temp\cceieKfF.s:921    .text.SDMMC_CmdReadSingleBlock:00000000 $t
C:\Users\pw705\AppData\Local\Temp\cceieKfF.s:928    .text.SDMMC_CmdReadSingleBlock:00000000 SDMMC_CmdReadSingleBlock
C:\Users\pw705\AppData\Local\Temp\cceieKfF.s:1324   .text.SDMMC_CmdReadSingleBlock:00000130 $d
C:\Users\pw705\AppData\Local\Temp\cceieKfF.s:1335   .text.SDMMC_CmdReadMultiBlock:00000000 $t
C:\Users\pw705\AppData\Local\Temp\cceieKfF.s:1342   .text.SDMMC_CmdReadMultiBlock:00000000 SDMMC_CmdReadMultiBlock
C:\Users\pw705\AppData\Local\Temp\cceieKfF.s:1738   .text.SDMMC_CmdReadMultiBlock:00000130 $d
C:\Users\pw705\AppData\Local\Temp\cceieKfF.s:1749   .text.SDMMC_CmdWriteSingleBlock:00000000 $t
C:\Users\pw705\AppData\Local\Temp\cceieKfF.s:1756   .text.SDMMC_CmdWriteSingleBlock:00000000 SDMMC_CmdWriteSingleBlock
C:\Users\pw705\AppData\Local\Temp\cceieKfF.s:2148   .text.SDMMC_CmdWriteSingleBlock:0000012c $d
C:\Users\pw705\AppData\Local\Temp\cceieKfF.s:2159   .text.SDMMC_CmdWriteMultiBlock:00000000 $t
C:\Users\pw705\AppData\Local\Temp\cceieKfF.s:2166   .text.SDMMC_CmdWriteMultiBlock:00000000 SDMMC_CmdWriteMultiBlock
C:\Users\pw705\AppData\Local\Temp\cceieKfF.s:2562   .text.SDMMC_CmdWriteMultiBlock:00000130 $d
C:\Users\pw705\AppData\Local\Temp\cceieKfF.s:2573   .text.SDMMC_CmdSDEraseStartAdd:00000000 $t
C:\Users\pw705\AppData\Local\Temp\cceieKfF.s:2580   .text.SDMMC_CmdSDEraseStartAdd:00000000 SDMMC_CmdSDEraseStartAdd
C:\Users\pw705\AppData\Local\Temp\cceieKfF.s:2972   .text.SDMMC_CmdSDEraseStartAdd:0000012c $d
C:\Users\pw705\AppData\Local\Temp\cceieKfF.s:2983   .text.SDMMC_CmdSDEraseEndAdd:00000000 $t
C:\Users\pw705\AppData\Local\Temp\cceieKfF.s:2990   .text.SDMMC_CmdSDEraseEndAdd:00000000 SDMMC_CmdSDEraseEndAdd
C:\Users\pw705\AppData\Local\Temp\cceieKfF.s:3386   .text.SDMMC_CmdSDEraseEndAdd:00000130 $d
C:\Users\pw705\AppData\Local\Temp\cceieKfF.s:3397   .text.SDMMC_CmdEraseStartAdd:00000000 $t
C:\Users\pw705\AppData\Local\Temp\cceieKfF.s:3404   .text.SDMMC_CmdEraseStartAdd:00000000 SDMMC_CmdEraseStartAdd
C:\Users\pw705\AppData\Local\Temp\cceieKfF.s:3800   .text.SDMMC_CmdEraseStartAdd:00000130 $d
C:\Users\pw705\AppData\Local\Temp\cceieKfF.s:3811   .text.SDMMC_CmdEraseEndAdd:00000000 $t
C:\Users\pw705\AppData\Local\Temp\cceieKfF.s:3818   .text.SDMMC_CmdEraseEndAdd:00000000 SDMMC_CmdEraseEndAdd
C:\Users\pw705\AppData\Local\Temp\cceieKfF.s:4214   .text.SDMMC_CmdEraseEndAdd:00000130 $d
C:\Users\pw705\AppData\Local\Temp\cceieKfF.s:4225   .text.SDMMC_CmdErase:00000000 $t
C:\Users\pw705\AppData\Local\Temp\cceieKfF.s:4232   .text.SDMMC_CmdErase:00000000 SDMMC_CmdErase
ARM GAS  C:\Users\pw705\AppData\Local\Temp\cceieKfF.s 			page 282


C:\Users\pw705\AppData\Local\Temp\cceieKfF.s:4627   .text.SDMMC_CmdErase:00000134 $d
C:\Users\pw705\AppData\Local\Temp\cceieKfF.s:4638   .text.SDMMC_CmdStopTransfer:00000000 $t
C:\Users\pw705\AppData\Local\Temp\cceieKfF.s:4645   .text.SDMMC_CmdStopTransfer:00000000 SDMMC_CmdStopTransfer
C:\Users\pw705\AppData\Local\Temp\cceieKfF.s:5049   .text.SDMMC_CmdStopTransfer:00000138 $d
C:\Users\pw705\AppData\Local\Temp\cceieKfF.s:5061   .text.SDMMC_CmdSelDesel:00000000 $t
C:\Users\pw705\AppData\Local\Temp\cceieKfF.s:5068   .text.SDMMC_CmdSelDesel:00000000 SDMMC_CmdSelDesel
C:\Users\pw705\AppData\Local\Temp\cceieKfF.s:5464   .text.SDMMC_CmdSelDesel:00000130 $d
C:\Users\pw705\AppData\Local\Temp\cceieKfF.s:5475   .text.SDMMC_CmdGoIdleState:00000000 $t
C:\Users\pw705\AppData\Local\Temp\cceieKfF.s:5482   .text.SDMMC_CmdGoIdleState:00000000 SDMMC_CmdGoIdleState
C:\Users\pw705\AppData\Local\Temp\cceieKfF.s:5626   .text.SDMMC_CmdGoIdleState:00000044 $d
C:\Users\pw705\AppData\Local\Temp\cceieKfF.s:5634   .text.SDMMC_CmdOperCond:00000000 $t
C:\Users\pw705\AppData\Local\Temp\cceieKfF.s:5641   .text.SDMMC_CmdOperCond:00000000 SDMMC_CmdOperCond
C:\Users\pw705\AppData\Local\Temp\cceieKfF.s:5859   .text.SDMMC_CmdOperCond:00000070 $d
C:\Users\pw705\AppData\Local\Temp\cceieKfF.s:5867   .text.SDMMC_CmdAppCommand:00000000 $t
C:\Users\pw705\AppData\Local\Temp\cceieKfF.s:5874   .text.SDMMC_CmdAppCommand:00000000 SDMMC_CmdAppCommand
C:\Users\pw705\AppData\Local\Temp\cceieKfF.s:6270   .text.SDMMC_CmdAppCommand:00000130 $d
C:\Users\pw705\AppData\Local\Temp\cceieKfF.s:6281   .text.SDMMC_CmdAppOperCommand:00000000 $t
C:\Users\pw705\AppData\Local\Temp\cceieKfF.s:6288   .text.SDMMC_CmdAppOperCommand:00000000 SDMMC_CmdAppOperCommand
C:\Users\pw705\AppData\Local\Temp\cceieKfF.s:6478   .text.SDMMC_CmdAppOperCommand:0000006c $d
C:\Users\pw705\AppData\Local\Temp\cceieKfF.s:6488   .text.SDMMC_CmdBusWidth:00000000 $t
C:\Users\pw705\AppData\Local\Temp\cceieKfF.s:6495   .text.SDMMC_CmdBusWidth:00000000 SDMMC_CmdBusWidth
C:\Users\pw705\AppData\Local\Temp\cceieKfF.s:6891   .text.SDMMC_CmdBusWidth:00000130 $d
C:\Users\pw705\AppData\Local\Temp\cceieKfF.s:6902   .text.SDMMC_CmdSendSCR:00000000 $t
C:\Users\pw705\AppData\Local\Temp\cceieKfF.s:6909   .text.SDMMC_CmdSendSCR:00000000 SDMMC_CmdSendSCR
C:\Users\pw705\AppData\Local\Temp\cceieKfF.s:7304   .text.SDMMC_CmdSendSCR:00000134 $d
C:\Users\pw705\AppData\Local\Temp\cceieKfF.s:7315   .text.SDMMC_CmdSendCID:00000000 $t
C:\Users\pw705\AppData\Local\Temp\cceieKfF.s:7322   .text.SDMMC_CmdSendCID:00000000 SDMMC_CmdSendCID
C:\Users\pw705\AppData\Local\Temp\cceieKfF.s:7527   .text.SDMMC_CmdSendCID:00000068 $d
C:\Users\pw705\AppData\Local\Temp\cceieKfF.s:7535   .text.SDMMC_CmdSendCSD:00000000 $t
C:\Users\pw705\AppData\Local\Temp\cceieKfF.s:7542   .text.SDMMC_CmdSendCSD:00000000 SDMMC_CmdSendCSD
C:\Users\pw705\AppData\Local\Temp\cceieKfF.s:7745   .text.SDMMC_CmdSendCSD:00000070 $d
C:\Users\pw705\AppData\Local\Temp\cceieKfF.s:7753   .text.SDMMC_CmdSetRelAdd:00000000 $t
C:\Users\pw705\AppData\Local\Temp\cceieKfF.s:7760   .text.SDMMC_CmdSetRelAdd:00000000 SDMMC_CmdSetRelAdd
C:\Users\pw705\AppData\Local\Temp\cceieKfF.s:8044   .text.SDMMC_CmdSetRelAdd:000000a4 $d
C:\Users\pw705\AppData\Local\Temp\cceieKfF.s:8054   .text.SDMMC_CmdSetRelAddMmc:00000000 $t
C:\Users\pw705\AppData\Local\Temp\cceieKfF.s:8061   .text.SDMMC_CmdSetRelAddMmc:00000000 SDMMC_CmdSetRelAddMmc
C:\Users\pw705\AppData\Local\Temp\cceieKfF.s:8460   .text.SDMMC_CmdSetRelAddMmc:00000134 $d
C:\Users\pw705\AppData\Local\Temp\cceieKfF.s:8471   .text.SDMMC_CmdSendStatus:00000000 $t
C:\Users\pw705\AppData\Local\Temp\cceieKfF.s:8478   .text.SDMMC_CmdSendStatus:00000000 SDMMC_CmdSendStatus
C:\Users\pw705\AppData\Local\Temp\cceieKfF.s:8874   .text.SDMMC_CmdSendStatus:00000130 $d
C:\Users\pw705\AppData\Local\Temp\cceieKfF.s:8885   .text.SDMMC_CmdStatusRegister:00000000 $t
C:\Users\pw705\AppData\Local\Temp\cceieKfF.s:8892   .text.SDMMC_CmdStatusRegister:00000000 SDMMC_CmdStatusRegister
C:\Users\pw705\AppData\Local\Temp\cceieKfF.s:9287   .text.SDMMC_CmdStatusRegister:00000134 $d
C:\Users\pw705\AppData\Local\Temp\cceieKfF.s:9298   .text.SDMMC_CmdOpCondition:00000000 $t
C:\Users\pw705\AppData\Local\Temp\cceieKfF.s:9305   .text.SDMMC_CmdOpCondition:00000000 SDMMC_CmdOpCondition
C:\Users\pw705\AppData\Local\Temp\cceieKfF.s:9493   .text.SDMMC_CmdOpCondition:00000064 $d
C:\Users\pw705\AppData\Local\Temp\cceieKfF.s:9503   .text.SDMMC_CmdSwitch:00000000 $t
C:\Users\pw705\AppData\Local\Temp\cceieKfF.s:9510   .text.SDMMC_CmdSwitch:00000000 SDMMC_CmdSwitch
C:\Users\pw705\AppData\Local\Temp\cceieKfF.s:9670   .text.SDMMC_CmdSwitch:00000130 $d
C:\Users\pw705\AppData\Local\Temp\cceieKfF.s:9677   .text.SDMMC_CmdSendEXTCSD:00000000 $t
C:\Users\pw705\AppData\Local\Temp\cceieKfF.s:9684   .text.SDMMC_CmdSendEXTCSD:00000000 SDMMC_CmdSendEXTCSD
C:\Users\pw705\AppData\Local\Temp\cceieKfF.s:10076  .text.SDMMC_CmdSendEXTCSD:0000012c $d
C:\Users\pw705\AppData\Local\Temp\cceieKfF.s:10087  .text.SDMMC_GetCmdResp1:00000000 $t
C:\Users\pw705\AppData\Local\Temp\cceieKfF.s:10094  .text.SDMMC_GetCmdResp1:00000000 SDMMC_GetCmdResp1
C:\Users\pw705\AppData\Local\Temp\cceieKfF.s:10409  .text.SDMMC_GetCmdResp1:00000120 $d
C:\Users\pw705\AppData\Local\Temp\cceieKfF.s:10418  .text.SDMMC_GetCmdResp2:00000000 $t
C:\Users\pw705\AppData\Local\Temp\cceieKfF.s:10425  .text.SDMMC_GetCmdResp2:00000000 SDMMC_GetCmdResp2
ARM GAS  C:\Users\pw705\AppData\Local\Temp\cceieKfF.s 			page 283


C:\Users\pw705\AppData\Local\Temp\cceieKfF.s:10528  .text.SDMMC_GetCmdResp2:00000050 $d
C:\Users\pw705\AppData\Local\Temp\cceieKfF.s:10534  .text.SDMMC_GetCmdResp3:00000000 $t
C:\Users\pw705\AppData\Local\Temp\cceieKfF.s:10541  .text.SDMMC_GetCmdResp3:00000000 SDMMC_GetCmdResp3
C:\Users\pw705\AppData\Local\Temp\cceieKfF.s:10631  .text.SDMMC_GetCmdResp3:00000048 $d
C:\Users\pw705\AppData\Local\Temp\cceieKfF.s:10639  .text.SDMMC_GetCmdResp6:00000000 $t
C:\Users\pw705\AppData\Local\Temp\cceieKfF.s:10646  .text.SDMMC_GetCmdResp6:00000000 SDMMC_GetCmdResp6
C:\Users\pw705\AppData\Local\Temp\cceieKfF.s:10841  .text.SDMMC_GetCmdResp6:0000008c $d
C:\Users\pw705\AppData\Local\Temp\cceieKfF.s:10849  .text.SDMMC_GetCmdResp7:00000000 $t
C:\Users\pw705\AppData\Local\Temp\cceieKfF.s:10856  .text.SDMMC_GetCmdResp7:00000000 SDMMC_GetCmdResp7
C:\Users\pw705\AppData\Local\Temp\cceieKfF.s:10973  .text.SDMMC_GetCmdResp7:0000005c $d

UNDEFINED SYMBOLS
SystemCoreClock
