ARM GAS  C:\Users\pw705\AppData\Local\Temp\ccthnice.s 			page 1


   1              		.cpu cortex-m4
   2              		.arch armv7e-m
   3              		.fpu fpv4-sp-d16
   4              		.eabi_attribute 27, 1
   5              		.eabi_attribute 28, 1
   6              		.eabi_attribute 20, 1
   7              		.eabi_attribute 21, 1
   8              		.eabi_attribute 23, 3
   9              		.eabi_attribute 24, 1
  10              		.eabi_attribute 25, 1
  11              		.eabi_attribute 26, 1
  12              		.eabi_attribute 30, 2
  13              		.eabi_attribute 34, 1
  14              		.eabi_attribute 18, 4
  15              		.file	"stm32f4xx_hal_dma_ex.c"
  16              		.text
  17              	.Ltext0:
  18              		.cfi_sections	.debug_frame
  19              		.file 1 "Drivers/STM32F4xx_HAL_Driver/Src/stm32f4xx_hal_dma_ex.c"
  20              		.section	.text.HAL_DMAEx_MultiBufferStart,"ax",%progbits
  21              		.align	1
  22              		.p2align 2,,3
  23              		.global	HAL_DMAEx_MultiBufferStart
  24              		.syntax unified
  25              		.thumb
  26              		.thumb_func
  28              	HAL_DMAEx_MultiBufferStart:
  29              	.LVL0:
  30              	.LFB130:
   1:Drivers/STM32F4xx_HAL_Driver/Src/stm32f4xx_hal_dma_ex.c **** /**
   2:Drivers/STM32F4xx_HAL_Driver/Src/stm32f4xx_hal_dma_ex.c ****   ******************************************************************************
   3:Drivers/STM32F4xx_HAL_Driver/Src/stm32f4xx_hal_dma_ex.c ****   * @file    stm32f4xx_hal_dma_ex.c
   4:Drivers/STM32F4xx_HAL_Driver/Src/stm32f4xx_hal_dma_ex.c ****   * @author  MCD Application Team
   5:Drivers/STM32F4xx_HAL_Driver/Src/stm32f4xx_hal_dma_ex.c ****   * @brief   DMA Extension HAL module driver
   6:Drivers/STM32F4xx_HAL_Driver/Src/stm32f4xx_hal_dma_ex.c ****   *         This file provides firmware functions to manage the following 
   7:Drivers/STM32F4xx_HAL_Driver/Src/stm32f4xx_hal_dma_ex.c ****   *         functionalities of the DMA Extension peripheral:
   8:Drivers/STM32F4xx_HAL_Driver/Src/stm32f4xx_hal_dma_ex.c ****   *           + Extended features functions
   9:Drivers/STM32F4xx_HAL_Driver/Src/stm32f4xx_hal_dma_ex.c ****   *
  10:Drivers/STM32F4xx_HAL_Driver/Src/stm32f4xx_hal_dma_ex.c ****   @verbatim
  11:Drivers/STM32F4xx_HAL_Driver/Src/stm32f4xx_hal_dma_ex.c ****   ==============================================================================
  12:Drivers/STM32F4xx_HAL_Driver/Src/stm32f4xx_hal_dma_ex.c ****                         ##### How to use this driver #####
  13:Drivers/STM32F4xx_HAL_Driver/Src/stm32f4xx_hal_dma_ex.c ****   ==============================================================================
  14:Drivers/STM32F4xx_HAL_Driver/Src/stm32f4xx_hal_dma_ex.c ****   [..]
  15:Drivers/STM32F4xx_HAL_Driver/Src/stm32f4xx_hal_dma_ex.c ****   The DMA Extension HAL driver can be used as follows:
  16:Drivers/STM32F4xx_HAL_Driver/Src/stm32f4xx_hal_dma_ex.c ****    (#) Start a multi buffer transfer using the HAL_DMA_MultiBufferStart() function
  17:Drivers/STM32F4xx_HAL_Driver/Src/stm32f4xx_hal_dma_ex.c ****        for polling mode or HAL_DMA_MultiBufferStart_IT() for interrupt mode.
  18:Drivers/STM32F4xx_HAL_Driver/Src/stm32f4xx_hal_dma_ex.c ****                    
  19:Drivers/STM32F4xx_HAL_Driver/Src/stm32f4xx_hal_dma_ex.c ****      -@-  In Memory-to-Memory transfer mode, Multi (Double) Buffer mode is not allowed.
  20:Drivers/STM32F4xx_HAL_Driver/Src/stm32f4xx_hal_dma_ex.c ****      -@-  When Multi (Double) Buffer mode is enabled the, transfer is circular by default.
  21:Drivers/STM32F4xx_HAL_Driver/Src/stm32f4xx_hal_dma_ex.c ****      -@-  In Multi (Double) buffer mode, it is possible to update the base address for 
  22:Drivers/STM32F4xx_HAL_Driver/Src/stm32f4xx_hal_dma_ex.c ****           the AHB memory port on the fly (DMA_SxM0AR or DMA_SxM1AR) when the stream is enabled. 
  23:Drivers/STM32F4xx_HAL_Driver/Src/stm32f4xx_hal_dma_ex.c ****   
  24:Drivers/STM32F4xx_HAL_Driver/Src/stm32f4xx_hal_dma_ex.c ****   @endverbatim
  25:Drivers/STM32F4xx_HAL_Driver/Src/stm32f4xx_hal_dma_ex.c ****   ******************************************************************************
  26:Drivers/STM32F4xx_HAL_Driver/Src/stm32f4xx_hal_dma_ex.c ****   * @attention
  27:Drivers/STM32F4xx_HAL_Driver/Src/stm32f4xx_hal_dma_ex.c ****   *
  28:Drivers/STM32F4xx_HAL_Driver/Src/stm32f4xx_hal_dma_ex.c ****   * Copyright (c) 2017 STMicroelectronics.
ARM GAS  C:\Users\pw705\AppData\Local\Temp\ccthnice.s 			page 2


  29:Drivers/STM32F4xx_HAL_Driver/Src/stm32f4xx_hal_dma_ex.c ****   * All rights reserved.
  30:Drivers/STM32F4xx_HAL_Driver/Src/stm32f4xx_hal_dma_ex.c ****   *
  31:Drivers/STM32F4xx_HAL_Driver/Src/stm32f4xx_hal_dma_ex.c ****   * This software is licensed under terms that can be found in the LICENSE file in
  32:Drivers/STM32F4xx_HAL_Driver/Src/stm32f4xx_hal_dma_ex.c ****   * the root directory of this software component.
  33:Drivers/STM32F4xx_HAL_Driver/Src/stm32f4xx_hal_dma_ex.c ****   * If no LICENSE file comes with this software, it is provided AS-IS.
  34:Drivers/STM32F4xx_HAL_Driver/Src/stm32f4xx_hal_dma_ex.c ****   *
  35:Drivers/STM32F4xx_HAL_Driver/Src/stm32f4xx_hal_dma_ex.c ****   ******************************************************************************
  36:Drivers/STM32F4xx_HAL_Driver/Src/stm32f4xx_hal_dma_ex.c ****   */
  37:Drivers/STM32F4xx_HAL_Driver/Src/stm32f4xx_hal_dma_ex.c **** 
  38:Drivers/STM32F4xx_HAL_Driver/Src/stm32f4xx_hal_dma_ex.c **** /* Includes ------------------------------------------------------------------*/
  39:Drivers/STM32F4xx_HAL_Driver/Src/stm32f4xx_hal_dma_ex.c **** #include "stm32f4xx_hal.h"
  40:Drivers/STM32F4xx_HAL_Driver/Src/stm32f4xx_hal_dma_ex.c **** 
  41:Drivers/STM32F4xx_HAL_Driver/Src/stm32f4xx_hal_dma_ex.c **** /** @addtogroup STM32F4xx_HAL_Driver
  42:Drivers/STM32F4xx_HAL_Driver/Src/stm32f4xx_hal_dma_ex.c ****   * @{
  43:Drivers/STM32F4xx_HAL_Driver/Src/stm32f4xx_hal_dma_ex.c ****   */
  44:Drivers/STM32F4xx_HAL_Driver/Src/stm32f4xx_hal_dma_ex.c **** 
  45:Drivers/STM32F4xx_HAL_Driver/Src/stm32f4xx_hal_dma_ex.c **** /** @defgroup DMAEx DMAEx
  46:Drivers/STM32F4xx_HAL_Driver/Src/stm32f4xx_hal_dma_ex.c ****   * @brief DMA Extended HAL module driver
  47:Drivers/STM32F4xx_HAL_Driver/Src/stm32f4xx_hal_dma_ex.c ****   * @{
  48:Drivers/STM32F4xx_HAL_Driver/Src/stm32f4xx_hal_dma_ex.c ****   */
  49:Drivers/STM32F4xx_HAL_Driver/Src/stm32f4xx_hal_dma_ex.c **** 
  50:Drivers/STM32F4xx_HAL_Driver/Src/stm32f4xx_hal_dma_ex.c **** #ifdef HAL_DMA_MODULE_ENABLED
  51:Drivers/STM32F4xx_HAL_Driver/Src/stm32f4xx_hal_dma_ex.c **** 
  52:Drivers/STM32F4xx_HAL_Driver/Src/stm32f4xx_hal_dma_ex.c **** /* Private types -------------------------------------------------------------*/
  53:Drivers/STM32F4xx_HAL_Driver/Src/stm32f4xx_hal_dma_ex.c **** /* Private variables ---------------------------------------------------------*/
  54:Drivers/STM32F4xx_HAL_Driver/Src/stm32f4xx_hal_dma_ex.c **** /* Private Constants ---------------------------------------------------------*/
  55:Drivers/STM32F4xx_HAL_Driver/Src/stm32f4xx_hal_dma_ex.c **** /* Private macros ------------------------------------------------------------*/
  56:Drivers/STM32F4xx_HAL_Driver/Src/stm32f4xx_hal_dma_ex.c **** /* Private functions ---------------------------------------------------------*/
  57:Drivers/STM32F4xx_HAL_Driver/Src/stm32f4xx_hal_dma_ex.c **** /** @addtogroup DMAEx_Private_Functions
  58:Drivers/STM32F4xx_HAL_Driver/Src/stm32f4xx_hal_dma_ex.c ****   * @{
  59:Drivers/STM32F4xx_HAL_Driver/Src/stm32f4xx_hal_dma_ex.c ****   */
  60:Drivers/STM32F4xx_HAL_Driver/Src/stm32f4xx_hal_dma_ex.c **** static void DMA_MultiBufferSetConfig(DMA_HandleTypeDef *hdma, uint32_t SrcAddress, uint32_t DstAddr
  61:Drivers/STM32F4xx_HAL_Driver/Src/stm32f4xx_hal_dma_ex.c **** /**
  62:Drivers/STM32F4xx_HAL_Driver/Src/stm32f4xx_hal_dma_ex.c ****   * @}
  63:Drivers/STM32F4xx_HAL_Driver/Src/stm32f4xx_hal_dma_ex.c ****   */
  64:Drivers/STM32F4xx_HAL_Driver/Src/stm32f4xx_hal_dma_ex.c **** 
  65:Drivers/STM32F4xx_HAL_Driver/Src/stm32f4xx_hal_dma_ex.c **** /* Exported functions ---------------------------------------------------------*/
  66:Drivers/STM32F4xx_HAL_Driver/Src/stm32f4xx_hal_dma_ex.c **** 
  67:Drivers/STM32F4xx_HAL_Driver/Src/stm32f4xx_hal_dma_ex.c **** /** @addtogroup DMAEx_Exported_Functions
  68:Drivers/STM32F4xx_HAL_Driver/Src/stm32f4xx_hal_dma_ex.c ****   * @{
  69:Drivers/STM32F4xx_HAL_Driver/Src/stm32f4xx_hal_dma_ex.c ****   */
  70:Drivers/STM32F4xx_HAL_Driver/Src/stm32f4xx_hal_dma_ex.c **** 
  71:Drivers/STM32F4xx_HAL_Driver/Src/stm32f4xx_hal_dma_ex.c **** 
  72:Drivers/STM32F4xx_HAL_Driver/Src/stm32f4xx_hal_dma_ex.c **** /** @addtogroup DMAEx_Exported_Functions_Group1
  73:Drivers/STM32F4xx_HAL_Driver/Src/stm32f4xx_hal_dma_ex.c ****   *
  74:Drivers/STM32F4xx_HAL_Driver/Src/stm32f4xx_hal_dma_ex.c **** @verbatim   
  75:Drivers/STM32F4xx_HAL_Driver/Src/stm32f4xx_hal_dma_ex.c ****  ===============================================================================
  76:Drivers/STM32F4xx_HAL_Driver/Src/stm32f4xx_hal_dma_ex.c ****                 #####  Extended features functions  #####
  77:Drivers/STM32F4xx_HAL_Driver/Src/stm32f4xx_hal_dma_ex.c ****  ===============================================================================  
  78:Drivers/STM32F4xx_HAL_Driver/Src/stm32f4xx_hal_dma_ex.c ****     [..]  This section provides functions allowing to:
  79:Drivers/STM32F4xx_HAL_Driver/Src/stm32f4xx_hal_dma_ex.c ****       (+) Configure the source, destination address and data length and 
  80:Drivers/STM32F4xx_HAL_Driver/Src/stm32f4xx_hal_dma_ex.c ****           Start MultiBuffer DMA transfer
  81:Drivers/STM32F4xx_HAL_Driver/Src/stm32f4xx_hal_dma_ex.c ****       (+) Configure the source, destination address and data length and 
  82:Drivers/STM32F4xx_HAL_Driver/Src/stm32f4xx_hal_dma_ex.c ****           Start MultiBuffer DMA transfer with interrupt
  83:Drivers/STM32F4xx_HAL_Driver/Src/stm32f4xx_hal_dma_ex.c ****       (+) Change on the fly the memory0 or memory1 address.
  84:Drivers/STM32F4xx_HAL_Driver/Src/stm32f4xx_hal_dma_ex.c ****       
  85:Drivers/STM32F4xx_HAL_Driver/Src/stm32f4xx_hal_dma_ex.c **** @endverbatim
ARM GAS  C:\Users\pw705\AppData\Local\Temp\ccthnice.s 			page 3


  86:Drivers/STM32F4xx_HAL_Driver/Src/stm32f4xx_hal_dma_ex.c ****   * @{
  87:Drivers/STM32F4xx_HAL_Driver/Src/stm32f4xx_hal_dma_ex.c ****   */
  88:Drivers/STM32F4xx_HAL_Driver/Src/stm32f4xx_hal_dma_ex.c **** 
  89:Drivers/STM32F4xx_HAL_Driver/Src/stm32f4xx_hal_dma_ex.c **** 
  90:Drivers/STM32F4xx_HAL_Driver/Src/stm32f4xx_hal_dma_ex.c **** /**
  91:Drivers/STM32F4xx_HAL_Driver/Src/stm32f4xx_hal_dma_ex.c ****   * @brief  Starts the multi_buffer DMA Transfer.
  92:Drivers/STM32F4xx_HAL_Driver/Src/stm32f4xx_hal_dma_ex.c ****   * @param  hdma       pointer to a DMA_HandleTypeDef structure that contains
  93:Drivers/STM32F4xx_HAL_Driver/Src/stm32f4xx_hal_dma_ex.c ****   *                     the configuration information for the specified DMA Stream.  
  94:Drivers/STM32F4xx_HAL_Driver/Src/stm32f4xx_hal_dma_ex.c ****   * @param  SrcAddress The source memory Buffer address
  95:Drivers/STM32F4xx_HAL_Driver/Src/stm32f4xx_hal_dma_ex.c ****   * @param  DstAddress The destination memory Buffer address
  96:Drivers/STM32F4xx_HAL_Driver/Src/stm32f4xx_hal_dma_ex.c ****   * @param  SecondMemAddress The second memory Buffer address in case of multi buffer Transfer  
  97:Drivers/STM32F4xx_HAL_Driver/Src/stm32f4xx_hal_dma_ex.c ****   * @param  DataLength The length of data to be transferred from source to destination
  98:Drivers/STM32F4xx_HAL_Driver/Src/stm32f4xx_hal_dma_ex.c ****   * @retval HAL status
  99:Drivers/STM32F4xx_HAL_Driver/Src/stm32f4xx_hal_dma_ex.c ****   */
 100:Drivers/STM32F4xx_HAL_Driver/Src/stm32f4xx_hal_dma_ex.c **** HAL_StatusTypeDef HAL_DMAEx_MultiBufferStart(DMA_HandleTypeDef *hdma, uint32_t SrcAddress, uint32_t
 101:Drivers/STM32F4xx_HAL_Driver/Src/stm32f4xx_hal_dma_ex.c **** {
  31              		.loc 1 101 1 view -0
  32              		.cfi_startproc
  33              		@ args = 4, pretend = 0, frame = 0
  34              		@ frame_needed = 0, uses_anonymous_args = 0
  35              		@ link register save eliminated.
 102:Drivers/STM32F4xx_HAL_Driver/Src/stm32f4xx_hal_dma_ex.c ****   HAL_StatusTypeDef status = HAL_OK;
  36              		.loc 1 102 3 view .LVU1
 103:Drivers/STM32F4xx_HAL_Driver/Src/stm32f4xx_hal_dma_ex.c ****   
 104:Drivers/STM32F4xx_HAL_Driver/Src/stm32f4xx_hal_dma_ex.c ****   /* Check the parameters */
 105:Drivers/STM32F4xx_HAL_Driver/Src/stm32f4xx_hal_dma_ex.c ****   assert_param(IS_DMA_BUFFER_SIZE(DataLength));
  37              		.loc 1 105 3 view .LVU2
 106:Drivers/STM32F4xx_HAL_Driver/Src/stm32f4xx_hal_dma_ex.c ****   
 107:Drivers/STM32F4xx_HAL_Driver/Src/stm32f4xx_hal_dma_ex.c ****   /* Memory-to-memory transfer not supported in double buffering mode */
 108:Drivers/STM32F4xx_HAL_Driver/Src/stm32f4xx_hal_dma_ex.c ****   if (hdma->Init.Direction == DMA_MEMORY_TO_MEMORY)
  38              		.loc 1 108 3 view .LVU3
 101:Drivers/STM32F4xx_HAL_Driver/Src/stm32f4xx_hal_dma_ex.c ****   HAL_StatusTypeDef status = HAL_OK;
  39              		.loc 1 101 1 is_stmt 0 view .LVU4
  40 0000 30B4     		push	{r4, r5}
  41              		.cfi_def_cfa_offset 8
  42              		.cfi_offset 4, -8
  43              		.cfi_offset 5, -4
  44              		.loc 1 108 17 view .LVU5
  45 0002 8568     		ldr	r5, [r0, #8]
  46              		.loc 1 108 6 view .LVU6
  47 0004 802D     		cmp	r5, #128
  48 0006 27D0     		beq	.L10
 109:Drivers/STM32F4xx_HAL_Driver/Src/stm32f4xx_hal_dma_ex.c ****   {
 110:Drivers/STM32F4xx_HAL_Driver/Src/stm32f4xx_hal_dma_ex.c ****     hdma->ErrorCode = HAL_DMA_ERROR_NOT_SUPPORTED;
 111:Drivers/STM32F4xx_HAL_Driver/Src/stm32f4xx_hal_dma_ex.c ****     status = HAL_ERROR;
 112:Drivers/STM32F4xx_HAL_Driver/Src/stm32f4xx_hal_dma_ex.c ****   }
 113:Drivers/STM32F4xx_HAL_Driver/Src/stm32f4xx_hal_dma_ex.c ****   else
 114:Drivers/STM32F4xx_HAL_Driver/Src/stm32f4xx_hal_dma_ex.c ****   {
 115:Drivers/STM32F4xx_HAL_Driver/Src/stm32f4xx_hal_dma_ex.c ****     /* Process Locked */
 116:Drivers/STM32F4xx_HAL_Driver/Src/stm32f4xx_hal_dma_ex.c ****     __HAL_LOCK(hdma);
  49              		.loc 1 116 5 is_stmt 1 view .LVU7
  50              		.loc 1 116 5 view .LVU8
  51 0008 90F83440 		ldrb	r4, [r0, #52]	@ zero_extendqisi2
  52 000c 012C     		cmp	r4, #1
  53 000e 07D0     		beq	.L5
  54              		.loc 1 116 5 discriminator 2 view .LVU9
 117:Drivers/STM32F4xx_HAL_Driver/Src/stm32f4xx_hal_dma_ex.c ****     
ARM GAS  C:\Users\pw705\AppData\Local\Temp\ccthnice.s 			page 4


 118:Drivers/STM32F4xx_HAL_Driver/Src/stm32f4xx_hal_dma_ex.c ****     if(HAL_DMA_STATE_READY == hdma->State)
  55              		.loc 1 118 35 is_stmt 0 discriminator 2 view .LVU10
  56 0010 90F83540 		ldrb	r4, [r0, #53]	@ zero_extendqisi2
 116:Drivers/STM32F4xx_HAL_Driver/Src/stm32f4xx_hal_dma_ex.c ****     
  57              		.loc 1 116 5 discriminator 2 view .LVU11
  58 0014 4FF0010C 		mov	ip, #1
  59              		.loc 1 118 7 discriminator 2 view .LVU12
  60 0018 6445     		cmp	r4, ip
 116:Drivers/STM32F4xx_HAL_Driver/Src/stm32f4xx_hal_dma_ex.c ****     
  61              		.loc 1 116 5 discriminator 2 view .LVU13
  62 001a 80F834C0 		strb	ip, [r0, #52]
 116:Drivers/STM32F4xx_HAL_Driver/Src/stm32f4xx_hal_dma_ex.c ****     
  63              		.loc 1 116 5 is_stmt 1 discriminator 2 view .LVU14
  64              		.loc 1 118 5 discriminator 2 view .LVU15
  65              		.loc 1 118 7 is_stmt 0 discriminator 2 view .LVU16
  66 001e 02D0     		beq	.L11
  67              	.L5:
 116:Drivers/STM32F4xx_HAL_Driver/Src/stm32f4xx_hal_dma_ex.c ****     
  68              		.loc 1 116 5 view .LVU17
  69 0020 0220     		movs	r0, #2
  70              	.LVL1:
 119:Drivers/STM32F4xx_HAL_Driver/Src/stm32f4xx_hal_dma_ex.c ****     {
 120:Drivers/STM32F4xx_HAL_Driver/Src/stm32f4xx_hal_dma_ex.c ****       /* Change DMA peripheral state */
 121:Drivers/STM32F4xx_HAL_Driver/Src/stm32f4xx_hal_dma_ex.c ****       hdma->State = HAL_DMA_STATE_BUSY; 
 122:Drivers/STM32F4xx_HAL_Driver/Src/stm32f4xx_hal_dma_ex.c ****       
 123:Drivers/STM32F4xx_HAL_Driver/Src/stm32f4xx_hal_dma_ex.c ****       /* Enable the double buffer mode */
 124:Drivers/STM32F4xx_HAL_Driver/Src/stm32f4xx_hal_dma_ex.c ****       hdma->Instance->CR |= (uint32_t)DMA_SxCR_DBM;
 125:Drivers/STM32F4xx_HAL_Driver/Src/stm32f4xx_hal_dma_ex.c ****       
 126:Drivers/STM32F4xx_HAL_Driver/Src/stm32f4xx_hal_dma_ex.c ****       /* Configure DMA Stream destination address */
 127:Drivers/STM32F4xx_HAL_Driver/Src/stm32f4xx_hal_dma_ex.c ****       hdma->Instance->M1AR = SecondMemAddress;
 128:Drivers/STM32F4xx_HAL_Driver/Src/stm32f4xx_hal_dma_ex.c ****       
 129:Drivers/STM32F4xx_HAL_Driver/Src/stm32f4xx_hal_dma_ex.c ****       /* Configure the source, destination address and the data length */
 130:Drivers/STM32F4xx_HAL_Driver/Src/stm32f4xx_hal_dma_ex.c ****       DMA_MultiBufferSetConfig(hdma, SrcAddress, DstAddress, DataLength);
 131:Drivers/STM32F4xx_HAL_Driver/Src/stm32f4xx_hal_dma_ex.c ****       
 132:Drivers/STM32F4xx_HAL_Driver/Src/stm32f4xx_hal_dma_ex.c ****       /* Enable the peripheral */
 133:Drivers/STM32F4xx_HAL_Driver/Src/stm32f4xx_hal_dma_ex.c ****       __HAL_DMA_ENABLE(hdma);
 134:Drivers/STM32F4xx_HAL_Driver/Src/stm32f4xx_hal_dma_ex.c ****     }
 135:Drivers/STM32F4xx_HAL_Driver/Src/stm32f4xx_hal_dma_ex.c ****     else
 136:Drivers/STM32F4xx_HAL_Driver/Src/stm32f4xx_hal_dma_ex.c ****     {
 137:Drivers/STM32F4xx_HAL_Driver/Src/stm32f4xx_hal_dma_ex.c ****       /* Return error status */
 138:Drivers/STM32F4xx_HAL_Driver/Src/stm32f4xx_hal_dma_ex.c ****       status = HAL_BUSY;
 139:Drivers/STM32F4xx_HAL_Driver/Src/stm32f4xx_hal_dma_ex.c ****     }
 140:Drivers/STM32F4xx_HAL_Driver/Src/stm32f4xx_hal_dma_ex.c ****   }
 141:Drivers/STM32F4xx_HAL_Driver/Src/stm32f4xx_hal_dma_ex.c ****   return status;
 142:Drivers/STM32F4xx_HAL_Driver/Src/stm32f4xx_hal_dma_ex.c **** }
  71              		.loc 1 142 1 view .LVU18
  72 0022 30BC     		pop	{r4, r5}
  73              		.cfi_remember_state
  74              		.cfi_restore 5
  75              		.cfi_restore 4
  76              		.cfi_def_cfa_offset 0
  77              	.LVL2:
  78              		.loc 1 142 1 view .LVU19
  79 0024 7047     		bx	lr
  80              	.LVL3:
  81              	.L11:
  82              		.cfi_restore_state
ARM GAS  C:\Users\pw705\AppData\Local\Temp\ccthnice.s 			page 5


 121:Drivers/STM32F4xx_HAL_Driver/Src/stm32f4xx_hal_dma_ex.c ****       
  83              		.loc 1 121 7 is_stmt 1 view .LVU20
 124:Drivers/STM32F4xx_HAL_Driver/Src/stm32f4xx_hal_dma_ex.c ****       
  84              		.loc 1 124 11 is_stmt 0 view .LVU21
  85 0026 0468     		ldr	r4, [r0]
 121:Drivers/STM32F4xx_HAL_Driver/Src/stm32f4xx_hal_dma_ex.c ****       
  86              		.loc 1 121 19 view .LVU22
  87 0028 4FF0020C 		mov	ip, #2
  88 002c 80F835C0 		strb	ip, [r0, #53]
 124:Drivers/STM32F4xx_HAL_Driver/Src/stm32f4xx_hal_dma_ex.c ****       
  89              		.loc 1 124 7 is_stmt 1 view .LVU23
 124:Drivers/STM32F4xx_HAL_Driver/Src/stm32f4xx_hal_dma_ex.c ****       
  90              		.loc 1 124 21 is_stmt 0 view .LVU24
  91 0030 2068     		ldr	r0, [r4]
  92              	.LVL4:
 124:Drivers/STM32F4xx_HAL_Driver/Src/stm32f4xx_hal_dma_ex.c ****       
  93              		.loc 1 124 26 view .LVU25
  94 0032 40F48020 		orr	r0, r0, #262144
  95 0036 2060     		str	r0, [r4]
 127:Drivers/STM32F4xx_HAL_Driver/Src/stm32f4xx_hal_dma_ex.c ****       
  96              		.loc 1 127 7 is_stmt 1 view .LVU26
  97              	.LBB6:
  98              	.LBB7:
 143:Drivers/STM32F4xx_HAL_Driver/Src/stm32f4xx_hal_dma_ex.c **** 
 144:Drivers/STM32F4xx_HAL_Driver/Src/stm32f4xx_hal_dma_ex.c **** /**
 145:Drivers/STM32F4xx_HAL_Driver/Src/stm32f4xx_hal_dma_ex.c ****   * @brief  Starts the multi_buffer DMA Transfer with interrupt enabled.
 146:Drivers/STM32F4xx_HAL_Driver/Src/stm32f4xx_hal_dma_ex.c ****   * @param  hdma       pointer to a DMA_HandleTypeDef structure that contains
 147:Drivers/STM32F4xx_HAL_Driver/Src/stm32f4xx_hal_dma_ex.c ****   *                     the configuration information for the specified DMA Stream.  
 148:Drivers/STM32F4xx_HAL_Driver/Src/stm32f4xx_hal_dma_ex.c ****   * @param  SrcAddress The source memory Buffer address
 149:Drivers/STM32F4xx_HAL_Driver/Src/stm32f4xx_hal_dma_ex.c ****   * @param  DstAddress The destination memory Buffer address
 150:Drivers/STM32F4xx_HAL_Driver/Src/stm32f4xx_hal_dma_ex.c ****   * @param  SecondMemAddress The second memory Buffer address in case of multi buffer Transfer  
 151:Drivers/STM32F4xx_HAL_Driver/Src/stm32f4xx_hal_dma_ex.c ****   * @param  DataLength The length of data to be transferred from source to destination
 152:Drivers/STM32F4xx_HAL_Driver/Src/stm32f4xx_hal_dma_ex.c ****   * @retval HAL status
 153:Drivers/STM32F4xx_HAL_Driver/Src/stm32f4xx_hal_dma_ex.c ****   */
 154:Drivers/STM32F4xx_HAL_Driver/Src/stm32f4xx_hal_dma_ex.c **** HAL_StatusTypeDef HAL_DMAEx_MultiBufferStart_IT(DMA_HandleTypeDef *hdma, uint32_t SrcAddress, uint3
 155:Drivers/STM32F4xx_HAL_Driver/Src/stm32f4xx_hal_dma_ex.c **** {
 156:Drivers/STM32F4xx_HAL_Driver/Src/stm32f4xx_hal_dma_ex.c ****   HAL_StatusTypeDef status = HAL_OK;
 157:Drivers/STM32F4xx_HAL_Driver/Src/stm32f4xx_hal_dma_ex.c ****   
 158:Drivers/STM32F4xx_HAL_Driver/Src/stm32f4xx_hal_dma_ex.c ****   /* Check the parameters */
 159:Drivers/STM32F4xx_HAL_Driver/Src/stm32f4xx_hal_dma_ex.c ****   assert_param(IS_DMA_BUFFER_SIZE(DataLength));
 160:Drivers/STM32F4xx_HAL_Driver/Src/stm32f4xx_hal_dma_ex.c ****   
 161:Drivers/STM32F4xx_HAL_Driver/Src/stm32f4xx_hal_dma_ex.c ****   /* Memory-to-memory transfer not supported in double buffering mode */
 162:Drivers/STM32F4xx_HAL_Driver/Src/stm32f4xx_hal_dma_ex.c ****   if (hdma->Init.Direction == DMA_MEMORY_TO_MEMORY)
 163:Drivers/STM32F4xx_HAL_Driver/Src/stm32f4xx_hal_dma_ex.c ****   {
 164:Drivers/STM32F4xx_HAL_Driver/Src/stm32f4xx_hal_dma_ex.c ****     hdma->ErrorCode = HAL_DMA_ERROR_NOT_SUPPORTED;
 165:Drivers/STM32F4xx_HAL_Driver/Src/stm32f4xx_hal_dma_ex.c ****     return HAL_ERROR;
 166:Drivers/STM32F4xx_HAL_Driver/Src/stm32f4xx_hal_dma_ex.c ****   }
 167:Drivers/STM32F4xx_HAL_Driver/Src/stm32f4xx_hal_dma_ex.c ****   
 168:Drivers/STM32F4xx_HAL_Driver/Src/stm32f4xx_hal_dma_ex.c ****   /* Check callback functions */
 169:Drivers/STM32F4xx_HAL_Driver/Src/stm32f4xx_hal_dma_ex.c ****   if ((NULL == hdma->XferCpltCallback) || (NULL == hdma->XferM1CpltCallback) || (NULL == hdma->Xfer
 170:Drivers/STM32F4xx_HAL_Driver/Src/stm32f4xx_hal_dma_ex.c ****   {
 171:Drivers/STM32F4xx_HAL_Driver/Src/stm32f4xx_hal_dma_ex.c ****     hdma->ErrorCode = HAL_DMA_ERROR_PARAM;
 172:Drivers/STM32F4xx_HAL_Driver/Src/stm32f4xx_hal_dma_ex.c ****     return HAL_ERROR;
 173:Drivers/STM32F4xx_HAL_Driver/Src/stm32f4xx_hal_dma_ex.c ****   }
 174:Drivers/STM32F4xx_HAL_Driver/Src/stm32f4xx_hal_dma_ex.c ****   
 175:Drivers/STM32F4xx_HAL_Driver/Src/stm32f4xx_hal_dma_ex.c ****   /* Process locked */
 176:Drivers/STM32F4xx_HAL_Driver/Src/stm32f4xx_hal_dma_ex.c ****   __HAL_LOCK(hdma);
ARM GAS  C:\Users\pw705\AppData\Local\Temp\ccthnice.s 			page 6


 177:Drivers/STM32F4xx_HAL_Driver/Src/stm32f4xx_hal_dma_ex.c ****   
 178:Drivers/STM32F4xx_HAL_Driver/Src/stm32f4xx_hal_dma_ex.c ****   if(HAL_DMA_STATE_READY == hdma->State)
 179:Drivers/STM32F4xx_HAL_Driver/Src/stm32f4xx_hal_dma_ex.c ****   {
 180:Drivers/STM32F4xx_HAL_Driver/Src/stm32f4xx_hal_dma_ex.c ****     /* Change DMA peripheral state */
 181:Drivers/STM32F4xx_HAL_Driver/Src/stm32f4xx_hal_dma_ex.c ****     hdma->State = HAL_DMA_STATE_BUSY;
 182:Drivers/STM32F4xx_HAL_Driver/Src/stm32f4xx_hal_dma_ex.c ****     
 183:Drivers/STM32F4xx_HAL_Driver/Src/stm32f4xx_hal_dma_ex.c ****     /* Initialize the error code */
 184:Drivers/STM32F4xx_HAL_Driver/Src/stm32f4xx_hal_dma_ex.c ****     hdma->ErrorCode = HAL_DMA_ERROR_NONE;
 185:Drivers/STM32F4xx_HAL_Driver/Src/stm32f4xx_hal_dma_ex.c ****     
 186:Drivers/STM32F4xx_HAL_Driver/Src/stm32f4xx_hal_dma_ex.c ****     /* Enable the Double buffer mode */
 187:Drivers/STM32F4xx_HAL_Driver/Src/stm32f4xx_hal_dma_ex.c ****     hdma->Instance->CR |= (uint32_t)DMA_SxCR_DBM;
 188:Drivers/STM32F4xx_HAL_Driver/Src/stm32f4xx_hal_dma_ex.c ****     
 189:Drivers/STM32F4xx_HAL_Driver/Src/stm32f4xx_hal_dma_ex.c ****     /* Configure DMA Stream destination address */
 190:Drivers/STM32F4xx_HAL_Driver/Src/stm32f4xx_hal_dma_ex.c ****     hdma->Instance->M1AR = SecondMemAddress;
 191:Drivers/STM32F4xx_HAL_Driver/Src/stm32f4xx_hal_dma_ex.c ****     
 192:Drivers/STM32F4xx_HAL_Driver/Src/stm32f4xx_hal_dma_ex.c ****     /* Configure the source, destination address and the data length */
 193:Drivers/STM32F4xx_HAL_Driver/Src/stm32f4xx_hal_dma_ex.c ****     DMA_MultiBufferSetConfig(hdma, SrcAddress, DstAddress, DataLength); 
 194:Drivers/STM32F4xx_HAL_Driver/Src/stm32f4xx_hal_dma_ex.c ****     
 195:Drivers/STM32F4xx_HAL_Driver/Src/stm32f4xx_hal_dma_ex.c ****     /* Clear all flags */
 196:Drivers/STM32F4xx_HAL_Driver/Src/stm32f4xx_hal_dma_ex.c ****     __HAL_DMA_CLEAR_FLAG (hdma, __HAL_DMA_GET_TC_FLAG_INDEX(hdma));
 197:Drivers/STM32F4xx_HAL_Driver/Src/stm32f4xx_hal_dma_ex.c ****     __HAL_DMA_CLEAR_FLAG (hdma, __HAL_DMA_GET_HT_FLAG_INDEX(hdma));
 198:Drivers/STM32F4xx_HAL_Driver/Src/stm32f4xx_hal_dma_ex.c ****     __HAL_DMA_CLEAR_FLAG (hdma, __HAL_DMA_GET_TE_FLAG_INDEX(hdma));
 199:Drivers/STM32F4xx_HAL_Driver/Src/stm32f4xx_hal_dma_ex.c ****     __HAL_DMA_CLEAR_FLAG (hdma, __HAL_DMA_GET_DME_FLAG_INDEX(hdma));
 200:Drivers/STM32F4xx_HAL_Driver/Src/stm32f4xx_hal_dma_ex.c ****     __HAL_DMA_CLEAR_FLAG (hdma, __HAL_DMA_GET_FE_FLAG_INDEX(hdma));
 201:Drivers/STM32F4xx_HAL_Driver/Src/stm32f4xx_hal_dma_ex.c **** 
 202:Drivers/STM32F4xx_HAL_Driver/Src/stm32f4xx_hal_dma_ex.c ****     /* Enable Common interrupts*/
 203:Drivers/STM32F4xx_HAL_Driver/Src/stm32f4xx_hal_dma_ex.c ****     hdma->Instance->CR  |= DMA_IT_TC | DMA_IT_TE | DMA_IT_DME;
 204:Drivers/STM32F4xx_HAL_Driver/Src/stm32f4xx_hal_dma_ex.c ****     hdma->Instance->FCR |= DMA_IT_FE;
 205:Drivers/STM32F4xx_HAL_Driver/Src/stm32f4xx_hal_dma_ex.c ****     
 206:Drivers/STM32F4xx_HAL_Driver/Src/stm32f4xx_hal_dma_ex.c ****     if((hdma->XferHalfCpltCallback != NULL) || (hdma->XferM1HalfCpltCallback != NULL))
 207:Drivers/STM32F4xx_HAL_Driver/Src/stm32f4xx_hal_dma_ex.c ****     {
 208:Drivers/STM32F4xx_HAL_Driver/Src/stm32f4xx_hal_dma_ex.c ****       hdma->Instance->CR  |= DMA_IT_HT;
 209:Drivers/STM32F4xx_HAL_Driver/Src/stm32f4xx_hal_dma_ex.c ****     }
 210:Drivers/STM32F4xx_HAL_Driver/Src/stm32f4xx_hal_dma_ex.c ****     
 211:Drivers/STM32F4xx_HAL_Driver/Src/stm32f4xx_hal_dma_ex.c ****     /* Enable the peripheral */
 212:Drivers/STM32F4xx_HAL_Driver/Src/stm32f4xx_hal_dma_ex.c ****     __HAL_DMA_ENABLE(hdma); 
 213:Drivers/STM32F4xx_HAL_Driver/Src/stm32f4xx_hal_dma_ex.c ****   }
 214:Drivers/STM32F4xx_HAL_Driver/Src/stm32f4xx_hal_dma_ex.c ****   else
 215:Drivers/STM32F4xx_HAL_Driver/Src/stm32f4xx_hal_dma_ex.c ****   {     
 216:Drivers/STM32F4xx_HAL_Driver/Src/stm32f4xx_hal_dma_ex.c ****     /* Process unlocked */
 217:Drivers/STM32F4xx_HAL_Driver/Src/stm32f4xx_hal_dma_ex.c ****     __HAL_UNLOCK(hdma);	  
 218:Drivers/STM32F4xx_HAL_Driver/Src/stm32f4xx_hal_dma_ex.c ****     
 219:Drivers/STM32F4xx_HAL_Driver/Src/stm32f4xx_hal_dma_ex.c ****     /* Return error status */
 220:Drivers/STM32F4xx_HAL_Driver/Src/stm32f4xx_hal_dma_ex.c ****     status = HAL_BUSY;
 221:Drivers/STM32F4xx_HAL_Driver/Src/stm32f4xx_hal_dma_ex.c ****   }  
 222:Drivers/STM32F4xx_HAL_Driver/Src/stm32f4xx_hal_dma_ex.c ****   return status; 
 223:Drivers/STM32F4xx_HAL_Driver/Src/stm32f4xx_hal_dma_ex.c **** }
 224:Drivers/STM32F4xx_HAL_Driver/Src/stm32f4xx_hal_dma_ex.c **** 
 225:Drivers/STM32F4xx_HAL_Driver/Src/stm32f4xx_hal_dma_ex.c **** /**
 226:Drivers/STM32F4xx_HAL_Driver/Src/stm32f4xx_hal_dma_ex.c ****   * @brief  Change the memory0 or memory1 address on the fly.
 227:Drivers/STM32F4xx_HAL_Driver/Src/stm32f4xx_hal_dma_ex.c ****   * @param  hdma       pointer to a DMA_HandleTypeDef structure that contains
 228:Drivers/STM32F4xx_HAL_Driver/Src/stm32f4xx_hal_dma_ex.c ****   *                     the configuration information for the specified DMA Stream.  
 229:Drivers/STM32F4xx_HAL_Driver/Src/stm32f4xx_hal_dma_ex.c ****   * @param  Address    The new address
 230:Drivers/STM32F4xx_HAL_Driver/Src/stm32f4xx_hal_dma_ex.c ****   * @param  memory     the memory to be changed, This parameter can be one of 
 231:Drivers/STM32F4xx_HAL_Driver/Src/stm32f4xx_hal_dma_ex.c ****   *                     the following values:
 232:Drivers/STM32F4xx_HAL_Driver/Src/stm32f4xx_hal_dma_ex.c ****   *                      MEMORY0 /
 233:Drivers/STM32F4xx_HAL_Driver/Src/stm32f4xx_hal_dma_ex.c ****   *                      MEMORY1
ARM GAS  C:\Users\pw705\AppData\Local\Temp\ccthnice.s 			page 7


 234:Drivers/STM32F4xx_HAL_Driver/Src/stm32f4xx_hal_dma_ex.c ****   * @note   The MEMORY0 address can be changed only when the current transfer use
 235:Drivers/STM32F4xx_HAL_Driver/Src/stm32f4xx_hal_dma_ex.c ****   *         MEMORY1 and the MEMORY1 address can be changed only when the current 
 236:Drivers/STM32F4xx_HAL_Driver/Src/stm32f4xx_hal_dma_ex.c ****   *         transfer use MEMORY0.
 237:Drivers/STM32F4xx_HAL_Driver/Src/stm32f4xx_hal_dma_ex.c ****   * @retval HAL status
 238:Drivers/STM32F4xx_HAL_Driver/Src/stm32f4xx_hal_dma_ex.c ****   */
 239:Drivers/STM32F4xx_HAL_Driver/Src/stm32f4xx_hal_dma_ex.c **** HAL_StatusTypeDef HAL_DMAEx_ChangeMemory(DMA_HandleTypeDef *hdma, uint32_t Address, HAL_DMA_MemoryT
 240:Drivers/STM32F4xx_HAL_Driver/Src/stm32f4xx_hal_dma_ex.c **** {
 241:Drivers/STM32F4xx_HAL_Driver/Src/stm32f4xx_hal_dma_ex.c ****   if(memory == MEMORY0)
 242:Drivers/STM32F4xx_HAL_Driver/Src/stm32f4xx_hal_dma_ex.c ****   {
 243:Drivers/STM32F4xx_HAL_Driver/Src/stm32f4xx_hal_dma_ex.c ****     /* change the memory0 address */
 244:Drivers/STM32F4xx_HAL_Driver/Src/stm32f4xx_hal_dma_ex.c ****     hdma->Instance->M0AR = Address;
 245:Drivers/STM32F4xx_HAL_Driver/Src/stm32f4xx_hal_dma_ex.c ****   }
 246:Drivers/STM32F4xx_HAL_Driver/Src/stm32f4xx_hal_dma_ex.c ****   else
 247:Drivers/STM32F4xx_HAL_Driver/Src/stm32f4xx_hal_dma_ex.c ****   {
 248:Drivers/STM32F4xx_HAL_Driver/Src/stm32f4xx_hal_dma_ex.c ****     /* change the memory1 address */
 249:Drivers/STM32F4xx_HAL_Driver/Src/stm32f4xx_hal_dma_ex.c ****     hdma->Instance->M1AR = Address;
 250:Drivers/STM32F4xx_HAL_Driver/Src/stm32f4xx_hal_dma_ex.c ****   }
 251:Drivers/STM32F4xx_HAL_Driver/Src/stm32f4xx_hal_dma_ex.c **** 
 252:Drivers/STM32F4xx_HAL_Driver/Src/stm32f4xx_hal_dma_ex.c ****   return HAL_OK;
 253:Drivers/STM32F4xx_HAL_Driver/Src/stm32f4xx_hal_dma_ex.c **** }
 254:Drivers/STM32F4xx_HAL_Driver/Src/stm32f4xx_hal_dma_ex.c **** 
 255:Drivers/STM32F4xx_HAL_Driver/Src/stm32f4xx_hal_dma_ex.c **** /**
 256:Drivers/STM32F4xx_HAL_Driver/Src/stm32f4xx_hal_dma_ex.c ****   * @}
 257:Drivers/STM32F4xx_HAL_Driver/Src/stm32f4xx_hal_dma_ex.c ****   */
 258:Drivers/STM32F4xx_HAL_Driver/Src/stm32f4xx_hal_dma_ex.c **** 
 259:Drivers/STM32F4xx_HAL_Driver/Src/stm32f4xx_hal_dma_ex.c **** /**
 260:Drivers/STM32F4xx_HAL_Driver/Src/stm32f4xx_hal_dma_ex.c ****   * @}
 261:Drivers/STM32F4xx_HAL_Driver/Src/stm32f4xx_hal_dma_ex.c ****   */
 262:Drivers/STM32F4xx_HAL_Driver/Src/stm32f4xx_hal_dma_ex.c **** 
 263:Drivers/STM32F4xx_HAL_Driver/Src/stm32f4xx_hal_dma_ex.c **** /** @addtogroup DMAEx_Private_Functions
 264:Drivers/STM32F4xx_HAL_Driver/Src/stm32f4xx_hal_dma_ex.c ****   * @{
 265:Drivers/STM32F4xx_HAL_Driver/Src/stm32f4xx_hal_dma_ex.c ****   */
 266:Drivers/STM32F4xx_HAL_Driver/Src/stm32f4xx_hal_dma_ex.c **** 
 267:Drivers/STM32F4xx_HAL_Driver/Src/stm32f4xx_hal_dma_ex.c **** /**
 268:Drivers/STM32F4xx_HAL_Driver/Src/stm32f4xx_hal_dma_ex.c ****   * @brief  Set the DMA Transfer parameter.
 269:Drivers/STM32F4xx_HAL_Driver/Src/stm32f4xx_hal_dma_ex.c ****   * @param  hdma       pointer to a DMA_HandleTypeDef structure that contains
 270:Drivers/STM32F4xx_HAL_Driver/Src/stm32f4xx_hal_dma_ex.c ****   *                     the configuration information for the specified DMA Stream.  
 271:Drivers/STM32F4xx_HAL_Driver/Src/stm32f4xx_hal_dma_ex.c ****   * @param  SrcAddress The source memory Buffer address
 272:Drivers/STM32F4xx_HAL_Driver/Src/stm32f4xx_hal_dma_ex.c ****   * @param  DstAddress The destination memory Buffer address
 273:Drivers/STM32F4xx_HAL_Driver/Src/stm32f4xx_hal_dma_ex.c ****   * @param  DataLength The length of data to be transferred from source to destination
 274:Drivers/STM32F4xx_HAL_Driver/Src/stm32f4xx_hal_dma_ex.c ****   * @retval HAL status
 275:Drivers/STM32F4xx_HAL_Driver/Src/stm32f4xx_hal_dma_ex.c ****   */
 276:Drivers/STM32F4xx_HAL_Driver/Src/stm32f4xx_hal_dma_ex.c **** static void DMA_MultiBufferSetConfig(DMA_HandleTypeDef *hdma, uint32_t SrcAddress, uint32_t DstAddr
 277:Drivers/STM32F4xx_HAL_Driver/Src/stm32f4xx_hal_dma_ex.c **** {  
 278:Drivers/STM32F4xx_HAL_Driver/Src/stm32f4xx_hal_dma_ex.c ****   /* Configure DMA Stream data length */
 279:Drivers/STM32F4xx_HAL_Driver/Src/stm32f4xx_hal_dma_ex.c ****   hdma->Instance->NDTR = DataLength;
 280:Drivers/STM32F4xx_HAL_Driver/Src/stm32f4xx_hal_dma_ex.c ****   
 281:Drivers/STM32F4xx_HAL_Driver/Src/stm32f4xx_hal_dma_ex.c ****   /* Peripheral to Memory */
 282:Drivers/STM32F4xx_HAL_Driver/Src/stm32f4xx_hal_dma_ex.c ****   if((hdma->Init.Direction) == DMA_MEMORY_TO_PERIPH)
  99              		.loc 1 282 5 is_stmt 0 view .LVU27
 100 0038 402D     		cmp	r5, #64
 101              	.LBE7:
 102              	.LBE6:
 127:Drivers/STM32F4xx_HAL_Driver/Src/stm32f4xx_hal_dma_ex.c ****       
 103              		.loc 1 127 28 view .LVU28
 104 003a 2361     		str	r3, [r4, #16]
 130:Drivers/STM32F4xx_HAL_Driver/Src/stm32f4xx_hal_dma_ex.c ****       
ARM GAS  C:\Users\pw705\AppData\Local\Temp\ccthnice.s 			page 8


 105              		.loc 1 130 7 is_stmt 1 view .LVU29
 106              	.LVL5:
 107              	.LBB9:
 108              	.LBI6:
 276:Drivers/STM32F4xx_HAL_Driver/Src/stm32f4xx_hal_dma_ex.c **** {  
 109              		.loc 1 276 13 view .LVU30
 110              	.LBB8:
 279:Drivers/STM32F4xx_HAL_Driver/Src/stm32f4xx_hal_dma_ex.c ****   
 111              		.loc 1 279 3 view .LVU31
 279:Drivers/STM32F4xx_HAL_Driver/Src/stm32f4xx_hal_dma_ex.c ****   
 112              		.loc 1 279 24 is_stmt 0 view .LVU32
 113 003c 029B     		ldr	r3, [sp, #8]
 114              	.LVL6:
 279:Drivers/STM32F4xx_HAL_Driver/Src/stm32f4xx_hal_dma_ex.c ****   
 115              		.loc 1 279 24 view .LVU33
 116 003e 6360     		str	r3, [r4, #4]
 117              	.LVL7:
 118              		.loc 1 282 3 is_stmt 1 view .LVU34
 283:Drivers/STM32F4xx_HAL_Driver/Src/stm32f4xx_hal_dma_ex.c ****   {   
 284:Drivers/STM32F4xx_HAL_Driver/Src/stm32f4xx_hal_dma_ex.c ****     /* Configure DMA Stream destination address */
 285:Drivers/STM32F4xx_HAL_Driver/Src/stm32f4xx_hal_dma_ex.c ****     hdma->Instance->PAR = DstAddress;
 119              		.loc 1 285 5 view .LVU35
 120              		.loc 1 285 25 is_stmt 0 view .LVU36
 121 0040 0BBF     		itete	eq
 122 0042 A260     		streq	r2, [r4, #8]
 286:Drivers/STM32F4xx_HAL_Driver/Src/stm32f4xx_hal_dma_ex.c ****     
 287:Drivers/STM32F4xx_HAL_Driver/Src/stm32f4xx_hal_dma_ex.c ****     /* Configure DMA Stream source address */
 288:Drivers/STM32F4xx_HAL_Driver/Src/stm32f4xx_hal_dma_ex.c ****     hdma->Instance->M0AR = SrcAddress;
 123              		.loc 1 288 5 is_stmt 1 view .LVU37
 289:Drivers/STM32F4xx_HAL_Driver/Src/stm32f4xx_hal_dma_ex.c ****   }
 290:Drivers/STM32F4xx_HAL_Driver/Src/stm32f4xx_hal_dma_ex.c ****   /* Memory to Peripheral */
 291:Drivers/STM32F4xx_HAL_Driver/Src/stm32f4xx_hal_dma_ex.c ****   else
 292:Drivers/STM32F4xx_HAL_Driver/Src/stm32f4xx_hal_dma_ex.c ****   {
 293:Drivers/STM32F4xx_HAL_Driver/Src/stm32f4xx_hal_dma_ex.c ****     /* Configure DMA Stream source address */
 294:Drivers/STM32F4xx_HAL_Driver/Src/stm32f4xx_hal_dma_ex.c ****     hdma->Instance->PAR = SrcAddress;
 124              		.loc 1 294 25 is_stmt 0 view .LVU38
 125 0044 A160     		strne	r1, [r4, #8]
 288:Drivers/STM32F4xx_HAL_Driver/Src/stm32f4xx_hal_dma_ex.c ****   }
 126              		.loc 1 288 26 view .LVU39
 127 0046 E160     		streq	r1, [r4, #12]
 128              		.loc 1 294 5 is_stmt 1 view .LVU40
 295:Drivers/STM32F4xx_HAL_Driver/Src/stm32f4xx_hal_dma_ex.c ****     
 296:Drivers/STM32F4xx_HAL_Driver/Src/stm32f4xx_hal_dma_ex.c ****     /* Configure DMA Stream destination address */
 297:Drivers/STM32F4xx_HAL_Driver/Src/stm32f4xx_hal_dma_ex.c ****     hdma->Instance->M0AR = DstAddress;
 129              		.loc 1 297 5 view .LVU41
 130              		.loc 1 297 26 is_stmt 0 view .LVU42
 131 0048 E260     		strne	r2, [r4, #12]
 132              	.LVL8:
 133              		.loc 1 297 26 view .LVU43
 134              	.LBE8:
 135              	.LBE9:
 133:Drivers/STM32F4xx_HAL_Driver/Src/stm32f4xx_hal_dma_ex.c ****     }
 136              		.loc 1 133 7 is_stmt 1 view .LVU44
 137 004a 2368     		ldr	r3, [r4]
 138 004c 43F00103 		orr	r3, r3, #1
 102:Drivers/STM32F4xx_HAL_Driver/Src/stm32f4xx_hal_dma_ex.c ****   
 139              		.loc 1 102 21 is_stmt 0 view .LVU45
ARM GAS  C:\Users\pw705\AppData\Local\Temp\ccthnice.s 			page 9


 140 0050 0020     		movs	r0, #0
 133:Drivers/STM32F4xx_HAL_Driver/Src/stm32f4xx_hal_dma_ex.c ****     }
 141              		.loc 1 133 7 view .LVU46
 142 0052 2360     		str	r3, [r4]
 143              	.LVL9:
 142:Drivers/STM32F4xx_HAL_Driver/Src/stm32f4xx_hal_dma_ex.c **** 
 144              		.loc 1 142 1 view .LVU47
 145 0054 30BC     		pop	{r4, r5}
 146              		.cfi_remember_state
 147              		.cfi_restore 5
 148              		.cfi_restore 4
 149              		.cfi_def_cfa_offset 0
 150              	.LVL10:
 142:Drivers/STM32F4xx_HAL_Driver/Src/stm32f4xx_hal_dma_ex.c **** 
 151              		.loc 1 142 1 view .LVU48
 152 0056 7047     		bx	lr
 153              	.LVL11:
 154              	.L10:
 155              		.cfi_restore_state
 110:Drivers/STM32F4xx_HAL_Driver/Src/stm32f4xx_hal_dma_ex.c ****     status = HAL_ERROR;
 156              		.loc 1 110 5 is_stmt 1 view .LVU49
 110:Drivers/STM32F4xx_HAL_Driver/Src/stm32f4xx_hal_dma_ex.c ****     status = HAL_ERROR;
 157              		.loc 1 110 21 is_stmt 0 view .LVU50
 158 0058 4FF48073 		mov	r3, #256
 159              	.LVL12:
 110:Drivers/STM32F4xx_HAL_Driver/Src/stm32f4xx_hal_dma_ex.c ****     status = HAL_ERROR;
 160              		.loc 1 110 21 view .LVU51
 161 005c 4365     		str	r3, [r0, #84]
 111:Drivers/STM32F4xx_HAL_Driver/Src/stm32f4xx_hal_dma_ex.c ****   }
 162              		.loc 1 111 5 is_stmt 1 view .LVU52
 163              	.LVL13:
 142:Drivers/STM32F4xx_HAL_Driver/Src/stm32f4xx_hal_dma_ex.c **** 
 164              		.loc 1 142 1 is_stmt 0 view .LVU53
 165 005e 30BC     		pop	{r4, r5}
 166              		.cfi_restore 5
 167              		.cfi_restore 4
 168              		.cfi_def_cfa_offset 0
 169              	.LVL14:
 111:Drivers/STM32F4xx_HAL_Driver/Src/stm32f4xx_hal_dma_ex.c ****   }
 170              		.loc 1 111 12 view .LVU54
 171 0060 0120     		movs	r0, #1
 172              	.LVL15:
 142:Drivers/STM32F4xx_HAL_Driver/Src/stm32f4xx_hal_dma_ex.c **** 
 173              		.loc 1 142 1 view .LVU55
 174 0062 7047     		bx	lr
 175              		.cfi_endproc
 176              	.LFE130:
 178              		.section	.text.HAL_DMAEx_MultiBufferStart_IT,"ax",%progbits
 179              		.align	1
 180              		.p2align 2,,3
 181              		.global	HAL_DMAEx_MultiBufferStart_IT
 182              		.syntax unified
 183              		.thumb
 184              		.thumb_func
 186              	HAL_DMAEx_MultiBufferStart_IT:
 187              	.LVL16:
 188              	.LFB131:
ARM GAS  C:\Users\pw705\AppData\Local\Temp\ccthnice.s 			page 10


 155:Drivers/STM32F4xx_HAL_Driver/Src/stm32f4xx_hal_dma_ex.c ****   HAL_StatusTypeDef status = HAL_OK;
 189              		.loc 1 155 1 is_stmt 1 view -0
 190              		.cfi_startproc
 191              		@ args = 4, pretend = 0, frame = 0
 192              		@ frame_needed = 0, uses_anonymous_args = 0
 193              		@ link register save eliminated.
 156:Drivers/STM32F4xx_HAL_Driver/Src/stm32f4xx_hal_dma_ex.c ****   
 194              		.loc 1 156 3 view .LVU57
 159:Drivers/STM32F4xx_HAL_Driver/Src/stm32f4xx_hal_dma_ex.c ****   
 195              		.loc 1 159 3 view .LVU58
 162:Drivers/STM32F4xx_HAL_Driver/Src/stm32f4xx_hal_dma_ex.c ****   {
 196              		.loc 1 162 3 view .LVU59
 155:Drivers/STM32F4xx_HAL_Driver/Src/stm32f4xx_hal_dma_ex.c ****   HAL_StatusTypeDef status = HAL_OK;
 197              		.loc 1 155 1 is_stmt 0 view .LVU60
 198 0000 70B4     		push	{r4, r5, r6}
 199              		.cfi_def_cfa_offset 12
 200              		.cfi_offset 4, -12
 201              		.cfi_offset 5, -8
 202              		.cfi_offset 6, -4
 162:Drivers/STM32F4xx_HAL_Driver/Src/stm32f4xx_hal_dma_ex.c ****   {
 203              		.loc 1 162 17 view .LVU61
 204 0002 8568     		ldr	r5, [r0, #8]
 162:Drivers/STM32F4xx_HAL_Driver/Src/stm32f4xx_hal_dma_ex.c ****   {
 205              		.loc 1 162 6 view .LVU62
 206 0004 802D     		cmp	r5, #128
 207 0006 1CD0     		beq	.L386
 169:Drivers/STM32F4xx_HAL_Driver/Src/stm32f4xx_hal_dma_ex.c ****   {
 208              		.loc 1 169 3 is_stmt 1 view .LVU63
 169:Drivers/STM32F4xx_HAL_Driver/Src/stm32f4xx_hal_dma_ex.c ****   {
 209              		.loc 1 169 6 is_stmt 0 view .LVU64
 210 0008 C46B     		ldr	r4, [r0, #60]
 211 000a ACB1     		cbz	r4, .L15
 169:Drivers/STM32F4xx_HAL_Driver/Src/stm32f4xx_hal_dma_ex.c ****   {
 212              		.loc 1 169 40 discriminator 1 view .LVU65
 213 000c 446C     		ldr	r4, [r0, #68]
 214 000e 9CB1     		cbz	r4, .L15
 169:Drivers/STM32F4xx_HAL_Driver/Src/stm32f4xx_hal_dma_ex.c ****   {
 215              		.loc 1 169 78 discriminator 2 view .LVU66
 216 0010 C46C     		ldr	r4, [r0, #76]
 217 0012 8CB1     		cbz	r4, .L15
 176:Drivers/STM32F4xx_HAL_Driver/Src/stm32f4xx_hal_dma_ex.c ****   
 218              		.loc 1 176 3 is_stmt 1 view .LVU67
 176:Drivers/STM32F4xx_HAL_Driver/Src/stm32f4xx_hal_dma_ex.c ****   
 219              		.loc 1 176 3 view .LVU68
 220 0014 90F83440 		ldrb	r4, [r0, #52]	@ zero_extendqisi2
 221 0018 012C     		cmp	r4, #1
 222 001a 0AD0     		beq	.L18
 176:Drivers/STM32F4xx_HAL_Driver/Src/stm32f4xx_hal_dma_ex.c ****   
 223              		.loc 1 176 3 discriminator 2 view .LVU69
 178:Drivers/STM32F4xx_HAL_Driver/Src/stm32f4xx_hal_dma_ex.c ****   {
 224              		.loc 1 178 33 is_stmt 0 discriminator 2 view .LVU70
 225 001c 90F83540 		ldrb	r4, [r0, #53]	@ zero_extendqisi2
 176:Drivers/STM32F4xx_HAL_Driver/Src/stm32f4xx_hal_dma_ex.c ****   
 226              		.loc 1 176 3 discriminator 2 view .LVU71
 227 0020 4FF0010C 		mov	ip, #1
 178:Drivers/STM32F4xx_HAL_Driver/Src/stm32f4xx_hal_dma_ex.c ****   {
 228              		.loc 1 178 5 discriminator 2 view .LVU72
ARM GAS  C:\Users\pw705\AppData\Local\Temp\ccthnice.s 			page 11


 229 0024 6445     		cmp	r4, ip
 176:Drivers/STM32F4xx_HAL_Driver/Src/stm32f4xx_hal_dma_ex.c ****   
 230              		.loc 1 176 3 discriminator 2 view .LVU73
 231 0026 80F834C0 		strb	ip, [r0, #52]
 176:Drivers/STM32F4xx_HAL_Driver/Src/stm32f4xx_hal_dma_ex.c ****   
 232              		.loc 1 176 3 is_stmt 1 discriminator 2 view .LVU74
 178:Drivers/STM32F4xx_HAL_Driver/Src/stm32f4xx_hal_dma_ex.c ****   {
 233              		.loc 1 178 3 discriminator 2 view .LVU75
 178:Drivers/STM32F4xx_HAL_Driver/Src/stm32f4xx_hal_dma_ex.c ****   {
 234              		.loc 1 178 5 is_stmt 0 discriminator 2 view .LVU76
 235 002a 0ED0     		beq	.L387
 217:Drivers/STM32F4xx_HAL_Driver/Src/stm32f4xx_hal_dma_ex.c ****     
 236              		.loc 1 217 5 is_stmt 1 view .LVU77
 217:Drivers/STM32F4xx_HAL_Driver/Src/stm32f4xx_hal_dma_ex.c ****     
 237              		.loc 1 217 5 view .LVU78
 238 002c 0023     		movs	r3, #0
 239              	.LVL17:
 217:Drivers/STM32F4xx_HAL_Driver/Src/stm32f4xx_hal_dma_ex.c ****     
 240              		.loc 1 217 5 is_stmt 0 view .LVU79
 241 002e 80F83430 		strb	r3, [r0, #52]
 217:Drivers/STM32F4xx_HAL_Driver/Src/stm32f4xx_hal_dma_ex.c ****     
 242              		.loc 1 217 5 is_stmt 1 view .LVU80
 220:Drivers/STM32F4xx_HAL_Driver/Src/stm32f4xx_hal_dma_ex.c ****   }  
 243              		.loc 1 220 5 view .LVU81
 244              	.LVL18:
 245              	.L18:
 176:Drivers/STM32F4xx_HAL_Driver/Src/stm32f4xx_hal_dma_ex.c ****   
 246              		.loc 1 176 3 is_stmt 0 view .LVU82
 247 0032 0220     		movs	r0, #2
 248              	.LVL19:
 223:Drivers/STM32F4xx_HAL_Driver/Src/stm32f4xx_hal_dma_ex.c **** 
 249              		.loc 1 223 1 view .LVU83
 250 0034 70BC     		pop	{r4, r5, r6}
 251              		.cfi_remember_state
 252              		.cfi_restore 6
 253              		.cfi_restore 5
 254              		.cfi_restore 4
 255              		.cfi_def_cfa_offset 0
 256              	.LVL20:
 223:Drivers/STM32F4xx_HAL_Driver/Src/stm32f4xx_hal_dma_ex.c **** 
 257              		.loc 1 223 1 view .LVU84
 258 0036 7047     		bx	lr
 259              	.LVL21:
 260              	.L15:
 261              		.cfi_restore_state
 171:Drivers/STM32F4xx_HAL_Driver/Src/stm32f4xx_hal_dma_ex.c ****     return HAL_ERROR;
 262              		.loc 1 171 5 is_stmt 1 view .LVU85
 171:Drivers/STM32F4xx_HAL_Driver/Src/stm32f4xx_hal_dma_ex.c ****     return HAL_ERROR;
 263              		.loc 1 171 21 is_stmt 0 view .LVU86
 264 0038 4023     		movs	r3, #64
 265              	.LVL22:
 171:Drivers/STM32F4xx_HAL_Driver/Src/stm32f4xx_hal_dma_ex.c ****     return HAL_ERROR;
 266              		.loc 1 171 21 view .LVU87
 267 003a 4365     		str	r3, [r0, #84]
 268              	.LVL23:
 172:Drivers/STM32F4xx_HAL_Driver/Src/stm32f4xx_hal_dma_ex.c ****   }
 269              		.loc 1 172 5 is_stmt 1 view .LVU88
ARM GAS  C:\Users\pw705\AppData\Local\Temp\ccthnice.s 			page 12


 270              	.L14:
 165:Drivers/STM32F4xx_HAL_Driver/Src/stm32f4xx_hal_dma_ex.c ****   }
 271              		.loc 1 165 12 is_stmt 0 view .LVU89
 272 003c 0120     		movs	r0, #1
 273              	.LVL24:
 223:Drivers/STM32F4xx_HAL_Driver/Src/stm32f4xx_hal_dma_ex.c **** 
 274              		.loc 1 223 1 view .LVU90
 275 003e 70BC     		pop	{r4, r5, r6}
 276              		.cfi_remember_state
 277              		.cfi_restore 6
 278              		.cfi_restore 5
 279              		.cfi_restore 4
 280              		.cfi_def_cfa_offset 0
 281 0040 7047     		bx	lr
 282              	.LVL25:
 283              	.L386:
 284              		.cfi_restore_state
 164:Drivers/STM32F4xx_HAL_Driver/Src/stm32f4xx_hal_dma_ex.c ****     return HAL_ERROR;
 285              		.loc 1 164 5 is_stmt 1 view .LVU91
 164:Drivers/STM32F4xx_HAL_Driver/Src/stm32f4xx_hal_dma_ex.c ****     return HAL_ERROR;
 286              		.loc 1 164 21 is_stmt 0 view .LVU92
 287 0042 4FF48073 		mov	r3, #256
 288              	.LVL26:
 164:Drivers/STM32F4xx_HAL_Driver/Src/stm32f4xx_hal_dma_ex.c ****     return HAL_ERROR;
 289              		.loc 1 164 21 view .LVU93
 290 0046 4365     		str	r3, [r0, #84]
 291              	.LVL27:
 165:Drivers/STM32F4xx_HAL_Driver/Src/stm32f4xx_hal_dma_ex.c ****   }
 292              		.loc 1 165 5 is_stmt 1 view .LVU94
 165:Drivers/STM32F4xx_HAL_Driver/Src/stm32f4xx_hal_dma_ex.c ****   }
 293              		.loc 1 165 12 is_stmt 0 view .LVU95
 294 0048 F8E7     		b	.L14
 295              	.LVL28:
 296              	.L387:
 181:Drivers/STM32F4xx_HAL_Driver/Src/stm32f4xx_hal_dma_ex.c ****     
 297              		.loc 1 181 5 is_stmt 1 view .LVU96
 181:Drivers/STM32F4xx_HAL_Driver/Src/stm32f4xx_hal_dma_ex.c ****     
 298              		.loc 1 181 17 is_stmt 0 view .LVU97
 299 004a 0226     		movs	r6, #2
 300 004c 80F83560 		strb	r6, [r0, #53]
 184:Drivers/STM32F4xx_HAL_Driver/Src/stm32f4xx_hal_dma_ex.c ****     
 301              		.loc 1 184 5 is_stmt 1 view .LVU98
 187:Drivers/STM32F4xx_HAL_Driver/Src/stm32f4xx_hal_dma_ex.c ****     
 302              		.loc 1 187 9 is_stmt 0 view .LVU99
 303 0050 0468     		ldr	r4, [r0]
 184:Drivers/STM32F4xx_HAL_Driver/Src/stm32f4xx_hal_dma_ex.c ****     
 304              		.loc 1 184 21 view .LVU100
 305 0052 0026     		movs	r6, #0
 306 0054 4665     		str	r6, [r0, #84]
 187:Drivers/STM32F4xx_HAL_Driver/Src/stm32f4xx_hal_dma_ex.c ****     
 307              		.loc 1 187 5 is_stmt 1 view .LVU101
 187:Drivers/STM32F4xx_HAL_Driver/Src/stm32f4xx_hal_dma_ex.c ****     
 308              		.loc 1 187 19 is_stmt 0 view .LVU102
 309 0056 2668     		ldr	r6, [r4]
 187:Drivers/STM32F4xx_HAL_Driver/Src/stm32f4xx_hal_dma_ex.c ****     
 310              		.loc 1 187 24 view .LVU103
 311 0058 46F48026 		orr	r6, r6, #262144
ARM GAS  C:\Users\pw705\AppData\Local\Temp\ccthnice.s 			page 13


 312 005c 2660     		str	r6, [r4]
 190:Drivers/STM32F4xx_HAL_Driver/Src/stm32f4xx_hal_dma_ex.c ****     
 313              		.loc 1 190 5 is_stmt 1 view .LVU104
 190:Drivers/STM32F4xx_HAL_Driver/Src/stm32f4xx_hal_dma_ex.c ****     
 314              		.loc 1 190 26 is_stmt 0 view .LVU105
 315 005e 2361     		str	r3, [r4, #16]
 193:Drivers/STM32F4xx_HAL_Driver/Src/stm32f4xx_hal_dma_ex.c ****     
 316              		.loc 1 193 5 is_stmt 1 view .LVU106
 317              	.LVL29:
 318              	.LBB10:
 319              	.LBI10:
 276:Drivers/STM32F4xx_HAL_Driver/Src/stm32f4xx_hal_dma_ex.c **** {  
 320              		.loc 1 276 13 view .LVU107
 321              	.LBB11:
 279:Drivers/STM32F4xx_HAL_Driver/Src/stm32f4xx_hal_dma_ex.c ****   
 322              		.loc 1 279 3 view .LVU108
 279:Drivers/STM32F4xx_HAL_Driver/Src/stm32f4xx_hal_dma_ex.c ****   
 323              		.loc 1 279 24 is_stmt 0 view .LVU109
 324 0060 039B     		ldr	r3, [sp, #12]
 325              	.LVL30:
 279:Drivers/STM32F4xx_HAL_Driver/Src/stm32f4xx_hal_dma_ex.c ****   
 326              		.loc 1 279 24 view .LVU110
 327 0062 6360     		str	r3, [r4, #4]
 328              	.LVL31:
 282:Drivers/STM32F4xx_HAL_Driver/Src/stm32f4xx_hal_dma_ex.c ****   {   
 329              		.loc 1 282 3 is_stmt 1 view .LVU111
 330              	.LBE11:
 331              	.LBE10:
 196:Drivers/STM32F4xx_HAL_Driver/Src/stm32f4xx_hal_dma_ex.c ****     __HAL_DMA_CLEAR_FLAG (hdma, __HAL_DMA_GET_HT_FLAG_INDEX(hdma));
 332              		.loc 1 196 5 is_stmt 0 view .LVU112
 333 0064 AC4B     		ldr	r3, .L461
 334              	.LBB13:
 335              	.LBB12:
 282:Drivers/STM32F4xx_HAL_Driver/Src/stm32f4xx_hal_dma_ex.c ****   {   
 336              		.loc 1 282 5 view .LVU113
 337 0066 402D     		cmp	r5, #64
 285:Drivers/STM32F4xx_HAL_Driver/Src/stm32f4xx_hal_dma_ex.c ****     
 338              		.loc 1 285 5 is_stmt 1 view .LVU114
 285:Drivers/STM32F4xx_HAL_Driver/Src/stm32f4xx_hal_dma_ex.c ****     
 339              		.loc 1 285 25 is_stmt 0 view .LVU115
 340 0068 0BBF     		itete	eq
 341 006a A260     		streq	r2, [r4, #8]
 288:Drivers/STM32F4xx_HAL_Driver/Src/stm32f4xx_hal_dma_ex.c ****   }
 342              		.loc 1 288 5 is_stmt 1 view .LVU116
 294:Drivers/STM32F4xx_HAL_Driver/Src/stm32f4xx_hal_dma_ex.c ****     
 343              		.loc 1 294 25 is_stmt 0 view .LVU117
 344 006c A160     		strne	r1, [r4, #8]
 288:Drivers/STM32F4xx_HAL_Driver/Src/stm32f4xx_hal_dma_ex.c ****   }
 345              		.loc 1 288 26 view .LVU118
 346 006e E160     		streq	r1, [r4, #12]
 294:Drivers/STM32F4xx_HAL_Driver/Src/stm32f4xx_hal_dma_ex.c ****     
 347              		.loc 1 294 5 is_stmt 1 view .LVU119
 348              		.loc 1 297 5 view .LVU120
 349              		.loc 1 297 26 is_stmt 0 view .LVU121
 350 0070 E260     		strne	r2, [r4, #12]
 351              	.LVL32:
 352              		.loc 1 297 26 view .LVU122
ARM GAS  C:\Users\pw705\AppData\Local\Temp\ccthnice.s 			page 14


 353              	.LBE12:
 354              	.LBE13:
 196:Drivers/STM32F4xx_HAL_Driver/Src/stm32f4xx_hal_dma_ex.c ****     __HAL_DMA_CLEAR_FLAG (hdma, __HAL_DMA_GET_HT_FLAG_INDEX(hdma));
 355              		.loc 1 196 5 is_stmt 1 view .LVU123
 356 0072 9C42     		cmp	r4, r3
 357 0074 61D9     		bls	.L22
 358 0076 A3F58963 		sub	r3, r3, #1096
 359 007a 9C42     		cmp	r4, r3
 360 007c 00F03C81 		beq	.L388
 361 0080 A64B     		ldr	r3, .L461+4
 362 0082 9C42     		cmp	r4, r3
 363 0084 00F02A81 		beq	.L389
 196:Drivers/STM32F4xx_HAL_Driver/Src/stm32f4xx_hal_dma_ex.c ****     __HAL_DMA_CLEAR_FLAG (hdma, __HAL_DMA_GET_HT_FLAG_INDEX(hdma));
 364              		.loc 1 196 5 is_stmt 0 discriminator 5 view .LVU124
 365 0088 A54B     		ldr	r3, .L461+8
 366 008a 9C42     		cmp	r4, r3
 367 008c 00F0E981 		beq	.L390
 196:Drivers/STM32F4xx_HAL_Driver/Src/stm32f4xx_hal_dma_ex.c ****     __HAL_DMA_CLEAR_FLAG (hdma, __HAL_DMA_GET_HT_FLAG_INDEX(hdma));
 368              		.loc 1 196 5 discriminator 7 view .LVU125
 369 0090 A44B     		ldr	r3, .L461+12
 370 0092 9C42     		cmp	r4, r3
 371 0094 00F0F981 		beq	.L391
 196:Drivers/STM32F4xx_HAL_Driver/Src/stm32f4xx_hal_dma_ex.c ****     __HAL_DMA_CLEAR_FLAG (hdma, __HAL_DMA_GET_HT_FLAG_INDEX(hdma));
 372              		.loc 1 196 5 discriminator 9 view .LVU126
 373 0098 A34B     		ldr	r3, .L461+16
 374 009a 9C42     		cmp	r4, r3
 375 009c 00F02182 		beq	.L392
 196:Drivers/STM32F4xx_HAL_Driver/Src/stm32f4xx_hal_dma_ex.c ****     __HAL_DMA_CLEAR_FLAG (hdma, __HAL_DMA_GET_HT_FLAG_INDEX(hdma));
 376              		.loc 1 196 5 discriminator 11 view .LVU127
 377 00a0 A24B     		ldr	r3, .L461+20
 378 00a2 9C42     		cmp	r4, r3
 379 00a4 00F04982 		beq	.L393
 196:Drivers/STM32F4xx_HAL_Driver/Src/stm32f4xx_hal_dma_ex.c ****     __HAL_DMA_CLEAR_FLAG (hdma, __HAL_DMA_GET_HT_FLAG_INDEX(hdma));
 380              		.loc 1 196 5 discriminator 13 view .LVU128
 381 00a8 A14B     		ldr	r3, .L461+24
 382 00aa 9C42     		cmp	r4, r3
 383 00ac 00F06B82 		beq	.L394
 196:Drivers/STM32F4xx_HAL_Driver/Src/stm32f4xx_hal_dma_ex.c ****     __HAL_DMA_CLEAR_FLAG (hdma, __HAL_DMA_GET_HT_FLAG_INDEX(hdma));
 384              		.loc 1 196 5 discriminator 15 view .LVU129
 385 00b0 A04B     		ldr	r3, .L461+28
 386 00b2 9C42     		cmp	r4, r3
 387 00b4 00F09982 		beq	.L395
 196:Drivers/STM32F4xx_HAL_Driver/Src/stm32f4xx_hal_dma_ex.c ****     __HAL_DMA_CLEAR_FLAG (hdma, __HAL_DMA_GET_HT_FLAG_INDEX(hdma));
 388              		.loc 1 196 5 discriminator 17 view .LVU130
 389 00b8 9F4B     		ldr	r3, .L461+32
 390 00ba 9C42     		cmp	r4, r3
 391 00bc 00F0D482 		beq	.L396
 196:Drivers/STM32F4xx_HAL_Driver/Src/stm32f4xx_hal_dma_ex.c ****     __HAL_DMA_CLEAR_FLAG (hdma, __HAL_DMA_GET_HT_FLAG_INDEX(hdma));
 392              		.loc 1 196 5 discriminator 19 view .LVU131
 393 00c0 9E4B     		ldr	r3, .L461+36
 394 00c2 9C42     		cmp	r4, r3
 395 00c4 00F0B484 		beq	.L397
 196:Drivers/STM32F4xx_HAL_Driver/Src/stm32f4xx_hal_dma_ex.c ****     __HAL_DMA_CLEAR_FLAG (hdma, __HAL_DMA_GET_HT_FLAG_INDEX(hdma));
 396              		.loc 1 196 5 discriminator 21 view .LVU132
 397 00c8 9D4B     		ldr	r3, .L461+40
 398 00ca 9C42     		cmp	r4, r3
 399 00cc 00F01C85 		beq	.L398
ARM GAS  C:\Users\pw705\AppData\Local\Temp\ccthnice.s 			page 15


 196:Drivers/STM32F4xx_HAL_Driver/Src/stm32f4xx_hal_dma_ex.c ****     __HAL_DMA_CLEAR_FLAG (hdma, __HAL_DMA_GET_HT_FLAG_INDEX(hdma));
 400              		.loc 1 196 5 discriminator 23 view .LVU133
 401 00d0 9C4B     		ldr	r3, .L461+44
 402 00d2 9C42     		cmp	r4, r3
 403 00d4 00F00486 		beq	.L399
 196:Drivers/STM32F4xx_HAL_Driver/Src/stm32f4xx_hal_dma_ex.c ****     __HAL_DMA_CLEAR_FLAG (hdma, __HAL_DMA_GET_HT_FLAG_INDEX(hdma));
 404              		.loc 1 196 5 view .LVU134
 405 00d8 9B4B     		ldr	r3, .L461+48
 406 00da 4FF00062 		mov	r2, #134217728
 407              	.LVL33:
 196:Drivers/STM32F4xx_HAL_Driver/Src/stm32f4xx_hal_dma_ex.c ****     __HAL_DMA_CLEAR_FLAG (hdma, __HAL_DMA_GET_HT_FLAG_INDEX(hdma));
 408              		.loc 1 196 5 view .LVU135
 409 00de DA60     		str	r2, [r3, #12]
 410              	.LVL34:
 197:Drivers/STM32F4xx_HAL_Driver/Src/stm32f4xx_hal_dma_ex.c ****     __HAL_DMA_CLEAR_FLAG (hdma, __HAL_DMA_GET_TE_FLAG_INDEX(hdma));
 411              		.loc 1 197 5 is_stmt 1 view .LVU136
 412              	.L46:
 197:Drivers/STM32F4xx_HAL_Driver/Src/stm32f4xx_hal_dma_ex.c ****     __HAL_DMA_CLEAR_FLAG (hdma, __HAL_DMA_GET_TE_FLAG_INDEX(hdma));
 413              		.loc 1 197 5 is_stmt 0 discriminator 21 view .LVU137
 414 00e0 974B     		ldr	r3, .L461+40
 415 00e2 9C42     		cmp	r4, r3
 416 00e4 00F01485 		beq	.L43
 197:Drivers/STM32F4xx_HAL_Driver/Src/stm32f4xx_hal_dma_ex.c ****     __HAL_DMA_CLEAR_FLAG (hdma, __HAL_DMA_GET_TE_FLAG_INDEX(hdma));
 417              		.loc 1 197 5 discriminator 23 view .LVU138
 418 00e8 964B     		ldr	r3, .L461+44
 419 00ea 9C42     		cmp	r4, r3
 420 00ec 00F05D85 		beq	.L400
 198:Drivers/STM32F4xx_HAL_Driver/Src/stm32f4xx_hal_dma_ex.c ****     __HAL_DMA_CLEAR_FLAG (hdma, __HAL_DMA_GET_DME_FLAG_INDEX(hdma));
 421              		.loc 1 198 5 view .LVU139
 422 00f0 894B     		ldr	r3, .L461
 197:Drivers/STM32F4xx_HAL_Driver/Src/stm32f4xx_hal_dma_ex.c ****     __HAL_DMA_CLEAR_FLAG (hdma, __HAL_DMA_GET_TE_FLAG_INDEX(hdma));
 423              		.loc 1 197 5 view .LVU140
 424 00f2 954A     		ldr	r2, .L461+48
 425 00f4 4FF08061 		mov	r1, #67108864
 426              	.LVL35:
 198:Drivers/STM32F4xx_HAL_Driver/Src/stm32f4xx_hal_dma_ex.c ****     __HAL_DMA_CLEAR_FLAG (hdma, __HAL_DMA_GET_DME_FLAG_INDEX(hdma));
 427              		.loc 1 198 5 view .LVU141
 428 00f8 9C42     		cmp	r4, r3
 197:Drivers/STM32F4xx_HAL_Driver/Src/stm32f4xx_hal_dma_ex.c ****     __HAL_DMA_CLEAR_FLAG (hdma, __HAL_DMA_GET_TE_FLAG_INDEX(hdma));
 429              		.loc 1 197 5 view .LVU142
 430 00fa D160     		str	r1, [r2, #12]
 198:Drivers/STM32F4xx_HAL_Driver/Src/stm32f4xx_hal_dma_ex.c ****     __HAL_DMA_CLEAR_FLAG (hdma, __HAL_DMA_GET_DME_FLAG_INDEX(hdma));
 431              		.loc 1 198 5 is_stmt 1 view .LVU143
 432 00fc 00F20886 		bhi	.L401
 198:Drivers/STM32F4xx_HAL_Driver/Src/stm32f4xx_hal_dma_ex.c ****     __HAL_DMA_CLEAR_FLAG (hdma, __HAL_DMA_GET_DME_FLAG_INDEX(hdma));
 433              		.loc 1 198 5 is_stmt 0 discriminator 2 view .LVU144
 434 0100 924B     		ldr	r3, .L461+52
 435 0102 9C42     		cmp	r4, r3
 436 0104 40F22787 		bls	.L163
 198:Drivers/STM32F4xx_HAL_Driver/Src/stm32f4xx_hal_dma_ex.c ****     __HAL_DMA_CLEAR_FLAG (hdma, __HAL_DMA_GET_DME_FLAG_INDEX(hdma));
 437              		.loc 1 198 5 view .LVU145
 438 0108 A83B     		subs	r3, r3, #168
 439 010a 9C42     		cmp	r4, r3
 440 010c 01F0B280 		beq	.L402
 441              	.L137:
 442 0110 824B     		ldr	r3, .L461+4
 443 0112 9C42     		cmp	r4, r3
ARM GAS  C:\Users\pw705\AppData\Local\Temp\ccthnice.s 			page 16


 444 0114 00F0E880 		beq	.L51
 445 0118 814B     		ldr	r3, .L461+8
 446 011a 9C42     		cmp	r4, r3
 447 011c 00F04982 		beq	.L403
 448 0120 804B     		ldr	r3, .L461+12
 449 0122 9C42     		cmp	r4, r3
 450 0124 40F0CA80 		bne	.L129
 451 0128 874B     		ldr	r3, .L461+48
 452 012a 0821     		movs	r1, #8
 199:Drivers/STM32F4xx_HAL_Driver/Src/stm32f4xx_hal_dma_ex.c ****     __HAL_DMA_CLEAR_FLAG (hdma, __HAL_DMA_GET_FE_FLAG_INDEX(hdma));
 453              		.loc 1 199 5 view .LVU146
 454 012c 0422     		movs	r2, #4
 198:Drivers/STM32F4xx_HAL_Driver/Src/stm32f4xx_hal_dma_ex.c ****     __HAL_DMA_CLEAR_FLAG (hdma, __HAL_DMA_GET_DME_FLAG_INDEX(hdma));
 455              		.loc 1 198 5 view .LVU147
 456 012e 9960     		str	r1, [r3, #8]
 199:Drivers/STM32F4xx_HAL_Driver/Src/stm32f4xx_hal_dma_ex.c ****     __HAL_DMA_CLEAR_FLAG (hdma, __HAL_DMA_GET_FE_FLAG_INDEX(hdma));
 457              		.loc 1 199 5 is_stmt 1 view .LVU148
 458 0130 DA60     		str	r2, [r3, #12]
 200:Drivers/STM32F4xx_HAL_Driver/Src/stm32f4xx_hal_dma_ex.c **** 
 459              		.loc 1 200 5 view .LVU149
 460              	.L239:
 461 0132 0122     		movs	r2, #1
 462              	.L290:
 200:Drivers/STM32F4xx_HAL_Driver/Src/stm32f4xx_hal_dma_ex.c **** 
 463              		.loc 1 200 5 is_stmt 0 discriminator 50 view .LVU150
 464 0134 844B     		ldr	r3, .L461+48
 465 0136 DA60     		str	r2, [r3, #12]
 466 0138 67E0     		b	.L292
 467              	.LVL36:
 468              	.L22:
 196:Drivers/STM32F4xx_HAL_Driver/Src/stm32f4xx_hal_dma_ex.c ****     __HAL_DMA_CLEAR_FLAG (hdma, __HAL_DMA_GET_HT_FLAG_INDEX(hdma));
 469              		.loc 1 196 5 view .LVU151
 470 013a 844B     		ldr	r3, .L461+52
 471 013c 9C42     		cmp	r4, r3
 472 013e 7AD8     		bhi	.L404
 196:Drivers/STM32F4xx_HAL_Driver/Src/stm32f4xx_hal_dma_ex.c ****     __HAL_DMA_CLEAR_FLAG (hdma, __HAL_DMA_GET_HT_FLAG_INDEX(hdma));
 473              		.loc 1 196 5 discriminator 52 view .LVU152
 474 0140 834B     		ldr	r3, .L461+56
 475 0142 9C42     		cmp	r4, r3
 476 0144 40F20881 		bls	.L72
 196:Drivers/STM32F4xx_HAL_Driver/Src/stm32f4xx_hal_dma_ex.c ****     __HAL_DMA_CLEAR_FLAG (hdma, __HAL_DMA_GET_HT_FLAG_INDEX(hdma));
 477              		.loc 1 196 5 discriminator 102 view .LVU153
 478 0148 483B     		subs	r3, r3, #72
 479 014a 9C42     		cmp	r4, r3
 480 014c 00F0AA81 		beq	.L73
 196:Drivers/STM32F4xx_HAL_Driver/Src/stm32f4xx_hal_dma_ex.c ****     __HAL_DMA_CLEAR_FLAG (hdma, __HAL_DMA_GET_HT_FLAG_INDEX(hdma));
 481              		.loc 1 196 5 discriminator 104 view .LVU154
 482 0150 03F58063 		add	r3, r3, #1024
 483 0154 9C42     		cmp	r4, r3
 484 0156 00F0E481 		beq	.L405
 196:Drivers/STM32F4xx_HAL_Driver/Src/stm32f4xx_hal_dma_ex.c ****     __HAL_DMA_CLEAR_FLAG (hdma, __HAL_DMA_GET_HT_FLAG_INDEX(hdma));
 485              		.loc 1 196 5 discriminator 106 view .LVU155
 486 015a 714B     		ldr	r3, .L461+8
 487 015c 9C42     		cmp	r4, r3
 488 015e 00F00182 		beq	.L406
 196:Drivers/STM32F4xx_HAL_Driver/Src/stm32f4xx_hal_dma_ex.c ****     __HAL_DMA_CLEAR_FLAG (hdma, __HAL_DMA_GET_HT_FLAG_INDEX(hdma));
 489              		.loc 1 196 5 discriminator 108 view .LVU156
ARM GAS  C:\Users\pw705\AppData\Local\Temp\ccthnice.s 			page 17


 490 0162 704B     		ldr	r3, .L461+12
 491 0164 9C42     		cmp	r4, r3
 492 0166 00F02D82 		beq	.L407
 196:Drivers/STM32F4xx_HAL_Driver/Src/stm32f4xx_hal_dma_ex.c ****     __HAL_DMA_CLEAR_FLAG (hdma, __HAL_DMA_GET_HT_FLAG_INDEX(hdma));
 493              		.loc 1 196 5 discriminator 110 view .LVU157
 494 016a 6F4B     		ldr	r3, .L461+16
 495 016c 9C42     		cmp	r4, r3
 496 016e 00F05782 		beq	.L408
 196:Drivers/STM32F4xx_HAL_Driver/Src/stm32f4xx_hal_dma_ex.c ****     __HAL_DMA_CLEAR_FLAG (hdma, __HAL_DMA_GET_HT_FLAG_INDEX(hdma));
 497              		.loc 1 196 5 discriminator 112 view .LVU158
 498 0172 6E4B     		ldr	r3, .L461+20
 499 0174 9C42     		cmp	r4, r3
 500 0176 00F03C84 		beq	.L79
 196:Drivers/STM32F4xx_HAL_Driver/Src/stm32f4xx_hal_dma_ex.c ****     __HAL_DMA_CLEAR_FLAG (hdma, __HAL_DMA_GET_HT_FLAG_INDEX(hdma));
 501              		.loc 1 196 5 discriminator 114 view .LVU159
 502 017a A3F56873 		sub	r3, r3, #928
 503 017e 9C42     		cmp	r4, r3
 504 0180 00F0BD84 		beq	.L409
 196:Drivers/STM32F4xx_HAL_Driver/Src/stm32f4xx_hal_dma_ex.c ****     __HAL_DMA_CLEAR_FLAG (hdma, __HAL_DMA_GET_HT_FLAG_INDEX(hdma));
 505              		.loc 1 196 5 discriminator 116 view .LVU160
 506 0184 6B4B     		ldr	r3, .L461+28
 507 0186 9C42     		cmp	r4, r3
 508 0188 00F07586 		beq	.L410
 196:Drivers/STM32F4xx_HAL_Driver/Src/stm32f4xx_hal_dma_ex.c ****     __HAL_DMA_CLEAR_FLAG (hdma, __HAL_DMA_GET_HT_FLAG_INDEX(hdma));
 509              		.loc 1 196 5 discriminator 118 view .LVU161
 510 018c 6A4B     		ldr	r3, .L461+32
 511 018e 9C42     		cmp	r4, r3
 512 0190 00F07786 		beq	.L411
 196:Drivers/STM32F4xx_HAL_Driver/Src/stm32f4xx_hal_dma_ex.c ****     __HAL_DMA_CLEAR_FLAG (hdma, __HAL_DMA_GET_HT_FLAG_INDEX(hdma));
 513              		.loc 1 196 5 discriminator 120 view .LVU162
 514 0194 694A     		ldr	r2, .L461+36
 515              	.LVL37:
 196:Drivers/STM32F4xx_HAL_Driver/Src/stm32f4xx_hal_dma_ex.c ****     __HAL_DMA_CLEAR_FLAG (hdma, __HAL_DMA_GET_HT_FLAG_INDEX(hdma));
 516              		.loc 1 196 5 discriminator 120 view .LVU163
 517 0196 9442     		cmp	r4, r2
 518 0198 00F00D87 		beq	.L412
 196:Drivers/STM32F4xx_HAL_Driver/Src/stm32f4xx_hal_dma_ex.c ****     __HAL_DMA_CLEAR_FLAG (hdma, __HAL_DMA_GET_HT_FLAG_INDEX(hdma));
 519              		.loc 1 196 5 discriminator 122 view .LVU164
 520 019c 684A     		ldr	r2, .L461+40
 521 019e 9442     		cmp	r4, r2
 522 01a0 00F02587 		beq	.L413
 196:Drivers/STM32F4xx_HAL_Driver/Src/stm32f4xx_hal_dma_ex.c ****     __HAL_DMA_CLEAR_FLAG (hdma, __HAL_DMA_GET_HT_FLAG_INDEX(hdma));
 523              		.loc 1 196 5 discriminator 124 view .LVU165
 524 01a4 674A     		ldr	r2, .L461+44
 525 01a6 9442     		cmp	r4, r2
 526 01a8 00F06384 		beq	.L90
 196:Drivers/STM32F4xx_HAL_Driver/Src/stm32f4xx_hal_dma_ex.c ****     __HAL_DMA_CLEAR_FLAG (hdma, __HAL_DMA_GET_HT_FLAG_INDEX(hdma));
 527              		.loc 1 196 5 view .LVU166
 528 01ac A2F59462 		sub	r2, r2, #1184
 529 01b0 4FF00061 		mov	r1, #134217728
 530              	.LVL38:
 197:Drivers/STM32F4xx_HAL_Driver/Src/stm32f4xx_hal_dma_ex.c ****     __HAL_DMA_CLEAR_FLAG (hdma, __HAL_DMA_GET_TE_FLAG_INDEX(hdma));
 531              		.loc 1 197 5 view .LVU167
 532 01b4 9C42     		cmp	r4, r3
 196:Drivers/STM32F4xx_HAL_Driver/Src/stm32f4xx_hal_dma_ex.c ****     __HAL_DMA_CLEAR_FLAG (hdma, __HAL_DMA_GET_HT_FLAG_INDEX(hdma));
 533              		.loc 1 196 5 view .LVU168
 534 01b6 D160     		str	r1, [r2, #12]
ARM GAS  C:\Users\pw705\AppData\Local\Temp\ccthnice.s 			page 18


 535              	.LVL39:
 197:Drivers/STM32F4xx_HAL_Driver/Src/stm32f4xx_hal_dma_ex.c ****     __HAL_DMA_CLEAR_FLAG (hdma, __HAL_DMA_GET_TE_FLAG_INDEX(hdma));
 536              		.loc 1 197 5 is_stmt 1 view .LVU169
 537 01b8 00F06786 		beq	.L84
 538              	.L87:
 197:Drivers/STM32F4xx_HAL_Driver/Src/stm32f4xx_hal_dma_ex.c ****     __HAL_DMA_CLEAR_FLAG (hdma, __HAL_DMA_GET_TE_FLAG_INDEX(hdma));
 539              		.loc 1 197 5 is_stmt 0 discriminator 120 view .LVU170
 540 01bc 5F4B     		ldr	r3, .L461+36
 541 01be 9C42     		cmp	r4, r3
 542 01c0 00F0ED86 		beq	.L133
 197:Drivers/STM32F4xx_HAL_Driver/Src/stm32f4xx_hal_dma_ex.c ****     __HAL_DMA_CLEAR_FLAG (hdma, __HAL_DMA_GET_TE_FLAG_INDEX(hdma));
 543              		.loc 1 197 5 discriminator 122 view .LVU171
 544 01c4 A3F56873 		sub	r3, r3, #928
 545 01c8 9C42     		cmp	r4, r3
 546 01ca 00F01487 		beq	.L89
 197:Drivers/STM32F4xx_HAL_Driver/Src/stm32f4xx_hal_dma_ex.c ****     __HAL_DMA_CLEAR_FLAG (hdma, __HAL_DMA_GET_TE_FLAG_INDEX(hdma));
 547              		.loc 1 197 5 discriminator 124 view .LVU172
 548 01ce 5D4B     		ldr	r3, .L461+44
 549 01d0 9C42     		cmp	r4, r3
 550 01d2 00F05284 		beq	.L85
 197:Drivers/STM32F4xx_HAL_Driver/Src/stm32f4xx_hal_dma_ex.c ****     __HAL_DMA_CLEAR_FLAG (hdma, __HAL_DMA_GET_TE_FLAG_INDEX(hdma));
 551              		.loc 1 197 5 view .LVU173
 552 01d6 5F4A     		ldr	r2, .L461+60
 198:Drivers/STM32F4xx_HAL_Driver/Src/stm32f4xx_hal_dma_ex.c ****     __HAL_DMA_CLEAR_FLAG (hdma, __HAL_DMA_GET_DME_FLAG_INDEX(hdma));
 553              		.loc 1 198 5 view .LVU174
 554 01d8 A3F57A73 		sub	r3, r3, #1000
 197:Drivers/STM32F4xx_HAL_Driver/Src/stm32f4xx_hal_dma_ex.c ****     __HAL_DMA_CLEAR_FLAG (hdma, __HAL_DMA_GET_TE_FLAG_INDEX(hdma));
 555              		.loc 1 197 5 view .LVU175
 556 01dc 4FF08061 		mov	r1, #67108864
 198:Drivers/STM32F4xx_HAL_Driver/Src/stm32f4xx_hal_dma_ex.c ****     __HAL_DMA_CLEAR_FLAG (hdma, __HAL_DMA_GET_DME_FLAG_INDEX(hdma));
 557              		.loc 1 198 5 view .LVU176
 558 01e0 9C42     		cmp	r4, r3
 197:Drivers/STM32F4xx_HAL_Driver/Src/stm32f4xx_hal_dma_ex.c ****     __HAL_DMA_CLEAR_FLAG (hdma, __HAL_DMA_GET_TE_FLAG_INDEX(hdma));
 559              		.loc 1 197 5 view .LVU177
 560 01e2 D160     		str	r1, [r2, #12]
 198:Drivers/STM32F4xx_HAL_Driver/Src/stm32f4xx_hal_dma_ex.c ****     __HAL_DMA_CLEAR_FLAG (hdma, __HAL_DMA_GET_DME_FLAG_INDEX(hdma));
 561              		.loc 1 198 5 is_stmt 1 view .LVU178
 562 01e4 00F2FA86 		bhi	.L414
 563 01e8 594B     		ldr	r3, .L461+56
 564 01ea 9C42     		cmp	r4, r3
 565 01ec 40F2CD87 		bls	.L140
 566              	.L139:
 567 01f0 4A4B     		ldr	r3, .L461+4
 568 01f2 9C42     		cmp	r4, r3
 569 01f4 40F0A987 		bne	.L415
 570 01f8 564B     		ldr	r3, .L461+60
 571 01fa 0822     		movs	r2, #8
 572 01fc DA60     		str	r2, [r3, #12]
 199:Drivers/STM32F4xx_HAL_Driver/Src/stm32f4xx_hal_dma_ex.c ****     __HAL_DMA_CLEAR_FLAG (hdma, __HAL_DMA_GET_FE_FLAG_INDEX(hdma));
 573              		.loc 1 199 5 view .LVU179
 574              	.L164:
 575 01fe 524B     		ldr	r3, .L461+48
 576 0200 0422     		movs	r2, #4
 577 0202 9A60     		str	r2, [r3, #8]
 200:Drivers/STM32F4xx_HAL_Driver/Src/stm32f4xx_hal_dma_ex.c **** 
 578              		.loc 1 200 5 view .LVU180
 579              	.L49:
ARM GAS  C:\Users\pw705\AppData\Local\Temp\ccthnice.s 			page 19


 580 0204 0122     		movs	r2, #1
 581              	.L294:
 200:Drivers/STM32F4xx_HAL_Driver/Src/stm32f4xx_hal_dma_ex.c **** 
 582              		.loc 1 200 5 is_stmt 0 discriminator 100 view .LVU181
 583 0206 504B     		ldr	r3, .L461+48
 584 0208 9A60     		str	r2, [r3, #8]
 585              	.L292:
 203:Drivers/STM32F4xx_HAL_Driver/Src/stm32f4xx_hal_dma_ex.c ****     hdma->Instance->FCR |= DMA_IT_FE;
 586              		.loc 1 203 5 is_stmt 1 view .LVU182
 203:Drivers/STM32F4xx_HAL_Driver/Src/stm32f4xx_hal_dma_ex.c ****     hdma->Instance->FCR |= DMA_IT_FE;
 587              		.loc 1 203 19 is_stmt 0 view .LVU183
 588 020a 2368     		ldr	r3, [r4]
 206:Drivers/STM32F4xx_HAL_Driver/Src/stm32f4xx_hal_dma_ex.c ****     {
 589              		.loc 1 206 7 view .LVU184
 590 020c 026C     		ldr	r2, [r0, #64]
 203:Drivers/STM32F4xx_HAL_Driver/Src/stm32f4xx_hal_dma_ex.c ****     hdma->Instance->FCR |= DMA_IT_FE;
 591              		.loc 1 203 25 view .LVU185
 592 020e 43F01603 		orr	r3, r3, #22
 593 0212 2360     		str	r3, [r4]
 204:Drivers/STM32F4xx_HAL_Driver/Src/stm32f4xx_hal_dma_ex.c ****     
 594              		.loc 1 204 5 is_stmt 1 view .LVU186
 204:Drivers/STM32F4xx_HAL_Driver/Src/stm32f4xx_hal_dma_ex.c ****     
 595              		.loc 1 204 19 is_stmt 0 view .LVU187
 596 0214 6369     		ldr	r3, [r4, #20]
 204:Drivers/STM32F4xx_HAL_Driver/Src/stm32f4xx_hal_dma_ex.c ****     
 597              		.loc 1 204 25 view .LVU188
 598 0216 43F08003 		orr	r3, r3, #128
 599 021a 6361     		str	r3, [r4, #20]
 206:Drivers/STM32F4xx_HAL_Driver/Src/stm32f4xx_hal_dma_ex.c ****     {
 600              		.loc 1 206 5 is_stmt 1 view .LVU189
 206:Drivers/STM32F4xx_HAL_Driver/Src/stm32f4xx_hal_dma_ex.c ****     {
 601              		.loc 1 206 7 is_stmt 0 view .LVU190
 602 021c 002A     		cmp	r2, #0
 603 021e 67D0     		beq	.L416
 604              	.L303:
 208:Drivers/STM32F4xx_HAL_Driver/Src/stm32f4xx_hal_dma_ex.c ****     }
 605              		.loc 1 208 7 is_stmt 1 view .LVU191
 208:Drivers/STM32F4xx_HAL_Driver/Src/stm32f4xx_hal_dma_ex.c ****     }
 606              		.loc 1 208 21 is_stmt 0 view .LVU192
 607 0220 2368     		ldr	r3, [r4]
 208:Drivers/STM32F4xx_HAL_Driver/Src/stm32f4xx_hal_dma_ex.c ****     }
 608              		.loc 1 208 27 view .LVU193
 609 0222 43F00803 		orr	r3, r3, #8
 610 0226 2360     		str	r3, [r4]
 611              	.L304:
 212:Drivers/STM32F4xx_HAL_Driver/Src/stm32f4xx_hal_dma_ex.c ****   }
 612              		.loc 1 212 5 is_stmt 1 view .LVU194
 613 0228 2368     		ldr	r3, [r4]
 614 022a 43F00103 		orr	r3, r3, #1
 156:Drivers/STM32F4xx_HAL_Driver/Src/stm32f4xx_hal_dma_ex.c ****   
 615              		.loc 1 156 21 is_stmt 0 view .LVU195
 616 022e 0020     		movs	r0, #0
 617              	.LVL40:
 212:Drivers/STM32F4xx_HAL_Driver/Src/stm32f4xx_hal_dma_ex.c ****   }
 618              		.loc 1 212 5 view .LVU196
 619 0230 2360     		str	r3, [r4]
 223:Drivers/STM32F4xx_HAL_Driver/Src/stm32f4xx_hal_dma_ex.c **** 
ARM GAS  C:\Users\pw705\AppData\Local\Temp\ccthnice.s 			page 20


 620              		.loc 1 223 1 view .LVU197
 621 0232 70BC     		pop	{r4, r5, r6}
 622              		.cfi_remember_state
 623              		.cfi_restore 6
 624              		.cfi_restore 5
 625              		.cfi_restore 4
 626              		.cfi_def_cfa_offset 0
 627 0234 7047     		bx	lr
 628              	.LVL41:
 629              	.L404:
 630              		.cfi_restore_state
 196:Drivers/STM32F4xx_HAL_Driver/Src/stm32f4xx_hal_dma_ex.c ****     __HAL_DMA_CLEAR_FLAG (hdma, __HAL_DMA_GET_HT_FLAG_INDEX(hdma));
 631              		.loc 1 196 5 view .LVU198
 632 0236 A83B     		subs	r3, r3, #168
 633 0238 9C42     		cmp	r4, r3
 634 023a 00F00581 		beq	.L417
 196:Drivers/STM32F4xx_HAL_Driver/Src/stm32f4xx_hal_dma_ex.c ****     __HAL_DMA_CLEAR_FLAG (hdma, __HAL_DMA_GET_HT_FLAG_INDEX(hdma));
 635              		.loc 1 196 5 discriminator 53 view .LVU199
 636 023e 374B     		ldr	r3, .L461+4
 637 0240 9C42     		cmp	r4, r3
 638 0242 00F01B81 		beq	.L418
 196:Drivers/STM32F4xx_HAL_Driver/Src/stm32f4xx_hal_dma_ex.c ****     __HAL_DMA_CLEAR_FLAG (hdma, __HAL_DMA_GET_HT_FLAG_INDEX(hdma));
 639              		.loc 1 196 5 discriminator 55 view .LVU200
 640 0246 364B     		ldr	r3, .L461+8
 641 0248 9C42     		cmp	r4, r3
 642 024a 00F04381 		beq	.L419
 196:Drivers/STM32F4xx_HAL_Driver/Src/stm32f4xx_hal_dma_ex.c ****     __HAL_DMA_CLEAR_FLAG (hdma, __HAL_DMA_GET_HT_FLAG_INDEX(hdma));
 643              		.loc 1 196 5 discriminator 57 view .LVU201
 644 024e 354B     		ldr	r3, .L461+12
 645 0250 9C42     		cmp	r4, r3
 646 0252 00F06B81 		beq	.L54
 196:Drivers/STM32F4xx_HAL_Driver/Src/stm32f4xx_hal_dma_ex.c ****     __HAL_DMA_CLEAR_FLAG (hdma, __HAL_DMA_GET_HT_FLAG_INDEX(hdma));
 647              		.loc 1 196 5 discriminator 59 view .LVU202
 648 0256 A3F58963 		sub	r3, r3, #1096
 649 025a 9C42     		cmp	r4, r3
 650 025c 00F08A81 		beq	.L55
 196:Drivers/STM32F4xx_HAL_Driver/Src/stm32f4xx_hal_dma_ex.c ****     __HAL_DMA_CLEAR_FLAG (hdma, __HAL_DMA_GET_HT_FLAG_INDEX(hdma));
 651              		.loc 1 196 5 discriminator 61 view .LVU203
 652 0260 03F58063 		add	r3, r3, #1024
 653 0264 9C42     		cmp	r4, r3
 654 0266 00F0B281 		beq	.L56
 196:Drivers/STM32F4xx_HAL_Driver/Src/stm32f4xx_hal_dma_ex.c ****     __HAL_DMA_CLEAR_FLAG (hdma, __HAL_DMA_GET_HT_FLAG_INDEX(hdma));
 655              		.loc 1 196 5 discriminator 63 view .LVU204
 656 026a A3F56873 		sub	r3, r3, #928
 657 026e 9C42     		cmp	r4, r3
 658 0270 00F02A83 		beq	.L57
 196:Drivers/STM32F4xx_HAL_Driver/Src/stm32f4xx_hal_dma_ex.c ****     __HAL_DMA_CLEAR_FLAG (hdma, __HAL_DMA_GET_HT_FLAG_INDEX(hdma));
 659              		.loc 1 196 5 discriminator 65 view .LVU205
 660 0274 03F58063 		add	r3, r3, #1024
 661 0278 9C42     		cmp	r4, r3
 662 027a 00F0C583 		beq	.L420
 196:Drivers/STM32F4xx_HAL_Driver/Src/stm32f4xx_hal_dma_ex.c ****     __HAL_DMA_CLEAR_FLAG (hdma, __HAL_DMA_GET_HT_FLAG_INDEX(hdma));
 663              		.loc 1 196 5 discriminator 67 view .LVU206
 664 027e 2E4B     		ldr	r3, .L461+32
 665 0280 9C42     		cmp	r4, r3
 666 0282 00F06B84 		beq	.L60
 196:Drivers/STM32F4xx_HAL_Driver/Src/stm32f4xx_hal_dma_ex.c ****     __HAL_DMA_CLEAR_FLAG (hdma, __HAL_DMA_GET_HT_FLAG_INDEX(hdma));
ARM GAS  C:\Users\pw705\AppData\Local\Temp\ccthnice.s 			page 21


 667              		.loc 1 196 5 discriminator 69 view .LVU207
 668 0286 03F58063 		add	r3, r3, #1024
 669 028a 9C42     		cmp	r4, r3
 670 028c 00F0EB85 		beq	.L61
 196:Drivers/STM32F4xx_HAL_Driver/Src/stm32f4xx_hal_dma_ex.c ****     __HAL_DMA_CLEAR_FLAG (hdma, __HAL_DMA_GET_HT_FLAG_INDEX(hdma));
 671              		.loc 1 196 5 discriminator 71 view .LVU208
 672 0290 A3F56873 		sub	r3, r3, #928
 673 0294 9C42     		cmp	r4, r3
 674 0296 00F01886 		beq	.L62
 196:Drivers/STM32F4xx_HAL_Driver/Src/stm32f4xx_hal_dma_ex.c ****     __HAL_DMA_CLEAR_FLAG (hdma, __HAL_DMA_GET_HT_FLAG_INDEX(hdma));
 675              		.loc 1 196 5 discriminator 73 view .LVU209
 676 029a 03F58063 		add	r3, r3, #1024
 677 029e 9C42     		cmp	r4, r3
 678 02a0 00F04186 		beq	.L63
 196:Drivers/STM32F4xx_HAL_Driver/Src/stm32f4xx_hal_dma_ex.c ****     __HAL_DMA_CLEAR_FLAG (hdma, __HAL_DMA_GET_HT_FLAG_INDEX(hdma));
 679              		.loc 1 196 5 view .LVU210
 680 02a4 4FF00062 		mov	r2, #134217728
 681              	.LVL42:
 196:Drivers/STM32F4xx_HAL_Driver/Src/stm32f4xx_hal_dma_ex.c ****     __HAL_DMA_CLEAR_FLAG (hdma, __HAL_DMA_GET_HT_FLAG_INDEX(hdma));
 682              		.loc 1 196 5 view .LVU211
 683 02a8 43F8982C 		str	r2, [r3, #-152]
 684              	.LVL43:
 197:Drivers/STM32F4xx_HAL_Driver/Src/stm32f4xx_hal_dma_ex.c ****     __HAL_DMA_CLEAR_FLAG (hdma, __HAL_DMA_GET_TE_FLAG_INDEX(hdma));
 685              		.loc 1 197 5 is_stmt 1 view .LVU212
 686              	.L64:
 197:Drivers/STM32F4xx_HAL_Driver/Src/stm32f4xx_hal_dma_ex.c ****     __HAL_DMA_CLEAR_FLAG (hdma, __HAL_DMA_GET_TE_FLAG_INDEX(hdma));
 687              		.loc 1 197 5 is_stmt 0 discriminator 73 view .LVU213
 688 02ac 254B     		ldr	r3, .L461+44
 689 02ae 9C42     		cmp	r4, r3
 690 02b0 00F07B86 		beq	.L128
 197:Drivers/STM32F4xx_HAL_Driver/Src/stm32f4xx_hal_dma_ex.c ****     __HAL_DMA_CLEAR_FLAG (hdma, __HAL_DMA_GET_TE_FLAG_INDEX(hdma));
 691              		.loc 1 197 5 view .LVU214
 692 02b4 4FF08062 		mov	r2, #67108864
 693 02b8 43F8982C 		str	r2, [r3, #-152]
 198:Drivers/STM32F4xx_HAL_Driver/Src/stm32f4xx_hal_dma_ex.c ****     __HAL_DMA_CLEAR_FLAG (hdma, __HAL_DMA_GET_DME_FLAG_INDEX(hdma));
 694              		.loc 1 198 5 is_stmt 1 view .LVU215
 695              	.LVL44:
 696              	.L129:
 198:Drivers/STM32F4xx_HAL_Driver/Src/stm32f4xx_hal_dma_ex.c ****     __HAL_DMA_CLEAR_FLAG (hdma, __HAL_DMA_GET_DME_FLAG_INDEX(hdma));
 697              		.loc 1 198 5 is_stmt 0 view .LVU216
 698 02bc 1A4B     		ldr	r3, .L461+16
 699 02be 9C42     		cmp	r4, r3
 700 02c0 40F03E87 		bne	.L421
 701 02c4 204B     		ldr	r3, .L461+48
 702 02c6 4FF40072 		mov	r2, #512
 703 02ca 9A60     		str	r2, [r3, #8]
 199:Drivers/STM32F4xx_HAL_Driver/Src/stm32f4xx_hal_dma_ex.c ****     __HAL_DMA_CLEAR_FLAG (hdma, __HAL_DMA_GET_FE_FLAG_INDEX(hdma));
 704              		.loc 1 199 5 is_stmt 1 view .LVU217
 705              	.L167:
 706 02cc 214B     		ldr	r3, .L461+60
 707 02ce 4FF48072 		mov	r2, #256
 708 02d2 9A60     		str	r2, [r3, #8]
 200:Drivers/STM32F4xx_HAL_Driver/Src/stm32f4xx_hal_dma_ex.c **** 
 709              		.loc 1 200 5 view .LVU218
 710              	.L260:
 711 02d4 4022     		movs	r2, #64
 712              	.L302:
ARM GAS  C:\Users\pw705\AppData\Local\Temp\ccthnice.s 			page 22


 200:Drivers/STM32F4xx_HAL_Driver/Src/stm32f4xx_hal_dma_ex.c **** 
 713              		.loc 1 200 5 is_stmt 0 discriminator 200 view .LVU219
 714 02d6 1F4B     		ldr	r3, .L461+60
 715 02d8 9A60     		str	r2, [r3, #8]
 716 02da 96E7     		b	.L292
 717              	.LVL45:
 718              	.L389:
 196:Drivers/STM32F4xx_HAL_Driver/Src/stm32f4xx_hal_dma_ex.c ****     __HAL_DMA_CLEAR_FLAG (hdma, __HAL_DMA_GET_HT_FLAG_INDEX(hdma));
 719              		.loc 1 196 5 view .LVU220
 720 02dc 2021     		movs	r1, #32
 721              	.LVL46:
 197:Drivers/STM32F4xx_HAL_Driver/Src/stm32f4xx_hal_dma_ex.c ****     __HAL_DMA_CLEAR_FLAG (hdma, __HAL_DMA_GET_TE_FLAG_INDEX(hdma));
 722              		.loc 1 197 5 view .LVU221
 723 02de 1022     		movs	r2, #16
 724              	.LVL47:
 196:Drivers/STM32F4xx_HAL_Driver/Src/stm32f4xx_hal_dma_ex.c ****     __HAL_DMA_CLEAR_FLAG (hdma, __HAL_DMA_GET_HT_FLAG_INDEX(hdma));
 725              		.loc 1 196 5 view .LVU222
 726 02e0 43F8041C 		str	r1, [r3, #-4]
 727              	.LVL48:
 197:Drivers/STM32F4xx_HAL_Driver/Src/stm32f4xx_hal_dma_ex.c ****     __HAL_DMA_CLEAR_FLAG (hdma, __HAL_DMA_GET_TE_FLAG_INDEX(hdma));
 728              		.loc 1 197 5 is_stmt 1 view .LVU223
 729 02e4 43F8042C 		str	r2, [r3, #-4]
 198:Drivers/STM32F4xx_HAL_Driver/Src/stm32f4xx_hal_dma_ex.c ****     __HAL_DMA_CLEAR_FLAG (hdma, __HAL_DMA_GET_DME_FLAG_INDEX(hdma));
 730              		.loc 1 198 5 view .LVU224
 731              	.L51:
 732 02e8 174B     		ldr	r3, .L461+48
 733 02ea 0822     		movs	r2, #8
 734 02ec 9A60     		str	r2, [r3, #8]
 199:Drivers/STM32F4xx_HAL_Driver/Src/stm32f4xx_hal_dma_ex.c ****     __HAL_DMA_CLEAR_FLAG (hdma, __HAL_DMA_GET_FE_FLAG_INDEX(hdma));
 735              		.loc 1 199 5 view .LVU225
 736 02ee 86E7     		b	.L164
 737              	.L416:
 206:Drivers/STM32F4xx_HAL_Driver/Src/stm32f4xx_hal_dma_ex.c ****     {
 738              		.loc 1 206 45 is_stmt 0 discriminator 1 view .LVU226
 739 02f0 836C     		ldr	r3, [r0, #72]
 740 02f2 002B     		cmp	r3, #0
 741 02f4 94D1     		bne	.L303
 742 02f6 97E7     		b	.L304
 743              	.LVL49:
 744              	.L388:
 196:Drivers/STM32F4xx_HAL_Driver/Src/stm32f4xx_hal_dma_ex.c ****     __HAL_DMA_CLEAR_FLAG (hdma, __HAL_DMA_GET_HT_FLAG_INDEX(hdma));
 745              		.loc 1 196 5 view .LVU227
 746 02f8 134A     		ldr	r2, .L461+48
 747              	.LVL50:
 196:Drivers/STM32F4xx_HAL_Driver/Src/stm32f4xx_hal_dma_ex.c ****     __HAL_DMA_CLEAR_FLAG (hdma, __HAL_DMA_GET_HT_FLAG_INDEX(hdma));
 748              		.loc 1 196 5 view .LVU228
 749 02fa 2021     		movs	r1, #32
 750              	.LVL51:
 196:Drivers/STM32F4xx_HAL_Driver/Src/stm32f4xx_hal_dma_ex.c ****     __HAL_DMA_CLEAR_FLAG (hdma, __HAL_DMA_GET_HT_FLAG_INDEX(hdma));
 751              		.loc 1 196 5 view .LVU229
 752 02fc D160     		str	r1, [r2, #12]
 753              	.LVL52:
 197:Drivers/STM32F4xx_HAL_Driver/Src/stm32f4xx_hal_dma_ex.c ****     __HAL_DMA_CLEAR_FLAG (hdma, __HAL_DMA_GET_TE_FLAG_INDEX(hdma));
 754              		.loc 1 197 5 is_stmt 1 view .LVU230
 755 02fe 1021     		movs	r1, #16
 756 0300 D160     		str	r1, [r2, #12]
 198:Drivers/STM32F4xx_HAL_Driver/Src/stm32f4xx_hal_dma_ex.c ****     __HAL_DMA_CLEAR_FLAG (hdma, __HAL_DMA_GET_DME_FLAG_INDEX(hdma));
ARM GAS  C:\Users\pw705\AppData\Local\Temp\ccthnice.s 			page 23


 757              		.loc 1 198 5 view .LVU231
 758 0302 0821     		movs	r1, #8
 199:Drivers/STM32F4xx_HAL_Driver/Src/stm32f4xx_hal_dma_ex.c ****     __HAL_DMA_CLEAR_FLAG (hdma, __HAL_DMA_GET_FE_FLAG_INDEX(hdma));
 759              		.loc 1 199 5 is_stmt 0 view .LVU232
 760 0304 0422     		movs	r2, #4
 198:Drivers/STM32F4xx_HAL_Driver/Src/stm32f4xx_hal_dma_ex.c ****     __HAL_DMA_CLEAR_FLAG (hdma, __HAL_DMA_GET_DME_FLAG_INDEX(hdma));
 761              		.loc 1 198 5 view .LVU233
 762 0306 43F8041C 		str	r1, [r3, #-4]
 199:Drivers/STM32F4xx_HAL_Driver/Src/stm32f4xx_hal_dma_ex.c ****     __HAL_DMA_CLEAR_FLAG (hdma, __HAL_DMA_GET_FE_FLAG_INDEX(hdma));
 763              		.loc 1 199 5 is_stmt 1 view .LVU234
 764 030a 43F8042C 		str	r2, [r3, #-4]
 200:Drivers/STM32F4xx_HAL_Driver/Src/stm32f4xx_hal_dma_ex.c **** 
 765              		.loc 1 200 5 view .LVU235
 766              	.L24:
 767 030e 0122     		movs	r2, #1
 768              	.L298:
 200:Drivers/STM32F4xx_HAL_Driver/Src/stm32f4xx_hal_dma_ex.c **** 
 769              		.loc 1 200 5 is_stmt 0 discriminator 151 view .LVU236
 770 0310 104B     		ldr	r3, .L461+60
 771 0312 DA60     		str	r2, [r3, #12]
 772 0314 79E7     		b	.L292
 773              	.L462:
 774 0316 00BF     		.align	2
 775              	.L461:
 776 0318 58640240 		.word	1073898584
 777 031c 10640240 		.word	1073898512
 778 0320 70600240 		.word	1073897584
 779 0324 70640240 		.word	1073898608
 780 0328 28600240 		.word	1073897512
 781 032c 28640240 		.word	1073898536
 782 0330 88600240 		.word	1073897608
 783 0334 88640240 		.word	1073898632
 784 0338 40600240 		.word	1073897536
 785 033c 40640240 		.word	1073898560
 786 0340 A0600240 		.word	1073897632
 787 0344 A0640240 		.word	1073898656
 788 0348 00640240 		.word	1073898496
 789 034c B8600240 		.word	1073897656
 790 0350 58600240 		.word	1073897560
 791 0354 00600240 		.word	1073897472
 792              	.LVL53:
 793              	.L72:
 196:Drivers/STM32F4xx_HAL_Driver/Src/stm32f4xx_hal_dma_ex.c ****     __HAL_DMA_CLEAR_FLAG (hdma, __HAL_DMA_GET_HT_FLAG_INDEX(hdma));
 794              		.loc 1 196 5 view .LVU237
 795 0358 B44B     		ldr	r3, .L463
 796 035a 9C42     		cmp	r4, r3
 797 035c 00F0AD80 		beq	.L422
 196:Drivers/STM32F4xx_HAL_Driver/Src/stm32f4xx_hal_dma_ex.c ****     __HAL_DMA_CLEAR_FLAG (hdma, __HAL_DMA_GET_HT_FLAG_INDEX(hdma));
 798              		.loc 1 196 5 discriminator 153 view .LVU238
 799 0360 B34B     		ldr	r3, .L463+4
 800 0362 9C42     		cmp	r4, r3
 801 0364 00F0D580 		beq	.L423
 196:Drivers/STM32F4xx_HAL_Driver/Src/stm32f4xx_hal_dma_ex.c ****     __HAL_DMA_CLEAR_FLAG (hdma, __HAL_DMA_GET_HT_FLAG_INDEX(hdma));
 802              		.loc 1 196 5 discriminator 155 view .LVU239
 803 0368 B24B     		ldr	r3, .L463+8
 804 036a 9C42     		cmp	r4, r3
 805 036c 00F0FE80 		beq	.L424
ARM GAS  C:\Users\pw705\AppData\Local\Temp\ccthnice.s 			page 24


 196:Drivers/STM32F4xx_HAL_Driver/Src/stm32f4xx_hal_dma_ex.c ****     __HAL_DMA_CLEAR_FLAG (hdma, __HAL_DMA_GET_HT_FLAG_INDEX(hdma));
 806              		.loc 1 196 5 discriminator 157 view .LVU240
 807 0370 B14B     		ldr	r3, .L463+12
 808 0372 9C42     		cmp	r4, r3
 809 0374 00F02181 		beq	.L425
 196:Drivers/STM32F4xx_HAL_Driver/Src/stm32f4xx_hal_dma_ex.c ****     __HAL_DMA_CLEAR_FLAG (hdma, __HAL_DMA_GET_HT_FLAG_INDEX(hdma));
 810              		.loc 1 196 5 discriminator 159 view .LVU241
 811 0378 B04B     		ldr	r3, .L463+16
 812 037a 9C42     		cmp	r4, r3
 813 037c 00F04781 		beq	.L426
 196:Drivers/STM32F4xx_HAL_Driver/Src/stm32f4xx_hal_dma_ex.c ****     __HAL_DMA_CLEAR_FLAG (hdma, __HAL_DMA_GET_HT_FLAG_INDEX(hdma));
 814              		.loc 1 196 5 discriminator 161 view .LVU242
 815 0380 AF4B     		ldr	r3, .L463+20
 816 0382 9C42     		cmp	r4, r3
 817 0384 00F02683 		beq	.L97
 196:Drivers/STM32F4xx_HAL_Driver/Src/stm32f4xx_hal_dma_ex.c ****     __HAL_DMA_CLEAR_FLAG (hdma, __HAL_DMA_GET_HT_FLAG_INDEX(hdma));
 818              		.loc 1 196 5 discriminator 163 view .LVU243
 819 0388 A3F56873 		sub	r3, r3, #928
 820 038c 9C42     		cmp	r4, r3
 821 038e 00F0AD83 		beq	.L427
 196:Drivers/STM32F4xx_HAL_Driver/Src/stm32f4xx_hal_dma_ex.c ****     __HAL_DMA_CLEAR_FLAG (hdma, __HAL_DMA_GET_HT_FLAG_INDEX(hdma));
 822              		.loc 1 196 5 discriminator 165 view .LVU244
 823 0392 AC4B     		ldr	r3, .L463+24
 824 0394 9C42     		cmp	r4, r3
 825 0396 00F0B584 		beq	.L428
 196:Drivers/STM32F4xx_HAL_Driver/Src/stm32f4xx_hal_dma_ex.c ****     __HAL_DMA_CLEAR_FLAG (hdma, __HAL_DMA_GET_HT_FLAG_INDEX(hdma));
 826              		.loc 1 196 5 discriminator 167 view .LVU245
 827 039a AB4B     		ldr	r3, .L463+28
 828 039c 9C42     		cmp	r4, r3
 829 039e 00F08185 		beq	.L429
 196:Drivers/STM32F4xx_HAL_Driver/Src/stm32f4xx_hal_dma_ex.c ****     __HAL_DMA_CLEAR_FLAG (hdma, __HAL_DMA_GET_HT_FLAG_INDEX(hdma));
 830              		.loc 1 196 5 discriminator 169 view .LVU246
 831 03a2 AA4B     		ldr	r3, .L463+32
 832 03a4 9C42     		cmp	r4, r3
 833 03a6 00F0E183 		beq	.L430
 196:Drivers/STM32F4xx_HAL_Driver/Src/stm32f4xx_hal_dma_ex.c ****     __HAL_DMA_CLEAR_FLAG (hdma, __HAL_DMA_GET_HT_FLAG_INDEX(hdma));
 834              		.loc 1 196 5 discriminator 171 view .LVU247
 835 03aa A94B     		ldr	r3, .L463+36
 836 03ac 9C42     		cmp	r4, r3
 837 03ae 00F07F86 		beq	.L431
 196:Drivers/STM32F4xx_HAL_Driver/Src/stm32f4xx_hal_dma_ex.c ****     __HAL_DMA_CLEAR_FLAG (hdma, __HAL_DMA_GET_HT_FLAG_INDEX(hdma));
 838              		.loc 1 196 5 discriminator 173 view .LVU248
 839 03b2 A84B     		ldr	r3, .L463+40
 840 03b4 9C42     		cmp	r4, r3
 841 03b6 00F08786 		beq	.L106
 196:Drivers/STM32F4xx_HAL_Driver/Src/stm32f4xx_hal_dma_ex.c ****     __HAL_DMA_CLEAR_FLAG (hdma, __HAL_DMA_GET_HT_FLAG_INDEX(hdma));
 842              		.loc 1 196 5 view .LVU249
 843 03ba A3F59463 		sub	r3, r3, #1184
 844 03be 4FF00061 		mov	r1, #134217728
 845              	.LVL54:
 197:Drivers/STM32F4xx_HAL_Driver/Src/stm32f4xx_hal_dma_ex.c ****     __HAL_DMA_CLEAR_FLAG (hdma, __HAL_DMA_GET_TE_FLAG_INDEX(hdma));
 846              		.loc 1 197 5 view .LVU250
 847 03c2 4FF08062 		mov	r2, #67108864
 848              	.LVL55:
 196:Drivers/STM32F4xx_HAL_Driver/Src/stm32f4xx_hal_dma_ex.c ****     __HAL_DMA_CLEAR_FLAG (hdma, __HAL_DMA_GET_HT_FLAG_INDEX(hdma));
 849              		.loc 1 196 5 view .LVU251
 850 03c6 9960     		str	r1, [r3, #8]
ARM GAS  C:\Users\pw705\AppData\Local\Temp\ccthnice.s 			page 25


 851              	.LVL56:
 197:Drivers/STM32F4xx_HAL_Driver/Src/stm32f4xx_hal_dma_ex.c ****     __HAL_DMA_CLEAR_FLAG (hdma, __HAL_DMA_GET_TE_FLAG_INDEX(hdma));
 852              		.loc 1 197 5 is_stmt 1 view .LVU252
 853 03c8 9A60     		str	r2, [r3, #8]
 198:Drivers/STM32F4xx_HAL_Driver/Src/stm32f4xx_hal_dma_ex.c ****     __HAL_DMA_CLEAR_FLAG (hdma, __HAL_DMA_GET_DME_FLAG_INDEX(hdma));
 854              		.loc 1 198 5 view .LVU253
 855              	.L107:
 198:Drivers/STM32F4xx_HAL_Driver/Src/stm32f4xx_hal_dma_ex.c ****     __HAL_DMA_CLEAR_FLAG (hdma, __HAL_DMA_GET_DME_FLAG_INDEX(hdma));
 856              		.loc 1 198 5 is_stmt 0 discriminator 159 view .LVU254
 857 03ca 9C4B     		ldr	r3, .L463+16
 858 03cc 9C42     		cmp	r4, r3
 859 03ce 00F09080 		beq	.L32
 198:Drivers/STM32F4xx_HAL_Driver/Src/stm32f4xx_hal_dma_ex.c ****     __HAL_DMA_CLEAR_FLAG (hdma, __HAL_DMA_GET_DME_FLAG_INDEX(hdma));
 860              		.loc 1 198 5 discriminator 161 view .LVU255
 861 03d2 03F58063 		add	r3, r3, #1024
 862 03d6 9C42     		cmp	r4, r3
 863 03d8 00F03383 		beq	.L432
 198:Drivers/STM32F4xx_HAL_Driver/Src/stm32f4xx_hal_dma_ex.c ****     __HAL_DMA_CLEAR_FLAG (hdma, __HAL_DMA_GET_DME_FLAG_INDEX(hdma));
 864              		.loc 1 198 5 discriminator 163 view .LVU256
 865 03dc 9E4B     		ldr	r3, .L463+44
 866 03de 9C42     		cmp	r4, r3
 867 03e0 00F03983 		beq	.L433
 198:Drivers/STM32F4xx_HAL_Driver/Src/stm32f4xx_hal_dma_ex.c ****     __HAL_DMA_CLEAR_FLAG (hdma, __HAL_DMA_GET_DME_FLAG_INDEX(hdma));
 868              		.loc 1 198 5 discriminator 165 view .LVU257
 869 03e4 974B     		ldr	r3, .L463+24
 870 03e6 9C42     		cmp	r4, r3
 871 03e8 00F05785 		beq	.L131
 198:Drivers/STM32F4xx_HAL_Driver/Src/stm32f4xx_hal_dma_ex.c ****     __HAL_DMA_CLEAR_FLAG (hdma, __HAL_DMA_GET_DME_FLAG_INDEX(hdma));
 872              		.loc 1 198 5 discriminator 167 view .LVU258
 873 03ec 964B     		ldr	r3, .L463+28
 874 03ee 9C42     		cmp	r4, r3
 875 03f0 00F05282 		beq	.L70
 198:Drivers/STM32F4xx_HAL_Driver/Src/stm32f4xx_hal_dma_ex.c ****     __HAL_DMA_CLEAR_FLAG (hdma, __HAL_DMA_GET_DME_FLAG_INDEX(hdma));
 876              		.loc 1 198 5 discriminator 169 view .LVU259
 877 03f4 954B     		ldr	r3, .L463+32
 878 03f6 9C42     		cmp	r4, r3
 879 03f8 00F0E385 		beq	.L211
 198:Drivers/STM32F4xx_HAL_Driver/Src/stm32f4xx_hal_dma_ex.c ****     __HAL_DMA_CLEAR_FLAG (hdma, __HAL_DMA_GET_DME_FLAG_INDEX(hdma));
 880              		.loc 1 198 5 discriminator 171 view .LVU260
 881 03fc A3F56873 		sub	r3, r3, #928
 882 0400 9C42     		cmp	r4, r3
 883 0402 00F03786 		beq	.L212
 198:Drivers/STM32F4xx_HAL_Driver/Src/stm32f4xx_hal_dma_ex.c ****     __HAL_DMA_CLEAR_FLAG (hdma, __HAL_DMA_GET_DME_FLAG_INDEX(hdma));
 884              		.loc 1 198 5 discriminator 173 view .LVU261
 885 0406 03F58063 		add	r3, r3, #1024
 886 040a 9C42     		cmp	r4, r3
 887 040c 00F08886 		beq	.L213
 198:Drivers/STM32F4xx_HAL_Driver/Src/stm32f4xx_hal_dma_ex.c ****     __HAL_DMA_CLEAR_FLAG (hdma, __HAL_DMA_GET_DME_FLAG_INDEX(hdma));
 888              		.loc 1 198 5 view .LVU262
 889 0410 924A     		ldr	r2, .L463+48
 199:Drivers/STM32F4xx_HAL_Driver/Src/stm32f4xx_hal_dma_ex.c ****     __HAL_DMA_CLEAR_FLAG (hdma, __HAL_DMA_GET_FE_FLAG_INDEX(hdma));
 890              		.loc 1 199 5 view .LVU263
 891 0412 483B     		subs	r3, r3, #72
 198:Drivers/STM32F4xx_HAL_Driver/Src/stm32f4xx_hal_dma_ex.c ****     __HAL_DMA_CLEAR_FLAG (hdma, __HAL_DMA_GET_DME_FLAG_INDEX(hdma));
 892              		.loc 1 198 5 view .LVU264
 893 0414 4FF00071 		mov	r1, #33554432
 199:Drivers/STM32F4xx_HAL_Driver/Src/stm32f4xx_hal_dma_ex.c ****     __HAL_DMA_CLEAR_FLAG (hdma, __HAL_DMA_GET_FE_FLAG_INDEX(hdma));
ARM GAS  C:\Users\pw705\AppData\Local\Temp\ccthnice.s 			page 26


 894              		.loc 1 199 5 view .LVU265
 895 0418 9C42     		cmp	r4, r3
 198:Drivers/STM32F4xx_HAL_Driver/Src/stm32f4xx_hal_dma_ex.c ****     __HAL_DMA_CLEAR_FLAG (hdma, __HAL_DMA_GET_DME_FLAG_INDEX(hdma));
 896              		.loc 1 198 5 view .LVU266
 897 041a 9160     		str	r1, [r2, #8]
 199:Drivers/STM32F4xx_HAL_Driver/Src/stm32f4xx_hal_dma_ex.c ****     __HAL_DMA_CLEAR_FLAG (hdma, __HAL_DMA_GET_FE_FLAG_INDEX(hdma));
 898              		.loc 1 199 5 is_stmt 1 view .LVU267
 899 041c 00F2A785 		bhi	.L196
 900 0420 A3F56873 		sub	r3, r3, #928
 901 0424 9C42     		cmp	r4, r3
 902 0426 00F22A86 		bhi	.L380
 903 042a 8D4B     		ldr	r3, .L463+52
 904 042c 9C42     		cmp	r4, r3
 905 042e 65D9     		bls	.L278
 906              	.L216:
 907 0430 7E4B     		ldr	r3, .L463
 908 0432 9C42     		cmp	r4, r3
 909 0434 00F00183 		beq	.L434
 910              	.L219:
 911 0438 7D4B     		ldr	r3, .L463+4
 912 043a 9C42     		cmp	r4, r3
 913 043c 40F0FA86 		bne	.L435
 914 0440 864B     		ldr	r3, .L463+48
 915              	.L375:
 916 0442 0422     		movs	r2, #4
 917 0444 DA60     		str	r2, [r3, #12]
 200:Drivers/STM32F4xx_HAL_Driver/Src/stm32f4xx_hal_dma_ex.c **** 
 918              		.loc 1 200 5 view .LVU268
 919 0446 DDE6     		b	.L49
 920              	.LVL57:
 921              	.L417:
 197:Drivers/STM32F4xx_HAL_Driver/Src/stm32f4xx_hal_dma_ex.c ****     __HAL_DMA_CLEAR_FLAG (hdma, __HAL_DMA_GET_TE_FLAG_INDEX(hdma));
 922              		.loc 1 197 5 is_stmt 0 view .LVU269
 923 0448 844A     		ldr	r2, .L463+48
 924              	.LVL58:
 196:Drivers/STM32F4xx_HAL_Driver/Src/stm32f4xx_hal_dma_ex.c ****     __HAL_DMA_CLEAR_FLAG (hdma, __HAL_DMA_GET_HT_FLAG_INDEX(hdma));
 925              		.loc 1 196 5 view .LVU270
 926 044a 2021     		movs	r1, #32
 927              	.LVL59:
 196:Drivers/STM32F4xx_HAL_Driver/Src/stm32f4xx_hal_dma_ex.c ****     __HAL_DMA_CLEAR_FLAG (hdma, __HAL_DMA_GET_HT_FLAG_INDEX(hdma));
 928              		.loc 1 196 5 view .LVU271
 929 044c C3F8F813 		str	r1, [r3, #1016]
 930              	.LVL60:
 197:Drivers/STM32F4xx_HAL_Driver/Src/stm32f4xx_hal_dma_ex.c ****     __HAL_DMA_CLEAR_FLAG (hdma, __HAL_DMA_GET_TE_FLAG_INDEX(hdma));
 931              		.loc 1 197 5 is_stmt 1 view .LVU272
 932 0450 1021     		movs	r1, #16
 933 0452 9160     		str	r1, [r2, #8]
 198:Drivers/STM32F4xx_HAL_Driver/Src/stm32f4xx_hal_dma_ex.c ****     __HAL_DMA_CLEAR_FLAG (hdma, __HAL_DMA_GET_DME_FLAG_INDEX(hdma));
 934              		.loc 1 198 5 view .LVU273
 935 0454 0821     		movs	r1, #8
 199:Drivers/STM32F4xx_HAL_Driver/Src/stm32f4xx_hal_dma_ex.c ****     __HAL_DMA_CLEAR_FLAG (hdma, __HAL_DMA_GET_FE_FLAG_INDEX(hdma));
 936              		.loc 1 199 5 is_stmt 0 view .LVU274
 937 0456 0422     		movs	r2, #4
 198:Drivers/STM32F4xx_HAL_Driver/Src/stm32f4xx_hal_dma_ex.c ****     __HAL_DMA_CLEAR_FLAG (hdma, __HAL_DMA_GET_DME_FLAG_INDEX(hdma));
 938              		.loc 1 198 5 view .LVU275
 939 0458 C3F8F813 		str	r1, [r3, #1016]
 199:Drivers/STM32F4xx_HAL_Driver/Src/stm32f4xx_hal_dma_ex.c ****     __HAL_DMA_CLEAR_FLAG (hdma, __HAL_DMA_GET_FE_FLAG_INDEX(hdma));
ARM GAS  C:\Users\pw705\AppData\Local\Temp\ccthnice.s 			page 27


 940              		.loc 1 199 5 is_stmt 1 view .LVU276
 941 045c C3F8F823 		str	r2, [r3, #1016]
 200:Drivers/STM32F4xx_HAL_Driver/Src/stm32f4xx_hal_dma_ex.c **** 
 942              		.loc 1 200 5 view .LVU277
 943 0460 D0E6     		b	.L49
 944              	.LVL61:
 945              	.L390:
 196:Drivers/STM32F4xx_HAL_Driver/Src/stm32f4xx_hal_dma_ex.c ****     __HAL_DMA_CLEAR_FLAG (hdma, __HAL_DMA_GET_HT_FLAG_INDEX(hdma));
 946              		.loc 1 196 5 is_stmt 0 view .LVU278
 947 0462 2021     		movs	r1, #32
 948              	.LVL62:
 197:Drivers/STM32F4xx_HAL_Driver/Src/stm32f4xx_hal_dma_ex.c ****     __HAL_DMA_CLEAR_FLAG (hdma, __HAL_DMA_GET_TE_FLAG_INDEX(hdma));
 949              		.loc 1 197 5 view .LVU279
 950 0464 1022     		movs	r2, #16
 951              	.LVL63:
 196:Drivers/STM32F4xx_HAL_Driver/Src/stm32f4xx_hal_dma_ex.c ****     __HAL_DMA_CLEAR_FLAG (hdma, __HAL_DMA_GET_HT_FLAG_INDEX(hdma));
 952              		.loc 1 196 5 view .LVU280
 953 0466 C3F89C13 		str	r1, [r3, #924]
 954              	.LVL64:
 197:Drivers/STM32F4xx_HAL_Driver/Src/stm32f4xx_hal_dma_ex.c ****     __HAL_DMA_CLEAR_FLAG (hdma, __HAL_DMA_GET_TE_FLAG_INDEX(hdma));
 955              		.loc 1 197 5 is_stmt 1 view .LVU281
 956 046a C3F89C23 		str	r2, [r3, #924]
 198:Drivers/STM32F4xx_HAL_Driver/Src/stm32f4xx_hal_dma_ex.c ****     __HAL_DMA_CLEAR_FLAG (hdma, __HAL_DMA_GET_DME_FLAG_INDEX(hdma));
 957              		.loc 1 198 5 view .LVU282
 958              	.L329:
 959 046e 7B4B     		ldr	r3, .L463+48
 960 0470 0822     		movs	r2, #8
 961 0472 DA60     		str	r2, [r3, #12]
 199:Drivers/STM32F4xx_HAL_Driver/Src/stm32f4xx_hal_dma_ex.c ****     __HAL_DMA_CLEAR_FLAG (hdma, __HAL_DMA_GET_FE_FLAG_INDEX(hdma));
 962              		.loc 1 199 5 view .LVU283
 963              	.L138:
 964 0474 794B     		ldr	r3, .L463+48
 965 0476 0422     		movs	r2, #4
 966 0478 DA60     		str	r2, [r3, #12]
 200:Drivers/STM32F4xx_HAL_Driver/Src/stm32f4xx_hal_dma_ex.c **** 
 967              		.loc 1 200 5 view .LVU284
 968 047a 48E7     		b	.L24
 969              	.LVL65:
 970              	.L418:
 196:Drivers/STM32F4xx_HAL_Driver/Src/stm32f4xx_hal_dma_ex.c ****     __HAL_DMA_CLEAR_FLAG (hdma, __HAL_DMA_GET_HT_FLAG_INDEX(hdma));
 971              		.loc 1 196 5 is_stmt 0 view .LVU285
 972 047c 2021     		movs	r1, #32
 973              	.LVL66:
 197:Drivers/STM32F4xx_HAL_Driver/Src/stm32f4xx_hal_dma_ex.c ****     __HAL_DMA_CLEAR_FLAG (hdma, __HAL_DMA_GET_TE_FLAG_INDEX(hdma));
 974              		.loc 1 197 5 view .LVU286
 975 047e 1022     		movs	r2, #16
 976              	.LVL67:
 196:Drivers/STM32F4xx_HAL_Driver/Src/stm32f4xx_hal_dma_ex.c ****     __HAL_DMA_CLEAR_FLAG (hdma, __HAL_DMA_GET_HT_FLAG_INDEX(hdma));
 977              		.loc 1 196 5 view .LVU287
 978 0480 43F8081C 		str	r1, [r3, #-8]
 979              	.LVL68:
 197:Drivers/STM32F4xx_HAL_Driver/Src/stm32f4xx_hal_dma_ex.c ****     __HAL_DMA_CLEAR_FLAG (hdma, __HAL_DMA_GET_TE_FLAG_INDEX(hdma));
 980              		.loc 1 197 5 is_stmt 1 view .LVU288
 981 0484 43F8082C 		str	r2, [r3, #-8]
 198:Drivers/STM32F4xx_HAL_Driver/Src/stm32f4xx_hal_dma_ex.c ****     __HAL_DMA_CLEAR_FLAG (hdma, __HAL_DMA_GET_DME_FLAG_INDEX(hdma));
 982              		.loc 1 198 5 view .LVU289
 983 0488 2EE7     		b	.L51
ARM GAS  C:\Users\pw705\AppData\Local\Temp\ccthnice.s 			page 28


 984              	.LVL69:
 985              	.L391:
 196:Drivers/STM32F4xx_HAL_Driver/Src/stm32f4xx_hal_dma_ex.c ****     __HAL_DMA_CLEAR_FLAG (hdma, __HAL_DMA_GET_HT_FLAG_INDEX(hdma));
 986              		.loc 1 196 5 is_stmt 0 view .LVU290
 987 048a 2021     		movs	r1, #32
 988              	.LVL70:
 197:Drivers/STM32F4xx_HAL_Driver/Src/stm32f4xx_hal_dma_ex.c ****     __HAL_DMA_CLEAR_FLAG (hdma, __HAL_DMA_GET_TE_FLAG_INDEX(hdma));
 989              		.loc 1 197 5 view .LVU291
 990 048c 1022     		movs	r2, #16
 991              	.LVL71:
 196:Drivers/STM32F4xx_HAL_Driver/Src/stm32f4xx_hal_dma_ex.c ****     __HAL_DMA_CLEAR_FLAG (hdma, __HAL_DMA_GET_HT_FLAG_INDEX(hdma));
 992              		.loc 1 196 5 view .LVU292
 993 048e 43F8641C 		str	r1, [r3, #-100]
 994              	.LVL72:
 197:Drivers/STM32F4xx_HAL_Driver/Src/stm32f4xx_hal_dma_ex.c ****     __HAL_DMA_CLEAR_FLAG (hdma, __HAL_DMA_GET_TE_FLAG_INDEX(hdma));
 995              		.loc 1 197 5 is_stmt 1 view .LVU293
 996 0492 43F8642C 		str	r2, [r3, #-100]
 198:Drivers/STM32F4xx_HAL_Driver/Src/stm32f4xx_hal_dma_ex.c ****     __HAL_DMA_CLEAR_FLAG (hdma, __HAL_DMA_GET_DME_FLAG_INDEX(hdma));
 997              		.loc 1 198 5 view .LVU294
 998              	.L30:
 999 0496 734B     		ldr	r3, .L463+56
 1000 0498 0822     		movs	r2, #8
 1001 049a DA60     		str	r2, [r3, #12]
 199:Drivers/STM32F4xx_HAL_Driver/Src/stm32f4xx_hal_dma_ex.c ****     __HAL_DMA_CLEAR_FLAG (hdma, __HAL_DMA_GET_FE_FLAG_INDEX(hdma));
 1002              		.loc 1 199 5 view .LVU295
 1003              	.L145:
 1004 049c 714B     		ldr	r3, .L463+56
 1005 049e 0422     		movs	r2, #4
 1006 04a0 DA60     		str	r2, [r3, #12]
 200:Drivers/STM32F4xx_HAL_Driver/Src/stm32f4xx_hal_dma_ex.c **** 
 1007              		.loc 1 200 5 view .LVU296
 1008 04a2 46E6     		b	.L239
 1009              	.LVL73:
 1010              	.L73:
 196:Drivers/STM32F4xx_HAL_Driver/Src/stm32f4xx_hal_dma_ex.c ****     __HAL_DMA_CLEAR_FLAG (hdma, __HAL_DMA_GET_HT_FLAG_INDEX(hdma));
 1011              		.loc 1 196 5 is_stmt 0 view .LVU297
 1012 04a4 6D4B     		ldr	r3, .L463+48
 1013 04a6 2021     		movs	r1, #32
 1014              	.LVL74:
 197:Drivers/STM32F4xx_HAL_Driver/Src/stm32f4xx_hal_dma_ex.c ****     __HAL_DMA_CLEAR_FLAG (hdma, __HAL_DMA_GET_TE_FLAG_INDEX(hdma));
 1015              		.loc 1 197 5 view .LVU298
 1016 04a8 1022     		movs	r2, #16
 1017              	.LVL75:
 196:Drivers/STM32F4xx_HAL_Driver/Src/stm32f4xx_hal_dma_ex.c ****     __HAL_DMA_CLEAR_FLAG (hdma, __HAL_DMA_GET_HT_FLAG_INDEX(hdma));
 1018              		.loc 1 196 5 view .LVU299
 1019 04aa D960     		str	r1, [r3, #12]
 1020              	.LVL76:
 197:Drivers/STM32F4xx_HAL_Driver/Src/stm32f4xx_hal_dma_ex.c ****     __HAL_DMA_CLEAR_FLAG (hdma, __HAL_DMA_GET_TE_FLAG_INDEX(hdma));
 1021              		.loc 1 197 5 is_stmt 1 view .LVU300
 1022 04ac 9A60     		str	r2, [r3, #8]
 198:Drivers/STM32F4xx_HAL_Driver/Src/stm32f4xx_hal_dma_ex.c ****     __HAL_DMA_CLEAR_FLAG (hdma, __HAL_DMA_GET_DME_FLAG_INDEX(hdma));
 1023              		.loc 1 198 5 view .LVU301
 1024 04ae 0821     		movs	r1, #8
 199:Drivers/STM32F4xx_HAL_Driver/Src/stm32f4xx_hal_dma_ex.c ****     __HAL_DMA_CLEAR_FLAG (hdma, __HAL_DMA_GET_FE_FLAG_INDEX(hdma));
 1025              		.loc 1 199 5 is_stmt 0 view .LVU302
 1026 04b0 0422     		movs	r2, #4
 198:Drivers/STM32F4xx_HAL_Driver/Src/stm32f4xx_hal_dma_ex.c ****     __HAL_DMA_CLEAR_FLAG (hdma, __HAL_DMA_GET_DME_FLAG_INDEX(hdma));
ARM GAS  C:\Users\pw705\AppData\Local\Temp\ccthnice.s 			page 29


 1027              		.loc 1 198 5 view .LVU303
 1028 04b2 9960     		str	r1, [r3, #8]
 199:Drivers/STM32F4xx_HAL_Driver/Src/stm32f4xx_hal_dma_ex.c ****     __HAL_DMA_CLEAR_FLAG (hdma, __HAL_DMA_GET_FE_FLAG_INDEX(hdma));
 1029              		.loc 1 199 5 is_stmt 1 view .LVU304
 1030 04b4 9A60     		str	r2, [r3, #8]
 200:Drivers/STM32F4xx_HAL_Driver/Src/stm32f4xx_hal_dma_ex.c **** 
 1031              		.loc 1 200 5 view .LVU305
 1032              	.L242:
 1033 04b6 0122     		movs	r2, #1
 1034 04b8 0DE7     		b	.L302
 1035              	.LVL77:
 1036              	.L422:
 196:Drivers/STM32F4xx_HAL_Driver/Src/stm32f4xx_hal_dma_ex.c ****     __HAL_DMA_CLEAR_FLAG (hdma, __HAL_DMA_GET_HT_FLAG_INDEX(hdma));
 1037              		.loc 1 196 5 is_stmt 0 view .LVU306
 1038 04ba 2021     		movs	r1, #32
 1039              	.LVL78:
 197:Drivers/STM32F4xx_HAL_Driver/Src/stm32f4xx_hal_dma_ex.c ****     __HAL_DMA_CLEAR_FLAG (hdma, __HAL_DMA_GET_TE_FLAG_INDEX(hdma));
 1040              		.loc 1 197 5 view .LVU307
 1041 04bc 1022     		movs	r2, #16
 1042              	.LVL79:
 196:Drivers/STM32F4xx_HAL_Driver/Src/stm32f4xx_hal_dma_ex.c ****     __HAL_DMA_CLEAR_FLAG (hdma, __HAL_DMA_GET_HT_FLAG_INDEX(hdma));
 1043              		.loc 1 196 5 view .LVU308
 1044 04be 43F8081C 		str	r1, [r3, #-8]
 1045              	.LVL80:
 197:Drivers/STM32F4xx_HAL_Driver/Src/stm32f4xx_hal_dma_ex.c ****     __HAL_DMA_CLEAR_FLAG (hdma, __HAL_DMA_GET_TE_FLAG_INDEX(hdma));
 1046              		.loc 1 197 5 is_stmt 1 view .LVU309
 1047 04c2 43F8082C 		str	r2, [r3, #-8]
 198:Drivers/STM32F4xx_HAL_Driver/Src/stm32f4xx_hal_dma_ex.c ****     __HAL_DMA_CLEAR_FLAG (hdma, __HAL_DMA_GET_DME_FLAG_INDEX(hdma));
 1048              		.loc 1 198 5 view .LVU310
 1049 04c6 0821     		movs	r1, #8
 199:Drivers/STM32F4xx_HAL_Driver/Src/stm32f4xx_hal_dma_ex.c ****     __HAL_DMA_CLEAR_FLAG (hdma, __HAL_DMA_GET_FE_FLAG_INDEX(hdma));
 1050              		.loc 1 199 5 is_stmt 0 view .LVU311
 1051 04c8 0422     		movs	r2, #4
 198:Drivers/STM32F4xx_HAL_Driver/Src/stm32f4xx_hal_dma_ex.c ****     __HAL_DMA_CLEAR_FLAG (hdma, __HAL_DMA_GET_DME_FLAG_INDEX(hdma));
 1052              		.loc 1 198 5 view .LVU312
 1053 04ca 43F8081C 		str	r1, [r3, #-8]
 199:Drivers/STM32F4xx_HAL_Driver/Src/stm32f4xx_hal_dma_ex.c ****     __HAL_DMA_CLEAR_FLAG (hdma, __HAL_DMA_GET_FE_FLAG_INDEX(hdma));
 1054              		.loc 1 199 5 is_stmt 1 view .LVU313
 1055 04ce 43F8082C 		str	r2, [r3, #-8]
 200:Drivers/STM32F4xx_HAL_Driver/Src/stm32f4xx_hal_dma_ex.c **** 
 1056              		.loc 1 200 5 view .LVU314
 1057 04d2 F0E7     		b	.L242
 1058              	.LVL81:
 1059              	.L419:
 196:Drivers/STM32F4xx_HAL_Driver/Src/stm32f4xx_hal_dma_ex.c ****     __HAL_DMA_CLEAR_FLAG (hdma, __HAL_DMA_GET_HT_FLAG_INDEX(hdma));
 1060              		.loc 1 196 5 is_stmt 0 view .LVU315
 1061 04d4 2022     		movs	r2, #32
 1062              	.LVL82:
 196:Drivers/STM32F4xx_HAL_Driver/Src/stm32f4xx_hal_dma_ex.c ****     __HAL_DMA_CLEAR_FLAG (hdma, __HAL_DMA_GET_HT_FLAG_INDEX(hdma));
 1063              		.loc 1 196 5 view .LVU316
 1064 04d6 C3F89823 		str	r2, [r3, #920]
 1065              	.LVL83:
 197:Drivers/STM32F4xx_HAL_Driver/Src/stm32f4xx_hal_dma_ex.c ****     __HAL_DMA_CLEAR_FLAG (hdma, __HAL_DMA_GET_TE_FLAG_INDEX(hdma));
 1066              		.loc 1 197 5 is_stmt 1 view .LVU317
 1067              	.L53:
 1068 04da 604B     		ldr	r3, .L463+48
 1069 04dc 1022     		movs	r2, #16
ARM GAS  C:\Users\pw705\AppData\Local\Temp\ccthnice.s 			page 30


 1070 04de DA60     		str	r2, [r3, #12]
 198:Drivers/STM32F4xx_HAL_Driver/Src/stm32f4xx_hal_dma_ex.c ****     __HAL_DMA_CLEAR_FLAG (hdma, __HAL_DMA_GET_DME_FLAG_INDEX(hdma));
 1071              		.loc 1 198 5 view .LVU318
 1072 04e0 C5E7     		b	.L329
 1073              	.LVL84:
 1074              	.L392:
 196:Drivers/STM32F4xx_HAL_Driver/Src/stm32f4xx_hal_dma_ex.c ****     __HAL_DMA_CLEAR_FLAG (hdma, __HAL_DMA_GET_HT_FLAG_INDEX(hdma));
 1075              		.loc 1 196 5 is_stmt 0 view .LVU319
 1076 04e2 4FF40061 		mov	r1, #2048
 1077              	.LVL85:
 197:Drivers/STM32F4xx_HAL_Driver/Src/stm32f4xx_hal_dma_ex.c ****     __HAL_DMA_CLEAR_FLAG (hdma, __HAL_DMA_GET_TE_FLAG_INDEX(hdma));
 1078              		.loc 1 197 5 view .LVU320
 1079 04e6 4FF48062 		mov	r2, #1024
 1080              	.LVL86:
 196:Drivers/STM32F4xx_HAL_Driver/Src/stm32f4xx_hal_dma_ex.c ****     __HAL_DMA_CLEAR_FLAG (hdma, __HAL_DMA_GET_HT_FLAG_INDEX(hdma));
 1081              		.loc 1 196 5 view .LVU321
 1082 04ea C3F8E413 		str	r1, [r3, #996]
 1083              	.LVL87:
 197:Drivers/STM32F4xx_HAL_Driver/Src/stm32f4xx_hal_dma_ex.c ****     __HAL_DMA_CLEAR_FLAG (hdma, __HAL_DMA_GET_TE_FLAG_INDEX(hdma));
 1084              		.loc 1 197 5 is_stmt 1 view .LVU322
 1085 04ee C3F8E423 		str	r2, [r3, #996]
 198:Drivers/STM32F4xx_HAL_Driver/Src/stm32f4xx_hal_dma_ex.c ****     __HAL_DMA_CLEAR_FLAG (hdma, __HAL_DMA_GET_DME_FLAG_INDEX(hdma));
 1086              		.loc 1 198 5 view .LVU323
 1087              	.L32:
 1088 04f2 5A4B     		ldr	r3, .L463+48
 1089 04f4 4FF40072 		mov	r2, #512
 1090 04f8 9A60     		str	r2, [r3, #8]
 199:Drivers/STM32F4xx_HAL_Driver/Src/stm32f4xx_hal_dma_ex.c ****     __HAL_DMA_CLEAR_FLAG (hdma, __HAL_DMA_GET_FE_FLAG_INDEX(hdma));
 1091              		.loc 1 199 5 view .LVU324
 1092 04fa E7E6     		b	.L167
 1093              	.L278:
 1094 04fc 4C4B     		ldr	r3, .L463+4
 1095 04fe 9C42     		cmp	r4, r3
 1096 0500 2CD0     		beq	.L436
 1097 0502 4C4B     		ldr	r3, .L463+8
 1098 0504 9C42     		cmp	r4, r3
 1099 0506 40F0DA82 		bne	.L437
 1100 050a 544B     		ldr	r3, .L463+48
 1101 050c 0422     		movs	r2, #4
 1102 050e 9A60     		str	r2, [r3, #8]
 200:Drivers/STM32F4xx_HAL_Driver/Src/stm32f4xx_hal_dma_ex.c **** 
 1103              		.loc 1 200 5 view .LVU325
 1104 0510 FDE6     		b	.L24
 1105              	.LVL88:
 1106              	.L423:
 196:Drivers/STM32F4xx_HAL_Driver/Src/stm32f4xx_hal_dma_ex.c ****     __HAL_DMA_CLEAR_FLAG (hdma, __HAL_DMA_GET_HT_FLAG_INDEX(hdma));
 1107              		.loc 1 196 5 is_stmt 0 view .LVU326
 1108 0512 A3F58263 		sub	r3, r3, #1040
 1109 0516 2022     		movs	r2, #32
 1110              	.LVL89:
 196:Drivers/STM32F4xx_HAL_Driver/Src/stm32f4xx_hal_dma_ex.c ****     __HAL_DMA_CLEAR_FLAG (hdma, __HAL_DMA_GET_HT_FLAG_INDEX(hdma));
 1111              		.loc 1 196 5 view .LVU327
 1112 0518 9A60     		str	r2, [r3, #8]
 1113              	.LVL90:
 197:Drivers/STM32F4xx_HAL_Driver/Src/stm32f4xx_hal_dma_ex.c ****     __HAL_DMA_CLEAR_FLAG (hdma, __HAL_DMA_GET_TE_FLAG_INDEX(hdma));
 1114              		.loc 1 197 5 is_stmt 1 view .LVU328
 1115              	.L75:
ARM GAS  C:\Users\pw705\AppData\Local\Temp\ccthnice.s 			page 31


 1116 051a 524B     		ldr	r3, .L463+56
 1117 051c 1022     		movs	r2, #16
 1118 051e 9A60     		str	r2, [r3, #8]
 198:Drivers/STM32F4xx_HAL_Driver/Src/stm32f4xx_hal_dma_ex.c ****     __HAL_DMA_CLEAR_FLAG (hdma, __HAL_DMA_GET_DME_FLAG_INDEX(hdma));
 1119              		.loc 1 198 5 view .LVU329
 1120 0520 E2E6     		b	.L51
 1121              	.LVL91:
 1122              	.L405:
 196:Drivers/STM32F4xx_HAL_Driver/Src/stm32f4xx_hal_dma_ex.c ****     __HAL_DMA_CLEAR_FLAG (hdma, __HAL_DMA_GET_HT_FLAG_INDEX(hdma));
 1123              		.loc 1 196 5 is_stmt 0 view .LVU330
 1124 0522 A3F58263 		sub	r3, r3, #1040
 1125 0526 2022     		movs	r2, #32
 1126              	.LVL92:
 196:Drivers/STM32F4xx_HAL_Driver/Src/stm32f4xx_hal_dma_ex.c ****     __HAL_DMA_CLEAR_FLAG (hdma, __HAL_DMA_GET_HT_FLAG_INDEX(hdma));
 1127              		.loc 1 196 5 view .LVU331
 1128 0528 DA60     		str	r2, [r3, #12]
 1129              	.LVL93:
 197:Drivers/STM32F4xx_HAL_Driver/Src/stm32f4xx_hal_dma_ex.c ****     __HAL_DMA_CLEAR_FLAG (hdma, __HAL_DMA_GET_TE_FLAG_INDEX(hdma));
 1130              		.loc 1 197 5 is_stmt 1 view .LVU332
 1131 052a F6E7     		b	.L75
 1132              	.LVL94:
 1133              	.L54:
 196:Drivers/STM32F4xx_HAL_Driver/Src/stm32f4xx_hal_dma_ex.c ****     __HAL_DMA_CLEAR_FLAG (hdma, __HAL_DMA_GET_HT_FLAG_INDEX(hdma));
 1134              		.loc 1 196 5 is_stmt 0 view .LVU333
 1135 052c 4D4B     		ldr	r3, .L463+56
 1136 052e 2022     		movs	r2, #32
 1137              	.LVL95:
 196:Drivers/STM32F4xx_HAL_Driver/Src/stm32f4xx_hal_dma_ex.c ****     __HAL_DMA_CLEAR_FLAG (hdma, __HAL_DMA_GET_HT_FLAG_INDEX(hdma));
 1138              		.loc 1 196 5 view .LVU334
 1139 0530 9A60     		str	r2, [r3, #8]
 1140              	.LVL96:
 197:Drivers/STM32F4xx_HAL_Driver/Src/stm32f4xx_hal_dma_ex.c ****     __HAL_DMA_CLEAR_FLAG (hdma, __HAL_DMA_GET_TE_FLAG_INDEX(hdma));
 1141              		.loc 1 197 5 is_stmt 1 view .LVU335
 1142              	.L67:
 1143 0532 4C4B     		ldr	r3, .L463+56
 1144 0534 1022     		movs	r2, #16
 1145 0536 DA60     		str	r2, [r3, #12]
 198:Drivers/STM32F4xx_HAL_Driver/Src/stm32f4xx_hal_dma_ex.c ****     __HAL_DMA_CLEAR_FLAG (hdma, __HAL_DMA_GET_DME_FLAG_INDEX(hdma));
 1146              		.loc 1 198 5 view .LVU336
 1147 0538 ADE7     		b	.L30
 1148              	.LVL97:
 1149              	.L393:
 196:Drivers/STM32F4xx_HAL_Driver/Src/stm32f4xx_hal_dma_ex.c ****     __HAL_DMA_CLEAR_FLAG (hdma, __HAL_DMA_GET_HT_FLAG_INDEX(hdma));
 1150              		.loc 1 196 5 is_stmt 0 view .LVU337
 1151 053a 4FF40061 		mov	r1, #2048
 1152              	.LVL98:
 197:Drivers/STM32F4xx_HAL_Driver/Src/stm32f4xx_hal_dma_ex.c ****     __HAL_DMA_CLEAR_FLAG (hdma, __HAL_DMA_GET_TE_FLAG_INDEX(hdma));
 1153              		.loc 1 197 5 view .LVU338
 1154 053e 4FF48062 		mov	r2, #1024
 1155              	.LVL99:
 196:Drivers/STM32F4xx_HAL_Driver/Src/stm32f4xx_hal_dma_ex.c ****     __HAL_DMA_CLEAR_FLAG (hdma, __HAL_DMA_GET_HT_FLAG_INDEX(hdma));
 1156              		.loc 1 196 5 view .LVU339
 1157 0542 43F81C1C 		str	r1, [r3, #-28]
 1158              	.LVL100:
 197:Drivers/STM32F4xx_HAL_Driver/Src/stm32f4xx_hal_dma_ex.c ****     __HAL_DMA_CLEAR_FLAG (hdma, __HAL_DMA_GET_TE_FLAG_INDEX(hdma));
 1159              		.loc 1 197 5 is_stmt 1 view .LVU340
 1160 0546 43F81C2C 		str	r2, [r3, #-28]
ARM GAS  C:\Users\pw705\AppData\Local\Temp\ccthnice.s 			page 32


 198:Drivers/STM32F4xx_HAL_Driver/Src/stm32f4xx_hal_dma_ex.c ****     __HAL_DMA_CLEAR_FLAG (hdma, __HAL_DMA_GET_DME_FLAG_INDEX(hdma));
 1161              		.loc 1 198 5 view .LVU341
 1162              	.L34:
 1163 054a 464B     		ldr	r3, .L463+56
 1164 054c 4FF40071 		mov	r1, #512
 199:Drivers/STM32F4xx_HAL_Driver/Src/stm32f4xx_hal_dma_ex.c ****     __HAL_DMA_CLEAR_FLAG (hdma, __HAL_DMA_GET_FE_FLAG_INDEX(hdma));
 1165              		.loc 1 199 5 is_stmt 0 view .LVU342
 1166 0550 4FF48072 		mov	r2, #256
 198:Drivers/STM32F4xx_HAL_Driver/Src/stm32f4xx_hal_dma_ex.c ****     __HAL_DMA_CLEAR_FLAG (hdma, __HAL_DMA_GET_DME_FLAG_INDEX(hdma));
 1167              		.loc 1 198 5 view .LVU343
 1168 0554 9960     		str	r1, [r3, #8]
 199:Drivers/STM32F4xx_HAL_Driver/Src/stm32f4xx_hal_dma_ex.c ****     __HAL_DMA_CLEAR_FLAG (hdma, __HAL_DMA_GET_FE_FLAG_INDEX(hdma));
 1169              		.loc 1 199 5 is_stmt 1 view .LVU344
 1170 0556 9A60     		str	r2, [r3, #8]
 200:Drivers/STM32F4xx_HAL_Driver/Src/stm32f4xx_hal_dma_ex.c **** 
 1171              		.loc 1 200 5 view .LVU345
 1172              	.L71:
 1173 0558 4022     		movs	r2, #64
 1174 055a 54E6     		b	.L294
 1175              	.L436:
 199:Drivers/STM32F4xx_HAL_Driver/Src/stm32f4xx_hal_dma_ex.c ****     __HAL_DMA_CLEAR_FLAG (hdma, __HAL_DMA_GET_FE_FLAG_INDEX(hdma));
 1176              		.loc 1 199 5 is_stmt 0 view .LVU346
 1177 055c 3F4B     		ldr	r3, .L463+48
 1178 055e 0422     		movs	r2, #4
 1179 0560 9A60     		str	r2, [r3, #8]
 200:Drivers/STM32F4xx_HAL_Driver/Src/stm32f4xx_hal_dma_ex.c **** 
 1180              		.loc 1 200 5 is_stmt 1 view .LVU347
 1181 0562 4FE6     		b	.L49
 1182              	.LVL101:
 1183              	.L406:
 196:Drivers/STM32F4xx_HAL_Driver/Src/stm32f4xx_hal_dma_ex.c ****     __HAL_DMA_CLEAR_FLAG (hdma, __HAL_DMA_GET_HT_FLAG_INDEX(hdma));
 1184              		.loc 1 196 5 is_stmt 0 view .LVU348
 1185 0564 2022     		movs	r2, #32
 1186              	.LVL102:
 196:Drivers/STM32F4xx_HAL_Driver/Src/stm32f4xx_hal_dma_ex.c ****     __HAL_DMA_CLEAR_FLAG (hdma, __HAL_DMA_GET_HT_FLAG_INDEX(hdma));
 1187              		.loc 1 196 5 view .LVU349
 1188 0566 43F8642C 		str	r2, [r3, #-100]
 1189              	.LVL103:
 197:Drivers/STM32F4xx_HAL_Driver/Src/stm32f4xx_hal_dma_ex.c ****     __HAL_DMA_CLEAR_FLAG (hdma, __HAL_DMA_GET_TE_FLAG_INDEX(hdma));
 1190              		.loc 1 197 5 is_stmt 1 view .LVU350
 1191 056a B6E7     		b	.L53
 1192              	.LVL104:
 1193              	.L424:
 196:Drivers/STM32F4xx_HAL_Driver/Src/stm32f4xx_hal_dma_ex.c ****     __HAL_DMA_CLEAR_FLAG (hdma, __HAL_DMA_GET_HT_FLAG_INDEX(hdma));
 1194              		.loc 1 196 5 is_stmt 0 view .LVU351
 1195 056c 2022     		movs	r2, #32
 1196              	.LVL105:
 196:Drivers/STM32F4xx_HAL_Driver/Src/stm32f4xx_hal_dma_ex.c ****     __HAL_DMA_CLEAR_FLAG (hdma, __HAL_DMA_GET_HT_FLAG_INDEX(hdma));
 1197              		.loc 1 196 5 view .LVU352
 1198 056e 43F8682C 		str	r2, [r3, #-104]
 1199              	.LVL106:
 197:Drivers/STM32F4xx_HAL_Driver/Src/stm32f4xx_hal_dma_ex.c ****     __HAL_DMA_CLEAR_FLAG (hdma, __HAL_DMA_GET_TE_FLAG_INDEX(hdma));
 1200              		.loc 1 197 5 is_stmt 1 view .LVU353
 1201 0572 B2E7     		b	.L53
 1202              	.LVL107:
 1203              	.L55:
 196:Drivers/STM32F4xx_HAL_Driver/Src/stm32f4xx_hal_dma_ex.c ****     __HAL_DMA_CLEAR_FLAG (hdma, __HAL_DMA_GET_HT_FLAG_INDEX(hdma));
ARM GAS  C:\Users\pw705\AppData\Local\Temp\ccthnice.s 			page 33


 1204              		.loc 1 196 5 is_stmt 0 view .LVU354
 1205 0574 3B4B     		ldr	r3, .L463+56
 1206 0576 4FF40062 		mov	r2, #2048
 1207              	.LVL108:
 196:Drivers/STM32F4xx_HAL_Driver/Src/stm32f4xx_hal_dma_ex.c ****     __HAL_DMA_CLEAR_FLAG (hdma, __HAL_DMA_GET_HT_FLAG_INDEX(hdma));
 1208              		.loc 1 196 5 view .LVU355
 1209 057a 9A60     		str	r2, [r3, #8]
 1210              	.LVL109:
 197:Drivers/STM32F4xx_HAL_Driver/Src/stm32f4xx_hal_dma_ex.c ****     __HAL_DMA_CLEAR_FLAG (hdma, __HAL_DMA_GET_TE_FLAG_INDEX(hdma));
 1211              		.loc 1 197 5 is_stmt 1 view .LVU356
 1212              	.L66:
 1213 057c 374B     		ldr	r3, .L463+48
 1214 057e 4FF48062 		mov	r2, #1024
 1215 0582 9A60     		str	r2, [r3, #8]
 198:Drivers/STM32F4xx_HAL_Driver/Src/stm32f4xx_hal_dma_ex.c ****     __HAL_DMA_CLEAR_FLAG (hdma, __HAL_DMA_GET_DME_FLAG_INDEX(hdma));
 1216              		.loc 1 198 5 view .LVU357
 1217 0584 B5E7     		b	.L32
 1218              	.LVL110:
 1219              	.L394:
 196:Drivers/STM32F4xx_HAL_Driver/Src/stm32f4xx_hal_dma_ex.c ****     __HAL_DMA_CLEAR_FLAG (hdma, __HAL_DMA_GET_HT_FLAG_INDEX(hdma));
 1220              		.loc 1 196 5 is_stmt 0 view .LVU358
 1221 0586 4FF40062 		mov	r2, #2048
 1222              	.LVL111:
 196:Drivers/STM32F4xx_HAL_Driver/Src/stm32f4xx_hal_dma_ex.c ****     __HAL_DMA_CLEAR_FLAG (hdma, __HAL_DMA_GET_HT_FLAG_INDEX(hdma));
 1223              		.loc 1 196 5 view .LVU359
 1224 058a C3F88423 		str	r2, [r3, #900]
 1225              	.LVL112:
 197:Drivers/STM32F4xx_HAL_Driver/Src/stm32f4xx_hal_dma_ex.c ****     __HAL_DMA_CLEAR_FLAG (hdma, __HAL_DMA_GET_TE_FLAG_INDEX(hdma));
 1226              		.loc 1 197 5 is_stmt 1 view .LVU360
 1227              	.L36:
 198:Drivers/STM32F4xx_HAL_Driver/Src/stm32f4xx_hal_dma_ex.c ****     __HAL_DMA_CLEAR_FLAG (hdma, __HAL_DMA_GET_DME_FLAG_INDEX(hdma));
 1228              		.loc 1 198 5 is_stmt 0 view .LVU361
 1229 058e 2C4B     		ldr	r3, .L463+20
 197:Drivers/STM32F4xx_HAL_Driver/Src/stm32f4xx_hal_dma_ex.c ****     __HAL_DMA_CLEAR_FLAG (hdma, __HAL_DMA_GET_TE_FLAG_INDEX(hdma));
 1230              		.loc 1 197 5 view .LVU362
 1231 0590 344A     		ldr	r2, .L463+56
 1232 0592 4FF48061 		mov	r1, #1024
 1233              	.LVL113:
 198:Drivers/STM32F4xx_HAL_Driver/Src/stm32f4xx_hal_dma_ex.c ****     __HAL_DMA_CLEAR_FLAG (hdma, __HAL_DMA_GET_DME_FLAG_INDEX(hdma));
 1234              		.loc 1 198 5 view .LVU363
 1235 0596 9C42     		cmp	r4, r3
 197:Drivers/STM32F4xx_HAL_Driver/Src/stm32f4xx_hal_dma_ex.c ****     __HAL_DMA_CLEAR_FLAG (hdma, __HAL_DMA_GET_TE_FLAG_INDEX(hdma));
 1236              		.loc 1 197 5 view .LVU364
 1237 0598 D160     		str	r1, [r2, #12]
 198:Drivers/STM32F4xx_HAL_Driver/Src/stm32f4xx_hal_dma_ex.c ****     __HAL_DMA_CLEAR_FLAG (hdma, __HAL_DMA_GET_DME_FLAG_INDEX(hdma));
 1238              		.loc 1 198 5 is_stmt 1 view .LVU365
 1239 059a 00F03082 		beq	.L438
 1240              	.L65:
 1241 059e 2F4B     		ldr	r3, .L463+48
 1242 05a0 4FF40072 		mov	r2, #512
 1243 05a4 DA60     		str	r2, [r3, #12]
 199:Drivers/STM32F4xx_HAL_Driver/Src/stm32f4xx_hal_dma_ex.c ****     __HAL_DMA_CLEAR_FLAG (hdma, __HAL_DMA_GET_FE_FLAG_INDEX(hdma));
 1244              		.loc 1 199 5 view .LVU366
 1245              	.L111:
 1246 05a6 2D4B     		ldr	r3, .L463+48
 1247 05a8 4FF48072 		mov	r2, #256
 1248 05ac DA60     		str	r2, [r3, #12]
ARM GAS  C:\Users\pw705\AppData\Local\Temp\ccthnice.s 			page 34


 200:Drivers/STM32F4xx_HAL_Driver/Src/stm32f4xx_hal_dma_ex.c **** 
 1249              		.loc 1 200 5 view .LVU367
 1250              	.L207:
 1251 05ae 4022     		movs	r2, #64
 1252 05b0 AEE6     		b	.L298
 1253              	.L403:
 198:Drivers/STM32F4xx_HAL_Driver/Src/stm32f4xx_hal_dma_ex.c ****     __HAL_DMA_CLEAR_FLAG (hdma, __HAL_DMA_GET_DME_FLAG_INDEX(hdma));
 1254              		.loc 1 198 5 is_stmt 0 view .LVU368
 1255 05b2 2C4B     		ldr	r3, .L463+56
 1256 05b4 0822     		movs	r2, #8
 1257 05b6 9A60     		str	r2, [r3, #8]
 199:Drivers/STM32F4xx_HAL_Driver/Src/stm32f4xx_hal_dma_ex.c ****     __HAL_DMA_CLEAR_FLAG (hdma, __HAL_DMA_GET_FE_FLAG_INDEX(hdma));
 1258              		.loc 1 199 5 is_stmt 1 view .LVU369
 1259 05b8 5CE7     		b	.L138
 1260              	.LVL114:
 1261              	.L425:
 196:Drivers/STM32F4xx_HAL_Driver/Src/stm32f4xx_hal_dma_ex.c ****     __HAL_DMA_CLEAR_FLAG (hdma, __HAL_DMA_GET_HT_FLAG_INDEX(hdma));
 1262              		.loc 1 196 5 is_stmt 0 view .LVU370
 1263 05ba A3F58E63 		sub	r3, r3, #1136
 1264 05be 2022     		movs	r2, #32
 1265              	.LVL115:
 196:Drivers/STM32F4xx_HAL_Driver/Src/stm32f4xx_hal_dma_ex.c ****     __HAL_DMA_CLEAR_FLAG (hdma, __HAL_DMA_GET_HT_FLAG_INDEX(hdma));
 1266              		.loc 1 196 5 view .LVU371
 1267 05c0 9A60     		str	r2, [r3, #8]
 1268              	.LVL116:
 197:Drivers/STM32F4xx_HAL_Driver/Src/stm32f4xx_hal_dma_ex.c ****     __HAL_DMA_CLEAR_FLAG (hdma, __HAL_DMA_GET_TE_FLAG_INDEX(hdma));
 1269              		.loc 1 197 5 is_stmt 1 view .LVU372
 1270 05c2 B6E7     		b	.L67
 1271              	.LVL117:
 1272              	.L407:
 196:Drivers/STM32F4xx_HAL_Driver/Src/stm32f4xx_hal_dma_ex.c ****     __HAL_DMA_CLEAR_FLAG (hdma, __HAL_DMA_GET_HT_FLAG_INDEX(hdma));
 1273              		.loc 1 196 5 is_stmt 0 view .LVU373
 1274 05c4 A3F58E63 		sub	r3, r3, #1136
 1275 05c8 2022     		movs	r2, #32
 1276              	.LVL118:
 196:Drivers/STM32F4xx_HAL_Driver/Src/stm32f4xx_hal_dma_ex.c ****     __HAL_DMA_CLEAR_FLAG (hdma, __HAL_DMA_GET_HT_FLAG_INDEX(hdma));
 1277              		.loc 1 196 5 view .LVU374
 1278 05ca DA60     		str	r2, [r3, #12]
 1279              	.LVL119:
 197:Drivers/STM32F4xx_HAL_Driver/Src/stm32f4xx_hal_dma_ex.c ****     __HAL_DMA_CLEAR_FLAG (hdma, __HAL_DMA_GET_TE_FLAG_INDEX(hdma));
 1280              		.loc 1 197 5 is_stmt 1 view .LVU375
 1281 05cc B1E7     		b	.L67
 1282              	.LVL120:
 1283              	.L56:
 196:Drivers/STM32F4xx_HAL_Driver/Src/stm32f4xx_hal_dma_ex.c ****     __HAL_DMA_CLEAR_FLAG (hdma, __HAL_DMA_GET_HT_FLAG_INDEX(hdma));
 1284              		.loc 1 196 5 is_stmt 0 view .LVU376
 1285 05ce 254B     		ldr	r3, .L463+56
 1286 05d0 4FF40061 		mov	r1, #2048
 1287              	.LVL121:
 197:Drivers/STM32F4xx_HAL_Driver/Src/stm32f4xx_hal_dma_ex.c ****     __HAL_DMA_CLEAR_FLAG (hdma, __HAL_DMA_GET_TE_FLAG_INDEX(hdma));
 1288              		.loc 1 197 5 view .LVU377
 1289 05d4 4FF48062 		mov	r2, #1024
 1290              	.LVL122:
 196:Drivers/STM32F4xx_HAL_Driver/Src/stm32f4xx_hal_dma_ex.c ****     __HAL_DMA_CLEAR_FLAG (hdma, __HAL_DMA_GET_HT_FLAG_INDEX(hdma));
 1291              		.loc 1 196 5 view .LVU378
 1292 05d8 9960     		str	r1, [r3, #8]
 1293              	.LVL123:
ARM GAS  C:\Users\pw705\AppData\Local\Temp\ccthnice.s 			page 35


 197:Drivers/STM32F4xx_HAL_Driver/Src/stm32f4xx_hal_dma_ex.c ****     __HAL_DMA_CLEAR_FLAG (hdma, __HAL_DMA_GET_TE_FLAG_INDEX(hdma));
 1294              		.loc 1 197 5 is_stmt 1 view .LVU379
 1295 05da 9A60     		str	r2, [r3, #8]
 198:Drivers/STM32F4xx_HAL_Driver/Src/stm32f4xx_hal_dma_ex.c ****     __HAL_DMA_CLEAR_FLAG (hdma, __HAL_DMA_GET_DME_FLAG_INDEX(hdma));
 1296              		.loc 1 198 5 view .LVU380
 1297 05dc 4FF40071 		mov	r1, #512
 199:Drivers/STM32F4xx_HAL_Driver/Src/stm32f4xx_hal_dma_ex.c ****     __HAL_DMA_CLEAR_FLAG (hdma, __HAL_DMA_GET_FE_FLAG_INDEX(hdma));
 1298              		.loc 1 199 5 is_stmt 0 view .LVU381
 1299 05e0 4FF48072 		mov	r2, #256
 198:Drivers/STM32F4xx_HAL_Driver/Src/stm32f4xx_hal_dma_ex.c ****     __HAL_DMA_CLEAR_FLAG (hdma, __HAL_DMA_GET_DME_FLAG_INDEX(hdma));
 1300              		.loc 1 198 5 view .LVU382
 1301 05e4 9960     		str	r1, [r3, #8]
 199:Drivers/STM32F4xx_HAL_Driver/Src/stm32f4xx_hal_dma_ex.c ****     __HAL_DMA_CLEAR_FLAG (hdma, __HAL_DMA_GET_FE_FLAG_INDEX(hdma));
 1302              		.loc 1 199 5 is_stmt 1 view .LVU383
 1303 05e6 9A60     		str	r2, [r3, #8]
 200:Drivers/STM32F4xx_HAL_Driver/Src/stm32f4xx_hal_dma_ex.c **** 
 1304              		.loc 1 200 5 view .LVU384
 1305 05e8 B6E7     		b	.L71
 1306              	.LVL124:
 1307              	.L395:
 196:Drivers/STM32F4xx_HAL_Driver/Src/stm32f4xx_hal_dma_ex.c ****     __HAL_DMA_CLEAR_FLAG (hdma, __HAL_DMA_GET_HT_FLAG_INDEX(hdma));
 1308              		.loc 1 196 5 is_stmt 0 view .LVU385
 1309 05ea 4FF40061 		mov	r1, #2048
 1310              	.LVL125:
 197:Drivers/STM32F4xx_HAL_Driver/Src/stm32f4xx_hal_dma_ex.c ****     __HAL_DMA_CLEAR_FLAG (hdma, __HAL_DMA_GET_TE_FLAG_INDEX(hdma));
 1311              		.loc 1 197 5 view .LVU386
 1312 05ee 4FF48062 		mov	r2, #1024
 1313              	.LVL126:
 196:Drivers/STM32F4xx_HAL_Driver/Src/stm32f4xx_hal_dma_ex.c ****     __HAL_DMA_CLEAR_FLAG (hdma, __HAL_DMA_GET_HT_FLAG_INDEX(hdma));
 1314              		.loc 1 196 5 view .LVU387
 1315 05f2 43F87C1C 		str	r1, [r3, #-124]
 1316              	.LVL127:
 197:Drivers/STM32F4xx_HAL_Driver/Src/stm32f4xx_hal_dma_ex.c ****     __HAL_DMA_CLEAR_FLAG (hdma, __HAL_DMA_GET_TE_FLAG_INDEX(hdma));
 1317              		.loc 1 197 5 is_stmt 1 view .LVU388
 1318 05f6 43F87C2C 		str	r2, [r3, #-124]
 198:Drivers/STM32F4xx_HAL_Driver/Src/stm32f4xx_hal_dma_ex.c ****     __HAL_DMA_CLEAR_FLAG (hdma, __HAL_DMA_GET_DME_FLAG_INDEX(hdma));
 1319              		.loc 1 198 5 view .LVU389
 1320              	.L373:
 1321 05fa 4FF40071 		mov	r1, #512
 199:Drivers/STM32F4xx_HAL_Driver/Src/stm32f4xx_hal_dma_ex.c ****     __HAL_DMA_CLEAR_FLAG (hdma, __HAL_DMA_GET_FE_FLAG_INDEX(hdma));
 1322              		.loc 1 199 5 is_stmt 0 view .LVU390
 1323 05fe 4FF48072 		mov	r2, #256
 198:Drivers/STM32F4xx_HAL_Driver/Src/stm32f4xx_hal_dma_ex.c ****     __HAL_DMA_CLEAR_FLAG (hdma, __HAL_DMA_GET_DME_FLAG_INDEX(hdma));
 1324              		.loc 1 198 5 view .LVU391
 1325 0602 43F87C1C 		str	r1, [r3, #-124]
 199:Drivers/STM32F4xx_HAL_Driver/Src/stm32f4xx_hal_dma_ex.c ****     __HAL_DMA_CLEAR_FLAG (hdma, __HAL_DMA_GET_FE_FLAG_INDEX(hdma));
 1326              		.loc 1 199 5 is_stmt 1 view .LVU392
 1327 0606 43F87C2C 		str	r2, [r3, #-124]
 200:Drivers/STM32F4xx_HAL_Driver/Src/stm32f4xx_hal_dma_ex.c **** 
 1328              		.loc 1 200 5 view .LVU393
 1329              	.L38:
 1330 060a 4022     		movs	r2, #64
 1331 060c 92E5     		b	.L290
 1332              	.LVL128:
 1333              	.L426:
 196:Drivers/STM32F4xx_HAL_Driver/Src/stm32f4xx_hal_dma_ex.c ****     __HAL_DMA_CLEAR_FLAG (hdma, __HAL_DMA_GET_HT_FLAG_INDEX(hdma));
 1334              		.loc 1 196 5 is_stmt 0 view .LVU394
ARM GAS  C:\Users\pw705\AppData\Local\Temp\ccthnice.s 			page 36


 1335 060e 4FF40061 		mov	r1, #2048
 1336              	.LVL129:
 197:Drivers/STM32F4xx_HAL_Driver/Src/stm32f4xx_hal_dma_ex.c ****     __HAL_DMA_CLEAR_FLAG (hdma, __HAL_DMA_GET_TE_FLAG_INDEX(hdma));
 1337              		.loc 1 197 5 view .LVU395
 1338 0612 4FF48062 		mov	r2, #1024
 1339              	.LVL130:
 196:Drivers/STM32F4xx_HAL_Driver/Src/stm32f4xx_hal_dma_ex.c ****     __HAL_DMA_CLEAR_FLAG (hdma, __HAL_DMA_GET_HT_FLAG_INDEX(hdma));
 1340              		.loc 1 196 5 view .LVU396
 1341 0616 43F8201C 		str	r1, [r3, #-32]
 1342              	.LVL131:
 197:Drivers/STM32F4xx_HAL_Driver/Src/stm32f4xx_hal_dma_ex.c ****     __HAL_DMA_CLEAR_FLAG (hdma, __HAL_DMA_GET_TE_FLAG_INDEX(hdma));
 1343              		.loc 1 197 5 is_stmt 1 view .LVU397
 1344 061a 43F8202C 		str	r2, [r3, #-32]
 198:Drivers/STM32F4xx_HAL_Driver/Src/stm32f4xx_hal_dma_ex.c ****     __HAL_DMA_CLEAR_FLAG (hdma, __HAL_DMA_GET_DME_FLAG_INDEX(hdma));
 1345              		.loc 1 198 5 view .LVU398
 1346 061e 68E7     		b	.L32
 1347              	.LVL132:
 1348              	.L408:
 196:Drivers/STM32F4xx_HAL_Driver/Src/stm32f4xx_hal_dma_ex.c ****     __HAL_DMA_CLEAR_FLAG (hdma, __HAL_DMA_GET_HT_FLAG_INDEX(hdma));
 1349              		.loc 1 196 5 is_stmt 0 view .LVU399
 1350 0620 4FF40062 		mov	r2, #2048
 1351              	.LVL133:
 196:Drivers/STM32F4xx_HAL_Driver/Src/stm32f4xx_hal_dma_ex.c ****     __HAL_DMA_CLEAR_FLAG (hdma, __HAL_DMA_GET_HT_FLAG_INDEX(hdma));
 1352              		.loc 1 196 5 view .LVU400
 1353 0624 43F81C2C 		str	r2, [r3, #-28]
 1354              	.LVL134:
 197:Drivers/STM32F4xx_HAL_Driver/Src/stm32f4xx_hal_dma_ex.c ****     __HAL_DMA_CLEAR_FLAG (hdma, __HAL_DMA_GET_TE_FLAG_INDEX(hdma));
 1355              		.loc 1 197 5 is_stmt 1 view .LVU401
 1356 0628 A8E7     		b	.L66
 1357              	.L464:
 1358 062a 00BF     		.align	2
 1359              	.L463:
 1360 062c 10600240 		.word	1073897488
 1361 0630 10640240 		.word	1073898512
 1362 0634 70600240 		.word	1073897584
 1363 0638 70640240 		.word	1073898608
 1364 063c 28600240 		.word	1073897512
 1365 0640 28640240 		.word	1073898536
 1366 0644 88640240 		.word	1073898632
 1367 0648 40600240 		.word	1073897536
 1368 064c 40640240 		.word	1073898560
 1369 0650 A0600240 		.word	1073897632
 1370 0654 A0640240 		.word	1073898656
 1371 0658 88600240 		.word	1073897608
 1372 065c 00600240 		.word	1073897472
 1373 0660 58600240 		.word	1073897560
 1374 0664 00640240 		.word	1073898496
 1375              	.LVL135:
 1376              	.L396:
 196:Drivers/STM32F4xx_HAL_Driver/Src/stm32f4xx_hal_dma_ex.c ****     __HAL_DMA_CLEAR_FLAG (hdma, __HAL_DMA_GET_HT_FLAG_INDEX(hdma));
 1377              		.loc 1 196 5 is_stmt 0 view .LVU402
 1378 0668 4FF40012 		mov	r2, #2097152
 1379              	.LVL136:
 196:Drivers/STM32F4xx_HAL_Driver/Src/stm32f4xx_hal_dma_ex.c ****     __HAL_DMA_CLEAR_FLAG (hdma, __HAL_DMA_GET_HT_FLAG_INDEX(hdma));
 1380              		.loc 1 196 5 view .LVU403
 1381 066c C3F8CC23 		str	r2, [r3, #972]
 1382              	.LVL137:
ARM GAS  C:\Users\pw705\AppData\Local\Temp\ccthnice.s 			page 37


 197:Drivers/STM32F4xx_HAL_Driver/Src/stm32f4xx_hal_dma_ex.c ****     __HAL_DMA_CLEAR_FLAG (hdma, __HAL_DMA_GET_TE_FLAG_INDEX(hdma));
 1383              		.loc 1 197 5 is_stmt 1 view .LVU404
 1384              	.L40:
 197:Drivers/STM32F4xx_HAL_Driver/Src/stm32f4xx_hal_dma_ex.c ****     __HAL_DMA_CLEAR_FLAG (hdma, __HAL_DMA_GET_TE_FLAG_INDEX(hdma));
 1385              		.loc 1 197 5 is_stmt 0 discriminator 17 view .LVU405
 1386 0670 9A4B     		ldr	r3, .L465
 1387 0672 9C42     		cmp	r4, r3
 1388 0674 00F00C81 		beq	.L439
 1389              	.L110:
 197:Drivers/STM32F4xx_HAL_Driver/Src/stm32f4xx_hal_dma_ex.c ****     __HAL_DMA_CLEAR_FLAG (hdma, __HAL_DMA_GET_TE_FLAG_INDEX(hdma));
 1390              		.loc 1 197 5 discriminator 19 view .LVU406
 1391 0678 994B     		ldr	r3, .L465+4
 1392 067a 9C42     		cmp	r4, r3
 1393 067c 7FF430AD 		bne	.L46
 197:Drivers/STM32F4xx_HAL_Driver/Src/stm32f4xx_hal_dma_ex.c ****     __HAL_DMA_CLEAR_FLAG (hdma, __HAL_DMA_GET_TE_FLAG_INDEX(hdma));
 1394              		.loc 1 197 5 view .LVU407
 1395 0680 984B     		ldr	r3, .L465+8
 1396 0682 4FF48012 		mov	r2, #1048576
 1397 0686 DA60     		str	r2, [r3, #12]
 198:Drivers/STM32F4xx_HAL_Driver/Src/stm32f4xx_hal_dma_ex.c ****     __HAL_DMA_CLEAR_FLAG (hdma, __HAL_DMA_GET_DME_FLAG_INDEX(hdma));
 1398              		.loc 1 198 5 is_stmt 1 view .LVU408
 1399              	.LVL138:
 1400              	.L114:
 198:Drivers/STM32F4xx_HAL_Driver/Src/stm32f4xx_hal_dma_ex.c ****     __HAL_DMA_CLEAR_FLAG (hdma, __HAL_DMA_GET_DME_FLAG_INDEX(hdma));
 1401              		.loc 1 198 5 is_stmt 0 discriminator 67 view .LVU409
 1402 0688 944B     		ldr	r3, .L465
 1403 068a 9C42     		cmp	r4, r3
 1404 068c 00F0FD81 		beq	.L132
 1405              	.L68:
 198:Drivers/STM32F4xx_HAL_Driver/Src/stm32f4xx_hal_dma_ex.c ****     __HAL_DMA_CLEAR_FLAG (hdma, __HAL_DMA_GET_DME_FLAG_INDEX(hdma));
 1406              		.loc 1 198 5 discriminator 69 view .LVU410
 1407 0690 934B     		ldr	r3, .L465+4
 1408 0692 9C42     		cmp	r4, r3
 1409 0694 00F07282 		beq	.L103
 1410              	.L127:
 198:Drivers/STM32F4xx_HAL_Driver/Src/stm32f4xx_hal_dma_ex.c ****     __HAL_DMA_CLEAR_FLAG (hdma, __HAL_DMA_GET_DME_FLAG_INDEX(hdma));
 1411              		.loc 1 198 5 discriminator 71 view .LVU411
 1412 0698 934B     		ldr	r3, .L465+12
 1413 069a 9C42     		cmp	r4, r3
 1414 069c 00F01084 		beq	.L174
 198:Drivers/STM32F4xx_HAL_Driver/Src/stm32f4xx_hal_dma_ex.c ****     __HAL_DMA_CLEAR_FLAG (hdma, __HAL_DMA_GET_DME_FLAG_INDEX(hdma));
 1415              		.loc 1 198 5 discriminator 73 view .LVU412
 1416 06a0 03F58063 		add	r3, r3, #1024
 1417 06a4 9C42     		cmp	r4, r3
 1418 06a6 00F03984 		beq	.L440
 199:Drivers/STM32F4xx_HAL_Driver/Src/stm32f4xx_hal_dma_ex.c ****     __HAL_DMA_CLEAR_FLAG (hdma, __HAL_DMA_GET_FE_FLAG_INDEX(hdma));
 1419              		.loc 1 199 5 view .LVU413
 1420 06aa 904A     		ldr	r2, .L465+16
 198:Drivers/STM32F4xx_HAL_Driver/Src/stm32f4xx_hal_dma_ex.c ****     __HAL_DMA_CLEAR_FLAG (hdma, __HAL_DMA_GET_DME_FLAG_INDEX(hdma));
 1421              		.loc 1 198 5 view .LVU414
 1422 06ac 8D4B     		ldr	r3, .L465+8
 1423 06ae 4FF00071 		mov	r1, #33554432
 199:Drivers/STM32F4xx_HAL_Driver/Src/stm32f4xx_hal_dma_ex.c ****     __HAL_DMA_CLEAR_FLAG (hdma, __HAL_DMA_GET_FE_FLAG_INDEX(hdma));
 1424              		.loc 1 199 5 view .LVU415
 1425 06b2 9442     		cmp	r4, r2
 198:Drivers/STM32F4xx_HAL_Driver/Src/stm32f4xx_hal_dma_ex.c ****     __HAL_DMA_CLEAR_FLAG (hdma, __HAL_DMA_GET_DME_FLAG_INDEX(hdma));
 1426              		.loc 1 198 5 view .LVU416
ARM GAS  C:\Users\pw705\AppData\Local\Temp\ccthnice.s 			page 38


 1427 06b4 9960     		str	r1, [r3, #8]
 199:Drivers/STM32F4xx_HAL_Driver/Src/stm32f4xx_hal_dma_ex.c ****     __HAL_DMA_CLEAR_FLAG (hdma, __HAL_DMA_GET_FE_FLAG_INDEX(hdma));
 1428              		.loc 1 199 5 is_stmt 1 view .LVU417
 1429 06b6 00F2A783 		bhi	.L177
 1430 06ba A3F55273 		sub	r3, r3, #840
 1431 06be 9C42     		cmp	r4, r3
 1432 06c0 40F2A680 		bls	.L178
 1433              	.L198:
 1434 06c4 8A4B     		ldr	r3, .L465+20
 1435 06c6 9C42     		cmp	r4, r3
 1436 06c8 3FF499AD 		beq	.L164
 199:Drivers/STM32F4xx_HAL_Driver/Src/stm32f4xx_hal_dma_ex.c ****     __HAL_DMA_CLEAR_FLAG (hdma, __HAL_DMA_GET_FE_FLAG_INDEX(hdma));
 1437              		.loc 1 199 5 is_stmt 0 discriminator 55 view .LVU418
 1438 06cc 894B     		ldr	r3, .L465+24
 1439 06ce 9C42     		cmp	r4, r3
 1440 06d0 00F0D580 		beq	.L441
 199:Drivers/STM32F4xx_HAL_Driver/Src/stm32f4xx_hal_dma_ex.c ****     __HAL_DMA_CLEAR_FLAG (hdma, __HAL_DMA_GET_FE_FLAG_INDEX(hdma));
 1441              		.loc 1 199 5 view .LVU419
 1442 06d4 884B     		ldr	r3, .L465+28
 1443 06d6 9C42     		cmp	r4, r3
 1444 06d8 00F0CD80 		beq	.L442
 199:Drivers/STM32F4xx_HAL_Driver/Src/stm32f4xx_hal_dma_ex.c ****     __HAL_DMA_CLEAR_FLAG (hdma, __HAL_DMA_GET_FE_FLAG_INDEX(hdma));
 1445              		.loc 1 199 5 discriminator 59 view .LVU420
 1446 06dc 874B     		ldr	r3, .L465+32
 1447 06de 9C42     		cmp	r4, r3
 1448 06e0 00F0D180 		beq	.L250
 1449              	.L184:
 199:Drivers/STM32F4xx_HAL_Driver/Src/stm32f4xx_hal_dma_ex.c ****     __HAL_DMA_CLEAR_FLAG (hdma, __HAL_DMA_GET_FE_FLAG_INDEX(hdma));
 1450              		.loc 1 199 5 discriminator 61 view .LVU421
 1451 06e4 864B     		ldr	r3, .L465+36
 1452 06e6 9C42     		cmp	r4, r3
 1453 06e8 00F0B081 		beq	.L183
 199:Drivers/STM32F4xx_HAL_Driver/Src/stm32f4xx_hal_dma_ex.c ****     __HAL_DMA_CLEAR_FLAG (hdma, __HAL_DMA_GET_FE_FLAG_INDEX(hdma));
 1454              		.loc 1 199 5 discriminator 63 view .LVU422
 1455 06ec A3F56873 		sub	r3, r3, #928
 1456 06f0 9C42     		cmp	r4, r3
 1457 06f2 00F0B981 		beq	.L251
 199:Drivers/STM32F4xx_HAL_Driver/Src/stm32f4xx_hal_dma_ex.c ****     __HAL_DMA_CLEAR_FLAG (hdma, __HAL_DMA_GET_FE_FLAG_INDEX(hdma));
 1458              		.loc 1 199 5 discriminator 65 view .LVU423
 1459 06f6 03F58063 		add	r3, r3, #1024
 1460 06fa 9C42     		cmp	r4, r3
 1461 06fc 00F09381 		beq	.L443
 199:Drivers/STM32F4xx_HAL_Driver/Src/stm32f4xx_hal_dma_ex.c ****     __HAL_DMA_CLEAR_FLAG (hdma, __HAL_DMA_GET_FE_FLAG_INDEX(hdma));
 1462              		.loc 1 199 5 discriminator 67 view .LVU424
 1463 0700 764B     		ldr	r3, .L465
 1464 0702 9C42     		cmp	r4, r3
 1465 0704 00F04282 		beq	.L173
 1466              	.L190:
 199:Drivers/STM32F4xx_HAL_Driver/Src/stm32f4xx_hal_dma_ex.c ****     __HAL_DMA_CLEAR_FLAG (hdma, __HAL_DMA_GET_FE_FLAG_INDEX(hdma));
 1467              		.loc 1 199 5 discriminator 69 view .LVU425
 1468 0708 754B     		ldr	r3, .L465+4
 1469 070a 9C42     		cmp	r4, r3
 1470 070c 00F04F83 		beq	.L150
 199:Drivers/STM32F4xx_HAL_Driver/Src/stm32f4xx_hal_dma_ex.c ****     __HAL_DMA_CLEAR_FLAG (hdma, __HAL_DMA_GET_FE_FLAG_INDEX(hdma));
 1471              		.loc 1 199 5 discriminator 71 view .LVU426
 1472 0710 A3F56873 		sub	r3, r3, #928
 1473 0714 9C42     		cmp	r4, r3
ARM GAS  C:\Users\pw705\AppData\Local\Temp\ccthnice.s 			page 39


 1474 0716 00F0CE83 		beq	.L254
 199:Drivers/STM32F4xx_HAL_Driver/Src/stm32f4xx_hal_dma_ex.c ****     __HAL_DMA_CLEAR_FLAG (hdma, __HAL_DMA_GET_FE_FLAG_INDEX(hdma));
 1475              		.loc 1 199 5 discriminator 73 view .LVU427
 1476 071a 03F58063 		add	r3, r3, #1024
 1477 071e 9C42     		cmp	r4, r3
 1478 0720 00F03884 		beq	.L255
 199:Drivers/STM32F4xx_HAL_Driver/Src/stm32f4xx_hal_dma_ex.c ****     __HAL_DMA_CLEAR_FLAG (hdma, __HAL_DMA_GET_FE_FLAG_INDEX(hdma));
 1479              		.loc 1 199 5 view .LVU428
 1480 0724 6F4A     		ldr	r2, .L465+8
 200:Drivers/STM32F4xx_HAL_Driver/Src/stm32f4xx_hal_dma_ex.c **** 
 1481              		.loc 1 200 5 view .LVU429
 1482 0726 483B     		subs	r3, r3, #72
 199:Drivers/STM32F4xx_HAL_Driver/Src/stm32f4xx_hal_dma_ex.c ****     __HAL_DMA_CLEAR_FLAG (hdma, __HAL_DMA_GET_FE_FLAG_INDEX(hdma));
 1483              		.loc 1 199 5 view .LVU430
 1484 0728 4FF08071 		mov	r1, #16777216
 200:Drivers/STM32F4xx_HAL_Driver/Src/stm32f4xx_hal_dma_ex.c **** 
 1485              		.loc 1 200 5 view .LVU431
 1486 072c 9C42     		cmp	r4, r3
 199:Drivers/STM32F4xx_HAL_Driver/Src/stm32f4xx_hal_dma_ex.c ****     __HAL_DMA_CLEAR_FLAG (hdma, __HAL_DMA_GET_FE_FLAG_INDEX(hdma));
 1487              		.loc 1 199 5 view .LVU432
 1488 072e 9160     		str	r1, [r2, #8]
 200:Drivers/STM32F4xx_HAL_Driver/Src/stm32f4xx_hal_dma_ex.c **** 
 1489              		.loc 1 200 5 is_stmt 1 view .LVU433
 1490 0730 36D8     		bhi	.L256
 1491 0732 A3F56873 		sub	r3, r3, #928
 1492 0736 9C42     		cmp	r4, r3
 1493 0738 76D9     		bls	.L257
 1494 073a A83B     		subs	r3, r3, #168
 1495 073c 9C42     		cmp	r4, r3
 1496 073e 3FF461AD 		beq	.L49
 1497              	.L258:
 1498 0742 6C4B     		ldr	r3, .L465+24
 1499 0744 9C42     		cmp	r4, r3
 1500 0746 3FF45DAD 		beq	.L49
 1501 074a 6B4B     		ldr	r3, .L465+28
 1502 074c 9C42     		cmp	r4, r3
 1503 074e 3FF459AD 		beq	.L49
 200:Drivers/STM32F4xx_HAL_Driver/Src/stm32f4xx_hal_dma_ex.c **** 
 1504              		.loc 1 200 5 is_stmt 0 discriminator 59 view .LVU434
 1505 0752 6A4B     		ldr	r3, .L465+32
 1506 0754 9C42     		cmp	r4, r3
 1507 0756 3FF4FFAE 		beq	.L71
 200:Drivers/STM32F4xx_HAL_Driver/Src/stm32f4xx_hal_dma_ex.c **** 
 1508              		.loc 1 200 5 discriminator 61 view .LVU435
 1509 075a 694B     		ldr	r3, .L465+36
 1510 075c 9C42     		cmp	r4, r3
 1511 075e 3FF4FBAE 		beq	.L71
 200:Drivers/STM32F4xx_HAL_Driver/Src/stm32f4xx_hal_dma_ex.c **** 
 1512              		.loc 1 200 5 discriminator 63 view .LVU436
 1513 0762 A3F56873 		sub	r3, r3, #928
 1514 0766 9C42     		cmp	r4, r3
 1515 0768 3FF4F6AE 		beq	.L71
 200:Drivers/STM32F4xx_HAL_Driver/Src/stm32f4xx_hal_dma_ex.c **** 
 1516              		.loc 1 200 5 discriminator 65 view .LVU437
 1517 076c 03F58063 		add	r3, r3, #1024
 1518 0770 9C42     		cmp	r4, r3
 1519 0772 3FF4F1AE 		beq	.L71
ARM GAS  C:\Users\pw705\AppData\Local\Temp\ccthnice.s 			page 40


 200:Drivers/STM32F4xx_HAL_Driver/Src/stm32f4xx_hal_dma_ex.c **** 
 1520              		.loc 1 200 5 discriminator 67 view .LVU438
 1521 0776 A3F58963 		sub	r3, r3, #1096
 1522 077a 9C42     		cmp	r4, r3
 1523 077c 00F0AC82 		beq	.L246
 1524              	.L269:
 200:Drivers/STM32F4xx_HAL_Driver/Src/stm32f4xx_hal_dma_ex.c **** 
 1525              		.loc 1 200 5 discriminator 69 view .LVU439
 1526 0780 574B     		ldr	r3, .L465+4
 1527 0782 9C42     		cmp	r4, r3
 1528 0784 00F0A882 		beq	.L246
 200:Drivers/STM32F4xx_HAL_Driver/Src/stm32f4xx_hal_dma_ex.c **** 
 1529              		.loc 1 200 5 discriminator 71 view .LVU440
 1530 0788 574B     		ldr	r3, .L465+12
 1531 078a 9C42     		cmp	r4, r3
 1532 078c 00F0A482 		beq	.L246
 200:Drivers/STM32F4xx_HAL_Driver/Src/stm32f4xx_hal_dma_ex.c **** 
 1533              		.loc 1 200 5 discriminator 73 view .LVU441
 1534 0790 03F58063 		add	r3, r3, #1024
 1535 0794 9C42     		cmp	r4, r3
 1536 0796 00F09F82 		beq	.L246
 200:Drivers/STM32F4xx_HAL_Driver/Src/stm32f4xx_hal_dma_ex.c **** 
 1537              		.loc 1 200 5 view .LVU442
 1538 079a 4FF48002 		mov	r2, #4194304
 1539 079e 32E5     		b	.L294
 1540              	.L256:
 1541 07a0 584B     		ldr	r3, .L465+40
 1542 07a2 9C42     		cmp	r4, r3
 1543 07a4 3FF4C5AC 		beq	.L239
 200:Drivers/STM32F4xx_HAL_Driver/Src/stm32f4xx_hal_dma_ex.c **** 
 1544              		.loc 1 200 5 discriminator 3 view .LVU443
 1545 07a8 03F58063 		add	r3, r3, #1024
 1546 07ac 9C42     		cmp	r4, r3
 1547 07ae 3FF4C0AC 		beq	.L239
 200:Drivers/STM32F4xx_HAL_Driver/Src/stm32f4xx_hal_dma_ex.c **** 
 1548              		.loc 1 200 5 discriminator 5 view .LVU444
 1549 07b2 A3F56873 		sub	r3, r3, #928
 1550 07b6 9C42     		cmp	r4, r3
 1551 07b8 3FF4BBAC 		beq	.L239
 1552              	.L289:
 200:Drivers/STM32F4xx_HAL_Driver/Src/stm32f4xx_hal_dma_ex.c **** 
 1553              		.loc 1 200 5 view .LVU445
 1554 07bc 4E4B     		ldr	r3, .L465+28
 1555 07be 9C42     		cmp	r4, r3
 1556 07c0 3FF4B7AC 		beq	.L239
 1557 07c4 4D4B     		ldr	r3, .L465+32
 1558 07c6 9C42     		cmp	r4, r3
 1559 07c8 3FF41FAF 		beq	.L38
 200:Drivers/STM32F4xx_HAL_Driver/Src/stm32f4xx_hal_dma_ex.c **** 
 1560              		.loc 1 200 5 discriminator 11 view .LVU446
 1561 07cc 4C4B     		ldr	r3, .L465+36
 1562 07ce 9C42     		cmp	r4, r3
 1563 07d0 3FF41BAF 		beq	.L38
 200:Drivers/STM32F4xx_HAL_Driver/Src/stm32f4xx_hal_dma_ex.c **** 
 1564              		.loc 1 200 5 view .LVU447
 1565 07d4 4C4B     		ldr	r3, .L465+44
 1566 07d6 9C42     		cmp	r4, r3
ARM GAS  C:\Users\pw705\AppData\Local\Temp\ccthnice.s 			page 41


 1567 07d8 3FF417AF 		beq	.L38
 1568              	.L266:
 200:Drivers/STM32F4xx_HAL_Driver/Src/stm32f4xx_hal_dma_ex.c **** 
 1569              		.loc 1 200 5 discriminator 15 view .LVU448
 1570 07dc 4B4B     		ldr	r3, .L465+48
 1571 07de 9C42     		cmp	r4, r3
 1572 07e0 3FF413AF 		beq	.L38
 200:Drivers/STM32F4xx_HAL_Driver/Src/stm32f4xx_hal_dma_ex.c **** 
 1573              		.loc 1 200 5 discriminator 17 view .LVU449
 1574 07e4 A3F58963 		sub	r3, r3, #1096
 1575 07e8 9C42     		cmp	r4, r3
 1576 07ea 0ED0     		beq	.L244
 200:Drivers/STM32F4xx_HAL_Driver/Src/stm32f4xx_hal_dma_ex.c **** 
 1577              		.loc 1 200 5 discriminator 19 view .LVU450
 1578 07ec 03F58063 		add	r3, r3, #1024
 1579 07f0 9C42     		cmp	r4, r3
 1580 07f2 0AD0     		beq	.L244
 1581              	.L282:
 200:Drivers/STM32F4xx_HAL_Driver/Src/stm32f4xx_hal_dma_ex.c **** 
 1582              		.loc 1 200 5 discriminator 21 view .LVU451
 1583 07f4 3C4B     		ldr	r3, .L465+12
 1584 07f6 9C42     		cmp	r4, r3
 1585 07f8 07D0     		beq	.L244
 200:Drivers/STM32F4xx_HAL_Driver/Src/stm32f4xx_hal_dma_ex.c **** 
 1586              		.loc 1 200 5 discriminator 23 view .LVU452
 1587 07fa 03F58063 		add	r3, r3, #1024
 1588 07fe 9C42     		cmp	r4, r3
 1589 0800 18BF     		it	ne
 1590 0802 4FF48002 		movne	r2, #4194304
 1591 0806 7FF495AC 		bne	.L290
 1592              	.L244:
 200:Drivers/STM32F4xx_HAL_Driver/Src/stm32f4xx_hal_dma_ex.c **** 
 1593              		.loc 1 200 5 view .LVU453
 1594 080a 4FF48032 		mov	r2, #65536
 1595 080e 91E4     		b	.L290
 1596              	.L178:
 199:Drivers/STM32F4xx_HAL_Driver/Src/stm32f4xx_hal_dma_ex.c ****     __HAL_DMA_CLEAR_FLAG (hdma, __HAL_DMA_GET_FE_FLAG_INDEX(hdma));
 1597              		.loc 1 199 5 view .LVU454
 1598 0810 3F4B     		ldr	r3, .L465+52
 1599 0812 9C42     		cmp	r4, r3
 1600 0814 3FF60CAE 		bhi	.L216
 1601              	.L200:
 1602 0818 3A4B     		ldr	r3, .L465+40
 1603 081a 9C42     		cmp	r4, r3
 1604 081c 7FF46EAE 		bne	.L278
 1605              	.L162:
 1606 0820 3C4B     		ldr	r3, .L465+56
 1607 0822 0422     		movs	r2, #4
 1608 0824 9A60     		str	r2, [r3, #8]
 200:Drivers/STM32F4xx_HAL_Driver/Src/stm32f4xx_hal_dma_ex.c **** 
 1609              		.loc 1 200 5 is_stmt 1 view .LVU455
 1610 0826 46E6     		b	.L242
 1611              	.L257:
 1612 0828 394B     		ldr	r3, .L465+52
 1613 082a 9C42     		cmp	r4, r3
 1614 082c 40F29B80 		bls	.L277
 1615              	.L296:
ARM GAS  C:\Users\pw705\AppData\Local\Temp\ccthnice.s 			page 42


 1616 0830 344B     		ldr	r3, .L465+40
 1617 0832 9C42     		cmp	r4, r3
 1618 0834 3FF46BAD 		beq	.L24
 1619              	.L276:
 1620 0838 2D4B     		ldr	r3, .L465+20
 1621 083a 9C42     		cmp	r4, r3
 1622 083c 3FF467AD 		beq	.L24
 1623 0840 2C4B     		ldr	r3, .L465+24
 1624 0842 9C42     		cmp	r4, r3
 1625 0844 3FF463AD 		beq	.L24
 1626 0848 2B4B     		ldr	r3, .L465+28
 1627 084a 9C42     		cmp	r4, r3
 1628 084c 3FF45FAD 		beq	.L24
 200:Drivers/STM32F4xx_HAL_Driver/Src/stm32f4xx_hal_dma_ex.c **** 
 1629              		.loc 1 200 5 is_stmt 0 discriminator 110 view .LVU456
 1630 0850 2A4B     		ldr	r3, .L465+32
 1631 0852 9C42     		cmp	r4, r3
 1632 0854 3FF4ABAE 		beq	.L207
 200:Drivers/STM32F4xx_HAL_Driver/Src/stm32f4xx_hal_dma_ex.c **** 
 1633              		.loc 1 200 5 discriminator 112 view .LVU457
 1634 0858 294B     		ldr	r3, .L465+36
 1635 085a 9C42     		cmp	r4, r3
 1636 085c 3FF4A7AE 		beq	.L207
 200:Drivers/STM32F4xx_HAL_Driver/Src/stm32f4xx_hal_dma_ex.c **** 
 1637              		.loc 1 200 5 discriminator 114 view .LVU458
 1638 0860 A3F56873 		sub	r3, r3, #928
 1639 0864 9C42     		cmp	r4, r3
 1640 0866 3FF4A2AE 		beq	.L207
 200:Drivers/STM32F4xx_HAL_Driver/Src/stm32f4xx_hal_dma_ex.c **** 
 1641              		.loc 1 200 5 discriminator 116 view .LVU459
 1642 086a 03F58063 		add	r3, r3, #1024
 1643 086e 9C42     		cmp	r4, r3
 1644 0870 40F06983 		bne	.L283
 1645 0874 9BE6     		b	.L207
 1646              	.L442:
 199:Drivers/STM32F4xx_HAL_Driver/Src/stm32f4xx_hal_dma_ex.c ****     __HAL_DMA_CLEAR_FLAG (hdma, __HAL_DMA_GET_FE_FLAG_INDEX(hdma));
 1647              		.loc 1 199 5 view .LVU460
 1648 0876 1B4B     		ldr	r3, .L465+8
 1649 0878 0422     		movs	r2, #4
 1650 087a 9A60     		str	r2, [r3, #8]
 200:Drivers/STM32F4xx_HAL_Driver/Src/stm32f4xx_hal_dma_ex.c **** 
 1651              		.loc 1 200 5 is_stmt 1 view .LVU461
 1652 087c 59E4     		b	.L239
 1653              	.L441:
 199:Drivers/STM32F4xx_HAL_Driver/Src/stm32f4xx_hal_dma_ex.c ****     __HAL_DMA_CLEAR_FLAG (hdma, __HAL_DMA_GET_FE_FLAG_INDEX(hdma));
 1654              		.loc 1 199 5 is_stmt 0 view .LVU462
 1655 087e 194B     		ldr	r3, .L465+8
 1656 0880 0422     		movs	r2, #4
 1657 0882 9A60     		str	r2, [r3, #8]
 200:Drivers/STM32F4xx_HAL_Driver/Src/stm32f4xx_hal_dma_ex.c **** 
 1658              		.loc 1 200 5 is_stmt 1 view .LVU463
 1659 0884 43E5     		b	.L24
 1660              	.L250:
 199:Drivers/STM32F4xx_HAL_Driver/Src/stm32f4xx_hal_dma_ex.c ****     __HAL_DMA_CLEAR_FLAG (hdma, __HAL_DMA_GET_FE_FLAG_INDEX(hdma));
 1661              		.loc 1 199 5 is_stmt 0 view .LVU464
 1662 0886 174B     		ldr	r3, .L465+8
 1663 0888 4FF48072 		mov	r2, #256
ARM GAS  C:\Users\pw705\AppData\Local\Temp\ccthnice.s 			page 43


 1664 088c 9A60     		str	r2, [r3, #8]
 200:Drivers/STM32F4xx_HAL_Driver/Src/stm32f4xx_hal_dma_ex.c **** 
 1665              		.loc 1 200 5 is_stmt 1 view .LVU465
 1666 088e 21E5     		b	.L260
 1667              	.LVL139:
 1668              	.L439:
 197:Drivers/STM32F4xx_HAL_Driver/Src/stm32f4xx_hal_dma_ex.c ****     __HAL_DMA_CLEAR_FLAG (hdma, __HAL_DMA_GET_TE_FLAG_INDEX(hdma));
 1669              		.loc 1 197 5 is_stmt 0 view .LVU466
 1670 0890 4FF48012 		mov	r2, #1048576
 1671 0894 C3F8CC23 		str	r2, [r3, #972]
 198:Drivers/STM32F4xx_HAL_Driver/Src/stm32f4xx_hal_dma_ex.c ****     __HAL_DMA_CLEAR_FLAG (hdma, __HAL_DMA_GET_DME_FLAG_INDEX(hdma));
 1672              		.loc 1 198 5 is_stmt 1 view .LVU467
 1673              	.LVL140:
 1674              	.L70:
 199:Drivers/STM32F4xx_HAL_Driver/Src/stm32f4xx_hal_dma_ex.c ****     __HAL_DMA_CLEAR_FLAG (hdma, __HAL_DMA_GET_FE_FLAG_INDEX(hdma));
 1675              		.loc 1 199 5 is_stmt 0 view .LVU468
 1676 0898 1C4B     		ldr	r3, .L465+48
 198:Drivers/STM32F4xx_HAL_Driver/Src/stm32f4xx_hal_dma_ex.c ****     __HAL_DMA_CLEAR_FLAG (hdma, __HAL_DMA_GET_DME_FLAG_INDEX(hdma));
 1677              		.loc 1 198 5 view .LVU469
 1678 089a 1E4A     		ldr	r2, .L465+56
 1679 089c 4FF40021 		mov	r1, #524288
 199:Drivers/STM32F4xx_HAL_Driver/Src/stm32f4xx_hal_dma_ex.c ****     __HAL_DMA_CLEAR_FLAG (hdma, __HAL_DMA_GET_FE_FLAG_INDEX(hdma));
 1680              		.loc 1 199 5 view .LVU470
 1681 08a0 9C42     		cmp	r4, r3
 198:Drivers/STM32F4xx_HAL_Driver/Src/stm32f4xx_hal_dma_ex.c ****     __HAL_DMA_CLEAR_FLAG (hdma, __HAL_DMA_GET_DME_FLAG_INDEX(hdma));
 1682              		.loc 1 198 5 view .LVU471
 1683 08a2 9160     		str	r1, [r2, #8]
 199:Drivers/STM32F4xx_HAL_Driver/Src/stm32f4xx_hal_dma_ex.c ****     __HAL_DMA_CLEAR_FLAG (hdma, __HAL_DMA_GET_FE_FLAG_INDEX(hdma));
 1684              		.loc 1 199 5 is_stmt 1 view .LVU472
 1685 08a4 00F00181 		beq	.L172
 1686              	.L171:
 200:Drivers/STM32F4xx_HAL_Driver/Src/stm32f4xx_hal_dma_ex.c **** 
 1687              		.loc 1 200 5 is_stmt 0 view .LVU473
 1688 08a8 174B     		ldr	r3, .L465+44
 199:Drivers/STM32F4xx_HAL_Driver/Src/stm32f4xx_hal_dma_ex.c ****     __HAL_DMA_CLEAR_FLAG (hdma, __HAL_DMA_GET_FE_FLAG_INDEX(hdma));
 1689              		.loc 1 199 5 view .LVU474
 1690 08aa 1A4A     		ldr	r2, .L465+56
 1691 08ac 4FF48021 		mov	r1, #262144
 200:Drivers/STM32F4xx_HAL_Driver/Src/stm32f4xx_hal_dma_ex.c **** 
 1692              		.loc 1 200 5 view .LVU475
 1693 08b0 9C42     		cmp	r4, r3
 199:Drivers/STM32F4xx_HAL_Driver/Src/stm32f4xx_hal_dma_ex.c ****     __HAL_DMA_CLEAR_FLAG (hdma, __HAL_DMA_GET_FE_FLAG_INDEX(hdma));
 1694              		.loc 1 199 5 view .LVU476
 1695 08b2 9160     		str	r1, [r2, #8]
 200:Drivers/STM32F4xx_HAL_Driver/Src/stm32f4xx_hal_dma_ex.c **** 
 1696              		.loc 1 200 5 is_stmt 1 view .LVU477
 1697 08b4 3FF40EAD 		beq	.L260
 1698              	.L378:
 1699 08b8 03F58063 		add	r3, r3, #1024
 1700 08bc 9C42     		cmp	r4, r3
 1701 08be 3FF409AD 		beq	.L260
 1702              	.L261:
 1703 08c2 4FF48032 		mov	r2, #65536
 1704 08c6 06E5     		b	.L302
 1705              	.LVL141:
 1706              	.L57:
 196:Drivers/STM32F4xx_HAL_Driver/Src/stm32f4xx_hal_dma_ex.c ****     __HAL_DMA_CLEAR_FLAG (hdma, __HAL_DMA_GET_HT_FLAG_INDEX(hdma));
ARM GAS  C:\Users\pw705\AppData\Local\Temp\ccthnice.s 			page 44


 1707              		.loc 1 196 5 is_stmt 0 view .LVU478
 1708 08c8 064A     		ldr	r2, .L465+8
 1709              	.LVL142:
 197:Drivers/STM32F4xx_HAL_Driver/Src/stm32f4xx_hal_dma_ex.c ****     __HAL_DMA_CLEAR_FLAG (hdma, __HAL_DMA_GET_TE_FLAG_INDEX(hdma));
 1710              		.loc 1 197 5 view .LVU479
 1711 08ca 124B     		ldr	r3, .L465+56
 196:Drivers/STM32F4xx_HAL_Driver/Src/stm32f4xx_hal_dma_ex.c ****     __HAL_DMA_CLEAR_FLAG (hdma, __HAL_DMA_GET_HT_FLAG_INDEX(hdma));
 1712              		.loc 1 196 5 view .LVU480
 1713 08cc 4FF40061 		mov	r1, #2048
 1714              	.LVL143:
 196:Drivers/STM32F4xx_HAL_Driver/Src/stm32f4xx_hal_dma_ex.c ****     __HAL_DMA_CLEAR_FLAG (hdma, __HAL_DMA_GET_HT_FLAG_INDEX(hdma));
 1715              		.loc 1 196 5 view .LVU481
 1716 08d0 9160     		str	r1, [r2, #8]
 1717              	.LVL144:
 197:Drivers/STM32F4xx_HAL_Driver/Src/stm32f4xx_hal_dma_ex.c ****     __HAL_DMA_CLEAR_FLAG (hdma, __HAL_DMA_GET_TE_FLAG_INDEX(hdma));
 1718              		.loc 1 197 5 is_stmt 1 view .LVU482
 1719 08d2 4FF48062 		mov	r2, #1024
 1720 08d6 DA60     		str	r2, [r3, #12]
 198:Drivers/STM32F4xx_HAL_Driver/Src/stm32f4xx_hal_dma_ex.c ****     __HAL_DMA_CLEAR_FLAG (hdma, __HAL_DMA_GET_DME_FLAG_INDEX(hdma));
 1721              		.loc 1 198 5 view .LVU483
 1722 08d8 61E6     		b	.L65
 1723              	.L466:
 1724 08da 00BF     		.align	2
 1725              	.L465:
 1726 08dc 40600240 		.word	1073897536
 1727 08e0 40640240 		.word	1073898560
 1728 08e4 00640240 		.word	1073898496
 1729 08e8 A0600240 		.word	1073897632
 1730 08ec 58640240 		.word	1073898584
 1731 08f0 10640240 		.word	1073898512
 1732 08f4 70600240 		.word	1073897584
 1733 08f8 70640240 		.word	1073898608
 1734 08fc 28600240 		.word	1073897512
 1735 0900 28640240 		.word	1073898536
 1736 0904 10600240 		.word	1073897488
 1737 0908 88600240 		.word	1073897608
 1738 090c 88640240 		.word	1073898632
 1739 0910 58600240 		.word	1073897560
 1740 0914 00600240 		.word	1073897472
 1741              	.L446:
 1742 0918 4FF40022 		mov	r2, #524288
 1743 091c 43F8942C 		str	r2, [r3, #-148]
 199:Drivers/STM32F4xx_HAL_Driver/Src/stm32f4xx_hal_dma_ex.c ****     __HAL_DMA_CLEAR_FLAG (hdma, __HAL_DMA_GET_FE_FLAG_INDEX(hdma));
 1744              		.loc 1 199 5 view .LVU484
 1745              	.L193:
 199:Drivers/STM32F4xx_HAL_Driver/Src/stm32f4xx_hal_dma_ex.c ****     __HAL_DMA_CLEAR_FLAG (hdma, __HAL_DMA_GET_FE_FLAG_INDEX(hdma));
 1746              		.loc 1 199 5 is_stmt 0 discriminator 118 view .LVU485
 1747 0920 B14B     		ldr	r3, .L467
 1748 0922 9C42     		cmp	r4, r3
 1749 0924 00F0B483 		beq	.L444
 1750              	.L267:
 199:Drivers/STM32F4xx_HAL_Driver/Src/stm32f4xx_hal_dma_ex.c ****     __HAL_DMA_CLEAR_FLAG (hdma, __HAL_DMA_GET_FE_FLAG_INDEX(hdma));
 1751              		.loc 1 199 5 discriminator 120 view .LVU486
 1752 0928 B04B     		ldr	r3, .L467+4
 1753 092a 9C42     		cmp	r4, r3
 1754 092c 00F0B583 		beq	.L271
 199:Drivers/STM32F4xx_HAL_Driver/Src/stm32f4xx_hal_dma_ex.c ****     __HAL_DMA_CLEAR_FLAG (hdma, __HAL_DMA_GET_FE_FLAG_INDEX(hdma));
ARM GAS  C:\Users\pw705\AppData\Local\Temp\ccthnice.s 			page 45


 1755              		.loc 1 199 5 discriminator 122 view .LVU487
 1756 0930 A3F56873 		sub	r3, r3, #928
 1757 0934 9C42     		cmp	r4, r3
 1758 0936 00F0B683 		beq	.L272
 199:Drivers/STM32F4xx_HAL_Driver/Src/stm32f4xx_hal_dma_ex.c ****     __HAL_DMA_CLEAR_FLAG (hdma, __HAL_DMA_GET_FE_FLAG_INDEX(hdma));
 1759              		.loc 1 199 5 discriminator 124 view .LVU488
 1760 093a 03F58063 		add	r3, r3, #1024
 1761 093e 9C42     		cmp	r4, r3
 1762 0940 00F0E783 		beq	.L445
 200:Drivers/STM32F4xx_HAL_Driver/Src/stm32f4xx_hal_dma_ex.c **** 
 1763              		.loc 1 200 5 view .LVU489
 1764 0944 AA4B     		ldr	r3, .L467+8
 199:Drivers/STM32F4xx_HAL_Driver/Src/stm32f4xx_hal_dma_ex.c ****     __HAL_DMA_CLEAR_FLAG (hdma, __HAL_DMA_GET_FE_FLAG_INDEX(hdma));
 1765              		.loc 1 199 5 view .LVU490
 1766 0946 AB4A     		ldr	r2, .L467+12
 1767 0948 4FF08071 		mov	r1, #16777216
 200:Drivers/STM32F4xx_HAL_Driver/Src/stm32f4xx_hal_dma_ex.c **** 
 1768              		.loc 1 200 5 view .LVU491
 1769 094c 9C42     		cmp	r4, r3
 199:Drivers/STM32F4xx_HAL_Driver/Src/stm32f4xx_hal_dma_ex.c ****     __HAL_DMA_CLEAR_FLAG (hdma, __HAL_DMA_GET_FE_FLAG_INDEX(hdma));
 1770              		.loc 1 199 5 view .LVU492
 1771 094e D160     		str	r1, [r2, #12]
 200:Drivers/STM32F4xx_HAL_Driver/Src/stm32f4xx_hal_dma_ex.c **** 
 1772              		.loc 1 200 5 is_stmt 1 view .LVU493
 1773 0950 3FF626AF 		bhi	.L256
 1774 0954 A3F56873 		sub	r3, r3, #928
 1775 0958 9C42     		cmp	r4, r3
 1776 095a 00F2AA81 		bhi	.L287
 1777 095e A64B     		ldr	r3, .L467+16
 1778 0960 9C42     		cmp	r4, r3
 1779 0962 3FF669AF 		bhi	.L276
 1780              	.L277:
 1781 0966 A54B     		ldr	r3, .L467+20
 1782 0968 9C42     		cmp	r4, r3
 1783 096a 3FF4A4AD 		beq	.L242
 1784              	.L288:
 1785 096e A44B     		ldr	r3, .L467+24
 1786 0970 9C42     		cmp	r4, r3
 1787 0972 3FF4A0AD 		beq	.L242
 1788 0976 A34B     		ldr	r3, .L467+28
 1789 0978 9C42     		cmp	r4, r3
 1790 097a 3FF49CAD 		beq	.L242
 200:Drivers/STM32F4xx_HAL_Driver/Src/stm32f4xx_hal_dma_ex.c **** 
 1791              		.loc 1 200 5 is_stmt 0 discriminator 157 view .LVU494
 1792 097e A24B     		ldr	r3, .L467+32
 1793 0980 9C42     		cmp	r4, r3
 1794 0982 3FF498AD 		beq	.L242
 200:Drivers/STM32F4xx_HAL_Driver/Src/stm32f4xx_hal_dma_ex.c **** 
 1795              		.loc 1 200 5 discriminator 159 view .LVU495
 1796 0986 A3F58963 		sub	r3, r3, #1096
 1797 098a 9C42     		cmp	r4, r3
 1798 098c 3FF4A2AC 		beq	.L260
 200:Drivers/STM32F4xx_HAL_Driver/Src/stm32f4xx_hal_dma_ex.c **** 
 1799              		.loc 1 200 5 discriminator 161 view .LVU496
 1800 0990 03F58063 		add	r3, r3, #1024
 1801 0994 9C42     		cmp	r4, r3
 1802 0996 3FF49DAC 		beq	.L260
ARM GAS  C:\Users\pw705\AppData\Local\Temp\ccthnice.s 			page 46


 200:Drivers/STM32F4xx_HAL_Driver/Src/stm32f4xx_hal_dma_ex.c **** 
 1803              		.loc 1 200 5 discriminator 163 view .LVU497
 1804 099a A3F56873 		sub	r3, r3, #928
 1805 099e 9C42     		cmp	r4, r3
 1806 09a0 3FF498AC 		beq	.L260
 1807              	.L268:
 200:Drivers/STM32F4xx_HAL_Driver/Src/stm32f4xx_hal_dma_ex.c **** 
 1808              		.loc 1 200 5 discriminator 165 view .LVU498
 1809 09a4 994B     		ldr	r3, .L467+36
 1810 09a6 9C42     		cmp	r4, r3
 1811 09a8 3FF494AC 		beq	.L260
 200:Drivers/STM32F4xx_HAL_Driver/Src/stm32f4xx_hal_dma_ex.c **** 
 1812              		.loc 1 200 5 discriminator 167 view .LVU499
 1813 09ac A3F58963 		sub	r3, r3, #1096
 1814 09b0 9C42     		cmp	r4, r3
 1815 09b2 86D0     		beq	.L261
 200:Drivers/STM32F4xx_HAL_Driver/Src/stm32f4xx_hal_dma_ex.c **** 
 1816              		.loc 1 200 5 discriminator 169 view .LVU500
 1817 09b4 03F58063 		add	r3, r3, #1024
 1818 09b8 9C42     		cmp	r4, r3
 1819 09ba 82D0     		beq	.L261
 200:Drivers/STM32F4xx_HAL_Driver/Src/stm32f4xx_hal_dma_ex.c **** 
 1820              		.loc 1 200 5 discriminator 171 view .LVU501
 1821 09bc 944B     		ldr	r3, .L467+40
 1822 09be 9C42     		cmp	r4, r3
 1823 09c0 3FF47FAF 		beq	.L261
 200:Drivers/STM32F4xx_HAL_Driver/Src/stm32f4xx_hal_dma_ex.c **** 
 1824              		.loc 1 200 5 discriminator 173 view .LVU502
 1825 09c4 03F58063 		add	r3, r3, #1024
 1826 09c8 9C42     		cmp	r4, r3
 1827 09ca 3FF47AAF 		beq	.L261
 200:Drivers/STM32F4xx_HAL_Driver/Src/stm32f4xx_hal_dma_ex.c **** 
 1828              		.loc 1 200 5 view .LVU503
 1829 09ce 4FF48002 		mov	r2, #4194304
 1830 09d2 80E4     		b	.L302
 1831              	.LVL145:
 1832              	.L97:
 196:Drivers/STM32F4xx_HAL_Driver/Src/stm32f4xx_hal_dma_ex.c ****     __HAL_DMA_CLEAR_FLAG (hdma, __HAL_DMA_GET_HT_FLAG_INDEX(hdma));
 1833              		.loc 1 196 5 view .LVU504
 1834 09d4 874A     		ldr	r2, .L467+12
 1835              	.LVL146:
 197:Drivers/STM32F4xx_HAL_Driver/Src/stm32f4xx_hal_dma_ex.c ****     __HAL_DMA_CLEAR_FLAG (hdma, __HAL_DMA_GET_TE_FLAG_INDEX(hdma));
 1836              		.loc 1 197 5 view .LVU505
 1837 09d6 8F4B     		ldr	r3, .L467+44
 196:Drivers/STM32F4xx_HAL_Driver/Src/stm32f4xx_hal_dma_ex.c ****     __HAL_DMA_CLEAR_FLAG (hdma, __HAL_DMA_GET_HT_FLAG_INDEX(hdma));
 1838              		.loc 1 196 5 view .LVU506
 1839 09d8 4FF40061 		mov	r1, #2048
 1840              	.LVL147:
 196:Drivers/STM32F4xx_HAL_Driver/Src/stm32f4xx_hal_dma_ex.c ****     __HAL_DMA_CLEAR_FLAG (hdma, __HAL_DMA_GET_HT_FLAG_INDEX(hdma));
 1841              		.loc 1 196 5 view .LVU507
 1842 09dc 9160     		str	r1, [r2, #8]
 1843              	.LVL148:
 1844              	.L374:
 197:Drivers/STM32F4xx_HAL_Driver/Src/stm32f4xx_hal_dma_ex.c ****     __HAL_DMA_CLEAR_FLAG (hdma, __HAL_DMA_GET_TE_FLAG_INDEX(hdma));
 1845              		.loc 1 197 5 is_stmt 1 view .LVU508
 198:Drivers/STM32F4xx_HAL_Driver/Src/stm32f4xx_hal_dma_ex.c ****     __HAL_DMA_CLEAR_FLAG (hdma, __HAL_DMA_GET_DME_FLAG_INDEX(hdma));
 1846              		.loc 1 198 5 is_stmt 0 view .LVU509
ARM GAS  C:\Users\pw705\AppData\Local\Temp\ccthnice.s 			page 47


 1847 09de 4FF40072 		mov	r2, #512
 197:Drivers/STM32F4xx_HAL_Driver/Src/stm32f4xx_hal_dma_ex.c ****     __HAL_DMA_CLEAR_FLAG (hdma, __HAL_DMA_GET_TE_FLAG_INDEX(hdma));
 1848              		.loc 1 197 5 view .LVU510
 1849 09e2 4FF48061 		mov	r1, #1024
 1850 09e6 9960     		str	r1, [r3, #8]
 198:Drivers/STM32F4xx_HAL_Driver/Src/stm32f4xx_hal_dma_ex.c ****     __HAL_DMA_CLEAR_FLAG (hdma, __HAL_DMA_GET_DME_FLAG_INDEX(hdma));
 1851              		.loc 1 198 5 is_stmt 1 view .LVU511
 1852 09e8 9A60     		str	r2, [r3, #8]
 199:Drivers/STM32F4xx_HAL_Driver/Src/stm32f4xx_hal_dma_ex.c ****     __HAL_DMA_CLEAR_FLAG (hdma, __HAL_DMA_GET_FE_FLAG_INDEX(hdma));
 1853              		.loc 1 199 5 view .LVU512
 1854 09ea 4FF48072 		mov	r2, #256
 1855 09ee 9A60     		str	r2, [r3, #8]
 200:Drivers/STM32F4xx_HAL_Driver/Src/stm32f4xx_hal_dma_ex.c **** 
 1856              		.loc 1 200 5 view .LVU513
 1857 09f0 B2E5     		b	.L71
 1858              	.LVL149:
 1859              	.L79:
 196:Drivers/STM32F4xx_HAL_Driver/Src/stm32f4xx_hal_dma_ex.c ****     __HAL_DMA_CLEAR_FLAG (hdma, __HAL_DMA_GET_HT_FLAG_INDEX(hdma));
 1860              		.loc 1 196 5 is_stmt 0 view .LVU514
 1861 09f2 804A     		ldr	r2, .L467+12
 1862              	.LVL150:
 197:Drivers/STM32F4xx_HAL_Driver/Src/stm32f4xx_hal_dma_ex.c ****     __HAL_DMA_CLEAR_FLAG (hdma, __HAL_DMA_GET_TE_FLAG_INDEX(hdma));
 1863              		.loc 1 197 5 view .LVU515
 1864 09f4 874B     		ldr	r3, .L467+44
 196:Drivers/STM32F4xx_HAL_Driver/Src/stm32f4xx_hal_dma_ex.c ****     __HAL_DMA_CLEAR_FLAG (hdma, __HAL_DMA_GET_HT_FLAG_INDEX(hdma));
 1865              		.loc 1 196 5 view .LVU516
 1866 09f6 4FF40061 		mov	r1, #2048
 1867              	.LVL151:
 196:Drivers/STM32F4xx_HAL_Driver/Src/stm32f4xx_hal_dma_ex.c ****     __HAL_DMA_CLEAR_FLAG (hdma, __HAL_DMA_GET_HT_FLAG_INDEX(hdma));
 1868              		.loc 1 196 5 view .LVU517
 1869 09fa D160     		str	r1, [r2, #12]
 1870              	.LVL152:
 197:Drivers/STM32F4xx_HAL_Driver/Src/stm32f4xx_hal_dma_ex.c ****     __HAL_DMA_CLEAR_FLAG (hdma, __HAL_DMA_GET_TE_FLAG_INDEX(hdma));
 1871              		.loc 1 197 5 is_stmt 1 view .LVU518
 1872 09fc EFE7     		b	.L374
 1873              	.L438:
 198:Drivers/STM32F4xx_HAL_Driver/Src/stm32f4xx_hal_dma_ex.c ****     __HAL_DMA_CLEAR_FLAG (hdma, __HAL_DMA_GET_DME_FLAG_INDEX(hdma));
 1874              		.loc 1 198 5 is_stmt 0 view .LVU519
 1875 09fe 7D4B     		ldr	r3, .L467+12
 1876 0a00 4FF40072 		mov	r2, #512
 1877 0a04 DA60     		str	r2, [r3, #12]
 199:Drivers/STM32F4xx_HAL_Driver/Src/stm32f4xx_hal_dma_ex.c ****     __HAL_DMA_CLEAR_FLAG (hdma, __HAL_DMA_GET_FE_FLAG_INDEX(hdma));
 1878              		.loc 1 199 5 is_stmt 1 view .LVU520
 1879 0a06 6DE6     		b	.L184
 1880              	.LVL153:
 1881              	.L420:
 196:Drivers/STM32F4xx_HAL_Driver/Src/stm32f4xx_hal_dma_ex.c ****     __HAL_DMA_CLEAR_FLAG (hdma, __HAL_DMA_GET_HT_FLAG_INDEX(hdma));
 1882              		.loc 1 196 5 is_stmt 0 view .LVU521
 1883 0a08 4FF40062 		mov	r2, #2048
 1884              	.LVL154:
 196:Drivers/STM32F4xx_HAL_Driver/Src/stm32f4xx_hal_dma_ex.c ****     __HAL_DMA_CLEAR_FLAG (hdma, __HAL_DMA_GET_HT_FLAG_INDEX(hdma));
 1885              		.loc 1 196 5 view .LVU522
 1886 0a0c 43F8802C 		str	r2, [r3, #-128]
 1887              	.LVL155:
 197:Drivers/STM32F4xx_HAL_Driver/Src/stm32f4xx_hal_dma_ex.c ****     __HAL_DMA_CLEAR_FLAG (hdma, __HAL_DMA_GET_TE_FLAG_INDEX(hdma));
 1888              		.loc 1 197 5 is_stmt 1 view .LVU523
 1889              	.L59:
ARM GAS  C:\Users\pw705\AppData\Local\Temp\ccthnice.s 			page 48


 1890 0a10 804B     		ldr	r3, .L467+44
 198:Drivers/STM32F4xx_HAL_Driver/Src/stm32f4xx_hal_dma_ex.c ****     __HAL_DMA_CLEAR_FLAG (hdma, __HAL_DMA_GET_DME_FLAG_INDEX(hdma));
 1891              		.loc 1 198 5 is_stmt 0 view .LVU524
 1892 0a12 4FF40072 		mov	r2, #512
 197:Drivers/STM32F4xx_HAL_Driver/Src/stm32f4xx_hal_dma_ex.c ****     __HAL_DMA_CLEAR_FLAG (hdma, __HAL_DMA_GET_TE_FLAG_INDEX(hdma));
 1893              		.loc 1 197 5 view .LVU525
 1894 0a16 4FF48061 		mov	r1, #1024
 1895              	.LVL156:
 197:Drivers/STM32F4xx_HAL_Driver/Src/stm32f4xx_hal_dma_ex.c ****     __HAL_DMA_CLEAR_FLAG (hdma, __HAL_DMA_GET_TE_FLAG_INDEX(hdma));
 1896              		.loc 1 197 5 view .LVU526
 1897 0a1a D960     		str	r1, [r3, #12]
 198:Drivers/STM32F4xx_HAL_Driver/Src/stm32f4xx_hal_dma_ex.c ****     __HAL_DMA_CLEAR_FLAG (hdma, __HAL_DMA_GET_DME_FLAG_INDEX(hdma));
 1898              		.loc 1 198 5 is_stmt 1 view .LVU527
 1899 0a1c DA60     		str	r2, [r3, #12]
 199:Drivers/STM32F4xx_HAL_Driver/Src/stm32f4xx_hal_dma_ex.c ****     __HAL_DMA_CLEAR_FLAG (hdma, __HAL_DMA_GET_FE_FLAG_INDEX(hdma));
 1900              		.loc 1 199 5 view .LVU528
 1901 0a1e 4FF48072 		mov	r2, #256
 1902 0a22 DA60     		str	r2, [r3, #12]
 200:Drivers/STM32F4xx_HAL_Driver/Src/stm32f4xx_hal_dma_ex.c **** 
 1903              		.loc 1 200 5 view .LVU529
 1904 0a24 F1E5     		b	.L38
 1905              	.L443:
 199:Drivers/STM32F4xx_HAL_Driver/Src/stm32f4xx_hal_dma_ex.c ****     __HAL_DMA_CLEAR_FLAG (hdma, __HAL_DMA_GET_FE_FLAG_INDEX(hdma));
 1906              		.loc 1 199 5 is_stmt 0 view .LVU530
 1907 0a26 4FF48072 		mov	r2, #256
 1908 0a2a 43F8802C 		str	r2, [r3, #-128]
 200:Drivers/STM32F4xx_HAL_Driver/Src/stm32f4xx_hal_dma_ex.c **** 
 1909              		.loc 1 200 5 is_stmt 1 view .LVU531
 1910 0a2e D5E6     		b	.L266
 1911              	.LVL157:
 1912              	.L397:
 196:Drivers/STM32F4xx_HAL_Driver/Src/stm32f4xx_hal_dma_ex.c ****     __HAL_DMA_CLEAR_FLAG (hdma, __HAL_DMA_GET_HT_FLAG_INDEX(hdma));
 1913              		.loc 1 196 5 is_stmt 0 view .LVU532
 1914 0a30 4FF40012 		mov	r2, #2097152
 1915              	.LVL158:
 196:Drivers/STM32F4xx_HAL_Driver/Src/stm32f4xx_hal_dma_ex.c ****     __HAL_DMA_CLEAR_FLAG (hdma, __HAL_DMA_GET_HT_FLAG_INDEX(hdma));
 1916              		.loc 1 196 5 view .LVU533
 1917 0a34 43F8342C 		str	r2, [r3, #-52]
 1918              	.LVL159:
 197:Drivers/STM32F4xx_HAL_Driver/Src/stm32f4xx_hal_dma_ex.c ****     __HAL_DMA_CLEAR_FLAG (hdma, __HAL_DMA_GET_TE_FLAG_INDEX(hdma));
 1919              		.loc 1 197 5 is_stmt 1 view .LVU534
 1920 0a38 1AE6     		b	.L40
 1921              	.LVL160:
 1922              	.L434:
 199:Drivers/STM32F4xx_HAL_Driver/Src/stm32f4xx_hal_dma_ex.c ****     __HAL_DMA_CLEAR_FLAG (hdma, __HAL_DMA_GET_FE_FLAG_INDEX(hdma));
 1923              		.loc 1 199 5 is_stmt 0 view .LVU535
 1924 0a3a 6E4B     		ldr	r3, .L467+12
 1925 0a3c 0422     		movs	r2, #4
 1926 0a3e DA60     		str	r2, [r3, #12]
 200:Drivers/STM32F4xx_HAL_Driver/Src/stm32f4xx_hal_dma_ex.c **** 
 1927              		.loc 1 200 5 is_stmt 1 view .LVU536
 1928 0a40 39E5     		b	.L242
 1929              	.L432:
 198:Drivers/STM32F4xx_HAL_Driver/Src/stm32f4xx_hal_dma_ex.c ****     __HAL_DMA_CLEAR_FLAG (hdma, __HAL_DMA_GET_DME_FLAG_INDEX(hdma));
 1930              		.loc 1 198 5 is_stmt 0 view .LVU537
 1931 0a42 A3F58563 		sub	r3, r3, #1064
 1932 0a46 4FF40072 		mov	r2, #512
ARM GAS  C:\Users\pw705\AppData\Local\Temp\ccthnice.s 			page 49


 1933 0a4a 9A60     		str	r2, [r3, #8]
 199:Drivers/STM32F4xx_HAL_Driver/Src/stm32f4xx_hal_dma_ex.c ****     __HAL_DMA_CLEAR_FLAG (hdma, __HAL_DMA_GET_FE_FLAG_INDEX(hdma));
 1934              		.loc 1 199 5 is_stmt 1 view .LVU538
 1935              	.L183:
 1936 0a4c 714B     		ldr	r3, .L467+44
 1937 0a4e 4FF48072 		mov	r2, #256
 1938 0a52 9A60     		str	r2, [r3, #8]
 200:Drivers/STM32F4xx_HAL_Driver/Src/stm32f4xx_hal_dma_ex.c **** 
 1939              		.loc 1 200 5 view .LVU539
 1940 0a54 80E5     		b	.L71
 1941              	.L433:
 198:Drivers/STM32F4xx_HAL_Driver/Src/stm32f4xx_hal_dma_ex.c ****     __HAL_DMA_CLEAR_FLAG (hdma, __HAL_DMA_GET_DME_FLAG_INDEX(hdma));
 1942              		.loc 1 198 5 is_stmt 0 view .LVU540
 1943 0a56 4FF40071 		mov	r1, #512
 199:Drivers/STM32F4xx_HAL_Driver/Src/stm32f4xx_hal_dma_ex.c ****     __HAL_DMA_CLEAR_FLAG (hdma, __HAL_DMA_GET_FE_FLAG_INDEX(hdma));
 1944              		.loc 1 199 5 view .LVU541
 1945 0a5a 4FF48072 		mov	r2, #256
 198:Drivers/STM32F4xx_HAL_Driver/Src/stm32f4xx_hal_dma_ex.c ****     __HAL_DMA_CLEAR_FLAG (hdma, __HAL_DMA_GET_DME_FLAG_INDEX(hdma));
 1946              		.loc 1 198 5 view .LVU542
 1947 0a5e 43F8801C 		str	r1, [r3, #-128]
 199:Drivers/STM32F4xx_HAL_Driver/Src/stm32f4xx_hal_dma_ex.c ****     __HAL_DMA_CLEAR_FLAG (hdma, __HAL_DMA_GET_FE_FLAG_INDEX(hdma));
 1948              		.loc 1 199 5 is_stmt 1 view .LVU543
 1949 0a62 43F87C2C 		str	r2, [r3, #-124]
 200:Drivers/STM32F4xx_HAL_Driver/Src/stm32f4xx_hal_dma_ex.c **** 
 1950              		.loc 1 200 5 view .LVU544
 1951 0a66 A2E5     		b	.L207
 1952              	.L251:
 199:Drivers/STM32F4xx_HAL_Driver/Src/stm32f4xx_hal_dma_ex.c ****     __HAL_DMA_CLEAR_FLAG (hdma, __HAL_DMA_GET_FE_FLAG_INDEX(hdma));
 1953              		.loc 1 199 5 is_stmt 0 view .LVU545
 1954 0a68 6A4B     		ldr	r3, .L467+44
 1955 0a6a 4FF48072 		mov	r2, #256
 1956 0a6e 9A60     		str	r2, [r3, #8]
 200:Drivers/STM32F4xx_HAL_Driver/Src/stm32f4xx_hal_dma_ex.c **** 
 1957              		.loc 1 200 5 is_stmt 1 view .LVU546
 1958 0a70 9DE5     		b	.L207
 1959              	.LVL161:
 1960              	.L90:
 196:Drivers/STM32F4xx_HAL_Driver/Src/stm32f4xx_hal_dma_ex.c ****     __HAL_DMA_CLEAR_FLAG (hdma, __HAL_DMA_GET_HT_FLAG_INDEX(hdma));
 1961              		.loc 1 196 5 is_stmt 0 view .LVU547
 1962 0a72 604B     		ldr	r3, .L467+12
 1963 0a74 4FF40012 		mov	r2, #2097152
 1964 0a78 DA60     		str	r2, [r3, #12]
 1965              	.LVL162:
 197:Drivers/STM32F4xx_HAL_Driver/Src/stm32f4xx_hal_dma_ex.c ****     __HAL_DMA_CLEAR_FLAG (hdma, __HAL_DMA_GET_TE_FLAG_INDEX(hdma));
 1966              		.loc 1 197 5 is_stmt 1 view .LVU548
 1967              	.L85:
 198:Drivers/STM32F4xx_HAL_Driver/Src/stm32f4xx_hal_dma_ex.c ****     __HAL_DMA_CLEAR_FLAG (hdma, __HAL_DMA_GET_DME_FLAG_INDEX(hdma));
 1968              		.loc 1 198 5 is_stmt 0 view .LVU549
 1969 0a7a 5B4B     		ldr	r3, .L467
 197:Drivers/STM32F4xx_HAL_Driver/Src/stm32f4xx_hal_dma_ex.c ****     __HAL_DMA_CLEAR_FLAG (hdma, __HAL_DMA_GET_TE_FLAG_INDEX(hdma));
 1970              		.loc 1 197 5 view .LVU550
 1971 0a7c 5D4A     		ldr	r2, .L467+12
 1972 0a7e 4FF48011 		mov	r1, #1048576
 198:Drivers/STM32F4xx_HAL_Driver/Src/stm32f4xx_hal_dma_ex.c ****     __HAL_DMA_CLEAR_FLAG (hdma, __HAL_DMA_GET_DME_FLAG_INDEX(hdma));
 1973              		.loc 1 198 5 view .LVU551
 1974 0a82 9C42     		cmp	r4, r3
 197:Drivers/STM32F4xx_HAL_Driver/Src/stm32f4xx_hal_dma_ex.c ****     __HAL_DMA_CLEAR_FLAG (hdma, __HAL_DMA_GET_TE_FLAG_INDEX(hdma));
ARM GAS  C:\Users\pw705\AppData\Local\Temp\ccthnice.s 			page 50


 1975              		.loc 1 197 5 view .LVU552
 1976 0a84 D160     		str	r1, [r2, #12]
 198:Drivers/STM32F4xx_HAL_Driver/Src/stm32f4xx_hal_dma_ex.c ****     __HAL_DMA_CLEAR_FLAG (hdma, __HAL_DMA_GET_DME_FLAG_INDEX(hdma));
 1977              		.loc 1 198 5 is_stmt 1 view .LVU553
 1978 0a86 7FF407AE 		bne	.L127
 1979              	.L132:
 199:Drivers/STM32F4xx_HAL_Driver/Src/stm32f4xx_hal_dma_ex.c ****     __HAL_DMA_CLEAR_FLAG (hdma, __HAL_DMA_GET_FE_FLAG_INDEX(hdma));
 1980              		.loc 1 199 5 is_stmt 0 view .LVU554
 1981 0a8a 634B     		ldr	r3, .L467+48
 198:Drivers/STM32F4xx_HAL_Driver/Src/stm32f4xx_hal_dma_ex.c ****     __HAL_DMA_CLEAR_FLAG (hdma, __HAL_DMA_GET_DME_FLAG_INDEX(hdma));
 1982              		.loc 1 198 5 view .LVU555
 1983 0a8c 614A     		ldr	r2, .L467+44
 1984 0a8e 4FF40021 		mov	r1, #524288
 199:Drivers/STM32F4xx_HAL_Driver/Src/stm32f4xx_hal_dma_ex.c ****     __HAL_DMA_CLEAR_FLAG (hdma, __HAL_DMA_GET_FE_FLAG_INDEX(hdma));
 1985              		.loc 1 199 5 view .LVU556
 1986 0a92 9C42     		cmp	r4, r3
 198:Drivers/STM32F4xx_HAL_Driver/Src/stm32f4xx_hal_dma_ex.c ****     __HAL_DMA_CLEAR_FLAG (hdma, __HAL_DMA_GET_DME_FLAG_INDEX(hdma));
 1987              		.loc 1 198 5 view .LVU557
 1988 0a94 9160     		str	r1, [r2, #8]
 199:Drivers/STM32F4xx_HAL_Driver/Src/stm32f4xx_hal_dma_ex.c ****     __HAL_DMA_CLEAR_FLAG (hdma, __HAL_DMA_GET_FE_FLAG_INDEX(hdma));
 1989              		.loc 1 199 5 is_stmt 1 view .LVU558
 1990 0a96 0DD0     		beq	.L169
 1991 0a98 A3F56873 		sub	r3, r3, #928
 1992 0a9c 9C42     		cmp	r4, r3
 1993 0a9e 20D0     		beq	.L170
 1994 0aa0 03F58063 		add	r3, r3, #1024
 1995 0aa4 9C42     		cmp	r4, r3
 1996 0aa6 7FF4FFAE 		bne	.L171
 1997              	.L172:
 1998 0aaa 524B     		ldr	r3, .L467+12
 1999 0aac 4FF48072 		mov	r2, #256
 2000 0ab0 9A60     		str	r2, [r3, #8]
 200:Drivers/STM32F4xx_HAL_Driver/Src/stm32f4xx_hal_dma_ex.c **** 
 2001              		.loc 1 200 5 view .LVU559
 2002 0ab2 AAE5     		b	.L38
 2003              	.L169:
 199:Drivers/STM32F4xx_HAL_Driver/Src/stm32f4xx_hal_dma_ex.c ****     __HAL_DMA_CLEAR_FLAG (hdma, __HAL_DMA_GET_FE_FLAG_INDEX(hdma));
 2004              		.loc 1 199 5 is_stmt 0 view .LVU560
 2005 0ab4 4F4B     		ldr	r3, .L467+12
 2006 0ab6 4FF48072 		mov	r2, #256
 2007 0aba 9A60     		str	r2, [r3, #8]
 200:Drivers/STM32F4xx_HAL_Driver/Src/stm32f4xx_hal_dma_ex.c **** 
 2008              		.loc 1 200 5 is_stmt 1 view .LVU561
 2009 0abc 4CE5     		b	.L71
 2010              	.L437:
 199:Drivers/STM32F4xx_HAL_Driver/Src/stm32f4xx_hal_dma_ex.c ****     __HAL_DMA_CLEAR_FLAG (hdma, __HAL_DMA_GET_FE_FLAG_INDEX(hdma));
 2011              		.loc 1 199 5 is_stmt 0 discriminator 157 view .LVU562
 2012 0abe 524B     		ldr	r3, .L467+32
 2013 0ac0 9C42     		cmp	r4, r3
 2014 0ac2 00F0D283 		beq	.L279
 199:Drivers/STM32F4xx_HAL_Driver/Src/stm32f4xx_hal_dma_ex.c ****     __HAL_DMA_CLEAR_FLAG (hdma, __HAL_DMA_GET_FE_FLAG_INDEX(hdma));
 2015              		.loc 1 199 5 discriminator 159 view .LVU563
 2016 0ac6 A3F58963 		sub	r3, r3, #1096
 2017 0aca 9C42     		cmp	r4, r3
 2018 0acc 3FF4FEAB 		beq	.L167
 199:Drivers/STM32F4xx_HAL_Driver/Src/stm32f4xx_hal_dma_ex.c ****     __HAL_DMA_CLEAR_FLAG (hdma, __HAL_DMA_GET_FE_FLAG_INDEX(hdma));
 2019              		.loc 1 199 5 discriminator 161 view .LVU564
ARM GAS  C:\Users\pw705\AppData\Local\Temp\ccthnice.s 			page 51


 2020 0ad0 03F58063 		add	r3, r3, #1024
 2021 0ad4 9C42     		cmp	r4, r3
 2022 0ad6 EDD0     		beq	.L169
 199:Drivers/STM32F4xx_HAL_Driver/Src/stm32f4xx_hal_dma_ex.c ****     __HAL_DMA_CLEAR_FLAG (hdma, __HAL_DMA_GET_FE_FLAG_INDEX(hdma));
 2023              		.loc 1 199 5 discriminator 163 view .LVU565
 2024 0ad8 A3F56873 		sub	r3, r3, #928
 2025 0adc 9C42     		cmp	r4, r3
 2026 0ade 40F09E82 		bne	.L189
 2027              	.L170:
 199:Drivers/STM32F4xx_HAL_Driver/Src/stm32f4xx_hal_dma_ex.c ****     __HAL_DMA_CLEAR_FLAG (hdma, __HAL_DMA_GET_FE_FLAG_INDEX(hdma));
 2028              		.loc 1 199 5 view .LVU566
 2029 0ae2 444B     		ldr	r3, .L467+12
 2030 0ae4 4FF48072 		mov	r2, #256
 2031 0ae8 9A60     		str	r2, [r3, #8]
 200:Drivers/STM32F4xx_HAL_Driver/Src/stm32f4xx_hal_dma_ex.c **** 
 2032              		.loc 1 200 5 is_stmt 1 view .LVU567
 2033 0aea 60E5     		b	.L207
 2034              	.LVL163:
 2035              	.L427:
 196:Drivers/STM32F4xx_HAL_Driver/Src/stm32f4xx_hal_dma_ex.c ****     __HAL_DMA_CLEAR_FLAG (hdma, __HAL_DMA_GET_HT_FLAG_INDEX(hdma));
 2036              		.loc 1 196 5 is_stmt 0 view .LVU568
 2037 0aec 4FF40062 		mov	r2, #2048
 2038              	.LVL164:
 196:Drivers/STM32F4xx_HAL_Driver/Src/stm32f4xx_hal_dma_ex.c ****     __HAL_DMA_CLEAR_FLAG (hdma, __HAL_DMA_GET_HT_FLAG_INDEX(hdma));
 2039              		.loc 1 196 5 view .LVU569
 2040 0af0 43F8802C 		str	r2, [r3, #-128]
 2041              	.LVL165:
 197:Drivers/STM32F4xx_HAL_Driver/Src/stm32f4xx_hal_dma_ex.c ****     __HAL_DMA_CLEAR_FLAG (hdma, __HAL_DMA_GET_TE_FLAG_INDEX(hdma));
 2042              		.loc 1 197 5 is_stmt 1 view .LVU570
 2043              	.L81:
 2044 0af4 3F4B     		ldr	r3, .L467+12
 2045 0af6 4FF48062 		mov	r2, #1024
 2046 0afa DA60     		str	r2, [r3, #12]
 198:Drivers/STM32F4xx_HAL_Driver/Src/stm32f4xx_hal_dma_ex.c ****     __HAL_DMA_CLEAR_FLAG (hdma, __HAL_DMA_GET_DME_FLAG_INDEX(hdma));
 2047              		.loc 1 198 5 view .LVU571
 2048 0afc 4FE5     		b	.L65
 2049              	.LVL166:
 2050              	.L409:
 196:Drivers/STM32F4xx_HAL_Driver/Src/stm32f4xx_hal_dma_ex.c ****     __HAL_DMA_CLEAR_FLAG (hdma, __HAL_DMA_GET_HT_FLAG_INDEX(hdma));
 2051              		.loc 1 196 5 is_stmt 0 view .LVU572
 2052 0afe 4FF40062 		mov	r2, #2048
 2053              	.LVL167:
 196:Drivers/STM32F4xx_HAL_Driver/Src/stm32f4xx_hal_dma_ex.c ****     __HAL_DMA_CLEAR_FLAG (hdma, __HAL_DMA_GET_HT_FLAG_INDEX(hdma));
 2054              		.loc 1 196 5 view .LVU573
 2055 0b02 43F87C2C 		str	r2, [r3, #-124]
 2056              	.LVL168:
 197:Drivers/STM32F4xx_HAL_Driver/Src/stm32f4xx_hal_dma_ex.c ****     __HAL_DMA_CLEAR_FLAG (hdma, __HAL_DMA_GET_TE_FLAG_INDEX(hdma));
 2057              		.loc 1 197 5 is_stmt 1 view .LVU574
 2058 0b06 F5E7     		b	.L81
 2059              	.LVL169:
 2060              	.L398:
 196:Drivers/STM32F4xx_HAL_Driver/Src/stm32f4xx_hal_dma_ex.c ****     __HAL_DMA_CLEAR_FLAG (hdma, __HAL_DMA_GET_HT_FLAG_INDEX(hdma));
 2061              		.loc 1 196 5 is_stmt 0 view .LVU575
 2062 0b08 4FF40012 		mov	r2, #2097152
 2063              	.LVL170:
 196:Drivers/STM32F4xx_HAL_Driver/Src/stm32f4xx_hal_dma_ex.c ****     __HAL_DMA_CLEAR_FLAG (hdma, __HAL_DMA_GET_HT_FLAG_INDEX(hdma));
 2064              		.loc 1 196 5 view .LVU576
ARM GAS  C:\Users\pw705\AppData\Local\Temp\ccthnice.s 			page 52


 2065 0b0c C3F86C23 		str	r2, [r3, #876]
 2066              	.LVL171:
 197:Drivers/STM32F4xx_HAL_Driver/Src/stm32f4xx_hal_dma_ex.c ****     __HAL_DMA_CLEAR_FLAG (hdma, __HAL_DMA_GET_TE_FLAG_INDEX(hdma));
 2067              		.loc 1 197 5 is_stmt 1 view .LVU577
 2068              	.L43:
 198:Drivers/STM32F4xx_HAL_Driver/Src/stm32f4xx_hal_dma_ex.c ****     __HAL_DMA_CLEAR_FLAG (hdma, __HAL_DMA_GET_DME_FLAG_INDEX(hdma));
 2069              		.loc 1 198 5 is_stmt 0 view .LVU578
 2070 0b10 3E4B     		ldr	r3, .L467+36
 197:Drivers/STM32F4xx_HAL_Driver/Src/stm32f4xx_hal_dma_ex.c ****     __HAL_DMA_CLEAR_FLAG (hdma, __HAL_DMA_GET_TE_FLAG_INDEX(hdma));
 2071              		.loc 1 197 5 view .LVU579
 2072 0b12 404A     		ldr	r2, .L467+44
 2073 0b14 4FF48011 		mov	r1, #1048576
 2074              	.LVL172:
 198:Drivers/STM32F4xx_HAL_Driver/Src/stm32f4xx_hal_dma_ex.c ****     __HAL_DMA_CLEAR_FLAG (hdma, __HAL_DMA_GET_DME_FLAG_INDEX(hdma));
 2075              		.loc 1 198 5 view .LVU580
 2076 0b18 9C42     		cmp	r4, r3
 197:Drivers/STM32F4xx_HAL_Driver/Src/stm32f4xx_hal_dma_ex.c ****     __HAL_DMA_CLEAR_FLAG (hdma, __HAL_DMA_GET_TE_FLAG_INDEX(hdma));
 2077              		.loc 1 197 5 view .LVU581
 2078 0b1a D160     		str	r1, [r2, #12]
 198:Drivers/STM32F4xx_HAL_Driver/Src/stm32f4xx_hal_dma_ex.c ****     __HAL_DMA_CLEAR_FLAG (hdma, __HAL_DMA_GET_DME_FLAG_INDEX(hdma));
 2079              		.loc 1 198 5 is_stmt 1 view .LVU582
 2080 0b1c 00F0AA80 		beq	.L117
 2081              	.L69:
 198:Drivers/STM32F4xx_HAL_Driver/Src/stm32f4xx_hal_dma_ex.c ****     __HAL_DMA_CLEAR_FLAG (hdma, __HAL_DMA_GET_DME_FLAG_INDEX(hdma));
 2082              		.loc 1 198 5 is_stmt 0 discriminator 120 view .LVU583
 2083 0b20 324B     		ldr	r3, .L467+4
 2084 0b22 9C42     		cmp	r4, r3
 2085 0b24 00F00582 		beq	.L191
 2086              	.L186:
 198:Drivers/STM32F4xx_HAL_Driver/Src/stm32f4xx_hal_dma_ex.c ****     __HAL_DMA_CLEAR_FLAG (hdma, __HAL_DMA_GET_DME_FLAG_INDEX(hdma));
 2087              		.loc 1 198 5 discriminator 122 view .LVU584
 2088 0b28 394B     		ldr	r3, .L467+40
 2089 0b2a 9C42     		cmp	r4, r3
 2090 0b2c 3FF4F4AE 		beq	.L446
 198:Drivers/STM32F4xx_HAL_Driver/Src/stm32f4xx_hal_dma_ex.c ****     __HAL_DMA_CLEAR_FLAG (hdma, __HAL_DMA_GET_DME_FLAG_INDEX(hdma));
 2091              		.loc 1 198 5 discriminator 124 view .LVU585
 2092 0b30 3A4B     		ldr	r3, .L467+52
 2093 0b32 9C42     		cmp	r4, r3
 2094 0b34 00F0E782 		beq	.L447
 199:Drivers/STM32F4xx_HAL_Driver/Src/stm32f4xx_hal_dma_ex.c ****     __HAL_DMA_CLEAR_FLAG (hdma, __HAL_DMA_GET_FE_FLAG_INDEX(hdma));
 2095              		.loc 1 199 5 view .LVU586
 2096 0b38 2D4B     		ldr	r3, .L467+8
 198:Drivers/STM32F4xx_HAL_Driver/Src/stm32f4xx_hal_dma_ex.c ****     __HAL_DMA_CLEAR_FLAG (hdma, __HAL_DMA_GET_DME_FLAG_INDEX(hdma));
 2097              		.loc 1 198 5 view .LVU587
 2098 0b3a 2E4A     		ldr	r2, .L467+12
 2099 0b3c 4FF00071 		mov	r1, #33554432
 199:Drivers/STM32F4xx_HAL_Driver/Src/stm32f4xx_hal_dma_ex.c ****     __HAL_DMA_CLEAR_FLAG (hdma, __HAL_DMA_GET_FE_FLAG_INDEX(hdma));
 2100              		.loc 1 199 5 view .LVU588
 2101 0b40 9C42     		cmp	r4, r3
 198:Drivers/STM32F4xx_HAL_Driver/Src/stm32f4xx_hal_dma_ex.c ****     __HAL_DMA_CLEAR_FLAG (hdma, __HAL_DMA_GET_DME_FLAG_INDEX(hdma));
 2102              		.loc 1 198 5 view .LVU589
 2103 0b42 D160     		str	r1, [r2, #12]
 199:Drivers/STM32F4xx_HAL_Driver/Src/stm32f4xx_hal_dma_ex.c ****     __HAL_DMA_CLEAR_FLAG (hdma, __HAL_DMA_GET_FE_FLAG_INDEX(hdma));
 2104              		.loc 1 199 5 is_stmt 1 view .LVU590
 2105 0b44 00F21382 		bhi	.L196
 2106 0b48 A3F56873 		sub	r3, r3, #928
 2107 0b4c 9C42     		cmp	r4, r3
ARM GAS  C:\Users\pw705\AppData\Local\Temp\ccthnice.s 			page 53


 2108 0b4e 00F29682 		bhi	.L380
 2109 0b52 294B     		ldr	r3, .L467+16
 2110 0b54 9C42     		cmp	r4, r3
 2111 0b56 7FF65FAE 		bls	.L200
 2112 0b5a 6DE4     		b	.L219
 2113              	.LVL173:
 2114              	.L60:
 196:Drivers/STM32F4xx_HAL_Driver/Src/stm32f4xx_hal_dma_ex.c ****     __HAL_DMA_CLEAR_FLAG (hdma, __HAL_DMA_GET_HT_FLAG_INDEX(hdma));
 2115              		.loc 1 196 5 is_stmt 0 view .LVU591
 2116 0b5c 2D4B     		ldr	r3, .L467+44
 2117 0b5e 4FF40011 		mov	r1, #2097152
 2118              	.LVL174:
 197:Drivers/STM32F4xx_HAL_Driver/Src/stm32f4xx_hal_dma_ex.c ****     __HAL_DMA_CLEAR_FLAG (hdma, __HAL_DMA_GET_TE_FLAG_INDEX(hdma));
 2119              		.loc 1 197 5 view .LVU592
 2120 0b62 4FF48012 		mov	r2, #1048576
 2121              	.LVL175:
 196:Drivers/STM32F4xx_HAL_Driver/Src/stm32f4xx_hal_dma_ex.c ****     __HAL_DMA_CLEAR_FLAG (hdma, __HAL_DMA_GET_HT_FLAG_INDEX(hdma));
 2122              		.loc 1 196 5 view .LVU593
 2123 0b66 9960     		str	r1, [r3, #8]
 2124              	.LVL176:
 197:Drivers/STM32F4xx_HAL_Driver/Src/stm32f4xx_hal_dma_ex.c ****     __HAL_DMA_CLEAR_FLAG (hdma, __HAL_DMA_GET_TE_FLAG_INDEX(hdma));
 2125              		.loc 1 197 5 is_stmt 1 view .LVU594
 2126 0b68 9A60     		str	r2, [r3, #8]
 198:Drivers/STM32F4xx_HAL_Driver/Src/stm32f4xx_hal_dma_ex.c ****     __HAL_DMA_CLEAR_FLAG (hdma, __HAL_DMA_GET_DME_FLAG_INDEX(hdma));
 2127              		.loc 1 198 5 view .LVU595
 2128 0b6a 95E6     		b	.L70
 2129              	.LVL177:
 2130              	.L430:
 196:Drivers/STM32F4xx_HAL_Driver/Src/stm32f4xx_hal_dma_ex.c ****     __HAL_DMA_CLEAR_FLAG (hdma, __HAL_DMA_GET_HT_FLAG_INDEX(hdma));
 2131              		.loc 1 196 5 is_stmt 0 view .LVU596
 2132 0b6c A3F58863 		sub	r3, r3, #1088
 2133 0b70 4FF40011 		mov	r1, #2097152
 2134              	.LVL178:
 197:Drivers/STM32F4xx_HAL_Driver/Src/stm32f4xx_hal_dma_ex.c ****     __HAL_DMA_CLEAR_FLAG (hdma, __HAL_DMA_GET_TE_FLAG_INDEX(hdma));
 2135              		.loc 1 197 5 view .LVU597
 2136 0b74 4FF48012 		mov	r2, #1048576
 2137              	.LVL179:
 196:Drivers/STM32F4xx_HAL_Driver/Src/stm32f4xx_hal_dma_ex.c ****     __HAL_DMA_CLEAR_FLAG (hdma, __HAL_DMA_GET_HT_FLAG_INDEX(hdma));
 2138              		.loc 1 196 5 view .LVU598
 2139 0b78 9960     		str	r1, [r3, #8]
 2140              	.LVL180:
 197:Drivers/STM32F4xx_HAL_Driver/Src/stm32f4xx_hal_dma_ex.c ****     __HAL_DMA_CLEAR_FLAG (hdma, __HAL_DMA_GET_TE_FLAG_INDEX(hdma));
 2141              		.loc 1 197 5 is_stmt 1 view .LVU599
 2142 0b7a 9A60     		str	r2, [r3, #8]
 198:Drivers/STM32F4xx_HAL_Driver/Src/stm32f4xx_hal_dma_ex.c ****     __HAL_DMA_CLEAR_FLAG (hdma, __HAL_DMA_GET_DME_FLAG_INDEX(hdma));
 2143              		.loc 1 198 5 view .LVU600
 2144              	.L103:
 199:Drivers/STM32F4xx_HAL_Driver/Src/stm32f4xx_hal_dma_ex.c ****     __HAL_DMA_CLEAR_FLAG (hdma, __HAL_DMA_GET_FE_FLAG_INDEX(hdma));
 2145              		.loc 1 199 5 is_stmt 0 view .LVU601
 2146 0b7c 1A4B     		ldr	r3, .L467
 198:Drivers/STM32F4xx_HAL_Driver/Src/stm32f4xx_hal_dma_ex.c ****     __HAL_DMA_CLEAR_FLAG (hdma, __HAL_DMA_GET_DME_FLAG_INDEX(hdma));
 2147              		.loc 1 198 5 view .LVU602
 2148 0b7e 254A     		ldr	r2, .L467+44
 2149 0b80 4FF40021 		mov	r1, #524288
 199:Drivers/STM32F4xx_HAL_Driver/Src/stm32f4xx_hal_dma_ex.c ****     __HAL_DMA_CLEAR_FLAG (hdma, __HAL_DMA_GET_FE_FLAG_INDEX(hdma));
 2150              		.loc 1 199 5 view .LVU603
 2151 0b84 9C42     		cmp	r4, r3
ARM GAS  C:\Users\pw705\AppData\Local\Temp\ccthnice.s 			page 54


 198:Drivers/STM32F4xx_HAL_Driver/Src/stm32f4xx_hal_dma_ex.c ****     __HAL_DMA_CLEAR_FLAG (hdma, __HAL_DMA_GET_DME_FLAG_INDEX(hdma));
 2152              		.loc 1 198 5 view .LVU604
 2153 0b86 9160     		str	r1, [r2, #8]
 199:Drivers/STM32F4xx_HAL_Driver/Src/stm32f4xx_hal_dma_ex.c ****     __HAL_DMA_CLEAR_FLAG (hdma, __HAL_DMA_GET_FE_FLAG_INDEX(hdma));
 2154              		.loc 1 199 5 is_stmt 1 view .LVU605
 2155 0b88 40F01181 		bne	.L150
 2156              	.L173:
 200:Drivers/STM32F4xx_HAL_Driver/Src/stm32f4xx_hal_dma_ex.c **** 
 2157              		.loc 1 200 5 is_stmt 0 view .LVU606
 2158 0b8c 224B     		ldr	r3, .L467+48
 199:Drivers/STM32F4xx_HAL_Driver/Src/stm32f4xx_hal_dma_ex.c ****     __HAL_DMA_CLEAR_FLAG (hdma, __HAL_DMA_GET_FE_FLAG_INDEX(hdma));
 2159              		.loc 1 199 5 view .LVU607
 2160 0b8e 214A     		ldr	r2, .L467+44
 2161 0b90 4FF48021 		mov	r1, #262144
 200:Drivers/STM32F4xx_HAL_Driver/Src/stm32f4xx_hal_dma_ex.c **** 
 2162              		.loc 1 200 5 view .LVU608
 2163 0b94 9C42     		cmp	r4, r3
 199:Drivers/STM32F4xx_HAL_Driver/Src/stm32f4xx_hal_dma_ex.c ****     __HAL_DMA_CLEAR_FLAG (hdma, __HAL_DMA_GET_FE_FLAG_INDEX(hdma));
 2164              		.loc 1 199 5 view .LVU609
 2165 0b96 9160     		str	r1, [r2, #8]
 200:Drivers/STM32F4xx_HAL_Driver/Src/stm32f4xx_hal_dma_ex.c **** 
 2166              		.loc 1 200 5 is_stmt 1 view .LVU610
 2167 0b98 3FF49CAB 		beq	.L260
 2168 0b9c A3F56873 		sub	r3, r3, #928
 2169 0ba0 9C42     		cmp	r4, r3
 2170 0ba2 7FF489AE 		bne	.L378
 2171 0ba6 FFF795BB 		b	.L260
 2172              	.LVL181:
 2173              	.L400:
 197:Drivers/STM32F4xx_HAL_Driver/Src/stm32f4xx_hal_dma_ex.c ****     __HAL_DMA_CLEAR_FLAG (hdma, __HAL_DMA_GET_TE_FLAG_INDEX(hdma));
 2174              		.loc 1 197 5 is_stmt 0 view .LVU611
 2175 0baa 4FF48012 		mov	r2, #1048576
 2176 0bae 43F8942C 		str	r2, [r3, #-148]
 198:Drivers/STM32F4xx_HAL_Driver/Src/stm32f4xx_hal_dma_ex.c ****     __HAL_DMA_CLEAR_FLAG (hdma, __HAL_DMA_GET_DME_FLAG_INDEX(hdma));
 2177              		.loc 1 198 5 is_stmt 1 view .LVU612
 2178              	.LVL182:
 2179              	.L119:
 199:Drivers/STM32F4xx_HAL_Driver/Src/stm32f4xx_hal_dma_ex.c ****     __HAL_DMA_CLEAR_FLAG (hdma, __HAL_DMA_GET_FE_FLAG_INDEX(hdma));
 2180              		.loc 1 199 5 is_stmt 0 view .LVU613
 2181 0bb2 174A     		ldr	r2, .L467+40
 198:Drivers/STM32F4xx_HAL_Driver/Src/stm32f4xx_hal_dma_ex.c ****     __HAL_DMA_CLEAR_FLAG (hdma, __HAL_DMA_GET_DME_FLAG_INDEX(hdma));
 2182              		.loc 1 198 5 view .LVU614
 2183 0bb4 174B     		ldr	r3, .L467+44
 2184 0bb6 4FF40021 		mov	r1, #524288
 199:Drivers/STM32F4xx_HAL_Driver/Src/stm32f4xx_hal_dma_ex.c ****     __HAL_DMA_CLEAR_FLAG (hdma, __HAL_DMA_GET_FE_FLAG_INDEX(hdma));
 2185              		.loc 1 199 5 view .LVU615
 2186 0bba 9442     		cmp	r4, r2
 198:Drivers/STM32F4xx_HAL_Driver/Src/stm32f4xx_hal_dma_ex.c ****     __HAL_DMA_CLEAR_FLAG (hdma, __HAL_DMA_GET_DME_FLAG_INDEX(hdma));
 2187              		.loc 1 198 5 view .LVU616
 2188 0bbc D960     		str	r1, [r3, #12]
 199:Drivers/STM32F4xx_HAL_Driver/Src/stm32f4xx_hal_dma_ex.c ****     __HAL_DMA_CLEAR_FLAG (hdma, __HAL_DMA_GET_FE_FLAG_INDEX(hdma));
 2189              		.loc 1 199 5 is_stmt 1 view .LVU617
 2190 0bbe 2FD0     		beq	.L155
 2191 0bc0 02F58062 		add	r2, r2, #1024
 2192 0bc4 9442     		cmp	r4, r2
 2193 0bc6 00F09880 		beq	.L156
 2194 0bca 4FF08072 		mov	r2, #16777216
ARM GAS  C:\Users\pw705\AppData\Local\Temp\ccthnice.s 			page 55


 2195 0bce DA60     		str	r2, [r3, #12]
 200:Drivers/STM32F4xx_HAL_Driver/Src/stm32f4xx_hal_dma_ex.c **** 
 2196              		.loc 1 200 5 view .LVU618
 2197              	.L157:
 2198 0bd0 0A4B     		ldr	r3, .L467+20
 2199 0bd2 9C42     		cmp	r4, r3
 2200 0bd4 3FF4ADAA 		beq	.L239
 2201 0bd8 03F58063 		add	r3, r3, #1024
 2202 0bdc 9C42     		cmp	r4, r3
 2203 0bde 7FF4EDAD 		bne	.L289
 2204 0be2 FFF7A6BA 		b	.L239
 2205              	.L468:
 2206 0be6 00BF     		.align	2
 2207              	.L467:
 2208 0be8 40600240 		.word	1073897536
 2209 0bec 40640240 		.word	1073898560
 2210 0bf0 58640240 		.word	1073898584
 2211 0bf4 00600240 		.word	1073897472
 2212 0bf8 58600240 		.word	1073897560
 2213 0bfc 10600240 		.word	1073897488
 2214 0c00 10640240 		.word	1073898512
 2215 0c04 70600240 		.word	1073897584
 2216 0c08 70640240 		.word	1073898608
 2217 0c0c 88640240 		.word	1073898632
 2218 0c10 A0600240 		.word	1073897632
 2219 0c14 00640240 		.word	1073898496
 2220 0c18 28640240 		.word	1073898536
 2221 0c1c A0640240 		.word	1073898656
 2222              	.L155:
 199:Drivers/STM32F4xx_HAL_Driver/Src/stm32f4xx_hal_dma_ex.c ****     __HAL_DMA_CLEAR_FLAG (hdma, __HAL_DMA_GET_FE_FLAG_INDEX(hdma));
 2223              		.loc 1 199 5 is_stmt 0 view .LVU619
 2224 0c20 AE4B     		ldr	r3, .L469
 2225 0c22 4FF48022 		mov	r2, #262144
 2226 0c26 DA60     		str	r2, [r3, #12]
 200:Drivers/STM32F4xx_HAL_Driver/Src/stm32f4xx_hal_dma_ex.c **** 
 2227              		.loc 1 200 5 is_stmt 1 view .LVU620
 2228              	.L243:
 2229 0c28 AD4B     		ldr	r3, .L469+4
 2230 0c2a 9C42     		cmp	r4, r3
 2231 0c2c 3FF4BFAC 		beq	.L207
 2232 0c30 AC4B     		ldr	r3, .L469+8
 2233 0c32 9C42     		cmp	r4, r3
 2234 0c34 3FF4BBAC 		beq	.L207
 2235 0c38 03F58063 		add	r3, r3, #1024
 2236 0c3c 9C42     		cmp	r4, r3
 2237 0c3e 3FF4B6AC 		beq	.L207
 2238              	.L270:
 200:Drivers/STM32F4xx_HAL_Driver/Src/stm32f4xx_hal_dma_ex.c **** 
 2239              		.loc 1 200 5 is_stmt 0 discriminator 120 view .LVU621
 2240 0c42 A94B     		ldr	r3, .L469+12
 2241 0c44 9C42     		cmp	r4, r3
 2242 0c46 00F08281 		beq	.L299
 200:Drivers/STM32F4xx_HAL_Driver/Src/stm32f4xx_hal_dma_ex.c **** 
 2243              		.loc 1 200 5 discriminator 122 view .LVU622
 2244 0c4a A84B     		ldr	r3, .L469+16
 2245 0c4c 9C42     		cmp	r4, r3
 2246 0c4e 00F07E81 		beq	.L299
ARM GAS  C:\Users\pw705\AppData\Local\Temp\ccthnice.s 			page 56


 200:Drivers/STM32F4xx_HAL_Driver/Src/stm32f4xx_hal_dma_ex.c **** 
 2247              		.loc 1 200 5 discriminator 124 view .LVU623
 2248 0c52 03F58063 		add	r3, r3, #1024
 2249 0c56 9C42     		cmp	r4, r3
 2250 0c58 00F07981 		beq	.L299
 200:Drivers/STM32F4xx_HAL_Driver/Src/stm32f4xx_hal_dma_ex.c **** 
 2251              		.loc 1 200 5 view .LVU624
 2252 0c5c 4FF48002 		mov	r2, #4194304
 2253 0c60 FFF756BB 		b	.L298
 2254              	.L182:
 198:Drivers/STM32F4xx_HAL_Driver/Src/stm32f4xx_hal_dma_ex.c ****     __HAL_DMA_CLEAR_FLAG (hdma, __HAL_DMA_GET_DME_FLAG_INDEX(hdma));
 2255              		.loc 1 198 5 discriminator 114 view .LVU625
 2256 0c64 9F4B     		ldr	r3, .L469+8
 2257 0c66 9C42     		cmp	r4, r3
 2258 0c68 3FF499AC 		beq	.L65
 198:Drivers/STM32F4xx_HAL_Driver/Src/stm32f4xx_hal_dma_ex.c ****     __HAL_DMA_CLEAR_FLAG (hdma, __HAL_DMA_GET_DME_FLAG_INDEX(hdma));
 2259              		.loc 1 198 5 discriminator 116 view .LVU626
 2260 0c6c A04B     		ldr	r3, .L469+20
 2261 0c6e 9C42     		cmp	r4, r3
 2262 0c70 40F02682 		bne	.L105
 2263              	.L117:
 198:Drivers/STM32F4xx_HAL_Driver/Src/stm32f4xx_hal_dma_ex.c ****     __HAL_DMA_CLEAR_FLAG (hdma, __HAL_DMA_GET_DME_FLAG_INDEX(hdma));
 2264              		.loc 1 198 5 view .LVU627
 2265 0c74 9F4B     		ldr	r3, .L469+24
 2266 0c76 4FF40072 		mov	r2, #512
 2267 0c7a DA60     		str	r2, [r3, #12]
 199:Drivers/STM32F4xx_HAL_Driver/Src/stm32f4xx_hal_dma_ex.c ****     __HAL_DMA_CLEAR_FLAG (hdma, __HAL_DMA_GET_FE_FLAG_INDEX(hdma));
 2268              		.loc 1 199 5 is_stmt 1 view .LVU628
 2269              	.L233:
 2270 0c7c 9C4B     		ldr	r3, .L469+20
 2271 0c7e 9C42     		cmp	r4, r3
 2272 0c80 00F0ED82 		beq	.L448
 199:Drivers/STM32F4xx_HAL_Driver/Src/stm32f4xx_hal_dma_ex.c ****     __HAL_DMA_CLEAR_FLAG (hdma, __HAL_DMA_GET_FE_FLAG_INDEX(hdma));
 2273              		.loc 1 199 5 is_stmt 0 discriminator 17 view .LVU629
 2274 0c84 9C4B     		ldr	r3, .L469+28
 2275 0c86 9C42     		cmp	r4, r3
 2276 0c88 1DD0     		beq	.L235
 2277              	.L210:
 199:Drivers/STM32F4xx_HAL_Driver/Src/stm32f4xx_hal_dma_ex.c ****     __HAL_DMA_CLEAR_FLAG (hdma, __HAL_DMA_GET_FE_FLAG_INDEX(hdma));
 2278              		.loc 1 199 5 discriminator 19 view .LVU630
 2279 0c8a 974B     		ldr	r3, .L469+12
 2280 0c8c 9C42     		cmp	r4, r3
 2281 0c8e 1FD0     		beq	.L236
 2282              	.L195:
 199:Drivers/STM32F4xx_HAL_Driver/Src/stm32f4xx_hal_dma_ex.c ****     __HAL_DMA_CLEAR_FLAG (hdma, __HAL_DMA_GET_FE_FLAG_INDEX(hdma));
 2283              		.loc 1 199 5 discriminator 21 view .LVU631
 2284 0c90 964B     		ldr	r3, .L469+16
 2285 0c92 9C42     		cmp	r4, r3
 2286 0c94 C4D0     		beq	.L155
 2287              	.L176:
 199:Drivers/STM32F4xx_HAL_Driver/Src/stm32f4xx_hal_dma_ex.c ****     __HAL_DMA_CLEAR_FLAG (hdma, __HAL_DMA_GET_FE_FLAG_INDEX(hdma));
 2288              		.loc 1 199 5 discriminator 23 view .LVU632
 2289 0c96 994B     		ldr	r3, .L469+32
 2290 0c98 9C42     		cmp	r4, r3
 2291 0c9a 2ED0     		beq	.L156
 199:Drivers/STM32F4xx_HAL_Driver/Src/stm32f4xx_hal_dma_ex.c ****     __HAL_DMA_CLEAR_FLAG (hdma, __HAL_DMA_GET_FE_FLAG_INDEX(hdma));
 2292              		.loc 1 199 5 view .LVU633
ARM GAS  C:\Users\pw705\AppData\Local\Temp\ccthnice.s 			page 57


 2293 0c9c 8F4A     		ldr	r2, .L469
 200:Drivers/STM32F4xx_HAL_Driver/Src/stm32f4xx_hal_dma_ex.c **** 
 2294              		.loc 1 200 5 view .LVU634
 2295 0c9e 483B     		subs	r3, r3, #72
 199:Drivers/STM32F4xx_HAL_Driver/Src/stm32f4xx_hal_dma_ex.c ****     __HAL_DMA_CLEAR_FLAG (hdma, __HAL_DMA_GET_FE_FLAG_INDEX(hdma));
 2296              		.loc 1 199 5 view .LVU635
 2297 0ca0 4FF08071 		mov	r1, #16777216
 200:Drivers/STM32F4xx_HAL_Driver/Src/stm32f4xx_hal_dma_ex.c **** 
 2298              		.loc 1 200 5 view .LVU636
 2299 0ca4 9C42     		cmp	r4, r3
 199:Drivers/STM32F4xx_HAL_Driver/Src/stm32f4xx_hal_dma_ex.c ****     __HAL_DMA_CLEAR_FLAG (hdma, __HAL_DMA_GET_FE_FLAG_INDEX(hdma));
 2300              		.loc 1 199 5 view .LVU637
 2301 0ca6 D160     		str	r1, [r2, #12]
 200:Drivers/STM32F4xx_HAL_Driver/Src/stm32f4xx_hal_dma_ex.c **** 
 2302              		.loc 1 200 5 is_stmt 1 view .LVU638
 2303 0ca8 92D8     		bhi	.L157
 200:Drivers/STM32F4xx_HAL_Driver/Src/stm32f4xx_hal_dma_ex.c **** 
 2304              		.loc 1 200 5 is_stmt 0 discriminator 2 view .LVU639
 2305 0caa 954B     		ldr	r3, .L469+36
 2306 0cac 9C42     		cmp	r4, r3
 2307 0cae 7FF6BBAD 		bls	.L257
 2308              	.L287:
 200:Drivers/STM32F4xx_HAL_Driver/Src/stm32f4xx_hal_dma_ex.c **** 
 2309              		.loc 1 200 5 view .LVU640
 2310 0cb2 944B     		ldr	r3, .L469+40
 2311 0cb4 9C42     		cmp	r4, r3
 2312 0cb6 3FF4A5AA 		beq	.L49
 200:Drivers/STM32F4xx_HAL_Driver/Src/stm32f4xx_hal_dma_ex.c **** 
 2313              		.loc 1 200 5 discriminator 53 view .LVU641
 2314 0cba 934B     		ldr	r3, .L469+44
 2315 0cbc 9C42     		cmp	r4, r3
 2316 0cbe 7FF440AD 		bne	.L258
 2317 0cc2 FFF79FBA 		b	.L49
 2318              	.L235:
 199:Drivers/STM32F4xx_HAL_Driver/Src/stm32f4xx_hal_dma_ex.c ****     __HAL_DMA_CLEAR_FLAG (hdma, __HAL_DMA_GET_FE_FLAG_INDEX(hdma));
 2319              		.loc 1 199 5 view .LVU642
 2320 0cc6 854B     		ldr	r3, .L469
 2321 0cc8 4FF48022 		mov	r2, #262144
 2322 0ccc DA60     		str	r2, [r3, #12]
 200:Drivers/STM32F4xx_HAL_Driver/Src/stm32f4xx_hal_dma_ex.c **** 
 2323              		.loc 1 200 5 is_stmt 1 view .LVU643
 2324 0cce 69E6     		b	.L268
 2325              	.L236:
 199:Drivers/STM32F4xx_HAL_Driver/Src/stm32f4xx_hal_dma_ex.c ****     __HAL_DMA_CLEAR_FLAG (hdma, __HAL_DMA_GET_FE_FLAG_INDEX(hdma));
 2326              		.loc 1 199 5 is_stmt 0 view .LVU644
 2327 0cd0 824B     		ldr	r3, .L469
 2328 0cd2 4FF48022 		mov	r2, #262144
 2329 0cd6 DA60     		str	r2, [r3, #12]
 200:Drivers/STM32F4xx_HAL_Driver/Src/stm32f4xx_hal_dma_ex.c **** 
 2330              		.loc 1 200 5 is_stmt 1 view .LVU645
 2331              	.L246:
 2332 0cd8 4FF48032 		mov	r2, #65536
 2333 0cdc FFF793BA 		b	.L294
 2334              	.LVL183:
 2335              	.L399:
 196:Drivers/STM32F4xx_HAL_Driver/Src/stm32f4xx_hal_dma_ex.c ****     __HAL_DMA_CLEAR_FLAG (hdma, __HAL_DMA_GET_HT_FLAG_INDEX(hdma));
 2336              		.loc 1 196 5 is_stmt 0 view .LVU646
ARM GAS  C:\Users\pw705\AppData\Local\Temp\ccthnice.s 			page 58


 2337 0ce0 4FF40012 		mov	r2, #2097152
 2338              	.LVL184:
 196:Drivers/STM32F4xx_HAL_Driver/Src/stm32f4xx_hal_dma_ex.c ****     __HAL_DMA_CLEAR_FLAG (hdma, __HAL_DMA_GET_HT_FLAG_INDEX(hdma));
 2339              		.loc 1 196 5 view .LVU647
 2340 0ce4 43F8942C 		str	r2, [r3, #-148]
 2341              	.LVL185:
 197:Drivers/STM32F4xx_HAL_Driver/Src/stm32f4xx_hal_dma_ex.c ****     __HAL_DMA_CLEAR_FLAG (hdma, __HAL_DMA_GET_TE_FLAG_INDEX(hdma));
 2342              		.loc 1 197 5 is_stmt 1 view .LVU648
 2343              	.L45:
 2344 0ce8 7E4B     		ldr	r3, .L469+8
 2345 0cea 9C42     		cmp	r4, r3
 2346 0cec 3FF44FAC 		beq	.L36
 2347 0cf0 7F4B     		ldr	r3, .L469+20
 2348 0cf2 9C42     		cmp	r4, r3
 2349 0cf4 7FF4C0AC 		bne	.L110
 2350 0cf8 8AE6     		b	.L59
 2351              	.LVL186:
 2352              	.L156:
 199:Drivers/STM32F4xx_HAL_Driver/Src/stm32f4xx_hal_dma_ex.c ****     __HAL_DMA_CLEAR_FLAG (hdma, __HAL_DMA_GET_FE_FLAG_INDEX(hdma));
 2353              		.loc 1 199 5 is_stmt 0 view .LVU649
 2354 0cfa 784B     		ldr	r3, .L469
 2355 0cfc 4FF48022 		mov	r2, #262144
 2356 0d00 DA60     		str	r2, [r3, #12]
 200:Drivers/STM32F4xx_HAL_Driver/Src/stm32f4xx_hal_dma_ex.c **** 
 2357              		.loc 1 200 5 is_stmt 1 view .LVU650
 2358 0d02 82E5     		b	.L244
 2359              	.LVL187:
 2360              	.L428:
 196:Drivers/STM32F4xx_HAL_Driver/Src/stm32f4xx_hal_dma_ex.c ****     __HAL_DMA_CLEAR_FLAG (hdma, __HAL_DMA_GET_HT_FLAG_INDEX(hdma));
 2361              		.loc 1 196 5 is_stmt 0 view .LVU651
 2362 0d04 A3F59163 		sub	r3, r3, #1160
 2363 0d08 4FF40062 		mov	r2, #2048
 2364              	.LVL188:
 196:Drivers/STM32F4xx_HAL_Driver/Src/stm32f4xx_hal_dma_ex.c ****     __HAL_DMA_CLEAR_FLAG (hdma, __HAL_DMA_GET_HT_FLAG_INDEX(hdma));
 2365              		.loc 1 196 5 view .LVU652
 2366 0d0c 9A60     		str	r2, [r3, #8]
 2367              	.LVL189:
 197:Drivers/STM32F4xx_HAL_Driver/Src/stm32f4xx_hal_dma_ex.c ****     __HAL_DMA_CLEAR_FLAG (hdma, __HAL_DMA_GET_TE_FLAG_INDEX(hdma));
 2368              		.loc 1 197 5 is_stmt 1 view .LVU653
 2369 0d0e EBE7     		b	.L45
 2370              	.LVL190:
 2371              	.L401:
 198:Drivers/STM32F4xx_HAL_Driver/Src/stm32f4xx_hal_dma_ex.c ****     __HAL_DMA_CLEAR_FLAG (hdma, __HAL_DMA_GET_DME_FLAG_INDEX(hdma));
 2372              		.loc 1 198 5 is_stmt 0 view .LVU654
 2373 0d10 A3F58963 		sub	r3, r3, #1096
 2374 0d14 9C42     		cmp	r4, r3
 2375 0d16 00F05A81 		beq	.L449
 198:Drivers/STM32F4xx_HAL_Driver/Src/stm32f4xx_hal_dma_ex.c ****     __HAL_DMA_CLEAR_FLAG (hdma, __HAL_DMA_GET_DME_FLAG_INDEX(hdma));
 2376              		.loc 1 198 5 discriminator 5 view .LVU655
 2377 0d1a 7C4B     		ldr	r3, .L469+48
 2378 0d1c 9C42     		cmp	r4, r3
 2379 0d1e 31D0     		beq	.L450
 198:Drivers/STM32F4xx_HAL_Driver/Src/stm32f4xx_hal_dma_ex.c ****     __HAL_DMA_CLEAR_FLAG (hdma, __HAL_DMA_GET_DME_FLAG_INDEX(hdma));
 2380              		.loc 1 198 5 discriminator 7 view .LVU656
 2381 0d20 7B4B     		ldr	r3, .L469+52
 2382 0d22 9C42     		cmp	r4, r3
 2383 0d24 3FF4B7AB 		beq	.L30
ARM GAS  C:\Users\pw705\AppData\Local\Temp\ccthnice.s 			page 59


 198:Drivers/STM32F4xx_HAL_Driver/Src/stm32f4xx_hal_dma_ex.c ****     __HAL_DMA_CLEAR_FLAG (hdma, __HAL_DMA_GET_DME_FLAG_INDEX(hdma));
 2384              		.loc 1 198 5 discriminator 9 view .LVU657
 2385 0d28 7A4B     		ldr	r3, .L469+56
 2386 0d2a 9C42     		cmp	r4, r3
 2387 0d2c 36D0     		beq	.L146
 198:Drivers/STM32F4xx_HAL_Driver/Src/stm32f4xx_hal_dma_ex.c ****     __HAL_DMA_CLEAR_FLAG (hdma, __HAL_DMA_GET_DME_FLAG_INDEX(hdma));
 2388              		.loc 1 198 5 view .LVU658
 2389 0d2e 03F58063 		add	r3, r3, #1024
 2390 0d32 9C42     		cmp	r4, r3
 2391 0d34 2ED0     		beq	.L147
 2392 0d36 A3F56873 		sub	r3, r3, #928
 2393 0d3a 9C42     		cmp	r4, r3
 2394 0d3c 26D0     		beq	.L148
 2395 0d3e 03F58063 		add	r3, r3, #1024
 2396 0d42 9C42     		cmp	r4, r3
 2397 0d44 3FF459AC 		beq	.L373
 198:Drivers/STM32F4xx_HAL_Driver/Src/stm32f4xx_hal_dma_ex.c ****     __HAL_DMA_CLEAR_FLAG (hdma, __HAL_DMA_GET_DME_FLAG_INDEX(hdma));
 2398              		.loc 1 198 5 discriminator 19 view .LVU659
 2399 0d48 674B     		ldr	r3, .L469+12
 2400 0d4a 9C42     		cmp	r4, r3
 2401 0d4c 2BD0     		beq	.L151
 198:Drivers/STM32F4xx_HAL_Driver/Src/stm32f4xx_hal_dma_ex.c ****     __HAL_DMA_CLEAR_FLAG (hdma, __HAL_DMA_GET_DME_FLAG_INDEX(hdma));
 2402              		.loc 1 198 5 discriminator 21 view .LVU660
 2403 0d4e A3F56873 		sub	r3, r3, #928
 2404 0d52 9C42     		cmp	r4, r3
 2405 0d54 3ED0     		beq	.L451
 198:Drivers/STM32F4xx_HAL_Driver/Src/stm32f4xx_hal_dma_ex.c ****     __HAL_DMA_CLEAR_FLAG (hdma, __HAL_DMA_GET_DME_FLAG_INDEX(hdma));
 2406              		.loc 1 198 5 discriminator 23 view .LVU661
 2407 0d56 694B     		ldr	r3, .L469+32
 2408 0d58 9C42     		cmp	r4, r3
 2409 0d5a 3FF42AAF 		beq	.L119
 199:Drivers/STM32F4xx_HAL_Driver/Src/stm32f4xx_hal_dma_ex.c ****     __HAL_DMA_CLEAR_FLAG (hdma, __HAL_DMA_GET_FE_FLAG_INDEX(hdma));
 2410              		.loc 1 199 5 view .LVU662
 2411 0d5e 6E4B     		ldr	r3, .L469+60
 198:Drivers/STM32F4xx_HAL_Driver/Src/stm32f4xx_hal_dma_ex.c ****     __HAL_DMA_CLEAR_FLAG (hdma, __HAL_DMA_GET_DME_FLAG_INDEX(hdma));
 2412              		.loc 1 198 5 view .LVU663
 2413 0d60 5E4A     		ldr	r2, .L469
 2414 0d62 4FF00071 		mov	r1, #33554432
 199:Drivers/STM32F4xx_HAL_Driver/Src/stm32f4xx_hal_dma_ex.c ****     __HAL_DMA_CLEAR_FLAG (hdma, __HAL_DMA_GET_FE_FLAG_INDEX(hdma));
 2415              		.loc 1 199 5 view .LVU664
 2416 0d66 9C42     		cmp	r4, r3
 198:Drivers/STM32F4xx_HAL_Driver/Src/stm32f4xx_hal_dma_ex.c ****     __HAL_DMA_CLEAR_FLAG (hdma, __HAL_DMA_GET_DME_FLAG_INDEX(hdma));
 2417              		.loc 1 198 5 view .LVU665
 2418 0d68 D160     		str	r1, [r2, #12]
 199:Drivers/STM32F4xx_HAL_Driver/Src/stm32f4xx_hal_dma_ex.c ****     __HAL_DMA_CLEAR_FLAG (hdma, __HAL_DMA_GET_FE_FLAG_INDEX(hdma));
 2419              		.loc 1 199 5 is_stmt 1 view .LVU666
 2420 0d6a 41D8     		bhi	.L452
 199:Drivers/STM32F4xx_HAL_Driver/Src/stm32f4xx_hal_dma_ex.c ****     __HAL_DMA_CLEAR_FLAG (hdma, __HAL_DMA_GET_FE_FLAG_INDEX(hdma));
 2421              		.loc 1 199 5 is_stmt 0 discriminator 2 view .LVU667
 2422 0d6c 644B     		ldr	r3, .L469+36
 2423 0d6e 9C42     		cmp	r4, r3
 2424 0d70 7FF64EAD 		bls	.L178
 199:Drivers/STM32F4xx_HAL_Driver/Src/stm32f4xx_hal_dma_ex.c ****     __HAL_DMA_CLEAR_FLAG (hdma, __HAL_DMA_GET_FE_FLAG_INDEX(hdma));
 2425              		.loc 1 199 5 view .LVU668
 2426 0d74 634B     		ldr	r3, .L469+40
 2427 0d76 9C42     		cmp	r4, r3
 2428 0d78 7FF4A4AC 		bne	.L198
ARM GAS  C:\Users\pw705\AppData\Local\Temp\ccthnice.s 			page 60


 2429 0d7c 0423     		movs	r3, #4
 2430 0d7e 9360     		str	r3, [r2, #8]
 200:Drivers/STM32F4xx_HAL_Driver/Src/stm32f4xx_hal_dma_ex.c **** 
 2431              		.loc 1 200 5 is_stmt 1 view .LVU669
 2432 0d80 FFF7C5BA 		b	.L24
 2433              	.L450:
 198:Drivers/STM32F4xx_HAL_Driver/Src/stm32f4xx_hal_dma_ex.c ****     __HAL_DMA_CLEAR_FLAG (hdma, __HAL_DMA_GET_DME_FLAG_INDEX(hdma));
 2434              		.loc 1 198 5 is_stmt 0 view .LVU670
 2435 0d84 0823     		movs	r3, #8
 2436 0d86 D360     		str	r3, [r2, #12]
 199:Drivers/STM32F4xx_HAL_Driver/Src/stm32f4xx_hal_dma_ex.c ****     __HAL_DMA_CLEAR_FLAG (hdma, __HAL_DMA_GET_FE_FLAG_INDEX(hdma));
 2437              		.loc 1 199 5 is_stmt 1 view .LVU671
 2438 0d88 FFF774BB 		b	.L138
 2439              	.L148:
 198:Drivers/STM32F4xx_HAL_Driver/Src/stm32f4xx_hal_dma_ex.c ****     __HAL_DMA_CLEAR_FLAG (hdma, __HAL_DMA_GET_DME_FLAG_INDEX(hdma));
 2440              		.loc 1 198 5 is_stmt 0 view .LVU672
 2441 0d8c 4FF40073 		mov	r3, #512
 2442 0d90 D360     		str	r3, [r2, #12]
 199:Drivers/STM32F4xx_HAL_Driver/Src/stm32f4xx_hal_dma_ex.c ****     __HAL_DMA_CLEAR_FLAG (hdma, __HAL_DMA_GET_FE_FLAG_INDEX(hdma));
 2443              		.loc 1 199 5 is_stmt 1 view .LVU673
 2444 0d92 08E4     		b	.L111
 2445              	.L147:
 198:Drivers/STM32F4xx_HAL_Driver/Src/stm32f4xx_hal_dma_ex.c ****     __HAL_DMA_CLEAR_FLAG (hdma, __HAL_DMA_GET_DME_FLAG_INDEX(hdma));
 2446              		.loc 1 198 5 is_stmt 0 view .LVU674
 2447 0d94 4FF40073 		mov	r3, #512
 2448 0d98 D360     		str	r3, [r2, #12]
 199:Drivers/STM32F4xx_HAL_Driver/Src/stm32f4xx_hal_dma_ex.c ****     __HAL_DMA_CLEAR_FLAG (hdma, __HAL_DMA_GET_FE_FLAG_INDEX(hdma));
 2449              		.loc 1 199 5 is_stmt 1 view .LVU675
 2450 0d9a 57E6     		b	.L183
 2451              	.L146:
 198:Drivers/STM32F4xx_HAL_Driver/Src/stm32f4xx_hal_dma_ex.c ****     __HAL_DMA_CLEAR_FLAG (hdma, __HAL_DMA_GET_DME_FLAG_INDEX(hdma));
 2452              		.loc 1 198 5 is_stmt 0 view .LVU676
 2453 0d9c 4FF40073 		mov	r3, #512
 2454 0da0 D360     		str	r3, [r2, #12]
 199:Drivers/STM32F4xx_HAL_Driver/Src/stm32f4xx_hal_dma_ex.c ****     __HAL_DMA_CLEAR_FLAG (hdma, __HAL_DMA_GET_FE_FLAG_INDEX(hdma));
 2455              		.loc 1 199 5 is_stmt 1 view .LVU677
 2456 0da2 FFF793BA 		b	.L167
 2457              	.L151:
 198:Drivers/STM32F4xx_HAL_Driver/Src/stm32f4xx_hal_dma_ex.c ****     __HAL_DMA_CLEAR_FLAG (hdma, __HAL_DMA_GET_DME_FLAG_INDEX(hdma));
 2458              		.loc 1 198 5 is_stmt 0 view .LVU678
 2459 0da6 4D4B     		ldr	r3, .L469
 2460 0da8 4FF40022 		mov	r2, #524288
 2461 0dac DA60     		str	r2, [r3, #12]
 199:Drivers/STM32F4xx_HAL_Driver/Src/stm32f4xx_hal_dma_ex.c ****     __HAL_DMA_CLEAR_FLAG (hdma, __HAL_DMA_GET_FE_FLAG_INDEX(hdma));
 2462              		.loc 1 199 5 is_stmt 1 view .LVU679
 2463              	.L150:
 2464 0dae 4B4B     		ldr	r3, .L469
 2465 0db0 4FF48022 		mov	r2, #262144
 2466 0db4 9A60     		str	r2, [r3, #8]
 200:Drivers/STM32F4xx_HAL_Driver/Src/stm32f4xx_hal_dma_ex.c **** 
 2467              		.loc 1 200 5 view .LVU680
 2468              	.L262:
 2469 0db6 4A4B     		ldr	r3, .L469+4
 2470 0db8 9C42     		cmp	r4, r3
 2471 0dba 3FF4CDAB 		beq	.L71
 2472 0dbe 494B     		ldr	r3, .L469+8
 2473 0dc0 9C42     		cmp	r4, r3
ARM GAS  C:\Users\pw705\AppData\Local\Temp\ccthnice.s 			page 61


 2474 0dc2 3FF4C9AB 		beq	.L71
 2475 0dc6 03F58063 		add	r3, r3, #1024
 2476 0dca 9C42     		cmp	r4, r3
 2477 0dcc 7FF4D8AC 		bne	.L269
 2478 0dd0 FFF7C2BB 		b	.L71
 2479              	.L451:
 198:Drivers/STM32F4xx_HAL_Driver/Src/stm32f4xx_hal_dma_ex.c ****     __HAL_DMA_CLEAR_FLAG (hdma, __HAL_DMA_GET_DME_FLAG_INDEX(hdma));
 2480              		.loc 1 198 5 is_stmt 0 view .LVU681
 2481 0dd4 4FF40022 		mov	r2, #524288
 2482 0dd8 C3F86C23 		str	r2, [r3, #876]
 199:Drivers/STM32F4xx_HAL_Driver/Src/stm32f4xx_hal_dma_ex.c ****     __HAL_DMA_CLEAR_FLAG (hdma, __HAL_DMA_GET_FE_FLAG_INDEX(hdma));
 2483              		.loc 1 199 5 is_stmt 1 view .LVU682
 2484              	.L153:
 2485 0ddc 404B     		ldr	r3, .L469+4
 2486 0dde 9C42     		cmp	r4, r3
 2487 0de0 40F0F981 		bne	.L453
 2488              	.L264:
 2489 0de4 434B     		ldr	r3, .L469+24
 2490 0de6 4FF48072 		mov	r2, #256
 2491 0dea DA60     		str	r2, [r3, #12]
 200:Drivers/STM32F4xx_HAL_Driver/Src/stm32f4xx_hal_dma_ex.c **** 
 2492              		.loc 1 200 5 view .LVU683
 2493 0dec FFF7B4BB 		b	.L71
 2494              	.L452:
 199:Drivers/STM32F4xx_HAL_Driver/Src/stm32f4xx_hal_dma_ex.c ****     __HAL_DMA_CLEAR_FLAG (hdma, __HAL_DMA_GET_FE_FLAG_INDEX(hdma));
 2495              		.loc 1 199 5 is_stmt 0 view .LVU684
 2496 0df0 A3F58963 		sub	r3, r3, #1096
 2497 0df4 9C42     		cmp	r4, r3
 2498 0df6 00F0ED80 		beq	.L159
 2499 0dfa 6033     		adds	r3, r3, #96
 2500 0dfc 9C42     		cmp	r4, r3
 2501 0dfe 11D1     		bne	.L160
 2502 0e00 0423     		movs	r3, #4
 2503 0e02 D360     		str	r3, [r2, #12]
 200:Drivers/STM32F4xx_HAL_Driver/Src/stm32f4xx_hal_dma_ex.c **** 
 2504              		.loc 1 200 5 is_stmt 1 view .LVU685
 2505 0e04 FFF7FEB9 		b	.L49
 2506              	.L177:
 199:Drivers/STM32F4xx_HAL_Driver/Src/stm32f4xx_hal_dma_ex.c ****     __HAL_DMA_CLEAR_FLAG (hdma, __HAL_DMA_GET_FE_FLAG_INDEX(hdma));
 2507              		.loc 1 199 5 is_stmt 0 view .LVU686
 2508 0e08 3E4A     		ldr	r2, .L469+40
 2509 0e0a 9442     		cmp	r4, r2
 2510 0e0c 3FF419AB 		beq	.L375
 2511 0e10 02F58062 		add	r2, r2, #1024
 2512 0e14 9442     		cmp	r4, r2
 2513 0e16 3FF414AB 		beq	.L375
 2514 0e1a A2F56872 		sub	r2, r2, #928
 2515 0e1e 9442     		cmp	r4, r2
 2516 0e20 3FF40FAB 		beq	.L375
 2517              	.L160:
 199:Drivers/STM32F4xx_HAL_Driver/Src/stm32f4xx_hal_dma_ex.c ****     __HAL_DMA_CLEAR_FLAG (hdma, __HAL_DMA_GET_FE_FLAG_INDEX(hdma));
 2518              		.loc 1 199 5 discriminator 7 view .LVU687
 2519 0e24 3A4B     		ldr	r3, .L469+52
 2520 0e26 9C42     		cmp	r4, r3
 2521 0e28 3FF438AB 		beq	.L145
 199:Drivers/STM32F4xx_HAL_Driver/Src/stm32f4xx_hal_dma_ex.c ****     __HAL_DMA_CLEAR_FLAG (hdma, __HAL_DMA_GET_FE_FLAG_INDEX(hdma));
 2522              		.loc 1 199 5 view .LVU688
ARM GAS  C:\Users\pw705\AppData\Local\Temp\ccthnice.s 			page 62


 2523 0e2c 394B     		ldr	r3, .L469+56
 2524 0e2e 9C42     		cmp	r4, r3
 2525 0e30 13D0     		beq	.L454
 199:Drivers/STM32F4xx_HAL_Driver/Src/stm32f4xx_hal_dma_ex.c ****     __HAL_DMA_CLEAR_FLAG (hdma, __HAL_DMA_GET_FE_FLAG_INDEX(hdma));
 2526              		.loc 1 199 5 discriminator 11 view .LVU689
 2527 0e32 2B4B     		ldr	r3, .L469+4
 2528 0e34 9C42     		cmp	r4, r3
 2529 0e36 0AD0     		beq	.L232
 199:Drivers/STM32F4xx_HAL_Driver/Src/stm32f4xx_hal_dma_ex.c ****     __HAL_DMA_CLEAR_FLAG (hdma, __HAL_DMA_GET_FE_FLAG_INDEX(hdma));
 2530              		.loc 1 199 5 discriminator 13 view .LVU690
 2531 0e38 A3F56873 		sub	r3, r3, #928
 2532 0e3c 9C42     		cmp	r4, r3
 2533 0e3e 7FF41DAF 		bne	.L233
 199:Drivers/STM32F4xx_HAL_Driver/Src/stm32f4xx_hal_dma_ex.c ****     __HAL_DMA_CLEAR_FLAG (hdma, __HAL_DMA_GET_FE_FLAG_INDEX(hdma));
 2534              		.loc 1 199 5 view .LVU691
 2535 0e42 264B     		ldr	r3, .L469
 2536 0e44 4FF48072 		mov	r2, #256
 2537 0e48 DA60     		str	r2, [r3, #12]
 200:Drivers/STM32F4xx_HAL_Driver/Src/stm32f4xx_hal_dma_ex.c **** 
 2538              		.loc 1 200 5 is_stmt 1 view .LVU692
 2539 0e4a FFF7B0BB 		b	.L207
 2540              	.L232:
 199:Drivers/STM32F4xx_HAL_Driver/Src/stm32f4xx_hal_dma_ex.c ****     __HAL_DMA_CLEAR_FLAG (hdma, __HAL_DMA_GET_FE_FLAG_INDEX(hdma));
 2541              		.loc 1 199 5 is_stmt 0 view .LVU693
 2542 0e4e 234B     		ldr	r3, .L469
 2543 0e50 4FF48072 		mov	r2, #256
 2544 0e54 DA60     		str	r2, [r3, #12]
 200:Drivers/STM32F4xx_HAL_Driver/Src/stm32f4xx_hal_dma_ex.c **** 
 2545              		.loc 1 200 5 is_stmt 1 view .LVU694
 2546 0e56 FFF77FBB 		b	.L71
 2547              	.L454:
 199:Drivers/STM32F4xx_HAL_Driver/Src/stm32f4xx_hal_dma_ex.c ****     __HAL_DMA_CLEAR_FLAG (hdma, __HAL_DMA_GET_FE_FLAG_INDEX(hdma));
 2548              		.loc 1 199 5 is_stmt 0 view .LVU695
 2549 0e5a 204B     		ldr	r3, .L469
 2550 0e5c 4FF48072 		mov	r2, #256
 2551 0e60 DA60     		str	r2, [r3, #12]
 200:Drivers/STM32F4xx_HAL_Driver/Src/stm32f4xx_hal_dma_ex.c **** 
 2552              		.loc 1 200 5 is_stmt 1 view .LVU696
 2553 0e62 FFF737BA 		b	.L260
 2554              	.LVL191:
 2555              	.L61:
 196:Drivers/STM32F4xx_HAL_Driver/Src/stm32f4xx_hal_dma_ex.c ****     __HAL_DMA_CLEAR_FLAG (hdma, __HAL_DMA_GET_HT_FLAG_INDEX(hdma));
 2556              		.loc 1 196 5 is_stmt 0 view .LVU697
 2557 0e66 1D4B     		ldr	r3, .L469
 2558 0e68 4FF40011 		mov	r1, #2097152
 2559              	.LVL192:
 197:Drivers/STM32F4xx_HAL_Driver/Src/stm32f4xx_hal_dma_ex.c ****     __HAL_DMA_CLEAR_FLAG (hdma, __HAL_DMA_GET_TE_FLAG_INDEX(hdma));
 2560              		.loc 1 197 5 view .LVU698
 2561 0e6c 4FF48012 		mov	r2, #1048576
 2562              	.LVL193:
 196:Drivers/STM32F4xx_HAL_Driver/Src/stm32f4xx_hal_dma_ex.c ****     __HAL_DMA_CLEAR_FLAG (hdma, __HAL_DMA_GET_HT_FLAG_INDEX(hdma));
 2563              		.loc 1 196 5 view .LVU699
 2564 0e70 9960     		str	r1, [r3, #8]
 2565              	.LVL194:
 197:Drivers/STM32F4xx_HAL_Driver/Src/stm32f4xx_hal_dma_ex.c ****     __HAL_DMA_CLEAR_FLAG (hdma, __HAL_DMA_GET_TE_FLAG_INDEX(hdma));
 2566              		.loc 1 197 5 is_stmt 1 view .LVU700
 2567 0e72 9A60     		str	r2, [r3, #8]
ARM GAS  C:\Users\pw705\AppData\Local\Temp\ccthnice.s 			page 63


 198:Drivers/STM32F4xx_HAL_Driver/Src/stm32f4xx_hal_dma_ex.c ****     __HAL_DMA_CLEAR_FLAG (hdma, __HAL_DMA_GET_DME_FLAG_INDEX(hdma));
 2568              		.loc 1 198 5 view .LVU701
 2569 0e74 0CE4     		b	.L68
 2570              	.LVL195:
 2571              	.L410:
 196:Drivers/STM32F4xx_HAL_Driver/Src/stm32f4xx_hal_dma_ex.c ****     __HAL_DMA_CLEAR_FLAG (hdma, __HAL_DMA_GET_HT_FLAG_INDEX(hdma));
 2572              		.loc 1 196 5 is_stmt 0 view .LVU702
 2573 0e76 A3F59163 		sub	r3, r3, #1160
 2574 0e7a 4FF40062 		mov	r2, #2048
 2575              	.LVL196:
 196:Drivers/STM32F4xx_HAL_Driver/Src/stm32f4xx_hal_dma_ex.c ****     __HAL_DMA_CLEAR_FLAG (hdma, __HAL_DMA_GET_HT_FLAG_INDEX(hdma));
 2576              		.loc 1 196 5 view .LVU703
 2577 0e7e DA60     		str	r2, [r3, #12]
 2578              	.LVL197:
 197:Drivers/STM32F4xx_HAL_Driver/Src/stm32f4xx_hal_dma_ex.c ****     __HAL_DMA_CLEAR_FLAG (hdma, __HAL_DMA_GET_TE_FLAG_INDEX(hdma));
 2579              		.loc 1 197 5 is_stmt 1 view .LVU704
 2580 0e80 C6E5     		b	.L59
 2581              	.LVL198:
 2582              	.L411:
 196:Drivers/STM32F4xx_HAL_Driver/Src/stm32f4xx_hal_dma_ex.c ****     __HAL_DMA_CLEAR_FLAG (hdma, __HAL_DMA_GET_HT_FLAG_INDEX(hdma));
 2583              		.loc 1 196 5 is_stmt 0 view .LVU705
 2584 0e82 4FF40012 		mov	r2, #2097152
 2585              	.LVL199:
 196:Drivers/STM32F4xx_HAL_Driver/Src/stm32f4xx_hal_dma_ex.c ****     __HAL_DMA_CLEAR_FLAG (hdma, __HAL_DMA_GET_HT_FLAG_INDEX(hdma));
 2586              		.loc 1 196 5 view .LVU706
 2587 0e86 43F8342C 		str	r2, [r3, #-52]
 2588              	.LVL200:
 197:Drivers/STM32F4xx_HAL_Driver/Src/stm32f4xx_hal_dma_ex.c ****     __HAL_DMA_CLEAR_FLAG (hdma, __HAL_DMA_GET_TE_FLAG_INDEX(hdma));
 2589              		.loc 1 197 5 is_stmt 1 view .LVU707
 2590              	.L84:
 198:Drivers/STM32F4xx_HAL_Driver/Src/stm32f4xx_hal_dma_ex.c ****     __HAL_DMA_CLEAR_FLAG (hdma, __HAL_DMA_GET_DME_FLAG_INDEX(hdma));
 2591              		.loc 1 198 5 is_stmt 0 view .LVU708
 2592 0e8a 194B     		ldr	r3, .L469+20
 197:Drivers/STM32F4xx_HAL_Driver/Src/stm32f4xx_hal_dma_ex.c ****     __HAL_DMA_CLEAR_FLAG (hdma, __HAL_DMA_GET_TE_FLAG_INDEX(hdma));
 2593              		.loc 1 197 5 view .LVU709
 2594 0e8c 194A     		ldr	r2, .L469+24
 2595 0e8e 4FF48011 		mov	r1, #1048576
 198:Drivers/STM32F4xx_HAL_Driver/Src/stm32f4xx_hal_dma_ex.c ****     __HAL_DMA_CLEAR_FLAG (hdma, __HAL_DMA_GET_DME_FLAG_INDEX(hdma));
 2596              		.loc 1 198 5 view .LVU710
 2597 0e92 9C42     		cmp	r4, r3
 197:Drivers/STM32F4xx_HAL_Driver/Src/stm32f4xx_hal_dma_ex.c ****     __HAL_DMA_CLEAR_FLAG (hdma, __HAL_DMA_GET_TE_FLAG_INDEX(hdma));
 2598              		.loc 1 197 5 view .LVU711
 2599 0e94 D160     		str	r1, [r2, #12]
 198:Drivers/STM32F4xx_HAL_Driver/Src/stm32f4xx_hal_dma_ex.c ****     __HAL_DMA_CLEAR_FLAG (hdma, __HAL_DMA_GET_DME_FLAG_INDEX(hdma));
 2600              		.loc 1 198 5 is_stmt 1 view .LVU712
 2601 0e96 7FF4FFAC 		bne	.L70
 2602              	.L131:
 2603 0e9a 164B     		ldr	r3, .L469+24
 2604 0e9c 4FF40072 		mov	r2, #512
 2605 0ea0 9A60     		str	r2, [r3, #8]
 199:Drivers/STM32F4xx_HAL_Driver/Src/stm32f4xx_hal_dma_ex.c ****     __HAL_DMA_CLEAR_FLAG (hdma, __HAL_DMA_GET_FE_FLAG_INDEX(hdma));
 2606              		.loc 1 199 5 view .LVU713
 2607 0ea2 EBE6     		b	.L233
 2608              	.LVL201:
 2609              	.L429:
 196:Drivers/STM32F4xx_HAL_Driver/Src/stm32f4xx_hal_dma_ex.c ****     __HAL_DMA_CLEAR_FLAG (hdma, __HAL_DMA_GET_HT_FLAG_INDEX(hdma));
 2610              		.loc 1 196 5 is_stmt 0 view .LVU714
ARM GAS  C:\Users\pw705\AppData\Local\Temp\ccthnice.s 			page 64


 2611 0ea4 4FF40011 		mov	r1, #2097152
 2612              	.LVL202:
 197:Drivers/STM32F4xx_HAL_Driver/Src/stm32f4xx_hal_dma_ex.c ****     __HAL_DMA_CLEAR_FLAG (hdma, __HAL_DMA_GET_TE_FLAG_INDEX(hdma));
 2613              		.loc 1 197 5 view .LVU715
 2614 0ea8 4FF48012 		mov	r2, #1048576
 2615              	.LVL203:
 196:Drivers/STM32F4xx_HAL_Driver/Src/stm32f4xx_hal_dma_ex.c ****     __HAL_DMA_CLEAR_FLAG (hdma, __HAL_DMA_GET_HT_FLAG_INDEX(hdma));
 2616              		.loc 1 196 5 view .LVU716
 2617 0eac 43F8381C 		str	r1, [r3, #-56]
 2618              	.LVL204:
 197:Drivers/STM32F4xx_HAL_Driver/Src/stm32f4xx_hal_dma_ex.c ****     __HAL_DMA_CLEAR_FLAG (hdma, __HAL_DMA_GET_TE_FLAG_INDEX(hdma));
 2619              		.loc 1 197 5 is_stmt 1 view .LVU717
 2620 0eb0 43F8382C 		str	r2, [r3, #-56]
 198:Drivers/STM32F4xx_HAL_Driver/Src/stm32f4xx_hal_dma_ex.c ****     __HAL_DMA_CLEAR_FLAG (hdma, __HAL_DMA_GET_DME_FLAG_INDEX(hdma));
 2621              		.loc 1 198 5 view .LVU718
 2622 0eb4 F0E4     		b	.L70
 2623              	.L254:
 199:Drivers/STM32F4xx_HAL_Driver/Src/stm32f4xx_hal_dma_ex.c ****     __HAL_DMA_CLEAR_FLAG (hdma, __HAL_DMA_GET_FE_FLAG_INDEX(hdma));
 2624              		.loc 1 199 5 is_stmt 0 view .LVU719
 2625 0eb6 094B     		ldr	r3, .L469
 2626 0eb8 4FF48022 		mov	r2, #262144
 2627 0ebc 9A60     		str	r2, [r3, #8]
 200:Drivers/STM32F4xx_HAL_Driver/Src/stm32f4xx_hal_dma_ex.c **** 
 2628              		.loc 1 200 5 is_stmt 1 view .LVU720
 2629 0ebe B3E6     		b	.L243
 2630              	.L174:
 198:Drivers/STM32F4xx_HAL_Driver/Src/stm32f4xx_hal_dma_ex.c ****     __HAL_DMA_CLEAR_FLAG (hdma, __HAL_DMA_GET_DME_FLAG_INDEX(hdma));
 2631              		.loc 1 198 5 is_stmt 0 view .LVU721
 2632 0ec0 064B     		ldr	r3, .L469
 2633 0ec2 4FF40022 		mov	r2, #524288
 2634 0ec6 9A60     		str	r2, [r3, #8]
 199:Drivers/STM32F4xx_HAL_Driver/Src/stm32f4xx_hal_dma_ex.c ****     __HAL_DMA_CLEAR_FLAG (hdma, __HAL_DMA_GET_FE_FLAG_INDEX(hdma));
 2635              		.loc 1 199 5 is_stmt 1 view .LVU722
 2636 0ec8 88E7     		b	.L153
 2637              	.LVL205:
 2638              	.L62:
 196:Drivers/STM32F4xx_HAL_Driver/Src/stm32f4xx_hal_dma_ex.c ****     __HAL_DMA_CLEAR_FLAG (hdma, __HAL_DMA_GET_HT_FLAG_INDEX(hdma));
 2639              		.loc 1 196 5 is_stmt 0 view .LVU723
 2640 0eca 044B     		ldr	r3, .L469
 2641 0ecc 4FF40011 		mov	r1, #2097152
 2642              	.LVL206:
 197:Drivers/STM32F4xx_HAL_Driver/Src/stm32f4xx_hal_dma_ex.c ****     __HAL_DMA_CLEAR_FLAG (hdma, __HAL_DMA_GET_TE_FLAG_INDEX(hdma));
 2643              		.loc 1 197 5 view .LVU724
 2644 0ed0 4FF48012 		mov	r2, #1048576
 2645              	.LVL207:
 196:Drivers/STM32F4xx_HAL_Driver/Src/stm32f4xx_hal_dma_ex.c ****     __HAL_DMA_CLEAR_FLAG (hdma, __HAL_DMA_GET_HT_FLAG_INDEX(hdma));
 2646              		.loc 1 196 5 view .LVU725
 2647 0ed4 9960     		str	r1, [r3, #8]
 2648              	.LVL208:
 197:Drivers/STM32F4xx_HAL_Driver/Src/stm32f4xx_hal_dma_ex.c ****     __HAL_DMA_CLEAR_FLAG (hdma, __HAL_DMA_GET_TE_FLAG_INDEX(hdma));
 2649              		.loc 1 197 5 is_stmt 1 view .LVU726
 2650 0ed6 9A60     		str	r2, [r3, #8]
 198:Drivers/STM32F4xx_HAL_Driver/Src/stm32f4xx_hal_dma_ex.c ****     __HAL_DMA_CLEAR_FLAG (hdma, __HAL_DMA_GET_DME_FLAG_INDEX(hdma));
 2651              		.loc 1 198 5 view .LVU727
 2652 0ed8 22E6     		b	.L69
 2653              	.L470:
 2654 0eda 00BF     		.align	2
ARM GAS  C:\Users\pw705\AppData\Local\Temp\ccthnice.s 			page 65


 2655              	.L469:
 2656 0edc 00640240 		.word	1073898496
 2657 0ee0 28640240 		.word	1073898536
 2658 0ee4 88600240 		.word	1073897608
 2659 0ee8 40640240 		.word	1073898560
 2660 0eec A0600240 		.word	1073897632
 2661 0ef0 88640240 		.word	1073898632
 2662 0ef4 00600240 		.word	1073897472
 2663 0ef8 40600240 		.word	1073897536
 2664 0efc A0640240 		.word	1073898656
 2665 0f00 B8600240 		.word	1073897656
 2666 0f04 10600240 		.word	1073897488
 2667 0f08 10640240 		.word	1073898512
 2668 0f0c 70600240 		.word	1073897584
 2669 0f10 70640240 		.word	1073898608
 2670 0f14 28600240 		.word	1073897512
 2671 0f18 58640240 		.word	1073898584
 2672              	.L440:
 2673 0f1c 4FF40022 		mov	r2, #524288
 2674 0f20 43F8982C 		str	r2, [r3, #-152]
 199:Drivers/STM32F4xx_HAL_Driver/Src/stm32f4xx_hal_dma_ex.c ****     __HAL_DMA_CLEAR_FLAG (hdma, __HAL_DMA_GET_FE_FLAG_INDEX(hdma));
 2675              		.loc 1 199 5 view .LVU728
 2676 0f24 B7E6     		b	.L176
 2677              	.LVL209:
 2678              	.L63:
 196:Drivers/STM32F4xx_HAL_Driver/Src/stm32f4xx_hal_dma_ex.c ****     __HAL_DMA_CLEAR_FLAG (hdma, __HAL_DMA_GET_HT_FLAG_INDEX(hdma));
 2679              		.loc 1 196 5 is_stmt 0 view .LVU729
 2680 0f26 B64B     		ldr	r3, .L471
 2681 0f28 4FF40012 		mov	r2, #2097152
 2682              	.LVL210:
 196:Drivers/STM32F4xx_HAL_Driver/Src/stm32f4xx_hal_dma_ex.c ****     __HAL_DMA_CLEAR_FLAG (hdma, __HAL_DMA_GET_HT_FLAG_INDEX(hdma));
 2683              		.loc 1 196 5 view .LVU730
 2684 0f2c 9A60     		str	r2, [r3, #8]
 2685              	.LVL211:
 197:Drivers/STM32F4xx_HAL_Driver/Src/stm32f4xx_hal_dma_ex.c ****     __HAL_DMA_CLEAR_FLAG (hdma, __HAL_DMA_GET_TE_FLAG_INDEX(hdma));
 2686              		.loc 1 197 5 is_stmt 1 view .LVU731
 2687 0f2e FFF7BDB9 		b	.L64
 2688              	.LVL212:
 2689              	.L191:
 198:Drivers/STM32F4xx_HAL_Driver/Src/stm32f4xx_hal_dma_ex.c ****     __HAL_DMA_CLEAR_FLAG (hdma, __HAL_DMA_GET_DME_FLAG_INDEX(hdma));
 2690              		.loc 1 198 5 is_stmt 0 view .LVU732
 2691 0f32 B44B     		ldr	r3, .L471+4
 2692 0f34 4FF40022 		mov	r2, #524288
 2693 0f38 DA60     		str	r2, [r3, #12]
 199:Drivers/STM32F4xx_HAL_Driver/Src/stm32f4xx_hal_dma_ex.c ****     __HAL_DMA_CLEAR_FLAG (hdma, __HAL_DMA_GET_FE_FLAG_INDEX(hdma));
 2694              		.loc 1 199 5 is_stmt 1 view .LVU733
 2695 0f3a FFF7E5BB 		b	.L190
 2696              	.L285:
 2697 0f3e B14B     		ldr	r3, .L471+4
 2698 0f40 4FF48022 		mov	r2, #262144
 2699 0f44 9A60     		str	r2, [r3, #8]
 200:Drivers/STM32F4xx_HAL_Driver/Src/stm32f4xx_hal_dma_ex.c **** 
 2700              		.loc 1 200 5 view .LVU734
 2701              	.L283:
 200:Drivers/STM32F4xx_HAL_Driver/Src/stm32f4xx_hal_dma_ex.c **** 
 2702              		.loc 1 200 5 is_stmt 0 discriminator 118 view .LVU735
 2703 0f46 B04B     		ldr	r3, .L471+8
ARM GAS  C:\Users\pw705\AppData\Local\Temp\ccthnice.s 			page 66


 2704 0f48 9C42     		cmp	r4, r3
 2705 0f4a 7FF47AAE 		bne	.L270
 2706              	.L299:
 200:Drivers/STM32F4xx_HAL_Driver/Src/stm32f4xx_hal_dma_ex.c **** 
 2707              		.loc 1 200 5 view .LVU736
 2708 0f4e 4FF48032 		mov	r2, #65536
 2709 0f52 FFF7DDB9 		b	.L298
 2710              	.L163:
 198:Drivers/STM32F4xx_HAL_Driver/Src/stm32f4xx_hal_dma_ex.c ****     __HAL_DMA_CLEAR_FLAG (hdma, __HAL_DMA_GET_DME_FLAG_INDEX(hdma));
 2711              		.loc 1 198 5 view .LVU737
 2712 0f56 AD4B     		ldr	r3, .L471+12
 2713 0f58 9C42     		cmp	r4, r3
 2714 0f5a 40F21681 		bls	.L140
 2715 0f5e AC4B     		ldr	r3, .L471+16
 2716 0f60 9C42     		cmp	r4, r3
 2717 0f62 7FF445A9 		bne	.L139
 2718 0f66 A74B     		ldr	r3, .L471+4
 2719 0f68 0822     		movs	r2, #8
 2720 0f6a DA60     		str	r2, [r3, #12]
 199:Drivers/STM32F4xx_HAL_Driver/Src/stm32f4xx_hal_dma_ex.c ****     __HAL_DMA_CLEAR_FLAG (hdma, __HAL_DMA_GET_FE_FLAG_INDEX(hdma));
 2721              		.loc 1 199 5 is_stmt 1 view .LVU738
 2722 0f6c 58E4     		b	.L162
 2723              	.L196:
 2724 0f6e A84B     		ldr	r3, .L471+16
 2725 0f70 9C42     		cmp	r4, r3
 2726 0f72 00F0DA80 		beq	.L224
 2727 0f76 03F58063 		add	r3, r3, #1024
 2728 0f7a 9C42     		cmp	r4, r3
 2729 0f7c 00F0D580 		beq	.L224
 2730 0f80 A3F56873 		sub	r3, r3, #928
 2731 0f84 9C42     		cmp	r4, r3
 2732 0f86 7FF44DAF 		bne	.L160
 2733 0f8a 0422     		movs	r2, #4
 2734 0f8c C3F89C23 		str	r2, [r3, #924]
 200:Drivers/STM32F4xx_HAL_Driver/Src/stm32f4xx_hal_dma_ex.c **** 
 2735              		.loc 1 200 5 view .LVU739
 2736 0f90 FFF738B9 		b	.L49
 2737              	.L255:
 199:Drivers/STM32F4xx_HAL_Driver/Src/stm32f4xx_hal_dma_ex.c ****     __HAL_DMA_CLEAR_FLAG (hdma, __HAL_DMA_GET_FE_FLAG_INDEX(hdma));
 2738              		.loc 1 199 5 is_stmt 0 view .LVU740
 2739 0f94 9A4B     		ldr	r3, .L471
 2740 0f96 4FF48022 		mov	r2, #262144
 2741 0f9a 9A60     		str	r2, [r3, #8]
 200:Drivers/STM32F4xx_HAL_Driver/Src/stm32f4xx_hal_dma_ex.c **** 
 2742              		.loc 1 200 5 is_stmt 1 view .LVU741
 2743 0f9c 35E4     		b	.L244
 2744              	.L133:
 197:Drivers/STM32F4xx_HAL_Driver/Src/stm32f4xx_hal_dma_ex.c ****     __HAL_DMA_CLEAR_FLAG (hdma, __HAL_DMA_GET_TE_FLAG_INDEX(hdma));
 2745              		.loc 1 197 5 is_stmt 0 view .LVU742
 2746 0f9e 994B     		ldr	r3, .L471+4
 2747 0fa0 4FF48012 		mov	r2, #1048576
 2748 0fa4 DA60     		str	r2, [r3, #12]
 198:Drivers/STM32F4xx_HAL_Driver/Src/stm32f4xx_hal_dma_ex.c ****     __HAL_DMA_CLEAR_FLAG (hdma, __HAL_DMA_GET_DME_FLAG_INDEX(hdma));
 2749              		.loc 1 198 5 is_stmt 1 view .LVU743
 2750 0fa6 FFF76FBB 		b	.L114
 2751              	.LVL213:
 2752              	.L128:
ARM GAS  C:\Users\pw705\AppData\Local\Temp\ccthnice.s 			page 67


 197:Drivers/STM32F4xx_HAL_Driver/Src/stm32f4xx_hal_dma_ex.c ****     __HAL_DMA_CLEAR_FLAG (hdma, __HAL_DMA_GET_TE_FLAG_INDEX(hdma));
 2753              		.loc 1 197 5 is_stmt 0 view .LVU744
 2754 0faa 954B     		ldr	r3, .L471
 2755 0fac 4FF48012 		mov	r2, #1048576
 2756 0fb0 9A60     		str	r2, [r3, #8]
 198:Drivers/STM32F4xx_HAL_Driver/Src/stm32f4xx_hal_dma_ex.c ****     __HAL_DMA_CLEAR_FLAG (hdma, __HAL_DMA_GET_DME_FLAG_INDEX(hdma));
 2757              		.loc 1 198 5 is_stmt 1 view .LVU745
 2758 0fb2 FFF771BB 		b	.L127
 2759              	.LVL214:
 2760              	.L412:
 196:Drivers/STM32F4xx_HAL_Driver/Src/stm32f4xx_hal_dma_ex.c ****     __HAL_DMA_CLEAR_FLAG (hdma, __HAL_DMA_GET_HT_FLAG_INDEX(hdma));
 2761              		.loc 1 196 5 is_stmt 0 view .LVU746
 2762 0fb6 934B     		ldr	r3, .L471+4
 2763 0fb8 4FF40012 		mov	r2, #2097152
 2764 0fbc DA60     		str	r2, [r3, #12]
 2765              	.LVL215:
 197:Drivers/STM32F4xx_HAL_Driver/Src/stm32f4xx_hal_dma_ex.c ****     __HAL_DMA_CLEAR_FLAG (hdma, __HAL_DMA_GET_TE_FLAG_INDEX(hdma));
 2766              		.loc 1 197 5 is_stmt 1 view .LVU747
 2767 0fbe FFF7FDB8 		b	.L87
 2768              	.LVL216:
 2769              	.L211:
 198:Drivers/STM32F4xx_HAL_Driver/Src/stm32f4xx_hal_dma_ex.c ****     __HAL_DMA_CLEAR_FLAG (hdma, __HAL_DMA_GET_DME_FLAG_INDEX(hdma));
 2770              		.loc 1 198 5 is_stmt 0 view .LVU748
 2771 0fc2 904B     		ldr	r3, .L471+4
 2772 0fc4 4FF40022 		mov	r2, #524288
 2773 0fc8 9A60     		str	r2, [r3, #8]
 199:Drivers/STM32F4xx_HAL_Driver/Src/stm32f4xx_hal_dma_ex.c ****     __HAL_DMA_CLEAR_FLAG (hdma, __HAL_DMA_GET_FE_FLAG_INDEX(hdma));
 2774              		.loc 1 199 5 is_stmt 1 view .LVU749
 2775 0fca FFF79DBB 		b	.L190
 2776              	.L449:
 198:Drivers/STM32F4xx_HAL_Driver/Src/stm32f4xx_hal_dma_ex.c ****     __HAL_DMA_CLEAR_FLAG (hdma, __HAL_DMA_GET_DME_FLAG_INDEX(hdma));
 2777              		.loc 1 198 5 is_stmt 0 view .LVU750
 2778 0fce 0823     		movs	r3, #8
 2779 0fd0 D360     		str	r3, [r2, #12]
 199:Drivers/STM32F4xx_HAL_Driver/Src/stm32f4xx_hal_dma_ex.c ****     __HAL_DMA_CLEAR_FLAG (hdma, __HAL_DMA_GET_FE_FLAG_INDEX(hdma));
 2780              		.loc 1 199 5 is_stmt 1 view .LVU751
 2781 0fd2 25E4     		b	.L162
 2782              	.L159:
 2783 0fd4 0423     		movs	r3, #4
 2784 0fd6 D360     		str	r3, [r2, #12]
 200:Drivers/STM32F4xx_HAL_Driver/Src/stm32f4xx_hal_dma_ex.c **** 
 2785              		.loc 1 200 5 view .LVU752
 2786 0fd8 FFF76DBA 		b	.L242
 2787              	.L414:
 198:Drivers/STM32F4xx_HAL_Driver/Src/stm32f4xx_hal_dma_ex.c ****     __HAL_DMA_CLEAR_FLAG (hdma, __HAL_DMA_GET_DME_FLAG_INDEX(hdma));
 2788              		.loc 1 198 5 is_stmt 0 view .LVU753
 2789 0fdc A83B     		subs	r3, r3, #168
 2790 0fde 9C42     		cmp	r4, r3
 2791 0fe0 7FF496A8 		bne	.L137
 2792 0fe4 0822     		movs	r2, #8
 2793 0fe6 C3F8F823 		str	r2, [r3, #1016]
 199:Drivers/STM32F4xx_HAL_Driver/Src/stm32f4xx_hal_dma_ex.c ****     __HAL_DMA_CLEAR_FLAG (hdma, __HAL_DMA_GET_FE_FLAG_INDEX(hdma));
 2794              		.loc 1 199 5 is_stmt 1 view .LVU754
 2795 0fea FFF743BA 		b	.L138
 2796              	.LVL217:
 2797              	.L413:
 196:Drivers/STM32F4xx_HAL_Driver/Src/stm32f4xx_hal_dma_ex.c ****     __HAL_DMA_CLEAR_FLAG (hdma, __HAL_DMA_GET_HT_FLAG_INDEX(hdma));
ARM GAS  C:\Users\pw705\AppData\Local\Temp\ccthnice.s 			page 68


 2798              		.loc 1 196 5 is_stmt 0 view .LVU755
 2799 0fee 854B     		ldr	r3, .L471+4
 2800 0ff0 4FF40012 		mov	r2, #2097152
 2801 0ff4 DA60     		str	r2, [r3, #12]
 2802              	.LVL218:
 197:Drivers/STM32F4xx_HAL_Driver/Src/stm32f4xx_hal_dma_ex.c ****     __HAL_DMA_CLEAR_FLAG (hdma, __HAL_DMA_GET_TE_FLAG_INDEX(hdma));
 2803              		.loc 1 197 5 is_stmt 1 view .LVU756
 2804              	.L89:
 198:Drivers/STM32F4xx_HAL_Driver/Src/stm32f4xx_hal_dma_ex.c ****     __HAL_DMA_CLEAR_FLAG (hdma, __HAL_DMA_GET_DME_FLAG_INDEX(hdma));
 2805              		.loc 1 198 5 is_stmt 0 view .LVU757
 2806 0ff6 874B     		ldr	r3, .L471+20
 197:Drivers/STM32F4xx_HAL_Driver/Src/stm32f4xx_hal_dma_ex.c ****     __HAL_DMA_CLEAR_FLAG (hdma, __HAL_DMA_GET_TE_FLAG_INDEX(hdma));
 2807              		.loc 1 197 5 view .LVU758
 2808 0ff8 824A     		ldr	r2, .L471+4
 2809 0ffa 4FF48011 		mov	r1, #1048576
 198:Drivers/STM32F4xx_HAL_Driver/Src/stm32f4xx_hal_dma_ex.c ****     __HAL_DMA_CLEAR_FLAG (hdma, __HAL_DMA_GET_DME_FLAG_INDEX(hdma));
 2810              		.loc 1 198 5 view .LVU759
 2811 0ffe 9C42     		cmp	r4, r3
 197:Drivers/STM32F4xx_HAL_Driver/Src/stm32f4xx_hal_dma_ex.c ****     __HAL_DMA_CLEAR_FLAG (hdma, __HAL_DMA_GET_TE_FLAG_INDEX(hdma));
 2812              		.loc 1 197 5 view .LVU760
 2813 1000 D160     		str	r1, [r2, #12]
 198:Drivers/STM32F4xx_HAL_Driver/Src/stm32f4xx_hal_dma_ex.c ****     __HAL_DMA_CLEAR_FLAG (hdma, __HAL_DMA_GET_DME_FLAG_INDEX(hdma));
 2814              		.loc 1 198 5 is_stmt 1 view .LVU761
 2815 1002 3FF437AE 		beq	.L117
 2816 1006 804B     		ldr	r3, .L471+8
 2817 1008 9C42     		cmp	r4, r3
 2818 100a 7FF48DAD 		bne	.L186
 2819              	.L187:
 199:Drivers/STM32F4xx_HAL_Driver/Src/stm32f4xx_hal_dma_ex.c ****     __HAL_DMA_CLEAR_FLAG (hdma, __HAL_DMA_GET_FE_FLAG_INDEX(hdma));
 2820              		.loc 1 199 5 is_stmt 0 view .LVU762
 2821 100e 824B     		ldr	r3, .L471+24
 198:Drivers/STM32F4xx_HAL_Driver/Src/stm32f4xx_hal_dma_ex.c ****     __HAL_DMA_CLEAR_FLAG (hdma, __HAL_DMA_GET_DME_FLAG_INDEX(hdma));
 2822              		.loc 1 198 5 view .LVU763
 2823 1010 7C4A     		ldr	r2, .L471+4
 2824 1012 4FF40021 		mov	r1, #524288
 199:Drivers/STM32F4xx_HAL_Driver/Src/stm32f4xx_hal_dma_ex.c ****     __HAL_DMA_CLEAR_FLAG (hdma, __HAL_DMA_GET_FE_FLAG_INDEX(hdma));
 2825              		.loc 1 199 5 view .LVU764
 2826 1016 9C42     		cmp	r4, r3
 198:Drivers/STM32F4xx_HAL_Driver/Src/stm32f4xx_hal_dma_ex.c ****     __HAL_DMA_CLEAR_FLAG (hdma, __HAL_DMA_GET_DME_FLAG_INDEX(hdma));
 2827              		.loc 1 198 5 view .LVU765
 2828 1018 D160     		str	r1, [r2, #12]
 199:Drivers/STM32F4xx_HAL_Driver/Src/stm32f4xx_hal_dma_ex.c ****     __HAL_DMA_CLEAR_FLAG (hdma, __HAL_DMA_GET_FE_FLAG_INDEX(hdma));
 2829              		.loc 1 199 5 is_stmt 1 view .LVU766
 2830 101a 3FF44BAD 		beq	.L169
 2831              	.L189:
 199:Drivers/STM32F4xx_HAL_Driver/Src/stm32f4xx_hal_dma_ex.c ****     __HAL_DMA_CLEAR_FLAG (hdma, __HAL_DMA_GET_FE_FLAG_INDEX(hdma));
 2832              		.loc 1 199 5 is_stmt 0 discriminator 165 view .LVU767
 2833 101e 7D4B     		ldr	r3, .L471+20
 2834 1020 9C42     		cmp	r4, r3
 2835 1022 3FF442AD 		beq	.L172
 199:Drivers/STM32F4xx_HAL_Driver/Src/stm32f4xx_hal_dma_ex.c ****     __HAL_DMA_CLEAR_FLAG (hdma, __HAL_DMA_GET_FE_FLAG_INDEX(hdma));
 2836              		.loc 1 199 5 discriminator 167 view .LVU768
 2837 1026 784B     		ldr	r3, .L471+8
 2838 1028 9C42     		cmp	r4, r3
 2839 102a 3FF43DAC 		beq	.L171
 199:Drivers/STM32F4xx_HAL_Driver/Src/stm32f4xx_hal_dma_ex.c ****     __HAL_DMA_CLEAR_FLAG (hdma, __HAL_DMA_GET_FE_FLAG_INDEX(hdma));
 2840              		.loc 1 199 5 discriminator 169 view .LVU769
ARM GAS  C:\Users\pw705\AppData\Local\Temp\ccthnice.s 			page 69


 2841 102e 7B4B     		ldr	r3, .L471+28
 2842 1030 9C42     		cmp	r4, r3
 2843 1032 1AD0     		beq	.L284
 199:Drivers/STM32F4xx_HAL_Driver/Src/stm32f4xx_hal_dma_ex.c ****     __HAL_DMA_CLEAR_FLAG (hdma, __HAL_DMA_GET_FE_FLAG_INDEX(hdma));
 2844              		.loc 1 199 5 discriminator 171 view .LVU770
 2845 1034 A3F56873 		sub	r3, r3, #928
 2846 1038 9C42     		cmp	r4, r3
 2847 103a 80D0     		beq	.L285
 199:Drivers/STM32F4xx_HAL_Driver/Src/stm32f4xx_hal_dma_ex.c ****     __HAL_DMA_CLEAR_FLAG (hdma, __HAL_DMA_GET_FE_FLAG_INDEX(hdma));
 2848              		.loc 1 199 5 discriminator 173 view .LVU771
 2849 103c 03F58063 		add	r3, r3, #1024
 2850 1040 9C42     		cmp	r4, r3
 2851 1042 77D0     		beq	.L286
 199:Drivers/STM32F4xx_HAL_Driver/Src/stm32f4xx_hal_dma_ex.c ****     __HAL_DMA_CLEAR_FLAG (hdma, __HAL_DMA_GET_FE_FLAG_INDEX(hdma));
 2852              		.loc 1 199 5 view .LVU772
 2853 1044 6F4A     		ldr	r2, .L471+4
 200:Drivers/STM32F4xx_HAL_Driver/Src/stm32f4xx_hal_dma_ex.c **** 
 2854              		.loc 1 200 5 view .LVU773
 2855 1046 483B     		subs	r3, r3, #72
 199:Drivers/STM32F4xx_HAL_Driver/Src/stm32f4xx_hal_dma_ex.c ****     __HAL_DMA_CLEAR_FLAG (hdma, __HAL_DMA_GET_FE_FLAG_INDEX(hdma));
 2856              		.loc 1 199 5 view .LVU774
 2857 1048 4FF08071 		mov	r1, #16777216
 200:Drivers/STM32F4xx_HAL_Driver/Src/stm32f4xx_hal_dma_ex.c **** 
 2858              		.loc 1 200 5 view .LVU775
 2859 104c 9C42     		cmp	r4, r3
 199:Drivers/STM32F4xx_HAL_Driver/Src/stm32f4xx_hal_dma_ex.c ****     __HAL_DMA_CLEAR_FLAG (hdma, __HAL_DMA_GET_FE_FLAG_INDEX(hdma));
 2860              		.loc 1 199 5 view .LVU776
 2861 104e 9160     		str	r1, [r2, #8]
 200:Drivers/STM32F4xx_HAL_Driver/Src/stm32f4xx_hal_dma_ex.c **** 
 2862              		.loc 1 200 5 is_stmt 1 view .LVU777
 2863 1050 3FF6A6AB 		bhi	.L256
 2864 1054 A3F56873 		sub	r3, r3, #928
 2865 1058 9C42     		cmp	r4, r3
 2866 105a 3FF62AAE 		bhi	.L287
 2867 105e 603B     		subs	r3, r3, #96
 2868 1060 9C42     		cmp	r4, r3
 2869 1062 7FF684AC 		bls	.L288
 2870 1066 FFF7E3BB 		b	.L296
 2871              	.L284:
 199:Drivers/STM32F4xx_HAL_Driver/Src/stm32f4xx_hal_dma_ex.c ****     __HAL_DMA_CLEAR_FLAG (hdma, __HAL_DMA_GET_FE_FLAG_INDEX(hdma));
 2872              		.loc 1 199 5 is_stmt 0 view .LVU778
 2873 106a 664B     		ldr	r3, .L471+4
 2874 106c 4FF48022 		mov	r2, #262144
 2875 1070 9A60     		str	r2, [r3, #8]
 200:Drivers/STM32F4xx_HAL_Driver/Src/stm32f4xx_hal_dma_ex.c **** 
 2876              		.loc 1 200 5 is_stmt 1 view .LVU779
 2877 1072 A0E6     		b	.L262
 2878              	.L212:
 198:Drivers/STM32F4xx_HAL_Driver/Src/stm32f4xx_hal_dma_ex.c ****     __HAL_DMA_CLEAR_FLAG (hdma, __HAL_DMA_GET_DME_FLAG_INDEX(hdma));
 2879              		.loc 1 198 5 is_stmt 0 view .LVU780
 2880 1074 634B     		ldr	r3, .L471+4
 2881 1076 4FF40022 		mov	r2, #524288
 2882 107a 9A60     		str	r2, [r3, #8]
 199:Drivers/STM32F4xx_HAL_Driver/Src/stm32f4xx_hal_dma_ex.c ****     __HAL_DMA_CLEAR_FLAG (hdma, __HAL_DMA_GET_FE_FLAG_INDEX(hdma));
 2883              		.loc 1 199 5 is_stmt 1 view .LVU781
 2884 107c AEE6     		b	.L153
 2885              	.L380:
ARM GAS  C:\Users\pw705\AppData\Local\Temp\ccthnice.s 			page 70


 2886 107e A83B     		subs	r3, r3, #168
 2887 1080 9C42     		cmp	r4, r3
 2888 1082 7FF41FAB 		bne	.L198
 2889 1086 0422     		movs	r2, #4
 2890 1088 C3F8F823 		str	r2, [r3, #1016]
 200:Drivers/STM32F4xx_HAL_Driver/Src/stm32f4xx_hal_dma_ex.c **** 
 2891              		.loc 1 200 5 view .LVU782
 2892 108c FFF73FB9 		b	.L24
 2893              	.L444:
 199:Drivers/STM32F4xx_HAL_Driver/Src/stm32f4xx_hal_dma_ex.c ****     __HAL_DMA_CLEAR_FLAG (hdma, __HAL_DMA_GET_FE_FLAG_INDEX(hdma));
 2894              		.loc 1 199 5 is_stmt 0 view .LVU783
 2895 1090 4FF48022 		mov	r2, #262144
 2896 1094 43F8342C 		str	r2, [r3, #-52]
 200:Drivers/STM32F4xx_HAL_Driver/Src/stm32f4xx_hal_dma_ex.c **** 
 2897              		.loc 1 200 5 is_stmt 1 view .LVU784
 2898 1098 84E4     		b	.L268
 2899              	.L271:
 199:Drivers/STM32F4xx_HAL_Driver/Src/stm32f4xx_hal_dma_ex.c ****     __HAL_DMA_CLEAR_FLAG (hdma, __HAL_DMA_GET_FE_FLAG_INDEX(hdma));
 2900              		.loc 1 199 5 is_stmt 0 view .LVU785
 2901 109a 5A4B     		ldr	r3, .L471+4
 2902 109c 4FF48022 		mov	r2, #262144
 2903 10a0 DA60     		str	r2, [r3, #12]
 200:Drivers/STM32F4xx_HAL_Driver/Src/stm32f4xx_hal_dma_ex.c **** 
 2904              		.loc 1 200 5 is_stmt 1 view .LVU786
 2905 10a2 FFF76DBB 		b	.L269
 2906              	.L272:
 199:Drivers/STM32F4xx_HAL_Driver/Src/stm32f4xx_hal_dma_ex.c ****     __HAL_DMA_CLEAR_FLAG (hdma, __HAL_DMA_GET_FE_FLAG_INDEX(hdma));
 2907              		.loc 1 199 5 is_stmt 0 view .LVU787
 2908 10a6 574B     		ldr	r3, .L471+4
 2909 10a8 4FF48022 		mov	r2, #262144
 2910 10ac DA60     		str	r2, [r3, #12]
 200:Drivers/STM32F4xx_HAL_Driver/Src/stm32f4xx_hal_dma_ex.c **** 
 2911              		.loc 1 200 5 is_stmt 1 view .LVU788
 2912 10ae C8E5     		b	.L270
 2913              	.LVL219:
 2914              	.L431:
 196:Drivers/STM32F4xx_HAL_Driver/Src/stm32f4xx_hal_dma_ex.c ****     __HAL_DMA_CLEAR_FLAG (hdma, __HAL_DMA_GET_HT_FLAG_INDEX(hdma));
 2915              		.loc 1 196 5 is_stmt 0 view .LVU789
 2916 10b0 4FF40011 		mov	r1, #2097152
 2917              	.LVL220:
 197:Drivers/STM32F4xx_HAL_Driver/Src/stm32f4xx_hal_dma_ex.c ****     __HAL_DMA_CLEAR_FLAG (hdma, __HAL_DMA_GET_TE_FLAG_INDEX(hdma));
 2918              		.loc 1 197 5 view .LVU790
 2919 10b4 4FF48012 		mov	r2, #1048576
 2920              	.LVL221:
 196:Drivers/STM32F4xx_HAL_Driver/Src/stm32f4xx_hal_dma_ex.c ****     __HAL_DMA_CLEAR_FLAG (hdma, __HAL_DMA_GET_HT_FLAG_INDEX(hdma));
 2921              		.loc 1 196 5 view .LVU791
 2922 10b8 43F8981C 		str	r1, [r3, #-152]
 2923              	.LVL222:
 197:Drivers/STM32F4xx_HAL_Driver/Src/stm32f4xx_hal_dma_ex.c ****     __HAL_DMA_CLEAR_FLAG (hdma, __HAL_DMA_GET_TE_FLAG_INDEX(hdma));
 2924              		.loc 1 197 5 is_stmt 1 view .LVU792
 2925 10bc 43F8982C 		str	r2, [r3, #-152]
 198:Drivers/STM32F4xx_HAL_Driver/Src/stm32f4xx_hal_dma_ex.c ****     __HAL_DMA_CLEAR_FLAG (hdma, __HAL_DMA_GET_DME_FLAG_INDEX(hdma));
 2926              		.loc 1 198 5 view .LVU793
 2927              	.L105:
 198:Drivers/STM32F4xx_HAL_Driver/Src/stm32f4xx_hal_dma_ex.c ****     __HAL_DMA_CLEAR_FLAG (hdma, __HAL_DMA_GET_DME_FLAG_INDEX(hdma));
 2928              		.loc 1 198 5 is_stmt 0 discriminator 118 view .LVU794
 2929 10c0 514B     		ldr	r3, .L471+8
ARM GAS  C:\Users\pw705\AppData\Local\Temp\ccthnice.s 			page 71


 2930 10c2 9C42     		cmp	r4, r3
 2931 10c4 A3D0     		beq	.L187
 2932 10c6 2BE5     		b	.L69
 2933              	.LVL223:
 2934              	.L106:
 196:Drivers/STM32F4xx_HAL_Driver/Src/stm32f4xx_hal_dma_ex.c ****     __HAL_DMA_CLEAR_FLAG (hdma, __HAL_DMA_GET_HT_FLAG_INDEX(hdma));
 2935              		.loc 1 196 5 view .LVU795
 2936 10c8 4E4B     		ldr	r3, .L471+4
 2937 10ca 4FF40011 		mov	r1, #2097152
 2938              	.LVL224:
 197:Drivers/STM32F4xx_HAL_Driver/Src/stm32f4xx_hal_dma_ex.c ****     __HAL_DMA_CLEAR_FLAG (hdma, __HAL_DMA_GET_TE_FLAG_INDEX(hdma));
 2939              		.loc 1 197 5 view .LVU796
 2940 10ce 4FF48012 		mov	r2, #1048576
 2941              	.LVL225:
 196:Drivers/STM32F4xx_HAL_Driver/Src/stm32f4xx_hal_dma_ex.c ****     __HAL_DMA_CLEAR_FLAG (hdma, __HAL_DMA_GET_HT_FLAG_INDEX(hdma));
 2942              		.loc 1 196 5 view .LVU797
 2943 10d2 9960     		str	r1, [r3, #8]
 2944              	.LVL226:
 197:Drivers/STM32F4xx_HAL_Driver/Src/stm32f4xx_hal_dma_ex.c ****     __HAL_DMA_CLEAR_FLAG (hdma, __HAL_DMA_GET_TE_FLAG_INDEX(hdma));
 2945              		.loc 1 197 5 is_stmt 1 view .LVU798
 2946 10d4 9A60     		str	r2, [r3, #8]
 198:Drivers/STM32F4xx_HAL_Driver/Src/stm32f4xx_hal_dma_ex.c ****     __HAL_DMA_CLEAR_FLAG (hdma, __HAL_DMA_GET_DME_FLAG_INDEX(hdma));
 2947              		.loc 1 198 5 view .LVU799
 2948              	.L101:
 198:Drivers/STM32F4xx_HAL_Driver/Src/stm32f4xx_hal_dma_ex.c ****     __HAL_DMA_CLEAR_FLAG (hdma, __HAL_DMA_GET_DME_FLAG_INDEX(hdma));
 2949              		.loc 1 198 5 is_stmt 0 discriminator 63 view .LVU800
 2950 10d6 524B     		ldr	r3, .L471+32
 2951 10d8 9C42     		cmp	r4, r3
 2952 10da 0ED0     		beq	.L168
 198:Drivers/STM32F4xx_HAL_Driver/Src/stm32f4xx_hal_dma_ex.c ****     __HAL_DMA_CLEAR_FLAG (hdma, __HAL_DMA_GET_DME_FLAG_INDEX(hdma));
 2953              		.loc 1 198 5 discriminator 65 view .LVU801
 2954 10dc 03F58063 		add	r3, r3, #1024
 2955 10e0 9C42     		cmp	r4, r3
 2956 10e2 7FF4D1AA 		bne	.L114
 198:Drivers/STM32F4xx_HAL_Driver/Src/stm32f4xx_hal_dma_ex.c ****     __HAL_DMA_CLEAR_FLAG (hdma, __HAL_DMA_GET_DME_FLAG_INDEX(hdma));
 2957              		.loc 1 198 5 view .LVU802
 2958 10e6 4FF40071 		mov	r1, #512
 199:Drivers/STM32F4xx_HAL_Driver/Src/stm32f4xx_hal_dma_ex.c ****     __HAL_DMA_CLEAR_FLAG (hdma, __HAL_DMA_GET_FE_FLAG_INDEX(hdma));
 2959              		.loc 1 199 5 view .LVU803
 2960 10ea 4FF48072 		mov	r2, #256
 198:Drivers/STM32F4xx_HAL_Driver/Src/stm32f4xx_hal_dma_ex.c ****     __HAL_DMA_CLEAR_FLAG (hdma, __HAL_DMA_GET_DME_FLAG_INDEX(hdma));
 2961              		.loc 1 198 5 view .LVU804
 2962 10ee 43F8801C 		str	r1, [r3, #-128]
 199:Drivers/STM32F4xx_HAL_Driver/Src/stm32f4xx_hal_dma_ex.c ****     __HAL_DMA_CLEAR_FLAG (hdma, __HAL_DMA_GET_FE_FLAG_INDEX(hdma));
 2963              		.loc 1 199 5 is_stmt 1 view .LVU805
 2964 10f2 43F87C2C 		str	r2, [r3, #-124]
 200:Drivers/STM32F4xx_HAL_Driver/Src/stm32f4xx_hal_dma_ex.c **** 
 2965              		.loc 1 200 5 view .LVU806
 2966 10f6 FFF788BA 		b	.L38
 2967              	.L168:
 198:Drivers/STM32F4xx_HAL_Driver/Src/stm32f4xx_hal_dma_ex.c ****     __HAL_DMA_CLEAR_FLAG (hdma, __HAL_DMA_GET_DME_FLAG_INDEX(hdma));
 2968              		.loc 1 198 5 is_stmt 0 view .LVU807
 2969 10fa 414B     		ldr	r3, .L471
 2970 10fc 4FF40072 		mov	r2, #512
 2971 1100 9A60     		str	r2, [r3, #8]
 199:Drivers/STM32F4xx_HAL_Driver/Src/stm32f4xx_hal_dma_ex.c ****     __HAL_DMA_CLEAR_FLAG (hdma, __HAL_DMA_GET_FE_FLAG_INDEX(hdma));
 2972              		.loc 1 199 5 is_stmt 1 view .LVU808
ARM GAS  C:\Users\pw705\AppData\Local\Temp\ccthnice.s 			page 72


 2973 1102 FFF750BA 		b	.L111
 2974              	.L447:
 198:Drivers/STM32F4xx_HAL_Driver/Src/stm32f4xx_hal_dma_ex.c ****     __HAL_DMA_CLEAR_FLAG (hdma, __HAL_DMA_GET_DME_FLAG_INDEX(hdma));
 2975              		.loc 1 198 5 is_stmt 0 view .LVU809
 2976 1106 A3F59463 		sub	r3, r3, #1184
 2977 110a 4FF40022 		mov	r2, #524288
 2978 110e DA60     		str	r2, [r3, #12]
 199:Drivers/STM32F4xx_HAL_Driver/Src/stm32f4xx_hal_dma_ex.c ****     __HAL_DMA_CLEAR_FLAG (hdma, __HAL_DMA_GET_FE_FLAG_INDEX(hdma));
 2979              		.loc 1 199 5 is_stmt 1 view .LVU810
 2980 1110 BEE5     		b	.L195
 2981              	.L445:
 2982 1112 A3F59463 		sub	r3, r3, #1184
 2983 1116 4FF48022 		mov	r2, #262144
 2984 111a DA60     		str	r2, [r3, #12]
 200:Drivers/STM32F4xx_HAL_Driver/Src/stm32f4xx_hal_dma_ex.c **** 
 2985              		.loc 1 200 5 view .LVU811
 2986 111c FFF75EBB 		b	.L266
 2987              	.L213:
 198:Drivers/STM32F4xx_HAL_Driver/Src/stm32f4xx_hal_dma_ex.c ****     __HAL_DMA_CLEAR_FLAG (hdma, __HAL_DMA_GET_DME_FLAG_INDEX(hdma));
 2988              		.loc 1 198 5 is_stmt 0 view .LVU812
 2989 1120 384B     		ldr	r3, .L471+4
 2990 1122 4FF40022 		mov	r2, #524288
 2991 1126 9A60     		str	r2, [r3, #8]
 199:Drivers/STM32F4xx_HAL_Driver/Src/stm32f4xx_hal_dma_ex.c ****     __HAL_DMA_CLEAR_FLAG (hdma, __HAL_DMA_GET_FE_FLAG_INDEX(hdma));
 2992              		.loc 1 199 5 is_stmt 1 view .LVU813
 2993 1128 AFE5     		b	.L210
 2994              	.L224:
 2995 112a 354B     		ldr	r3, .L471
 2996 112c 0422     		movs	r2, #4
 2997 112e DA60     		str	r2, [r3, #12]
 200:Drivers/STM32F4xx_HAL_Driver/Src/stm32f4xx_hal_dma_ex.c **** 
 2998              		.loc 1 200 5 view .LVU814
 2999 1130 FFF768B8 		b	.L49
 3000              	.L286:
 199:Drivers/STM32F4xx_HAL_Driver/Src/stm32f4xx_hal_dma_ex.c ****     __HAL_DMA_CLEAR_FLAG (hdma, __HAL_DMA_GET_FE_FLAG_INDEX(hdma));
 3001              		.loc 1 199 5 is_stmt 0 view .LVU815
 3002 1134 334B     		ldr	r3, .L471+4
 3003 1136 4FF48022 		mov	r2, #262144
 3004 113a 9A60     		str	r2, [r3, #8]
 200:Drivers/STM32F4xx_HAL_Driver/Src/stm32f4xx_hal_dma_ex.c **** 
 3005              		.loc 1 200 5 is_stmt 1 view .LVU816
 3006 113c FFF75ABB 		b	.L282
 3007              	.L421:
 198:Drivers/STM32F4xx_HAL_Driver/Src/stm32f4xx_hal_dma_ex.c ****     __HAL_DMA_CLEAR_FLAG (hdma, __HAL_DMA_GET_DME_FLAG_INDEX(hdma));
 3008              		.loc 1 198 5 is_stmt 0 discriminator 61 view .LVU817
 3009 1140 354B     		ldr	r3, .L471+24
 3010 1142 9C42     		cmp	r4, r3
 3011 1144 C7D1     		bne	.L101
 3012 1146 FFF700BA 		b	.L34
 3013              	.L415:
 198:Drivers/STM32F4xx_HAL_Driver/Src/stm32f4xx_hal_dma_ex.c ****     __HAL_DMA_CLEAR_FLAG (hdma, __HAL_DMA_GET_DME_FLAG_INDEX(hdma));
 3014              		.loc 1 198 5 view .LVU818
 3015 114a 364B     		ldr	r3, .L471+36
 3016 114c 9C42     		cmp	r4, r3
 3017 114e 3FF48EA9 		beq	.L329
 3018 1152 354B     		ldr	r3, .L471+40
 3019 1154 9C42     		cmp	r4, r3
ARM GAS  C:\Users\pw705\AppData\Local\Temp\ccthnice.s 			page 73


 3020 1156 0DD0     		beq	.L455
 198:Drivers/STM32F4xx_HAL_Driver/Src/stm32f4xx_hal_dma_ex.c ****     __HAL_DMA_CLEAR_FLAG (hdma, __HAL_DMA_GET_DME_FLAG_INDEX(hdma));
 3021              		.loc 1 198 5 discriminator 110 view .LVU819
 3022 1158 344B     		ldr	r3, .L471+44
 3023 115a 9C42     		cmp	r4, r3
 3024 115c 0FD0     		beq	.L181
 198:Drivers/STM32F4xx_HAL_Driver/Src/stm32f4xx_hal_dma_ex.c ****     __HAL_DMA_CLEAR_FLAG (hdma, __HAL_DMA_GET_DME_FLAG_INDEX(hdma));
 3025              		.loc 1 198 5 discriminator 112 view .LVU820
 3026 115e 03F58063 		add	r3, r3, #1024
 3027 1162 9C42     		cmp	r4, r3
 3028 1164 7FF47EAD 		bne	.L182
 198:Drivers/STM32F4xx_HAL_Driver/Src/stm32f4xx_hal_dma_ex.c ****     __HAL_DMA_CLEAR_FLAG (hdma, __HAL_DMA_GET_DME_FLAG_INDEX(hdma));
 3029              		.loc 1 198 5 view .LVU821
 3030 1168 A3F58563 		sub	r3, r3, #1064
 3031 116c 4FF40072 		mov	r2, #512
 3032 1170 DA60     		str	r2, [r3, #12]
 199:Drivers/STM32F4xx_HAL_Driver/Src/stm32f4xx_hal_dma_ex.c ****     __HAL_DMA_CLEAR_FLAG (hdma, __HAL_DMA_GET_FE_FLAG_INDEX(hdma));
 3033              		.loc 1 199 5 is_stmt 1 view .LVU822
 3034 1172 6BE4     		b	.L183
 3035              	.L455:
 198:Drivers/STM32F4xx_HAL_Driver/Src/stm32f4xx_hal_dma_ex.c ****     __HAL_DMA_CLEAR_FLAG (hdma, __HAL_DMA_GET_DME_FLAG_INDEX(hdma));
 3036              		.loc 1 198 5 is_stmt 0 view .LVU823
 3037 1174 234B     		ldr	r3, .L471+4
 3038 1176 0822     		movs	r2, #8
 3039 1178 DA60     		str	r2, [r3, #12]
 199:Drivers/STM32F4xx_HAL_Driver/Src/stm32f4xx_hal_dma_ex.c ****     __HAL_DMA_CLEAR_FLAG (hdma, __HAL_DMA_GET_FE_FLAG_INDEX(hdma));
 3040              		.loc 1 199 5 is_stmt 1 view .LVU824
 3041 117a FFF78FB9 		b	.L145
 3042              	.L181:
 198:Drivers/STM32F4xx_HAL_Driver/Src/stm32f4xx_hal_dma_ex.c ****     __HAL_DMA_CLEAR_FLAG (hdma, __HAL_DMA_GET_DME_FLAG_INDEX(hdma));
 3043              		.loc 1 198 5 is_stmt 0 view .LVU825
 3044 117e 214B     		ldr	r3, .L471+4
 3045 1180 4FF40072 		mov	r2, #512
 3046 1184 DA60     		str	r2, [r3, #12]
 199:Drivers/STM32F4xx_HAL_Driver/Src/stm32f4xx_hal_dma_ex.c ****     __HAL_DMA_CLEAR_FLAG (hdma, __HAL_DMA_GET_FE_FLAG_INDEX(hdma));
 3047              		.loc 1 199 5 is_stmt 1 view .LVU826
 3048 1186 FFF7A1B8 		b	.L167
 3049              	.L140:
 198:Drivers/STM32F4xx_HAL_Driver/Src/stm32f4xx_hal_dma_ex.c ****     __HAL_DMA_CLEAR_FLAG (hdma, __HAL_DMA_GET_DME_FLAG_INDEX(hdma));
 3050              		.loc 1 198 5 is_stmt 0 view .LVU827
 3051 118a 214B     		ldr	r3, .L471+16
 3052 118c 9C42     		cmp	r4, r3
 3053 118e 11D0     		beq	.L456
 3054 1190 274B     		ldr	r3, .L471+48
 3055 1192 9C42     		cmp	r4, r3
 3056 1194 15D0     		beq	.L457
 3057 1196 234B     		ldr	r3, .L471+36
 3058 1198 9C42     		cmp	r4, r3
 3059 119a 17D0     		beq	.L458
 3060 119c 224B     		ldr	r3, .L471+40
 3061 119e 9C42     		cmp	r4, r3
 3062 11a0 7FF413A9 		bne	.L107
 3063 11a4 174A     		ldr	r2, .L471+4
 199:Drivers/STM32F4xx_HAL_Driver/Src/stm32f4xx_hal_dma_ex.c ****     __HAL_DMA_CLEAR_FLAG (hdma, __HAL_DMA_GET_FE_FLAG_INDEX(hdma));
 3064              		.loc 1 199 5 view .LVU828
 3065 11a6 164B     		ldr	r3, .L471
 198:Drivers/STM32F4xx_HAL_Driver/Src/stm32f4xx_hal_dma_ex.c ****     __HAL_DMA_CLEAR_FLAG (hdma, __HAL_DMA_GET_DME_FLAG_INDEX(hdma));
ARM GAS  C:\Users\pw705\AppData\Local\Temp\ccthnice.s 			page 74


 3066              		.loc 1 198 5 view .LVU829
 3067 11a8 0821     		movs	r1, #8
 3068 11aa 9160     		str	r1, [r2, #8]
 199:Drivers/STM32F4xx_HAL_Driver/Src/stm32f4xx_hal_dma_ex.c ****     __HAL_DMA_CLEAR_FLAG (hdma, __HAL_DMA_GET_FE_FLAG_INDEX(hdma));
 3069              		.loc 1 199 5 is_stmt 1 view .LVU830
 3070 11ac 0422     		movs	r2, #4
 3071 11ae DA60     		str	r2, [r3, #12]
 200:Drivers/STM32F4xx_HAL_Driver/Src/stm32f4xx_hal_dma_ex.c **** 
 3072              		.loc 1 200 5 view .LVU831
 3073 11b0 FEF7BFBF 		b	.L239
 3074              	.L456:
 198:Drivers/STM32F4xx_HAL_Driver/Src/stm32f4xx_hal_dma_ex.c ****     __HAL_DMA_CLEAR_FLAG (hdma, __HAL_DMA_GET_DME_FLAG_INDEX(hdma));
 3075              		.loc 1 198 5 is_stmt 0 view .LVU832
 3076 11b4 134B     		ldr	r3, .L471+4
 3077 11b6 0821     		movs	r1, #8
 199:Drivers/STM32F4xx_HAL_Driver/Src/stm32f4xx_hal_dma_ex.c ****     __HAL_DMA_CLEAR_FLAG (hdma, __HAL_DMA_GET_FE_FLAG_INDEX(hdma));
 3078              		.loc 1 199 5 view .LVU833
 3079 11b8 0422     		movs	r2, #4
 198:Drivers/STM32F4xx_HAL_Driver/Src/stm32f4xx_hal_dma_ex.c ****     __HAL_DMA_CLEAR_FLAG (hdma, __HAL_DMA_GET_DME_FLAG_INDEX(hdma));
 3080              		.loc 1 198 5 view .LVU834
 3081 11ba 9960     		str	r1, [r3, #8]
 199:Drivers/STM32F4xx_HAL_Driver/Src/stm32f4xx_hal_dma_ex.c ****     __HAL_DMA_CLEAR_FLAG (hdma, __HAL_DMA_GET_FE_FLAG_INDEX(hdma));
 3082              		.loc 1 199 5 is_stmt 1 view .LVU835
 3083 11bc 9A60     		str	r2, [r3, #8]
 200:Drivers/STM32F4xx_HAL_Driver/Src/stm32f4xx_hal_dma_ex.c **** 
 3084              		.loc 1 200 5 view .LVU836
 3085 11be FFF77AB9 		b	.L242
