ARM GAS  C:\Users\pw705\AppData\Local\Temp\cceieKfF.s 			page 1


   1              		.cpu cortex-m4
   2              		.arch armv7e-m
   3              		.fpu fpv4-sp-d16
   4              		.eabi_attribute 27, 1
   5              		.eabi_attribute 28, 1
   6              		.eabi_attribute 20, 1
   7              		.eabi_attribute 21, 1
   8              		.eabi_attribute 23, 3
   9              		.eabi_attribute 24, 1
  10              		.eabi_attribute 25, 1
  11              		.eabi_attribute 26, 1
  12              		.eabi_attribute 30, 2
  13              		.eabi_attribute 34, 1
  14              		.eabi_attribute 18, 4
  15              		.file	"stm32f4xx_ll_sdmmc.c"
  16              		.text
  17              	.Ltext0:
  18              		.cfi_sections	.debug_frame
  19              		.file 1 "Drivers/STM32F4xx_HAL_Driver/Src/stm32f4xx_ll_sdmmc.c"
  20              		.section	.text.SDIO_Init,"ax",%progbits
  21              		.align	1
  22              		.p2align 2,,3
  23              		.global	SDIO_Init
  24              		.syntax unified
  25              		.thumb
  26              		.thumb_func
  28              	SDIO_Init:
  29              	.LVL0:
  30              	.LFB130:
   1:Drivers/STM32F4xx_HAL_Driver/Src/stm32f4xx_ll_sdmmc.c **** /**
   2:Drivers/STM32F4xx_HAL_Driver/Src/stm32f4xx_ll_sdmmc.c ****   ******************************************************************************
   3:Drivers/STM32F4xx_HAL_Driver/Src/stm32f4xx_ll_sdmmc.c ****   * @file    stm32f4xx_ll_sdmmc.c
   4:Drivers/STM32F4xx_HAL_Driver/Src/stm32f4xx_ll_sdmmc.c ****   * @author  MCD Application Team
   5:Drivers/STM32F4xx_HAL_Driver/Src/stm32f4xx_ll_sdmmc.c ****   * @brief   SDMMC Low Layer HAL module driver.
   6:Drivers/STM32F4xx_HAL_Driver/Src/stm32f4xx_ll_sdmmc.c ****   *
   7:Drivers/STM32F4xx_HAL_Driver/Src/stm32f4xx_ll_sdmmc.c ****   *          This file provides firmware functions to manage the following
   8:Drivers/STM32F4xx_HAL_Driver/Src/stm32f4xx_ll_sdmmc.c ****   *          functionalities of the SDMMC peripheral:
   9:Drivers/STM32F4xx_HAL_Driver/Src/stm32f4xx_ll_sdmmc.c ****   *           + Initialization/de-initialization functions
  10:Drivers/STM32F4xx_HAL_Driver/Src/stm32f4xx_ll_sdmmc.c ****   *           + I/O operation functions
  11:Drivers/STM32F4xx_HAL_Driver/Src/stm32f4xx_ll_sdmmc.c ****   *           + Peripheral Control functions
  12:Drivers/STM32F4xx_HAL_Driver/Src/stm32f4xx_ll_sdmmc.c ****   *           + Peripheral State functions
  13:Drivers/STM32F4xx_HAL_Driver/Src/stm32f4xx_ll_sdmmc.c ****   *
  14:Drivers/STM32F4xx_HAL_Driver/Src/stm32f4xx_ll_sdmmc.c ****   ******************************************************************************
  15:Drivers/STM32F4xx_HAL_Driver/Src/stm32f4xx_ll_sdmmc.c ****   * @attention
  16:Drivers/STM32F4xx_HAL_Driver/Src/stm32f4xx_ll_sdmmc.c ****   *
  17:Drivers/STM32F4xx_HAL_Driver/Src/stm32f4xx_ll_sdmmc.c ****   * Copyright (c) 2016 STMicroelectronics.
  18:Drivers/STM32F4xx_HAL_Driver/Src/stm32f4xx_ll_sdmmc.c ****   * All rights reserved.
  19:Drivers/STM32F4xx_HAL_Driver/Src/stm32f4xx_ll_sdmmc.c ****   *
  20:Drivers/STM32F4xx_HAL_Driver/Src/stm32f4xx_ll_sdmmc.c ****   * This software is licensed under terms that can be found in the LICENSE file
  21:Drivers/STM32F4xx_HAL_Driver/Src/stm32f4xx_ll_sdmmc.c ****   * in the root directory of this software component.
  22:Drivers/STM32F4xx_HAL_Driver/Src/stm32f4xx_ll_sdmmc.c ****   * If no LICENSE file comes with this software, it is provided AS-IS.
  23:Drivers/STM32F4xx_HAL_Driver/Src/stm32f4xx_ll_sdmmc.c ****   *
  24:Drivers/STM32F4xx_HAL_Driver/Src/stm32f4xx_ll_sdmmc.c ****   ******************************************************************************
  25:Drivers/STM32F4xx_HAL_Driver/Src/stm32f4xx_ll_sdmmc.c ****   @verbatim
  26:Drivers/STM32F4xx_HAL_Driver/Src/stm32f4xx_ll_sdmmc.c ****   ==============================================================================
  27:Drivers/STM32F4xx_HAL_Driver/Src/stm32f4xx_ll_sdmmc.c ****                        ##### SDMMC peripheral features #####
  28:Drivers/STM32F4xx_HAL_Driver/Src/stm32f4xx_ll_sdmmc.c ****   ==============================================================================
ARM GAS  C:\Users\pw705\AppData\Local\Temp\cceieKfF.s 			page 2


  29:Drivers/STM32F4xx_HAL_Driver/Src/stm32f4xx_ll_sdmmc.c ****     [..] The SD/SDMMC MMC card host interface (SDMMC) provides an interface between the AHB
  30:Drivers/STM32F4xx_HAL_Driver/Src/stm32f4xx_ll_sdmmc.c ****          peripheral bus and MultiMedia cards (MMCs), SD memory cards, SDMMC cards and CE-ATA
  31:Drivers/STM32F4xx_HAL_Driver/Src/stm32f4xx_ll_sdmmc.c ****          devices.
  32:Drivers/STM32F4xx_HAL_Driver/Src/stm32f4xx_ll_sdmmc.c **** 
  33:Drivers/STM32F4xx_HAL_Driver/Src/stm32f4xx_ll_sdmmc.c ****     [..] The SDMMC features include the following:
  34:Drivers/STM32F4xx_HAL_Driver/Src/stm32f4xx_ll_sdmmc.c ****          (+) Full compliance with MultiMedia Card System Specification Version 4.2. Card support
  35:Drivers/STM32F4xx_HAL_Driver/Src/stm32f4xx_ll_sdmmc.c ****              for three different databus modes: 1-bit (default), 4-bit and 8-bit
  36:Drivers/STM32F4xx_HAL_Driver/Src/stm32f4xx_ll_sdmmc.c ****          (+) Full compatibility with previous versions of MultiMedia Cards (forward compatibility)
  37:Drivers/STM32F4xx_HAL_Driver/Src/stm32f4xx_ll_sdmmc.c ****          (+) Full compliance with SD Memory Card Specifications Version 2.0
  38:Drivers/STM32F4xx_HAL_Driver/Src/stm32f4xx_ll_sdmmc.c ****          (+) Full compliance with SD I/O Card Specification Version 2.0: card support for two
  39:Drivers/STM32F4xx_HAL_Driver/Src/stm32f4xx_ll_sdmmc.c ****              different data bus modes: 1-bit (default) and 4-bit
  40:Drivers/STM32F4xx_HAL_Driver/Src/stm32f4xx_ll_sdmmc.c ****          (+) Full support of the CE-ATA features (full compliance with CE-ATA digital protocol
  41:Drivers/STM32F4xx_HAL_Driver/Src/stm32f4xx_ll_sdmmc.c ****              Rev1.1)
  42:Drivers/STM32F4xx_HAL_Driver/Src/stm32f4xx_ll_sdmmc.c ****          (+) Data transfer up to 48 MHz for the 8 bit mode
  43:Drivers/STM32F4xx_HAL_Driver/Src/stm32f4xx_ll_sdmmc.c ****          (+) Data and command output enable signals to control external bidirectional drivers
  44:Drivers/STM32F4xx_HAL_Driver/Src/stm32f4xx_ll_sdmmc.c **** 
  45:Drivers/STM32F4xx_HAL_Driver/Src/stm32f4xx_ll_sdmmc.c ****                            ##### How to use this driver #####
  46:Drivers/STM32F4xx_HAL_Driver/Src/stm32f4xx_ll_sdmmc.c ****   ==============================================================================
  47:Drivers/STM32F4xx_HAL_Driver/Src/stm32f4xx_ll_sdmmc.c ****     [..]
  48:Drivers/STM32F4xx_HAL_Driver/Src/stm32f4xx_ll_sdmmc.c ****       This driver is a considered as a driver of service for external devices drivers
  49:Drivers/STM32F4xx_HAL_Driver/Src/stm32f4xx_ll_sdmmc.c ****       that interfaces with the SDMMC peripheral.
  50:Drivers/STM32F4xx_HAL_Driver/Src/stm32f4xx_ll_sdmmc.c ****       According to the device used (SD card/ MMC card / SDMMC card ...), a set of APIs
  51:Drivers/STM32F4xx_HAL_Driver/Src/stm32f4xx_ll_sdmmc.c ****       is used in the device's driver to perform SDMMC operations and functionalities.
  52:Drivers/STM32F4xx_HAL_Driver/Src/stm32f4xx_ll_sdmmc.c **** 
  53:Drivers/STM32F4xx_HAL_Driver/Src/stm32f4xx_ll_sdmmc.c ****       This driver is almost transparent for the final user, it is only used to implement other
  54:Drivers/STM32F4xx_HAL_Driver/Src/stm32f4xx_ll_sdmmc.c ****       functionalities of the external device.
  55:Drivers/STM32F4xx_HAL_Driver/Src/stm32f4xx_ll_sdmmc.c **** 
  56:Drivers/STM32F4xx_HAL_Driver/Src/stm32f4xx_ll_sdmmc.c ****     [..]
  57:Drivers/STM32F4xx_HAL_Driver/Src/stm32f4xx_ll_sdmmc.c ****       (+) The SDMMC clock (SDMMCCLK = 48 MHz) is coming from a specific output (MSI, PLLUSB1CLK,
  58:Drivers/STM32F4xx_HAL_Driver/Src/stm32f4xx_ll_sdmmc.c ****           PLLUSB2CLK). Before start working with SDMMC peripheral make sure that the
  59:Drivers/STM32F4xx_HAL_Driver/Src/stm32f4xx_ll_sdmmc.c ****           PLL is well configured.
  60:Drivers/STM32F4xx_HAL_Driver/Src/stm32f4xx_ll_sdmmc.c ****           The SDMMC peripheral uses two clock signals:
  61:Drivers/STM32F4xx_HAL_Driver/Src/stm32f4xx_ll_sdmmc.c ****           (++) SDMMC adapter clock (SDMMCCLK = 48 MHz)
  62:Drivers/STM32F4xx_HAL_Driver/Src/stm32f4xx_ll_sdmmc.c ****           (++) APB2 bus clock (PCLK2)
  63:Drivers/STM32F4xx_HAL_Driver/Src/stm32f4xx_ll_sdmmc.c **** 
  64:Drivers/STM32F4xx_HAL_Driver/Src/stm32f4xx_ll_sdmmc.c ****           -@@- PCLK2 and SDMMC_CK clock frequencies must respect the following condition:
  65:Drivers/STM32F4xx_HAL_Driver/Src/stm32f4xx_ll_sdmmc.c ****                Frequency(PCLK2) >= (3 / 8 x Frequency(SDMMC_CK))
  66:Drivers/STM32F4xx_HAL_Driver/Src/stm32f4xx_ll_sdmmc.c **** 
  67:Drivers/STM32F4xx_HAL_Driver/Src/stm32f4xx_ll_sdmmc.c ****       (+) Enable/Disable peripheral clock using RCC peripheral macros related to SDMMC
  68:Drivers/STM32F4xx_HAL_Driver/Src/stm32f4xx_ll_sdmmc.c ****           peripheral.
  69:Drivers/STM32F4xx_HAL_Driver/Src/stm32f4xx_ll_sdmmc.c **** 
  70:Drivers/STM32F4xx_HAL_Driver/Src/stm32f4xx_ll_sdmmc.c ****       (+) Enable the Power ON State using the SDIO_PowerState_ON()
  71:Drivers/STM32F4xx_HAL_Driver/Src/stm32f4xx_ll_sdmmc.c ****           function and disable it using the function SDIO_PowerState_OFF().
  72:Drivers/STM32F4xx_HAL_Driver/Src/stm32f4xx_ll_sdmmc.c **** 
  73:Drivers/STM32F4xx_HAL_Driver/Src/stm32f4xx_ll_sdmmc.c ****       (+) Enable/Disable the clock using the __SDIO_ENABLE()/__SDIO_DISABLE() macros.
  74:Drivers/STM32F4xx_HAL_Driver/Src/stm32f4xx_ll_sdmmc.c **** 
  75:Drivers/STM32F4xx_HAL_Driver/Src/stm32f4xx_ll_sdmmc.c ****       (+) Enable/Disable the peripheral interrupts using the macros __SDIO_ENABLE_IT()
  76:Drivers/STM32F4xx_HAL_Driver/Src/stm32f4xx_ll_sdmmc.c ****           and __SDIO_DISABLE_IT() if you need to use interrupt mode.
  77:Drivers/STM32F4xx_HAL_Driver/Src/stm32f4xx_ll_sdmmc.c **** 
  78:Drivers/STM32F4xx_HAL_Driver/Src/stm32f4xx_ll_sdmmc.c ****       (+) When using the DMA mode
  79:Drivers/STM32F4xx_HAL_Driver/Src/stm32f4xx_ll_sdmmc.c ****           (++) Configure the DMA in the MSP layer of the external device
  80:Drivers/STM32F4xx_HAL_Driver/Src/stm32f4xx_ll_sdmmc.c ****           (++) Active the needed channel Request
  81:Drivers/STM32F4xx_HAL_Driver/Src/stm32f4xx_ll_sdmmc.c ****           (++) Enable the DMA using __SDIO_DMA_ENABLE() macro or Disable it using the macro
  82:Drivers/STM32F4xx_HAL_Driver/Src/stm32f4xx_ll_sdmmc.c ****                __SDIO_DMA_DISABLE().
  83:Drivers/STM32F4xx_HAL_Driver/Src/stm32f4xx_ll_sdmmc.c **** 
  84:Drivers/STM32F4xx_HAL_Driver/Src/stm32f4xx_ll_sdmmc.c ****       (+) To control the CPSM (Command Path State Machine) and send
  85:Drivers/STM32F4xx_HAL_Driver/Src/stm32f4xx_ll_sdmmc.c ****           commands to the card use the SDIO_SendCommand(),
ARM GAS  C:\Users\pw705\AppData\Local\Temp\cceieKfF.s 			page 3


  86:Drivers/STM32F4xx_HAL_Driver/Src/stm32f4xx_ll_sdmmc.c ****           SDIO_GetCommandResponse() and SDIO_GetResponse() functions. First, user has
  87:Drivers/STM32F4xx_HAL_Driver/Src/stm32f4xx_ll_sdmmc.c ****           to fill the command structure (pointer to SDIO_CmdInitTypeDef) according
  88:Drivers/STM32F4xx_HAL_Driver/Src/stm32f4xx_ll_sdmmc.c ****           to the selected command to be sent.
  89:Drivers/STM32F4xx_HAL_Driver/Src/stm32f4xx_ll_sdmmc.c ****           The parameters that should be filled are:
  90:Drivers/STM32F4xx_HAL_Driver/Src/stm32f4xx_ll_sdmmc.c ****            (++) Command Argument
  91:Drivers/STM32F4xx_HAL_Driver/Src/stm32f4xx_ll_sdmmc.c ****            (++) Command Index
  92:Drivers/STM32F4xx_HAL_Driver/Src/stm32f4xx_ll_sdmmc.c ****            (++) Command Response type
  93:Drivers/STM32F4xx_HAL_Driver/Src/stm32f4xx_ll_sdmmc.c ****            (++) Command Wait
  94:Drivers/STM32F4xx_HAL_Driver/Src/stm32f4xx_ll_sdmmc.c ****            (++) CPSM Status (Enable or Disable).
  95:Drivers/STM32F4xx_HAL_Driver/Src/stm32f4xx_ll_sdmmc.c **** 
  96:Drivers/STM32F4xx_HAL_Driver/Src/stm32f4xx_ll_sdmmc.c ****           -@@- To check if the command is well received, read the SDIO_CMDRESP
  97:Drivers/STM32F4xx_HAL_Driver/Src/stm32f4xx_ll_sdmmc.c ****               register using the SDIO_GetCommandResponse().
  98:Drivers/STM32F4xx_HAL_Driver/Src/stm32f4xx_ll_sdmmc.c ****               The SDMMC responses registers (SDIO_RESP1 to SDIO_RESP2), use the
  99:Drivers/STM32F4xx_HAL_Driver/Src/stm32f4xx_ll_sdmmc.c ****               SDIO_GetResponse() function.
 100:Drivers/STM32F4xx_HAL_Driver/Src/stm32f4xx_ll_sdmmc.c **** 
 101:Drivers/STM32F4xx_HAL_Driver/Src/stm32f4xx_ll_sdmmc.c ****       (+) To control the DPSM (Data Path State Machine) and send/receive
 102:Drivers/STM32F4xx_HAL_Driver/Src/stm32f4xx_ll_sdmmc.c ****            data to/from the card use the SDIO_DataConfig(), SDIO_GetDataCounter(),
 103:Drivers/STM32F4xx_HAL_Driver/Src/stm32f4xx_ll_sdmmc.c ****           SDIO_ReadFIFO(), SDIO_WriteFIFO() and SDIO_GetFIFOCount() functions.
 104:Drivers/STM32F4xx_HAL_Driver/Src/stm32f4xx_ll_sdmmc.c **** 
 105:Drivers/STM32F4xx_HAL_Driver/Src/stm32f4xx_ll_sdmmc.c ****     *** Read Operations ***
 106:Drivers/STM32F4xx_HAL_Driver/Src/stm32f4xx_ll_sdmmc.c ****     =======================
 107:Drivers/STM32F4xx_HAL_Driver/Src/stm32f4xx_ll_sdmmc.c ****     [..]
 108:Drivers/STM32F4xx_HAL_Driver/Src/stm32f4xx_ll_sdmmc.c ****       (#) First, user has to fill the data structure (pointer to
 109:Drivers/STM32F4xx_HAL_Driver/Src/stm32f4xx_ll_sdmmc.c ****           SDIO_DataInitTypeDef) according to the selected data type to be received.
 110:Drivers/STM32F4xx_HAL_Driver/Src/stm32f4xx_ll_sdmmc.c ****           The parameters that should be filled are:
 111:Drivers/STM32F4xx_HAL_Driver/Src/stm32f4xx_ll_sdmmc.c ****            (++) Data TimeOut
 112:Drivers/STM32F4xx_HAL_Driver/Src/stm32f4xx_ll_sdmmc.c ****            (++) Data Length
 113:Drivers/STM32F4xx_HAL_Driver/Src/stm32f4xx_ll_sdmmc.c ****            (++) Data Block size
 114:Drivers/STM32F4xx_HAL_Driver/Src/stm32f4xx_ll_sdmmc.c ****            (++) Data Transfer direction: should be from card (To SDMMC)
 115:Drivers/STM32F4xx_HAL_Driver/Src/stm32f4xx_ll_sdmmc.c ****            (++) Data Transfer mode
 116:Drivers/STM32F4xx_HAL_Driver/Src/stm32f4xx_ll_sdmmc.c ****            (++) DPSM Status (Enable or Disable)
 117:Drivers/STM32F4xx_HAL_Driver/Src/stm32f4xx_ll_sdmmc.c **** 
 118:Drivers/STM32F4xx_HAL_Driver/Src/stm32f4xx_ll_sdmmc.c ****       (#) Configure the SDMMC resources to receive the data from the card
 119:Drivers/STM32F4xx_HAL_Driver/Src/stm32f4xx_ll_sdmmc.c ****           according to selected transfer mode (Refer to Step 8, 9 and 10).
 120:Drivers/STM32F4xx_HAL_Driver/Src/stm32f4xx_ll_sdmmc.c **** 
 121:Drivers/STM32F4xx_HAL_Driver/Src/stm32f4xx_ll_sdmmc.c ****       (#) Send the selected Read command (refer to step 11).
 122:Drivers/STM32F4xx_HAL_Driver/Src/stm32f4xx_ll_sdmmc.c **** 
 123:Drivers/STM32F4xx_HAL_Driver/Src/stm32f4xx_ll_sdmmc.c ****       (#) Use the SDIO flags/interrupts to check the transfer status.
 124:Drivers/STM32F4xx_HAL_Driver/Src/stm32f4xx_ll_sdmmc.c **** 
 125:Drivers/STM32F4xx_HAL_Driver/Src/stm32f4xx_ll_sdmmc.c ****     *** Write Operations ***
 126:Drivers/STM32F4xx_HAL_Driver/Src/stm32f4xx_ll_sdmmc.c ****     ========================
 127:Drivers/STM32F4xx_HAL_Driver/Src/stm32f4xx_ll_sdmmc.c ****     [..]
 128:Drivers/STM32F4xx_HAL_Driver/Src/stm32f4xx_ll_sdmmc.c ****      (#) First, user has to fill the data structure (pointer to
 129:Drivers/STM32F4xx_HAL_Driver/Src/stm32f4xx_ll_sdmmc.c ****          SDIO_DataInitTypeDef) according to the selected data type to be received.
 130:Drivers/STM32F4xx_HAL_Driver/Src/stm32f4xx_ll_sdmmc.c ****          The parameters that should be filled are:
 131:Drivers/STM32F4xx_HAL_Driver/Src/stm32f4xx_ll_sdmmc.c ****           (++) Data TimeOut
 132:Drivers/STM32F4xx_HAL_Driver/Src/stm32f4xx_ll_sdmmc.c ****           (++) Data Length
 133:Drivers/STM32F4xx_HAL_Driver/Src/stm32f4xx_ll_sdmmc.c ****           (++) Data Block size
 134:Drivers/STM32F4xx_HAL_Driver/Src/stm32f4xx_ll_sdmmc.c ****           (++) Data Transfer direction:  should be to card (To CARD)
 135:Drivers/STM32F4xx_HAL_Driver/Src/stm32f4xx_ll_sdmmc.c ****           (++) Data Transfer mode
 136:Drivers/STM32F4xx_HAL_Driver/Src/stm32f4xx_ll_sdmmc.c ****           (++) DPSM Status (Enable or Disable)
 137:Drivers/STM32F4xx_HAL_Driver/Src/stm32f4xx_ll_sdmmc.c **** 
 138:Drivers/STM32F4xx_HAL_Driver/Src/stm32f4xx_ll_sdmmc.c ****      (#) Configure the SDMMC resources to send the data to the card according to
 139:Drivers/STM32F4xx_HAL_Driver/Src/stm32f4xx_ll_sdmmc.c ****          selected transfer mode.
 140:Drivers/STM32F4xx_HAL_Driver/Src/stm32f4xx_ll_sdmmc.c **** 
 141:Drivers/STM32F4xx_HAL_Driver/Src/stm32f4xx_ll_sdmmc.c ****      (#) Send the selected Write command.
 142:Drivers/STM32F4xx_HAL_Driver/Src/stm32f4xx_ll_sdmmc.c **** 
ARM GAS  C:\Users\pw705\AppData\Local\Temp\cceieKfF.s 			page 4


 143:Drivers/STM32F4xx_HAL_Driver/Src/stm32f4xx_ll_sdmmc.c ****      (#) Use the SDIO flags/interrupts to check the transfer status.
 144:Drivers/STM32F4xx_HAL_Driver/Src/stm32f4xx_ll_sdmmc.c **** 
 145:Drivers/STM32F4xx_HAL_Driver/Src/stm32f4xx_ll_sdmmc.c ****     *** Command management operations ***
 146:Drivers/STM32F4xx_HAL_Driver/Src/stm32f4xx_ll_sdmmc.c ****     =====================================
 147:Drivers/STM32F4xx_HAL_Driver/Src/stm32f4xx_ll_sdmmc.c ****     [..]
 148:Drivers/STM32F4xx_HAL_Driver/Src/stm32f4xx_ll_sdmmc.c ****      (#) The commands used for Read/Write/Erase operations are managed in
 149:Drivers/STM32F4xx_HAL_Driver/Src/stm32f4xx_ll_sdmmc.c ****          separate functions.
 150:Drivers/STM32F4xx_HAL_Driver/Src/stm32f4xx_ll_sdmmc.c ****          Each function allows to send the needed command with the related argument,
 151:Drivers/STM32F4xx_HAL_Driver/Src/stm32f4xx_ll_sdmmc.c ****          then check the response.
 152:Drivers/STM32F4xx_HAL_Driver/Src/stm32f4xx_ll_sdmmc.c ****          By the same approach, you could implement a command and check the response.
 153:Drivers/STM32F4xx_HAL_Driver/Src/stm32f4xx_ll_sdmmc.c **** 
 154:Drivers/STM32F4xx_HAL_Driver/Src/stm32f4xx_ll_sdmmc.c ****   @endverbatim
 155:Drivers/STM32F4xx_HAL_Driver/Src/stm32f4xx_ll_sdmmc.c ****   ******************************************************************************
 156:Drivers/STM32F4xx_HAL_Driver/Src/stm32f4xx_ll_sdmmc.c ****   */
 157:Drivers/STM32F4xx_HAL_Driver/Src/stm32f4xx_ll_sdmmc.c **** 
 158:Drivers/STM32F4xx_HAL_Driver/Src/stm32f4xx_ll_sdmmc.c **** /* Includes ------------------------------------------------------------------*/
 159:Drivers/STM32F4xx_HAL_Driver/Src/stm32f4xx_ll_sdmmc.c **** #include "stm32f4xx_hal.h"
 160:Drivers/STM32F4xx_HAL_Driver/Src/stm32f4xx_ll_sdmmc.c **** 
 161:Drivers/STM32F4xx_HAL_Driver/Src/stm32f4xx_ll_sdmmc.c **** #if defined(SDIO)
 162:Drivers/STM32F4xx_HAL_Driver/Src/stm32f4xx_ll_sdmmc.c **** 
 163:Drivers/STM32F4xx_HAL_Driver/Src/stm32f4xx_ll_sdmmc.c **** /** @addtogroup STM32F4xx_HAL_Driver
 164:Drivers/STM32F4xx_HAL_Driver/Src/stm32f4xx_ll_sdmmc.c ****  * @{
 165:Drivers/STM32F4xx_HAL_Driver/Src/stm32f4xx_ll_sdmmc.c ****  */
 166:Drivers/STM32F4xx_HAL_Driver/Src/stm32f4xx_ll_sdmmc.c **** 
 167:Drivers/STM32F4xx_HAL_Driver/Src/stm32f4xx_ll_sdmmc.c **** /** @defgroup SDMMC_LL SDMMC Low Layer
 168:Drivers/STM32F4xx_HAL_Driver/Src/stm32f4xx_ll_sdmmc.c ****  * @brief Low layer module for SD
 169:Drivers/STM32F4xx_HAL_Driver/Src/stm32f4xx_ll_sdmmc.c ****  * @{
 170:Drivers/STM32F4xx_HAL_Driver/Src/stm32f4xx_ll_sdmmc.c ****  */
 171:Drivers/STM32F4xx_HAL_Driver/Src/stm32f4xx_ll_sdmmc.c **** 
 172:Drivers/STM32F4xx_HAL_Driver/Src/stm32f4xx_ll_sdmmc.c **** #if defined(HAL_SD_MODULE_ENABLED) || defined(HAL_MMC_MODULE_ENABLED)
 173:Drivers/STM32F4xx_HAL_Driver/Src/stm32f4xx_ll_sdmmc.c **** 
 174:Drivers/STM32F4xx_HAL_Driver/Src/stm32f4xx_ll_sdmmc.c **** /* Private typedef -----------------------------------------------------------*/
 175:Drivers/STM32F4xx_HAL_Driver/Src/stm32f4xx_ll_sdmmc.c **** /* Private define ------------------------------------------------------------*/
 176:Drivers/STM32F4xx_HAL_Driver/Src/stm32f4xx_ll_sdmmc.c **** /* Private macro -------------------------------------------------------------*/
 177:Drivers/STM32F4xx_HAL_Driver/Src/stm32f4xx_ll_sdmmc.c **** /* Private variables ---------------------------------------------------------*/
 178:Drivers/STM32F4xx_HAL_Driver/Src/stm32f4xx_ll_sdmmc.c **** /* Private function prototypes -----------------------------------------------*/
 179:Drivers/STM32F4xx_HAL_Driver/Src/stm32f4xx_ll_sdmmc.c **** static uint32_t SDMMC_GetCmdError(SDIO_TypeDef *SDIOx);
 180:Drivers/STM32F4xx_HAL_Driver/Src/stm32f4xx_ll_sdmmc.c **** 
 181:Drivers/STM32F4xx_HAL_Driver/Src/stm32f4xx_ll_sdmmc.c **** /* Exported functions --------------------------------------------------------*/
 182:Drivers/STM32F4xx_HAL_Driver/Src/stm32f4xx_ll_sdmmc.c **** 
 183:Drivers/STM32F4xx_HAL_Driver/Src/stm32f4xx_ll_sdmmc.c **** /** @defgroup SDMMC_LL_Exported_Functions SDMMC Low Layer Exported Functions
 184:Drivers/STM32F4xx_HAL_Driver/Src/stm32f4xx_ll_sdmmc.c ****  * @{
 185:Drivers/STM32F4xx_HAL_Driver/Src/stm32f4xx_ll_sdmmc.c ****  */
 186:Drivers/STM32F4xx_HAL_Driver/Src/stm32f4xx_ll_sdmmc.c **** 
 187:Drivers/STM32F4xx_HAL_Driver/Src/stm32f4xx_ll_sdmmc.c **** /** @defgroup HAL_SDMMC_LL_Group1 Initialization de-initialization functions
 188:Drivers/STM32F4xx_HAL_Driver/Src/stm32f4xx_ll_sdmmc.c ****  *  @brief    Initialization and Configuration functions
 189:Drivers/STM32F4xx_HAL_Driver/Src/stm32f4xx_ll_sdmmc.c ****  *
 190:Drivers/STM32F4xx_HAL_Driver/Src/stm32f4xx_ll_sdmmc.c **** @verbatim
 191:Drivers/STM32F4xx_HAL_Driver/Src/stm32f4xx_ll_sdmmc.c ****  ===============================================================================
 192:Drivers/STM32F4xx_HAL_Driver/Src/stm32f4xx_ll_sdmmc.c ****               ##### Initialization/de-initialization functions #####
 193:Drivers/STM32F4xx_HAL_Driver/Src/stm32f4xx_ll_sdmmc.c ****  ===============================================================================
 194:Drivers/STM32F4xx_HAL_Driver/Src/stm32f4xx_ll_sdmmc.c ****     [..]  This section provides functions allowing to:
 195:Drivers/STM32F4xx_HAL_Driver/Src/stm32f4xx_ll_sdmmc.c **** 
 196:Drivers/STM32F4xx_HAL_Driver/Src/stm32f4xx_ll_sdmmc.c **** @endverbatim
 197:Drivers/STM32F4xx_HAL_Driver/Src/stm32f4xx_ll_sdmmc.c ****   * @{
 198:Drivers/STM32F4xx_HAL_Driver/Src/stm32f4xx_ll_sdmmc.c ****   */
 199:Drivers/STM32F4xx_HAL_Driver/Src/stm32f4xx_ll_sdmmc.c **** 
ARM GAS  C:\Users\pw705\AppData\Local\Temp\cceieKfF.s 			page 5


 200:Drivers/STM32F4xx_HAL_Driver/Src/stm32f4xx_ll_sdmmc.c **** /**
 201:Drivers/STM32F4xx_HAL_Driver/Src/stm32f4xx_ll_sdmmc.c ****  * @brief  Initializes the SDMMC according to the specified
 202:Drivers/STM32F4xx_HAL_Driver/Src/stm32f4xx_ll_sdmmc.c ****  *         parameters in the SDMMC_InitTypeDef and create the associated handle.
 203:Drivers/STM32F4xx_HAL_Driver/Src/stm32f4xx_ll_sdmmc.c ****  * @param  SDIOx: Pointer to SDMMC register base
 204:Drivers/STM32F4xx_HAL_Driver/Src/stm32f4xx_ll_sdmmc.c ****  * @param  Init: SDMMC initialization structure
 205:Drivers/STM32F4xx_HAL_Driver/Src/stm32f4xx_ll_sdmmc.c ****  * @retval HAL status
 206:Drivers/STM32F4xx_HAL_Driver/Src/stm32f4xx_ll_sdmmc.c ****  */
 207:Drivers/STM32F4xx_HAL_Driver/Src/stm32f4xx_ll_sdmmc.c **** HAL_StatusTypeDef SDIO_Init(SDIO_TypeDef *SDIOx, SDIO_InitTypeDef Init)
 208:Drivers/STM32F4xx_HAL_Driver/Src/stm32f4xx_ll_sdmmc.c **** {
  31              		.loc 1 208 1 view -0
  32              		.cfi_startproc
  33              		@ args = 28, pretend = 16, frame = 0
  34              		@ frame_needed = 0, uses_anonymous_args = 0
  35              		@ link register save eliminated.
 209:Drivers/STM32F4xx_HAL_Driver/Src/stm32f4xx_ll_sdmmc.c ****   uint32_t tmpreg = 0;
  36              		.loc 1 209 3 view .LVU1
 210:Drivers/STM32F4xx_HAL_Driver/Src/stm32f4xx_ll_sdmmc.c **** 
 211:Drivers/STM32F4xx_HAL_Driver/Src/stm32f4xx_ll_sdmmc.c ****   /* Check the parameters */
 212:Drivers/STM32F4xx_HAL_Driver/Src/stm32f4xx_ll_sdmmc.c ****   assert_param(IS_SDIO_ALL_INSTANCE(SDIOx));
  37              		.loc 1 212 3 view .LVU2
 213:Drivers/STM32F4xx_HAL_Driver/Src/stm32f4xx_ll_sdmmc.c ****   assert_param(IS_SDIO_CLOCK_EDGE(Init.ClockEdge));
  38              		.loc 1 213 3 view .LVU3
 214:Drivers/STM32F4xx_HAL_Driver/Src/stm32f4xx_ll_sdmmc.c ****   assert_param(IS_SDIO_CLOCK_BYPASS(Init.ClockBypass));
  39              		.loc 1 214 3 view .LVU4
 215:Drivers/STM32F4xx_HAL_Driver/Src/stm32f4xx_ll_sdmmc.c ****   assert_param(IS_SDIO_CLOCK_POWER_SAVE(Init.ClockPowerSave));
  40              		.loc 1 215 3 view .LVU5
 216:Drivers/STM32F4xx_HAL_Driver/Src/stm32f4xx_ll_sdmmc.c ****   assert_param(IS_SDIO_BUS_WIDE(Init.BusWide));
  41              		.loc 1 216 3 view .LVU6
 217:Drivers/STM32F4xx_HAL_Driver/Src/stm32f4xx_ll_sdmmc.c ****   assert_param(IS_SDIO_HARDWARE_FLOW_CONTROL(Init.HardwareFlowControl));
  42              		.loc 1 217 3 view .LVU7
 218:Drivers/STM32F4xx_HAL_Driver/Src/stm32f4xx_ll_sdmmc.c ****   assert_param(IS_SDIO_CLKDIV(Init.ClockDiv));
  43              		.loc 1 218 3 view .LVU8
 219:Drivers/STM32F4xx_HAL_Driver/Src/stm32f4xx_ll_sdmmc.c **** 
 220:Drivers/STM32F4xx_HAL_Driver/Src/stm32f4xx_ll_sdmmc.c ****   /* Set SDMMC configuration parameters */
 221:Drivers/STM32F4xx_HAL_Driver/Src/stm32f4xx_ll_sdmmc.c ****   tmpreg |= (Init.ClockEdge |
  44              		.loc 1 221 3 view .LVU9
 208:Drivers/STM32F4xx_HAL_Driver/Src/stm32f4xx_ll_sdmmc.c ****   uint32_t tmpreg = 0;
  45              		.loc 1 208 1 is_stmt 0 view .LVU10
  46 0000 84B0     		sub	sp, sp, #16
  47              		.cfi_def_cfa_offset 16
  48 0002 10B4     		push	{r4}
  49              		.cfi_def_cfa_offset 20
  50              		.cfi_offset 4, -20
  51              	.LVL1:
 222:Drivers/STM32F4xx_HAL_Driver/Src/stm32f4xx_ll_sdmmc.c ****              Init.ClockBypass |
 223:Drivers/STM32F4xx_HAL_Driver/Src/stm32f4xx_ll_sdmmc.c ****              Init.ClockPowerSave |
 224:Drivers/STM32F4xx_HAL_Driver/Src/stm32f4xx_ll_sdmmc.c ****              Init.BusWide |
 225:Drivers/STM32F4xx_HAL_Driver/Src/stm32f4xx_ll_sdmmc.c ****              Init.HardwareFlowControl |
 226:Drivers/STM32F4xx_HAL_Driver/Src/stm32f4xx_ll_sdmmc.c ****              Init.ClockDiv);
 227:Drivers/STM32F4xx_HAL_Driver/Src/stm32f4xx_ll_sdmmc.c **** 
 228:Drivers/STM32F4xx_HAL_Driver/Src/stm32f4xx_ll_sdmmc.c ****   /* Write to SDMMC CLKCR */
 229:Drivers/STM32F4xx_HAL_Driver/Src/stm32f4xx_ll_sdmmc.c ****   MODIFY_REG(SDIOx->CLKCR, CLKCR_CLEAR_MASK, tmpreg);
  52              		.loc 1 229 3 is_stmt 1 view .LVU11
 208:Drivers/STM32F4xx_HAL_Driver/Src/stm32f4xx_ll_sdmmc.c ****   uint32_t tmpreg = 0;
  53              		.loc 1 208 1 is_stmt 0 view .LVU12
  54 0004 0DF1080C 		add	ip, sp, #8
  55              	.LVL2:
ARM GAS  C:\Users\pw705\AppData\Local\Temp\cceieKfF.s 			page 6


 208:Drivers/STM32F4xx_HAL_Driver/Src/stm32f4xx_ll_sdmmc.c ****   uint32_t tmpreg = 0;
  56              		.loc 1 208 1 view .LVU13
  57 0008 8CE80E00 		stm	ip, {r1, r2, r3}
  58              	.LVL3:
 221:Drivers/STM32F4xx_HAL_Driver/Src/stm32f4xx_ll_sdmmc.c ****              Init.ClockBypass |
  59              		.loc 1 221 29 view .LVU14
  60 000c 0B46     		mov	r3, r1
 222:Drivers/STM32F4xx_HAL_Driver/Src/stm32f4xx_ll_sdmmc.c ****              Init.ClockBypass |
  61              		.loc 1 222 31 view .LVU15
  62 000e 0499     		ldr	r1, [sp, #16]
 221:Drivers/STM32F4xx_HAL_Driver/Src/stm32f4xx_ll_sdmmc.c ****              Init.ClockBypass |
  63              		.loc 1 221 29 view .LVU16
  64 0010 1343     		orrs	r3, r3, r2
 222:Drivers/STM32F4xx_HAL_Driver/Src/stm32f4xx_ll_sdmmc.c ****              Init.ClockBypass |
  65              		.loc 1 222 31 view .LVU17
  66 0012 0B43     		orrs	r3, r3, r1
 223:Drivers/STM32F4xx_HAL_Driver/Src/stm32f4xx_ll_sdmmc.c ****              Init.BusWide |
  67              		.loc 1 223 34 view .LVU18
  68 0014 DDE90541 		ldrd	r4, r1, [sp, #20]
  69              		.loc 1 229 3 view .LVU19
  70 0018 4268     		ldr	r2, [r0, #4]
 223:Drivers/STM32F4xx_HAL_Driver/Src/stm32f4xx_ll_sdmmc.c ****              Init.BusWide |
  71              		.loc 1 223 34 view .LVU20
  72 001a 2343     		orrs	r3, r3, r4
 224:Drivers/STM32F4xx_HAL_Driver/Src/stm32f4xx_ll_sdmmc.c ****              Init.HardwareFlowControl |
  73              		.loc 1 224 27 view .LVU21
  74 001c 0B43     		orrs	r3, r3, r1
 225:Drivers/STM32F4xx_HAL_Driver/Src/stm32f4xx_ll_sdmmc.c ****              Init.ClockDiv);
  75              		.loc 1 225 39 view .LVU22
  76 001e 0799     		ldr	r1, [sp, #28]
 230:Drivers/STM32F4xx_HAL_Driver/Src/stm32f4xx_ll_sdmmc.c **** 
 231:Drivers/STM32F4xx_HAL_Driver/Src/stm32f4xx_ll_sdmmc.c ****   return HAL_OK;
 232:Drivers/STM32F4xx_HAL_Driver/Src/stm32f4xx_ll_sdmmc.c **** }
  77              		.loc 1 232 1 view .LVU23
  78 0020 5DF8044B 		ldr	r4, [sp], #4
  79              		.cfi_restore 4
  80              		.cfi_def_cfa_offset 16
 229:Drivers/STM32F4xx_HAL_Driver/Src/stm32f4xx_ll_sdmmc.c **** 
  81              		.loc 1 229 3 view .LVU24
  82 0024 22F4FD42 		bic	r2, r2, #32384
 225:Drivers/STM32F4xx_HAL_Driver/Src/stm32f4xx_ll_sdmmc.c ****              Init.ClockDiv);
  83              		.loc 1 225 39 view .LVU25
  84 0028 0B43     		orrs	r3, r3, r1
 229:Drivers/STM32F4xx_HAL_Driver/Src/stm32f4xx_ll_sdmmc.c **** 
  85              		.loc 1 229 3 view .LVU26
  86 002a 22F07F02 		bic	r2, r2, #127
  87 002e 1343     		orrs	r3, r3, r2
  88 0030 4360     		str	r3, [r0, #4]
 231:Drivers/STM32F4xx_HAL_Driver/Src/stm32f4xx_ll_sdmmc.c **** }
  89              		.loc 1 231 3 is_stmt 1 view .LVU27
  90              		.loc 1 232 1 is_stmt 0 view .LVU28
  91 0032 04B0     		add	sp, sp, #16
  92              		.cfi_def_cfa_offset 0
  93 0034 0020     		movs	r0, #0
  94              	.LVL4:
  95              		.loc 1 232 1 view .LVU29
  96 0036 7047     		bx	lr
ARM GAS  C:\Users\pw705\AppData\Local\Temp\cceieKfF.s 			page 7


  97              		.cfi_endproc
  98              	.LFE130:
 100              		.section	.text.SDIO_ReadFIFO,"ax",%progbits
 101              		.align	1
 102              		.p2align 2,,3
 103              		.global	SDIO_ReadFIFO
 104              		.syntax unified
 105              		.thumb
 106              		.thumb_func
 108              	SDIO_ReadFIFO:
 109              	.LVL5:
 110              	.LFB131:
 233:Drivers/STM32F4xx_HAL_Driver/Src/stm32f4xx_ll_sdmmc.c **** 
 234:Drivers/STM32F4xx_HAL_Driver/Src/stm32f4xx_ll_sdmmc.c **** /**
 235:Drivers/STM32F4xx_HAL_Driver/Src/stm32f4xx_ll_sdmmc.c ****  * @}
 236:Drivers/STM32F4xx_HAL_Driver/Src/stm32f4xx_ll_sdmmc.c ****  */
 237:Drivers/STM32F4xx_HAL_Driver/Src/stm32f4xx_ll_sdmmc.c **** 
 238:Drivers/STM32F4xx_HAL_Driver/Src/stm32f4xx_ll_sdmmc.c **** /** @defgroup HAL_SDMMC_LL_Group2 IO operation functions
 239:Drivers/STM32F4xx_HAL_Driver/Src/stm32f4xx_ll_sdmmc.c ****  *  @brief   Data transfers functions
 240:Drivers/STM32F4xx_HAL_Driver/Src/stm32f4xx_ll_sdmmc.c ****  *
 241:Drivers/STM32F4xx_HAL_Driver/Src/stm32f4xx_ll_sdmmc.c **** @verbatim
 242:Drivers/STM32F4xx_HAL_Driver/Src/stm32f4xx_ll_sdmmc.c ****  ===============================================================================
 243:Drivers/STM32F4xx_HAL_Driver/Src/stm32f4xx_ll_sdmmc.c ****                       ##### I/O operation functions #####
 244:Drivers/STM32F4xx_HAL_Driver/Src/stm32f4xx_ll_sdmmc.c ****  ===============================================================================
 245:Drivers/STM32F4xx_HAL_Driver/Src/stm32f4xx_ll_sdmmc.c ****     [..]
 246:Drivers/STM32F4xx_HAL_Driver/Src/stm32f4xx_ll_sdmmc.c ****     This subsection provides a set of functions allowing to manage the SDMMC data
 247:Drivers/STM32F4xx_HAL_Driver/Src/stm32f4xx_ll_sdmmc.c ****     transfers.
 248:Drivers/STM32F4xx_HAL_Driver/Src/stm32f4xx_ll_sdmmc.c **** 
 249:Drivers/STM32F4xx_HAL_Driver/Src/stm32f4xx_ll_sdmmc.c **** @endverbatim
 250:Drivers/STM32F4xx_HAL_Driver/Src/stm32f4xx_ll_sdmmc.c ****   * @{
 251:Drivers/STM32F4xx_HAL_Driver/Src/stm32f4xx_ll_sdmmc.c ****   */
 252:Drivers/STM32F4xx_HAL_Driver/Src/stm32f4xx_ll_sdmmc.c **** 
 253:Drivers/STM32F4xx_HAL_Driver/Src/stm32f4xx_ll_sdmmc.c **** /**
 254:Drivers/STM32F4xx_HAL_Driver/Src/stm32f4xx_ll_sdmmc.c ****  * @brief  Read data (word) from Rx FIFO in blocking mode (polling)
 255:Drivers/STM32F4xx_HAL_Driver/Src/stm32f4xx_ll_sdmmc.c ****  * @param  SDIOx: Pointer to SDMMC register base
 256:Drivers/STM32F4xx_HAL_Driver/Src/stm32f4xx_ll_sdmmc.c ****  * @retval HAL status
 257:Drivers/STM32F4xx_HAL_Driver/Src/stm32f4xx_ll_sdmmc.c ****  */
 258:Drivers/STM32F4xx_HAL_Driver/Src/stm32f4xx_ll_sdmmc.c **** uint32_t SDIO_ReadFIFO(SDIO_TypeDef *SDIOx)
 259:Drivers/STM32F4xx_HAL_Driver/Src/stm32f4xx_ll_sdmmc.c **** {
 111              		.loc 1 259 1 is_stmt 1 view -0
 112              		.cfi_startproc
 113              		@ args = 0, pretend = 0, frame = 0
 114              		@ frame_needed = 0, uses_anonymous_args = 0
 115              		@ link register save eliminated.
 260:Drivers/STM32F4xx_HAL_Driver/Src/stm32f4xx_ll_sdmmc.c ****   /* Read data from Rx FIFO */
 261:Drivers/STM32F4xx_HAL_Driver/Src/stm32f4xx_ll_sdmmc.c ****   return (SDIOx->FIFO);
 116              		.loc 1 261 3 view .LVU31
 117              		.loc 1 261 16 is_stmt 0 view .LVU32
 118 0000 D0F88000 		ldr	r0, [r0, #128]
 119              	.LVL6:
 262:Drivers/STM32F4xx_HAL_Driver/Src/stm32f4xx_ll_sdmmc.c **** }
 120              		.loc 1 262 1 view .LVU33
 121 0004 7047     		bx	lr
 122              		.cfi_endproc
 123              	.LFE131:
 125 0006 00BF     		.section	.text.SDIO_WriteFIFO,"ax",%progbits
 126              		.align	1
ARM GAS  C:\Users\pw705\AppData\Local\Temp\cceieKfF.s 			page 8


 127              		.p2align 2,,3
 128              		.global	SDIO_WriteFIFO
 129              		.syntax unified
 130              		.thumb
 131              		.thumb_func
 133              	SDIO_WriteFIFO:
 134              	.LVL7:
 135              	.LFB132:
 263:Drivers/STM32F4xx_HAL_Driver/Src/stm32f4xx_ll_sdmmc.c **** 
 264:Drivers/STM32F4xx_HAL_Driver/Src/stm32f4xx_ll_sdmmc.c **** /**
 265:Drivers/STM32F4xx_HAL_Driver/Src/stm32f4xx_ll_sdmmc.c ****  * @brief  Write data (word) to Tx FIFO in blocking mode (polling)
 266:Drivers/STM32F4xx_HAL_Driver/Src/stm32f4xx_ll_sdmmc.c ****  * @param  SDIOx: Pointer to SDMMC register base
 267:Drivers/STM32F4xx_HAL_Driver/Src/stm32f4xx_ll_sdmmc.c ****  * @param  pWriteData: pointer to data to write
 268:Drivers/STM32F4xx_HAL_Driver/Src/stm32f4xx_ll_sdmmc.c ****  * @retval HAL status
 269:Drivers/STM32F4xx_HAL_Driver/Src/stm32f4xx_ll_sdmmc.c ****  */
 270:Drivers/STM32F4xx_HAL_Driver/Src/stm32f4xx_ll_sdmmc.c **** HAL_StatusTypeDef SDIO_WriteFIFO(SDIO_TypeDef *SDIOx, uint32_t *pWriteData)
 271:Drivers/STM32F4xx_HAL_Driver/Src/stm32f4xx_ll_sdmmc.c **** {
 136              		.loc 1 271 1 is_stmt 1 view -0
 137              		.cfi_startproc
 138              		@ args = 0, pretend = 0, frame = 0
 139              		@ frame_needed = 0, uses_anonymous_args = 0
 140              		@ link register save eliminated.
 272:Drivers/STM32F4xx_HAL_Driver/Src/stm32f4xx_ll_sdmmc.c ****   /* Write data to FIFO */
 273:Drivers/STM32F4xx_HAL_Driver/Src/stm32f4xx_ll_sdmmc.c ****   SDIOx->FIFO = *pWriteData;
 141              		.loc 1 273 3 view .LVU35
 142              		.loc 1 273 17 is_stmt 0 view .LVU36
 143 0000 0B68     		ldr	r3, [r1]
 144              		.loc 1 273 15 view .LVU37
 145 0002 C0F88030 		str	r3, [r0, #128]
 274:Drivers/STM32F4xx_HAL_Driver/Src/stm32f4xx_ll_sdmmc.c **** 
 275:Drivers/STM32F4xx_HAL_Driver/Src/stm32f4xx_ll_sdmmc.c ****   return HAL_OK;
 146              		.loc 1 275 3 is_stmt 1 view .LVU38
 276:Drivers/STM32F4xx_HAL_Driver/Src/stm32f4xx_ll_sdmmc.c **** }
 147              		.loc 1 276 1 is_stmt 0 view .LVU39
 148 0006 0020     		movs	r0, #0
 149              	.LVL8:
 150              		.loc 1 276 1 view .LVU40
 151 0008 7047     		bx	lr
 152              		.cfi_endproc
 153              	.LFE132:
 155 000a 00BF     		.section	.text.SDIO_PowerState_ON,"ax",%progbits
 156              		.align	1
 157              		.p2align 2,,3
 158              		.global	SDIO_PowerState_ON
 159              		.syntax unified
 160              		.thumb
 161              		.thumb_func
 163              	SDIO_PowerState_ON:
 164              	.LVL9:
 165              	.LFB133:
 277:Drivers/STM32F4xx_HAL_Driver/Src/stm32f4xx_ll_sdmmc.c **** 
 278:Drivers/STM32F4xx_HAL_Driver/Src/stm32f4xx_ll_sdmmc.c **** /**
 279:Drivers/STM32F4xx_HAL_Driver/Src/stm32f4xx_ll_sdmmc.c ****  * @}
 280:Drivers/STM32F4xx_HAL_Driver/Src/stm32f4xx_ll_sdmmc.c ****  */
 281:Drivers/STM32F4xx_HAL_Driver/Src/stm32f4xx_ll_sdmmc.c **** 
 282:Drivers/STM32F4xx_HAL_Driver/Src/stm32f4xx_ll_sdmmc.c **** /** @defgroup HAL_SDMMC_LL_Group3 Peripheral Control functions
 283:Drivers/STM32F4xx_HAL_Driver/Src/stm32f4xx_ll_sdmmc.c ****  *  @brief   management functions
ARM GAS  C:\Users\pw705\AppData\Local\Temp\cceieKfF.s 			page 9


 284:Drivers/STM32F4xx_HAL_Driver/Src/stm32f4xx_ll_sdmmc.c ****  *
 285:Drivers/STM32F4xx_HAL_Driver/Src/stm32f4xx_ll_sdmmc.c **** @verbatim
 286:Drivers/STM32F4xx_HAL_Driver/Src/stm32f4xx_ll_sdmmc.c ****  ===============================================================================
 287:Drivers/STM32F4xx_HAL_Driver/Src/stm32f4xx_ll_sdmmc.c ****                       ##### Peripheral Control functions #####
 288:Drivers/STM32F4xx_HAL_Driver/Src/stm32f4xx_ll_sdmmc.c ****  ===============================================================================
 289:Drivers/STM32F4xx_HAL_Driver/Src/stm32f4xx_ll_sdmmc.c ****     [..]
 290:Drivers/STM32F4xx_HAL_Driver/Src/stm32f4xx_ll_sdmmc.c ****     This subsection provides a set of functions allowing to control the SDMMC data
 291:Drivers/STM32F4xx_HAL_Driver/Src/stm32f4xx_ll_sdmmc.c ****     transfers.
 292:Drivers/STM32F4xx_HAL_Driver/Src/stm32f4xx_ll_sdmmc.c **** 
 293:Drivers/STM32F4xx_HAL_Driver/Src/stm32f4xx_ll_sdmmc.c **** @endverbatim
 294:Drivers/STM32F4xx_HAL_Driver/Src/stm32f4xx_ll_sdmmc.c ****   * @{
 295:Drivers/STM32F4xx_HAL_Driver/Src/stm32f4xx_ll_sdmmc.c ****   */
 296:Drivers/STM32F4xx_HAL_Driver/Src/stm32f4xx_ll_sdmmc.c **** 
 297:Drivers/STM32F4xx_HAL_Driver/Src/stm32f4xx_ll_sdmmc.c **** /**
 298:Drivers/STM32F4xx_HAL_Driver/Src/stm32f4xx_ll_sdmmc.c ****  * @brief  Set SDMMC Power state to ON.
 299:Drivers/STM32F4xx_HAL_Driver/Src/stm32f4xx_ll_sdmmc.c ****  * @param  SDIOx: Pointer to SDMMC register base
 300:Drivers/STM32F4xx_HAL_Driver/Src/stm32f4xx_ll_sdmmc.c ****  * @retval HAL status
 301:Drivers/STM32F4xx_HAL_Driver/Src/stm32f4xx_ll_sdmmc.c ****  */
 302:Drivers/STM32F4xx_HAL_Driver/Src/stm32f4xx_ll_sdmmc.c **** HAL_StatusTypeDef SDIO_PowerState_ON(SDIO_TypeDef *SDIOx)
 303:Drivers/STM32F4xx_HAL_Driver/Src/stm32f4xx_ll_sdmmc.c **** {
 166              		.loc 1 303 1 is_stmt 1 view -0
 167              		.cfi_startproc
 168              		@ args = 0, pretend = 0, frame = 0
 169              		@ frame_needed = 0, uses_anonymous_args = 0
 170              		@ link register save eliminated.
 304:Drivers/STM32F4xx_HAL_Driver/Src/stm32f4xx_ll_sdmmc.c ****   /* Set power state to ON */
 305:Drivers/STM32F4xx_HAL_Driver/Src/stm32f4xx_ll_sdmmc.c ****   SDIOx->POWER = SDIO_POWER_PWRCTRL;
 171              		.loc 1 305 3 view .LVU42
 172              		.loc 1 305 16 is_stmt 0 view .LVU43
 173 0000 0323     		movs	r3, #3
 174 0002 0360     		str	r3, [r0]
 306:Drivers/STM32F4xx_HAL_Driver/Src/stm32f4xx_ll_sdmmc.c **** 
 307:Drivers/STM32F4xx_HAL_Driver/Src/stm32f4xx_ll_sdmmc.c ****   return HAL_OK;
 175              		.loc 1 307 3 is_stmt 1 view .LVU44
 308:Drivers/STM32F4xx_HAL_Driver/Src/stm32f4xx_ll_sdmmc.c **** }
 176              		.loc 1 308 1 is_stmt 0 view .LVU45
 177 0004 0020     		movs	r0, #0
 178              	.LVL10:
 179              		.loc 1 308 1 view .LVU46
 180 0006 7047     		bx	lr
 181              		.cfi_endproc
 182              	.LFE133:
 184              		.section	.text.SDIO_PowerState_OFF,"ax",%progbits
 185              		.align	1
 186              		.p2align 2,,3
 187              		.global	SDIO_PowerState_OFF
 188              		.syntax unified
 189              		.thumb
 190              		.thumb_func
 192              	SDIO_PowerState_OFF:
 193              	.LVL11:
 194              	.LFB134:
 309:Drivers/STM32F4xx_HAL_Driver/Src/stm32f4xx_ll_sdmmc.c **** 
 310:Drivers/STM32F4xx_HAL_Driver/Src/stm32f4xx_ll_sdmmc.c **** /**
 311:Drivers/STM32F4xx_HAL_Driver/Src/stm32f4xx_ll_sdmmc.c ****  * @brief  Set SDMMC Power state to OFF.
 312:Drivers/STM32F4xx_HAL_Driver/Src/stm32f4xx_ll_sdmmc.c ****  * @param  SDIOx: Pointer to SDMMC register base
 313:Drivers/STM32F4xx_HAL_Driver/Src/stm32f4xx_ll_sdmmc.c ****  * @retval HAL status
ARM GAS  C:\Users\pw705\AppData\Local\Temp\cceieKfF.s 			page 10


 314:Drivers/STM32F4xx_HAL_Driver/Src/stm32f4xx_ll_sdmmc.c ****  */
 315:Drivers/STM32F4xx_HAL_Driver/Src/stm32f4xx_ll_sdmmc.c **** HAL_StatusTypeDef SDIO_PowerState_OFF(SDIO_TypeDef *SDIOx)
 316:Drivers/STM32F4xx_HAL_Driver/Src/stm32f4xx_ll_sdmmc.c **** {
 195              		.loc 1 316 1 is_stmt 1 view -0
 196              		.cfi_startproc
 197              		@ args = 0, pretend = 0, frame = 0
 198              		@ frame_needed = 0, uses_anonymous_args = 0
 199              		@ link register save eliminated.
 317:Drivers/STM32F4xx_HAL_Driver/Src/stm32f4xx_ll_sdmmc.c ****   /* Set power state to OFF */
 318:Drivers/STM32F4xx_HAL_Driver/Src/stm32f4xx_ll_sdmmc.c ****   SDIOx->POWER = (uint32_t)0x00000000;
 200              		.loc 1 318 3 view .LVU48
 316:Drivers/STM32F4xx_HAL_Driver/Src/stm32f4xx_ll_sdmmc.c ****   /* Set power state to OFF */
 201              		.loc 1 316 1 is_stmt 0 view .LVU49
 202 0000 0346     		mov	r3, r0
 203              		.loc 1 318 16 view .LVU50
 204 0002 0020     		movs	r0, #0
 205              	.LVL12:
 206              		.loc 1 318 16 view .LVU51
 207 0004 1860     		str	r0, [r3]
 319:Drivers/STM32F4xx_HAL_Driver/Src/stm32f4xx_ll_sdmmc.c **** 
 320:Drivers/STM32F4xx_HAL_Driver/Src/stm32f4xx_ll_sdmmc.c ****   return HAL_OK;
 208              		.loc 1 320 3 is_stmt 1 view .LVU52
 321:Drivers/STM32F4xx_HAL_Driver/Src/stm32f4xx_ll_sdmmc.c **** }
 209              		.loc 1 321 1 is_stmt 0 view .LVU53
 210 0006 7047     		bx	lr
 211              		.cfi_endproc
 212              	.LFE134:
 214              		.section	.text.SDIO_GetPowerState,"ax",%progbits
 215              		.align	1
 216              		.p2align 2,,3
 217              		.global	SDIO_GetPowerState
 218              		.syntax unified
 219              		.thumb
 220              		.thumb_func
 222              	SDIO_GetPowerState:
 223              	.LVL13:
 224              	.LFB135:
 322:Drivers/STM32F4xx_HAL_Driver/Src/stm32f4xx_ll_sdmmc.c **** 
 323:Drivers/STM32F4xx_HAL_Driver/Src/stm32f4xx_ll_sdmmc.c **** /**
 324:Drivers/STM32F4xx_HAL_Driver/Src/stm32f4xx_ll_sdmmc.c ****  * @brief  Get SDMMC Power state.
 325:Drivers/STM32F4xx_HAL_Driver/Src/stm32f4xx_ll_sdmmc.c ****  * @param  SDIOx: Pointer to SDMMC register base
 326:Drivers/STM32F4xx_HAL_Driver/Src/stm32f4xx_ll_sdmmc.c ****  * @retval Power status of the controller. The returned value can be one of the
 327:Drivers/STM32F4xx_HAL_Driver/Src/stm32f4xx_ll_sdmmc.c ****  *         following values:
 328:Drivers/STM32F4xx_HAL_Driver/Src/stm32f4xx_ll_sdmmc.c ****  *            - 0x00: Power OFF
 329:Drivers/STM32F4xx_HAL_Driver/Src/stm32f4xx_ll_sdmmc.c ****  *            - 0x02: Power UP
 330:Drivers/STM32F4xx_HAL_Driver/Src/stm32f4xx_ll_sdmmc.c ****  *            - 0x03: Power ON
 331:Drivers/STM32F4xx_HAL_Driver/Src/stm32f4xx_ll_sdmmc.c ****  */
 332:Drivers/STM32F4xx_HAL_Driver/Src/stm32f4xx_ll_sdmmc.c **** uint32_t SDIO_GetPowerState(SDIO_TypeDef *SDIOx)
 333:Drivers/STM32F4xx_HAL_Driver/Src/stm32f4xx_ll_sdmmc.c **** {
 225              		.loc 1 333 1 is_stmt 1 view -0
 226              		.cfi_startproc
 227              		@ args = 0, pretend = 0, frame = 0
 228              		@ frame_needed = 0, uses_anonymous_args = 0
 229              		@ link register save eliminated.
 334:Drivers/STM32F4xx_HAL_Driver/Src/stm32f4xx_ll_sdmmc.c ****   return (SDIOx->POWER & SDIO_POWER_PWRCTRL);
 230              		.loc 1 334 3 view .LVU55
 231              		.loc 1 334 16 is_stmt 0 view .LVU56
ARM GAS  C:\Users\pw705\AppData\Local\Temp\cceieKfF.s 			page 11


 232 0000 0068     		ldr	r0, [r0]
 233              	.LVL14:
 335:Drivers/STM32F4xx_HAL_Driver/Src/stm32f4xx_ll_sdmmc.c **** }
 234              		.loc 1 335 1 view .LVU57
 235 0002 00F00300 		and	r0, r0, #3
 236 0006 7047     		bx	lr
 237              		.cfi_endproc
 238              	.LFE135:
 240              		.section	.text.SDIO_SendCommand,"ax",%progbits
 241              		.align	1
 242              		.p2align 2,,3
 243              		.global	SDIO_SendCommand
 244              		.syntax unified
 245              		.thumb
 246              		.thumb_func
 248              	SDIO_SendCommand:
 249              	.LVL15:
 250              	.LFB136:
 336:Drivers/STM32F4xx_HAL_Driver/Src/stm32f4xx_ll_sdmmc.c **** 
 337:Drivers/STM32F4xx_HAL_Driver/Src/stm32f4xx_ll_sdmmc.c **** /**
 338:Drivers/STM32F4xx_HAL_Driver/Src/stm32f4xx_ll_sdmmc.c ****  * @brief  Configure the SDMMC command path according to the specified parameters in
 339:Drivers/STM32F4xx_HAL_Driver/Src/stm32f4xx_ll_sdmmc.c ****  *         SDIO_CmdInitTypeDef structure and send the command
 340:Drivers/STM32F4xx_HAL_Driver/Src/stm32f4xx_ll_sdmmc.c ****  * @param  SDIOx: Pointer to SDMMC register base
 341:Drivers/STM32F4xx_HAL_Driver/Src/stm32f4xx_ll_sdmmc.c ****  * @param  Command: pointer to a SDIO_CmdInitTypeDef structure that contains
 342:Drivers/STM32F4xx_HAL_Driver/Src/stm32f4xx_ll_sdmmc.c ****  *         the configuration information for the SDMMC command
 343:Drivers/STM32F4xx_HAL_Driver/Src/stm32f4xx_ll_sdmmc.c ****  * @retval HAL status
 344:Drivers/STM32F4xx_HAL_Driver/Src/stm32f4xx_ll_sdmmc.c ****  */
 345:Drivers/STM32F4xx_HAL_Driver/Src/stm32f4xx_ll_sdmmc.c **** HAL_StatusTypeDef SDIO_SendCommand(SDIO_TypeDef *SDIOx, SDIO_CmdInitTypeDef *Command)
 346:Drivers/STM32F4xx_HAL_Driver/Src/stm32f4xx_ll_sdmmc.c **** {
 251              		.loc 1 346 1 is_stmt 1 view -0
 252              		.cfi_startproc
 253              		@ args = 0, pretend = 0, frame = 0
 254              		@ frame_needed = 0, uses_anonymous_args = 0
 255              		@ link register save eliminated.
 347:Drivers/STM32F4xx_HAL_Driver/Src/stm32f4xx_ll_sdmmc.c ****   uint32_t tmpreg = 0;
 256              		.loc 1 347 3 view .LVU59
 348:Drivers/STM32F4xx_HAL_Driver/Src/stm32f4xx_ll_sdmmc.c **** 
 349:Drivers/STM32F4xx_HAL_Driver/Src/stm32f4xx_ll_sdmmc.c ****   /* CheSck the parameters */
 350:Drivers/STM32F4xx_HAL_Driver/Src/stm32f4xx_ll_sdmmc.c ****   assert_param(IS_SDIO_CMD_INDEX(Command->CmdIndex));
 257              		.loc 1 350 3 view .LVU60
 351:Drivers/STM32F4xx_HAL_Driver/Src/stm32f4xx_ll_sdmmc.c ****   assert_param(IS_SDIO_RESPONSE(Command->Response));
 258              		.loc 1 351 3 view .LVU61
 352:Drivers/STM32F4xx_HAL_Driver/Src/stm32f4xx_ll_sdmmc.c ****   assert_param(IS_SDIO_WAIT(Command->WaitForInterrupt));
 259              		.loc 1 352 3 view .LVU62
 353:Drivers/STM32F4xx_HAL_Driver/Src/stm32f4xx_ll_sdmmc.c ****   assert_param(IS_SDIO_CPSM(Command->CPSM));
 260              		.loc 1 353 3 view .LVU63
 354:Drivers/STM32F4xx_HAL_Driver/Src/stm32f4xx_ll_sdmmc.c **** 
 355:Drivers/STM32F4xx_HAL_Driver/Src/stm32f4xx_ll_sdmmc.c ****   /* Set the SDMMC Argument value */
 356:Drivers/STM32F4xx_HAL_Driver/Src/stm32f4xx_ll_sdmmc.c ****   SDIOx->ARG = Command->Argument;
 261              		.loc 1 356 3 view .LVU64
 357:Drivers/STM32F4xx_HAL_Driver/Src/stm32f4xx_ll_sdmmc.c **** 
 358:Drivers/STM32F4xx_HAL_Driver/Src/stm32f4xx_ll_sdmmc.c ****   /* Set SDMMC command parameters */
 359:Drivers/STM32F4xx_HAL_Driver/Src/stm32f4xx_ll_sdmmc.c ****   tmpreg |= (uint32_t)(Command->CmdIndex |
 262              		.loc 1 359 42 is_stmt 0 view .LVU65
 263 0000 D1E90023 		ldrd	r2, r3, [r1]
 346:Drivers/STM32F4xx_HAL_Driver/Src/stm32f4xx_ll_sdmmc.c ****   uint32_t tmpreg = 0;
 264              		.loc 1 346 1 view .LVU66
ARM GAS  C:\Users\pw705\AppData\Local\Temp\cceieKfF.s 			page 12


 265 0004 10B4     		push	{r4}
 266              		.cfi_def_cfa_offset 4
 267              		.cfi_offset 4, -4
 268              		.loc 1 359 42 view .LVU67
 269 0006 8C68     		ldr	r4, [r1, #8]
 356:Drivers/STM32F4xx_HAL_Driver/Src/stm32f4xx_ll_sdmmc.c **** 
 270              		.loc 1 356 14 view .LVU68
 271 0008 8260     		str	r2, [r0, #8]
 272              		.loc 1 359 3 is_stmt 1 view .LVU69
 273              	.LVL16:
 360:Drivers/STM32F4xx_HAL_Driver/Src/stm32f4xx_ll_sdmmc.c ****                        Command->Response |
 361:Drivers/STM32F4xx_HAL_Driver/Src/stm32f4xx_ll_sdmmc.c ****                        Command->WaitForInterrupt |
 362:Drivers/STM32F4xx_HAL_Driver/Src/stm32f4xx_ll_sdmmc.c ****                        Command->CPSM);
 363:Drivers/STM32F4xx_HAL_Driver/Src/stm32f4xx_ll_sdmmc.c **** 
 364:Drivers/STM32F4xx_HAL_Driver/Src/stm32f4xx_ll_sdmmc.c ****   /* Write to SDMMC CMD register */
 365:Drivers/STM32F4xx_HAL_Driver/Src/stm32f4xx_ll_sdmmc.c ****   MODIFY_REG(SDIOx->CMD, CMD_CLEAR_MASK, tmpreg);
 274              		.loc 1 365 3 view .LVU70
 359:Drivers/STM32F4xx_HAL_Driver/Src/stm32f4xx_ll_sdmmc.c ****                        Command->Response |
 275              		.loc 1 359 42 is_stmt 0 view .LVU71
 276 000a 2343     		orrs	r3, r3, r4
 361:Drivers/STM32F4xx_HAL_Driver/Src/stm32f4xx_ll_sdmmc.c ****                        Command->CPSM);
 277              		.loc 1 361 50 view .LVU72
 278 000c D1E90341 		ldrd	r4, r1, [r1, #12]
 279              	.LVL17:
 280              		.loc 1 365 3 view .LVU73
 281 0010 C268     		ldr	r2, [r0, #12]
 360:Drivers/STM32F4xx_HAL_Driver/Src/stm32f4xx_ll_sdmmc.c ****                        Command->Response |
 282              		.loc 1 360 42 view .LVU74
 283 0012 2343     		orrs	r3, r3, r4
 284              		.loc 1 365 3 view .LVU75
 285 0014 22F47F62 		bic	r2, r2, #4080
 361:Drivers/STM32F4xx_HAL_Driver/Src/stm32f4xx_ll_sdmmc.c ****                        Command->CPSM);
 286              		.loc 1 361 50 view .LVU76
 287 0018 0B43     		orrs	r3, r3, r1
 288              		.loc 1 365 3 view .LVU77
 289 001a 22F00F02 		bic	r2, r2, #15
 290 001e 1343     		orrs	r3, r3, r2
 291 0020 C360     		str	r3, [r0, #12]
 366:Drivers/STM32F4xx_HAL_Driver/Src/stm32f4xx_ll_sdmmc.c **** 
 367:Drivers/STM32F4xx_HAL_Driver/Src/stm32f4xx_ll_sdmmc.c ****   return HAL_OK;
 292              		.loc 1 367 3 is_stmt 1 view .LVU78
 368:Drivers/STM32F4xx_HAL_Driver/Src/stm32f4xx_ll_sdmmc.c **** }
 293              		.loc 1 368 1 is_stmt 0 view .LVU79
 294 0022 5DF8044B 		ldr	r4, [sp], #4
 295              		.cfi_restore 4
 296              		.cfi_def_cfa_offset 0
 297 0026 0020     		movs	r0, #0
 298              	.LVL18:
 299              		.loc 1 368 1 view .LVU80
 300 0028 7047     		bx	lr
 301              		.cfi_endproc
 302              	.LFE136:
 304 002a 00BF     		.section	.text.SDIO_GetCommandResponse,"ax",%progbits
 305              		.align	1
 306              		.p2align 2,,3
 307              		.global	SDIO_GetCommandResponse
 308              		.syntax unified
ARM GAS  C:\Users\pw705\AppData\Local\Temp\cceieKfF.s 			page 13


 309              		.thumb
 310              		.thumb_func
 312              	SDIO_GetCommandResponse:
 313              	.LVL19:
 314              	.LFB137:
 369:Drivers/STM32F4xx_HAL_Driver/Src/stm32f4xx_ll_sdmmc.c **** 
 370:Drivers/STM32F4xx_HAL_Driver/Src/stm32f4xx_ll_sdmmc.c **** /**
 371:Drivers/STM32F4xx_HAL_Driver/Src/stm32f4xx_ll_sdmmc.c ****  * @brief  Return the command index of last command for which response received
 372:Drivers/STM32F4xx_HAL_Driver/Src/stm32f4xx_ll_sdmmc.c ****  * @param  SDIOx: Pointer to SDMMC register base
 373:Drivers/STM32F4xx_HAL_Driver/Src/stm32f4xx_ll_sdmmc.c ****  * @retval Command index of the last command response received
 374:Drivers/STM32F4xx_HAL_Driver/Src/stm32f4xx_ll_sdmmc.c ****  */
 375:Drivers/STM32F4xx_HAL_Driver/Src/stm32f4xx_ll_sdmmc.c **** uint8_t SDIO_GetCommandResponse(SDIO_TypeDef *SDIOx)
 376:Drivers/STM32F4xx_HAL_Driver/Src/stm32f4xx_ll_sdmmc.c **** {
 315              		.loc 1 376 1 is_stmt 1 view -0
 316              		.cfi_startproc
 317              		@ args = 0, pretend = 0, frame = 0
 318              		@ frame_needed = 0, uses_anonymous_args = 0
 319              		@ link register save eliminated.
 377:Drivers/STM32F4xx_HAL_Driver/Src/stm32f4xx_ll_sdmmc.c ****   return (uint8_t)(SDIOx->RESPCMD);
 320              		.loc 1 377 3 view .LVU82
 321              		.loc 1 377 25 is_stmt 0 view .LVU83
 322 0000 0069     		ldr	r0, [r0, #16]
 323              	.LVL20:
 378:Drivers/STM32F4xx_HAL_Driver/Src/stm32f4xx_ll_sdmmc.c **** }
 324              		.loc 1 378 1 view .LVU84
 325 0002 C0B2     		uxtb	r0, r0
 326 0004 7047     		bx	lr
 327              		.cfi_endproc
 328              	.LFE137:
 330 0006 00BF     		.section	.text.SDIO_GetResponse,"ax",%progbits
 331              		.align	1
 332              		.p2align 2,,3
 333              		.global	SDIO_GetResponse
 334              		.syntax unified
 335              		.thumb
 336              		.thumb_func
 338              	SDIO_GetResponse:
 339              	.LVL21:
 340              	.LFB138:
 379:Drivers/STM32F4xx_HAL_Driver/Src/stm32f4xx_ll_sdmmc.c **** 
 380:Drivers/STM32F4xx_HAL_Driver/Src/stm32f4xx_ll_sdmmc.c **** /**
 381:Drivers/STM32F4xx_HAL_Driver/Src/stm32f4xx_ll_sdmmc.c ****  * @brief  Return the response received from the card for the last command
 382:Drivers/STM32F4xx_HAL_Driver/Src/stm32f4xx_ll_sdmmc.c ****  * @param  SDIOx: Pointer to SDMMC register base
 383:Drivers/STM32F4xx_HAL_Driver/Src/stm32f4xx_ll_sdmmc.c ****  * @param  Response: Specifies the SDMMC response register.
 384:Drivers/STM32F4xx_HAL_Driver/Src/stm32f4xx_ll_sdmmc.c ****  *          This parameter can be one of the following values:
 385:Drivers/STM32F4xx_HAL_Driver/Src/stm32f4xx_ll_sdmmc.c ****  *            @arg SDIO_RESP1: Response Register 1
 386:Drivers/STM32F4xx_HAL_Driver/Src/stm32f4xx_ll_sdmmc.c ****  *            @arg SDIO_RESP2: Response Register 2
 387:Drivers/STM32F4xx_HAL_Driver/Src/stm32f4xx_ll_sdmmc.c ****  *            @arg SDIO_RESP3: Response Register 3
 388:Drivers/STM32F4xx_HAL_Driver/Src/stm32f4xx_ll_sdmmc.c ****  *            @arg SDIO_RESP4: Response Register 4
 389:Drivers/STM32F4xx_HAL_Driver/Src/stm32f4xx_ll_sdmmc.c ****  * @retval The Corresponding response register value
 390:Drivers/STM32F4xx_HAL_Driver/Src/stm32f4xx_ll_sdmmc.c ****  */
 391:Drivers/STM32F4xx_HAL_Driver/Src/stm32f4xx_ll_sdmmc.c **** uint32_t SDIO_GetResponse(SDIO_TypeDef *SDIOx, uint32_t Response)
 392:Drivers/STM32F4xx_HAL_Driver/Src/stm32f4xx_ll_sdmmc.c **** {
 341              		.loc 1 392 1 is_stmt 1 view -0
 342              		.cfi_startproc
 343              		@ args = 0, pretend = 0, frame = 0
 344              		@ frame_needed = 0, uses_anonymous_args = 0
ARM GAS  C:\Users\pw705\AppData\Local\Temp\cceieKfF.s 			page 14


 345              		@ link register save eliminated.
 393:Drivers/STM32F4xx_HAL_Driver/Src/stm32f4xx_ll_sdmmc.c ****   uint32_t tmp;
 346              		.loc 1 393 3 view .LVU86
 394:Drivers/STM32F4xx_HAL_Driver/Src/stm32f4xx_ll_sdmmc.c **** 
 395:Drivers/STM32F4xx_HAL_Driver/Src/stm32f4xx_ll_sdmmc.c ****   /* Check the parameters */
 396:Drivers/STM32F4xx_HAL_Driver/Src/stm32f4xx_ll_sdmmc.c ****   assert_param(IS_SDIO_RESP(Response));
 347              		.loc 1 396 3 view .LVU87
 397:Drivers/STM32F4xx_HAL_Driver/Src/stm32f4xx_ll_sdmmc.c **** 
 398:Drivers/STM32F4xx_HAL_Driver/Src/stm32f4xx_ll_sdmmc.c ****   /* Get the response */
 399:Drivers/STM32F4xx_HAL_Driver/Src/stm32f4xx_ll_sdmmc.c ****   tmp = (uint32_t)(&(SDIOx->RESP1)) + Response;
 348              		.loc 1 399 3 view .LVU88
 400:Drivers/STM32F4xx_HAL_Driver/Src/stm32f4xx_ll_sdmmc.c **** 
 401:Drivers/STM32F4xx_HAL_Driver/Src/stm32f4xx_ll_sdmmc.c ****   return (*(__IO uint32_t *)tmp);
 349              		.loc 1 401 3 view .LVU89
 399:Drivers/STM32F4xx_HAL_Driver/Src/stm32f4xx_ll_sdmmc.c **** 
 350              		.loc 1 399 20 is_stmt 0 view .LVU90
 351 0000 1430     		adds	r0, r0, #20
 352              	.LVL22:
 353              		.loc 1 401 11 view .LVU91
 354 0002 4058     		ldr	r0, [r0, r1]
 355              	.LVL23:
 402:Drivers/STM32F4xx_HAL_Driver/Src/stm32f4xx_ll_sdmmc.c **** }
 356              		.loc 1 402 1 view .LVU92
 357 0004 7047     		bx	lr
 358              		.cfi_endproc
 359              	.LFE138:
 361 0006 00BF     		.section	.text.SDIO_ConfigData,"ax",%progbits
 362              		.align	1
 363              		.p2align 2,,3
 364              		.global	SDIO_ConfigData
 365              		.syntax unified
 366              		.thumb
 367              		.thumb_func
 369              	SDIO_ConfigData:
 370              	.LVL24:
 371              	.LFB139:
 403:Drivers/STM32F4xx_HAL_Driver/Src/stm32f4xx_ll_sdmmc.c **** 
 404:Drivers/STM32F4xx_HAL_Driver/Src/stm32f4xx_ll_sdmmc.c **** /**
 405:Drivers/STM32F4xx_HAL_Driver/Src/stm32f4xx_ll_sdmmc.c ****  * @brief  Configure the SDMMC data path according to the specified
 406:Drivers/STM32F4xx_HAL_Driver/Src/stm32f4xx_ll_sdmmc.c ****  *         parameters in the SDIO_DataInitTypeDef.
 407:Drivers/STM32F4xx_HAL_Driver/Src/stm32f4xx_ll_sdmmc.c ****  * @param  SDIOx: Pointer to SDIO register base
 408:Drivers/STM32F4xx_HAL_Driver/Src/stm32f4xx_ll_sdmmc.c ****  * @param  Data : pointer to a SDIO_DataInitTypeDef structure
 409:Drivers/STM32F4xx_HAL_Driver/Src/stm32f4xx_ll_sdmmc.c ****  *         that contains the configuration information for the SDMMC data.
 410:Drivers/STM32F4xx_HAL_Driver/Src/stm32f4xx_ll_sdmmc.c ****  * @retval HAL status
 411:Drivers/STM32F4xx_HAL_Driver/Src/stm32f4xx_ll_sdmmc.c ****  */
 412:Drivers/STM32F4xx_HAL_Driver/Src/stm32f4xx_ll_sdmmc.c **** HAL_StatusTypeDef SDIO_ConfigData(SDIO_TypeDef *SDIOx, SDIO_DataInitTypeDef *Data)
 413:Drivers/STM32F4xx_HAL_Driver/Src/stm32f4xx_ll_sdmmc.c **** {
 372              		.loc 1 413 1 is_stmt 1 view -0
 373              		.cfi_startproc
 374              		@ args = 0, pretend = 0, frame = 0
 375              		@ frame_needed = 0, uses_anonymous_args = 0
 376              		@ link register save eliminated.
 414:Drivers/STM32F4xx_HAL_Driver/Src/stm32f4xx_ll_sdmmc.c ****   uint32_t tmpreg = 0;
 377              		.loc 1 414 3 view .LVU94
 415:Drivers/STM32F4xx_HAL_Driver/Src/stm32f4xx_ll_sdmmc.c **** 
 416:Drivers/STM32F4xx_HAL_Driver/Src/stm32f4xx_ll_sdmmc.c ****   /* Check the parameters */
 417:Drivers/STM32F4xx_HAL_Driver/Src/stm32f4xx_ll_sdmmc.c ****   assert_param(IS_SDIO_DATA_LENGTH(Data->DataLength));
ARM GAS  C:\Users\pw705\AppData\Local\Temp\cceieKfF.s 			page 15


 378              		.loc 1 417 3 view .LVU95
 418:Drivers/STM32F4xx_HAL_Driver/Src/stm32f4xx_ll_sdmmc.c ****   assert_param(IS_SDIO_BLOCK_SIZE(Data->DataBlockSize));
 379              		.loc 1 418 3 view .LVU96
 419:Drivers/STM32F4xx_HAL_Driver/Src/stm32f4xx_ll_sdmmc.c ****   assert_param(IS_SDIO_TRANSFER_DIR(Data->TransferDir));
 380              		.loc 1 419 3 view .LVU97
 420:Drivers/STM32F4xx_HAL_Driver/Src/stm32f4xx_ll_sdmmc.c ****   assert_param(IS_SDIO_TRANSFER_MODE(Data->TransferMode));
 381              		.loc 1 420 3 view .LVU98
 421:Drivers/STM32F4xx_HAL_Driver/Src/stm32f4xx_ll_sdmmc.c ****   assert_param(IS_SDIO_DPSM(Data->DPSM));
 382              		.loc 1 421 3 view .LVU99
 422:Drivers/STM32F4xx_HAL_Driver/Src/stm32f4xx_ll_sdmmc.c **** 
 423:Drivers/STM32F4xx_HAL_Driver/Src/stm32f4xx_ll_sdmmc.c ****   /* Set the SDMMC Data TimeOut value */
 424:Drivers/STM32F4xx_HAL_Driver/Src/stm32f4xx_ll_sdmmc.c ****   SDIOx->DTIMER = Data->DataTimeOut;
 383              		.loc 1 424 3 view .LVU100
 413:Drivers/STM32F4xx_HAL_Driver/Src/stm32f4xx_ll_sdmmc.c ****   uint32_t tmpreg = 0;
 384              		.loc 1 413 1 is_stmt 0 view .LVU101
 385 0000 10B4     		push	{r4}
 386              		.cfi_def_cfa_offset 4
 387              		.cfi_offset 4, -4
 425:Drivers/STM32F4xx_HAL_Driver/Src/stm32f4xx_ll_sdmmc.c **** 
 426:Drivers/STM32F4xx_HAL_Driver/Src/stm32f4xx_ll_sdmmc.c ****   /* Set the SDMMC DataLength value */
 427:Drivers/STM32F4xx_HAL_Driver/Src/stm32f4xx_ll_sdmmc.c ****   SDIOx->DLEN = Data->DataLength;
 388              		.loc 1 427 21 view .LVU102
 389 0002 D1E90042 		ldrd	r4, r2, [r1]
 428:Drivers/STM32F4xx_HAL_Driver/Src/stm32f4xx_ll_sdmmc.c **** 
 429:Drivers/STM32F4xx_HAL_Driver/Src/stm32f4xx_ll_sdmmc.c ****   /* Set the SDMMC data configuration parameters */
 430:Drivers/STM32F4xx_HAL_Driver/Src/stm32f4xx_ll_sdmmc.c ****   tmpreg |= (uint32_t)(Data->DataBlockSize |
 390              		.loc 1 430 44 view .LVU103
 391 0006 8B68     		ldr	r3, [r1, #8]
 424:Drivers/STM32F4xx_HAL_Driver/Src/stm32f4xx_ll_sdmmc.c **** 
 392              		.loc 1 424 17 view .LVU104
 393 0008 4462     		str	r4, [r0, #36]
 427:Drivers/STM32F4xx_HAL_Driver/Src/stm32f4xx_ll_sdmmc.c **** 
 394              		.loc 1 427 3 is_stmt 1 view .LVU105
 395              		.loc 1 430 44 is_stmt 0 view .LVU106
 396 000a CC68     		ldr	r4, [r1, #12]
 427:Drivers/STM32F4xx_HAL_Driver/Src/stm32f4xx_ll_sdmmc.c **** 
 397              		.loc 1 427 15 view .LVU107
 398 000c 8262     		str	r2, [r0, #40]
 399              		.loc 1 430 3 is_stmt 1 view .LVU108
 400              	.LVL25:
 431:Drivers/STM32F4xx_HAL_Driver/Src/stm32f4xx_ll_sdmmc.c ****                        Data->TransferDir |
 432:Drivers/STM32F4xx_HAL_Driver/Src/stm32f4xx_ll_sdmmc.c ****                        Data->TransferMode |
 433:Drivers/STM32F4xx_HAL_Driver/Src/stm32f4xx_ll_sdmmc.c ****                        Data->DPSM);
 434:Drivers/STM32F4xx_HAL_Driver/Src/stm32f4xx_ll_sdmmc.c **** 
 435:Drivers/STM32F4xx_HAL_Driver/Src/stm32f4xx_ll_sdmmc.c ****   /* Write to SDMMC DCTRL */
 436:Drivers/STM32F4xx_HAL_Driver/Src/stm32f4xx_ll_sdmmc.c ****   MODIFY_REG(SDIOx->DCTRL, DCTRL_CLEAR_MASK, tmpreg);
 401              		.loc 1 436 3 view .LVU109
 430:Drivers/STM32F4xx_HAL_Driver/Src/stm32f4xx_ll_sdmmc.c ****                        Data->TransferDir |
 402              		.loc 1 430 44 is_stmt 0 view .LVU110
 403 000e 2343     		orrs	r3, r3, r4
 432:Drivers/STM32F4xx_HAL_Driver/Src/stm32f4xx_ll_sdmmc.c ****                        Data->DPSM);
 404              		.loc 1 432 43 view .LVU111
 405 0010 D1E90441 		ldrd	r4, r1, [r1, #16]
 406              	.LVL26:
 407              		.loc 1 436 3 view .LVU112
 408 0014 C26A     		ldr	r2, [r0, #44]
 431:Drivers/STM32F4xx_HAL_Driver/Src/stm32f4xx_ll_sdmmc.c ****                        Data->TransferDir |
ARM GAS  C:\Users\pw705\AppData\Local\Temp\cceieKfF.s 			page 16


 409              		.loc 1 431 42 view .LVU113
 410 0016 2343     		orrs	r3, r3, r4
 411              		.loc 1 436 3 view .LVU114
 412 0018 22F0F702 		bic	r2, r2, #247
 432:Drivers/STM32F4xx_HAL_Driver/Src/stm32f4xx_ll_sdmmc.c ****                        Data->DPSM);
 413              		.loc 1 432 43 view .LVU115
 414 001c 0B43     		orrs	r3, r3, r1
 415              		.loc 1 436 3 view .LVU116
 416 001e 1343     		orrs	r3, r3, r2
 417 0020 C362     		str	r3, [r0, #44]
 437:Drivers/STM32F4xx_HAL_Driver/Src/stm32f4xx_ll_sdmmc.c **** 
 438:Drivers/STM32F4xx_HAL_Driver/Src/stm32f4xx_ll_sdmmc.c ****   return HAL_OK;
 418              		.loc 1 438 3 is_stmt 1 view .LVU117
 439:Drivers/STM32F4xx_HAL_Driver/Src/stm32f4xx_ll_sdmmc.c **** }
 419              		.loc 1 439 1 is_stmt 0 view .LVU118
 420 0022 5DF8044B 		ldr	r4, [sp], #4
 421              		.cfi_restore 4
 422              		.cfi_def_cfa_offset 0
 423 0026 0020     		movs	r0, #0
 424              	.LVL27:
 425              		.loc 1 439 1 view .LVU119
 426 0028 7047     		bx	lr
 427              		.cfi_endproc
 428              	.LFE139:
 430 002a 00BF     		.section	.text.SDIO_GetDataCounter,"ax",%progbits
 431              		.align	1
 432              		.p2align 2,,3
 433              		.global	SDIO_GetDataCounter
 434              		.syntax unified
 435              		.thumb
 436              		.thumb_func
 438              	SDIO_GetDataCounter:
 439              	.LVL28:
 440              	.LFB140:
 440:Drivers/STM32F4xx_HAL_Driver/Src/stm32f4xx_ll_sdmmc.c **** 
 441:Drivers/STM32F4xx_HAL_Driver/Src/stm32f4xx_ll_sdmmc.c **** /**
 442:Drivers/STM32F4xx_HAL_Driver/Src/stm32f4xx_ll_sdmmc.c ****  * @brief  Returns number of remaining data bytes to be transferred.
 443:Drivers/STM32F4xx_HAL_Driver/Src/stm32f4xx_ll_sdmmc.c ****  * @param  SDIOx: Pointer to SDIO register base
 444:Drivers/STM32F4xx_HAL_Driver/Src/stm32f4xx_ll_sdmmc.c ****  * @retval Number of remaining data bytes to be transferred
 445:Drivers/STM32F4xx_HAL_Driver/Src/stm32f4xx_ll_sdmmc.c ****  */
 446:Drivers/STM32F4xx_HAL_Driver/Src/stm32f4xx_ll_sdmmc.c **** uint32_t SDIO_GetDataCounter(SDIO_TypeDef *SDIOx)
 447:Drivers/STM32F4xx_HAL_Driver/Src/stm32f4xx_ll_sdmmc.c **** {
 441              		.loc 1 447 1 is_stmt 1 view -0
 442              		.cfi_startproc
 443              		@ args = 0, pretend = 0, frame = 0
 444              		@ frame_needed = 0, uses_anonymous_args = 0
 445              		@ link register save eliminated.
 448:Drivers/STM32F4xx_HAL_Driver/Src/stm32f4xx_ll_sdmmc.c ****   return (SDIOx->DCOUNT);
 446              		.loc 1 448 3 view .LVU121
 447              		.loc 1 448 16 is_stmt 0 view .LVU122
 448 0000 006B     		ldr	r0, [r0, #48]
 449              	.LVL29:
 449:Drivers/STM32F4xx_HAL_Driver/Src/stm32f4xx_ll_sdmmc.c **** }
 450              		.loc 1 449 1 view .LVU123
 451 0002 7047     		bx	lr
 452              		.cfi_endproc
 453              	.LFE140:
ARM GAS  C:\Users\pw705\AppData\Local\Temp\cceieKfF.s 			page 17


 455              		.section	.text.SDIO_GetFIFOCount,"ax",%progbits
 456              		.align	1
 457              		.p2align 2,,3
 458              		.global	SDIO_GetFIFOCount
 459              		.syntax unified
 460              		.thumb
 461              		.thumb_func
 463              	SDIO_GetFIFOCount:
 464              	.LFB182:
 465              		.cfi_startproc
 450:Drivers/STM32F4xx_HAL_Driver/Src/stm32f4xx_ll_sdmmc.c **** 
 451:Drivers/STM32F4xx_HAL_Driver/Src/stm32f4xx_ll_sdmmc.c **** /**
 452:Drivers/STM32F4xx_HAL_Driver/Src/stm32f4xx_ll_sdmmc.c ****  * @brief  Get the FIFO data
 453:Drivers/STM32F4xx_HAL_Driver/Src/stm32f4xx_ll_sdmmc.c ****  * @param  SDIOx: Pointer to SDIO register base
 454:Drivers/STM32F4xx_HAL_Driver/Src/stm32f4xx_ll_sdmmc.c ****  * @retval Data received
 455:Drivers/STM32F4xx_HAL_Driver/Src/stm32f4xx_ll_sdmmc.c ****  */
 456:Drivers/STM32F4xx_HAL_Driver/Src/stm32f4xx_ll_sdmmc.c **** uint32_t SDIO_GetFIFOCount(SDIO_TypeDef *SDIOx)
 466              		.loc 1 456 10 is_stmt 1 view -0
 467              		@ args = 0, pretend = 0, frame = 0
 468              		@ frame_needed = 0, uses_anonymous_args = 0
 469              		@ link register save eliminated.
 470 0000 D0F88000 		ldr	r0, [r0, #128]
 471 0004 7047     		bx	lr
 472              		.cfi_endproc
 473              	.LFE182:
 475 0006 00BF     		.section	.text.SDIO_SetSDMMCReadWaitMode,"ax",%progbits
 476              		.align	1
 477              		.p2align 2,,3
 478              		.global	SDIO_SetSDMMCReadWaitMode
 479              		.syntax unified
 480              		.thumb
 481              		.thumb_func
 483              	SDIO_SetSDMMCReadWaitMode:
 484              	.LVL30:
 485              	.LFB142:
 457:Drivers/STM32F4xx_HAL_Driver/Src/stm32f4xx_ll_sdmmc.c **** {
 458:Drivers/STM32F4xx_HAL_Driver/Src/stm32f4xx_ll_sdmmc.c ****   return (SDIOx->FIFO);
 459:Drivers/STM32F4xx_HAL_Driver/Src/stm32f4xx_ll_sdmmc.c **** }
 460:Drivers/STM32F4xx_HAL_Driver/Src/stm32f4xx_ll_sdmmc.c **** 
 461:Drivers/STM32F4xx_HAL_Driver/Src/stm32f4xx_ll_sdmmc.c **** /**
 462:Drivers/STM32F4xx_HAL_Driver/Src/stm32f4xx_ll_sdmmc.c ****  * @brief  Sets one of the two options of inserting read wait interval.
 463:Drivers/STM32F4xx_HAL_Driver/Src/stm32f4xx_ll_sdmmc.c ****  * @param  SDIOx: Pointer to SDIO register base
 464:Drivers/STM32F4xx_HAL_Driver/Src/stm32f4xx_ll_sdmmc.c ****  * @param  SDIO_ReadWaitMode: SDMMC Read Wait operation mode.
 465:Drivers/STM32F4xx_HAL_Driver/Src/stm32f4xx_ll_sdmmc.c ****  *          This parameter can be:
 466:Drivers/STM32F4xx_HAL_Driver/Src/stm32f4xx_ll_sdmmc.c ****  *            @arg SDIO_READ_WAIT_MODE_CLK: Read Wait control by stopping SDMMCCLK
 467:Drivers/STM32F4xx_HAL_Driver/Src/stm32f4xx_ll_sdmmc.c ****  *            @arg SDIO_READ_WAIT_MODE_DATA2: Read Wait control using SDMMC_DATA2
 468:Drivers/STM32F4xx_HAL_Driver/Src/stm32f4xx_ll_sdmmc.c ****  * @retval None
 469:Drivers/STM32F4xx_HAL_Driver/Src/stm32f4xx_ll_sdmmc.c ****  */
 470:Drivers/STM32F4xx_HAL_Driver/Src/stm32f4xx_ll_sdmmc.c **** HAL_StatusTypeDef SDIO_SetSDMMCReadWaitMode(SDIO_TypeDef *SDIOx, uint32_t SDIO_ReadWaitMode)
 471:Drivers/STM32F4xx_HAL_Driver/Src/stm32f4xx_ll_sdmmc.c **** {
 486              		.loc 1 471 1 view -0
 487              		.cfi_startproc
 488              		@ args = 0, pretend = 0, frame = 0
 489              		@ frame_needed = 0, uses_anonymous_args = 0
 490              		@ link register save eliminated.
 472:Drivers/STM32F4xx_HAL_Driver/Src/stm32f4xx_ll_sdmmc.c ****   /* Check the parameters */
 473:Drivers/STM32F4xx_HAL_Driver/Src/stm32f4xx_ll_sdmmc.c ****   assert_param(IS_SDIO_READWAIT_MODE(SDIO_ReadWaitMode));
ARM GAS  C:\Users\pw705\AppData\Local\Temp\cceieKfF.s 			page 18


 491              		.loc 1 473 3 view .LVU126
 474:Drivers/STM32F4xx_HAL_Driver/Src/stm32f4xx_ll_sdmmc.c **** 
 475:Drivers/STM32F4xx_HAL_Driver/Src/stm32f4xx_ll_sdmmc.c ****   /* Set SDMMC read wait mode */
 476:Drivers/STM32F4xx_HAL_Driver/Src/stm32f4xx_ll_sdmmc.c ****   MODIFY_REG(SDIOx->DCTRL, SDIO_DCTRL_RWMOD, SDIO_ReadWaitMode);
 492              		.loc 1 476 3 view .LVU127
 493 0000 C36A     		ldr	r3, [r0, #44]
 471:Drivers/STM32F4xx_HAL_Driver/Src/stm32f4xx_ll_sdmmc.c ****   /* Check the parameters */
 494              		.loc 1 471 1 is_stmt 0 view .LVU128
 495 0002 0246     		mov	r2, r0
 496              		.loc 1 476 3 view .LVU129
 497 0004 23F48063 		bic	r3, r3, #1024
 498 0008 0B43     		orrs	r3, r3, r1
 477:Drivers/STM32F4xx_HAL_Driver/Src/stm32f4xx_ll_sdmmc.c **** 
 478:Drivers/STM32F4xx_HAL_Driver/Src/stm32f4xx_ll_sdmmc.c ****   return HAL_OK;
 479:Drivers/STM32F4xx_HAL_Driver/Src/stm32f4xx_ll_sdmmc.c **** }
 499              		.loc 1 479 1 view .LVU130
 500 000a 0020     		movs	r0, #0
 501              	.LVL31:
 476:Drivers/STM32F4xx_HAL_Driver/Src/stm32f4xx_ll_sdmmc.c **** 
 502              		.loc 1 476 3 view .LVU131
 503 000c D362     		str	r3, [r2, #44]
 478:Drivers/STM32F4xx_HAL_Driver/Src/stm32f4xx_ll_sdmmc.c **** }
 504              		.loc 1 478 3 is_stmt 1 view .LVU132
 505              		.loc 1 479 1 is_stmt 0 view .LVU133
 506 000e 7047     		bx	lr
 507              		.cfi_endproc
 508              	.LFE142:
 510              		.section	.text.SDMMC_CmdBlockLength,"ax",%progbits
 511              		.align	1
 512              		.p2align 2,,3
 513              		.global	SDMMC_CmdBlockLength
 514              		.syntax unified
 515              		.thumb
 516              		.thumb_func
 518              	SDMMC_CmdBlockLength:
 519              	.LVL32:
 520              	.LFB143:
 480:Drivers/STM32F4xx_HAL_Driver/Src/stm32f4xx_ll_sdmmc.c **** 
 481:Drivers/STM32F4xx_HAL_Driver/Src/stm32f4xx_ll_sdmmc.c **** /**
 482:Drivers/STM32F4xx_HAL_Driver/Src/stm32f4xx_ll_sdmmc.c ****  * @}
 483:Drivers/STM32F4xx_HAL_Driver/Src/stm32f4xx_ll_sdmmc.c ****  */
 484:Drivers/STM32F4xx_HAL_Driver/Src/stm32f4xx_ll_sdmmc.c **** 
 485:Drivers/STM32F4xx_HAL_Driver/Src/stm32f4xx_ll_sdmmc.c **** /** @defgroup HAL_SDMMC_LL_Group4 Command management functions
 486:Drivers/STM32F4xx_HAL_Driver/Src/stm32f4xx_ll_sdmmc.c ****  *  @brief   Data transfers functions
 487:Drivers/STM32F4xx_HAL_Driver/Src/stm32f4xx_ll_sdmmc.c ****  *
 488:Drivers/STM32F4xx_HAL_Driver/Src/stm32f4xx_ll_sdmmc.c **** @verbatim
 489:Drivers/STM32F4xx_HAL_Driver/Src/stm32f4xx_ll_sdmmc.c ****  ===============================================================================
 490:Drivers/STM32F4xx_HAL_Driver/Src/stm32f4xx_ll_sdmmc.c ****                    ##### Commands management functions #####
 491:Drivers/STM32F4xx_HAL_Driver/Src/stm32f4xx_ll_sdmmc.c ****  ===============================================================================
 492:Drivers/STM32F4xx_HAL_Driver/Src/stm32f4xx_ll_sdmmc.c ****     [..]
 493:Drivers/STM32F4xx_HAL_Driver/Src/stm32f4xx_ll_sdmmc.c ****     This subsection provides a set of functions allowing to manage the needed commands.
 494:Drivers/STM32F4xx_HAL_Driver/Src/stm32f4xx_ll_sdmmc.c **** 
 495:Drivers/STM32F4xx_HAL_Driver/Src/stm32f4xx_ll_sdmmc.c **** @endverbatim
 496:Drivers/STM32F4xx_HAL_Driver/Src/stm32f4xx_ll_sdmmc.c ****   * @{
 497:Drivers/STM32F4xx_HAL_Driver/Src/stm32f4xx_ll_sdmmc.c ****   */
 498:Drivers/STM32F4xx_HAL_Driver/Src/stm32f4xx_ll_sdmmc.c **** 
 499:Drivers/STM32F4xx_HAL_Driver/Src/stm32f4xx_ll_sdmmc.c **** /**
ARM GAS  C:\Users\pw705\AppData\Local\Temp\cceieKfF.s 			page 19


 500:Drivers/STM32F4xx_HAL_Driver/Src/stm32f4xx_ll_sdmmc.c ****  * @brief  Send the Data Block Length command and check the response
 501:Drivers/STM32F4xx_HAL_Driver/Src/stm32f4xx_ll_sdmmc.c ****  * @param  SDIOx: Pointer to SDIO register base
 502:Drivers/STM32F4xx_HAL_Driver/Src/stm32f4xx_ll_sdmmc.c ****  * @retval HAL status
 503:Drivers/STM32F4xx_HAL_Driver/Src/stm32f4xx_ll_sdmmc.c ****  */
 504:Drivers/STM32F4xx_HAL_Driver/Src/stm32f4xx_ll_sdmmc.c **** uint32_t SDMMC_CmdBlockLength(SDIO_TypeDef *SDIOx, uint32_t BlockSize)
 505:Drivers/STM32F4xx_HAL_Driver/Src/stm32f4xx_ll_sdmmc.c **** {
 521              		.loc 1 505 1 is_stmt 1 view -0
 522              		.cfi_startproc
 523              		@ args = 0, pretend = 0, frame = 0
 524              		@ frame_needed = 0, uses_anonymous_args = 0
 525              		@ link register save eliminated.
 506:Drivers/STM32F4xx_HAL_Driver/Src/stm32f4xx_ll_sdmmc.c ****   SDIO_CmdInitTypeDef sdmmc_cmdinit;
 526              		.loc 1 506 3 view .LVU135
 507:Drivers/STM32F4xx_HAL_Driver/Src/stm32f4xx_ll_sdmmc.c ****   uint32_t errorstate;
 527              		.loc 1 507 3 view .LVU136
 508:Drivers/STM32F4xx_HAL_Driver/Src/stm32f4xx_ll_sdmmc.c **** 
 509:Drivers/STM32F4xx_HAL_Driver/Src/stm32f4xx_ll_sdmmc.c ****   /* Set Block Size for Card */
 510:Drivers/STM32F4xx_HAL_Driver/Src/stm32f4xx_ll_sdmmc.c ****   sdmmc_cmdinit.Argument = (uint32_t)BlockSize;
 528              		.loc 1 510 3 view .LVU137
 529              	.LBB86:
 530              	.LBB87:
 511:Drivers/STM32F4xx_HAL_Driver/Src/stm32f4xx_ll_sdmmc.c ****   sdmmc_cmdinit.CmdIndex = SDMMC_CMD_SET_BLOCKLEN;
 512:Drivers/STM32F4xx_HAL_Driver/Src/stm32f4xx_ll_sdmmc.c ****   sdmmc_cmdinit.Response = SDIO_RESPONSE_SHORT;
 513:Drivers/STM32F4xx_HAL_Driver/Src/stm32f4xx_ll_sdmmc.c ****   sdmmc_cmdinit.WaitForInterrupt = SDIO_WAIT_NO;
 514:Drivers/STM32F4xx_HAL_Driver/Src/stm32f4xx_ll_sdmmc.c ****   sdmmc_cmdinit.CPSM = SDIO_CPSM_ENABLE;
 515:Drivers/STM32F4xx_HAL_Driver/Src/stm32f4xx_ll_sdmmc.c ****   (void)SDIO_SendCommand(SDIOx, &sdmmc_cmdinit);
 516:Drivers/STM32F4xx_HAL_Driver/Src/stm32f4xx_ll_sdmmc.c **** 
 517:Drivers/STM32F4xx_HAL_Driver/Src/stm32f4xx_ll_sdmmc.c ****   /* Check for error conditions */
 518:Drivers/STM32F4xx_HAL_Driver/Src/stm32f4xx_ll_sdmmc.c ****   errorstate = SDMMC_GetCmdResp1(SDIOx, SDMMC_CMD_SET_BLOCKLEN, SDIO_CMDTIMEOUT);
 519:Drivers/STM32F4xx_HAL_Driver/Src/stm32f4xx_ll_sdmmc.c **** 
 520:Drivers/STM32F4xx_HAL_Driver/Src/stm32f4xx_ll_sdmmc.c ****   return errorstate;
 521:Drivers/STM32F4xx_HAL_Driver/Src/stm32f4xx_ll_sdmmc.c **** }
 522:Drivers/STM32F4xx_HAL_Driver/Src/stm32f4xx_ll_sdmmc.c **** 
 523:Drivers/STM32F4xx_HAL_Driver/Src/stm32f4xx_ll_sdmmc.c **** /**
 524:Drivers/STM32F4xx_HAL_Driver/Src/stm32f4xx_ll_sdmmc.c ****  * @brief  Send the Read Single Block command and check the response
 525:Drivers/STM32F4xx_HAL_Driver/Src/stm32f4xx_ll_sdmmc.c ****  * @param  SDIOx: Pointer to SDIO register base
 526:Drivers/STM32F4xx_HAL_Driver/Src/stm32f4xx_ll_sdmmc.c ****  * @retval HAL status
 527:Drivers/STM32F4xx_HAL_Driver/Src/stm32f4xx_ll_sdmmc.c ****  */
 528:Drivers/STM32F4xx_HAL_Driver/Src/stm32f4xx_ll_sdmmc.c **** uint32_t SDMMC_CmdReadSingleBlock(SDIO_TypeDef *SDIOx, uint32_t ReadAdd)
 529:Drivers/STM32F4xx_HAL_Driver/Src/stm32f4xx_ll_sdmmc.c **** {
 530:Drivers/STM32F4xx_HAL_Driver/Src/stm32f4xx_ll_sdmmc.c ****   SDIO_CmdInitTypeDef sdmmc_cmdinit;
 531:Drivers/STM32F4xx_HAL_Driver/Src/stm32f4xx_ll_sdmmc.c ****   uint32_t errorstate;
 532:Drivers/STM32F4xx_HAL_Driver/Src/stm32f4xx_ll_sdmmc.c **** 
 533:Drivers/STM32F4xx_HAL_Driver/Src/stm32f4xx_ll_sdmmc.c ****   /* Set Block Size for Card */
 534:Drivers/STM32F4xx_HAL_Driver/Src/stm32f4xx_ll_sdmmc.c ****   sdmmc_cmdinit.Argument = (uint32_t)ReadAdd;
 535:Drivers/STM32F4xx_HAL_Driver/Src/stm32f4xx_ll_sdmmc.c ****   sdmmc_cmdinit.CmdIndex = SDMMC_CMD_READ_SINGLE_BLOCK;
 536:Drivers/STM32F4xx_HAL_Driver/Src/stm32f4xx_ll_sdmmc.c ****   sdmmc_cmdinit.Response = SDIO_RESPONSE_SHORT;
 537:Drivers/STM32F4xx_HAL_Driver/Src/stm32f4xx_ll_sdmmc.c ****   sdmmc_cmdinit.WaitForInterrupt = SDIO_WAIT_NO;
 538:Drivers/STM32F4xx_HAL_Driver/Src/stm32f4xx_ll_sdmmc.c ****   sdmmc_cmdinit.CPSM = SDIO_CPSM_ENABLE;
 539:Drivers/STM32F4xx_HAL_Driver/Src/stm32f4xx_ll_sdmmc.c ****   (void)SDIO_SendCommand(SDIOx, &sdmmc_cmdinit);
 540:Drivers/STM32F4xx_HAL_Driver/Src/stm32f4xx_ll_sdmmc.c **** 
 541:Drivers/STM32F4xx_HAL_Driver/Src/stm32f4xx_ll_sdmmc.c ****   /* Check for error conditions */
 542:Drivers/STM32F4xx_HAL_Driver/Src/stm32f4xx_ll_sdmmc.c ****   errorstate = SDMMC_GetCmdResp1(SDIOx, SDMMC_CMD_READ_SINGLE_BLOCK, SDIO_CMDTIMEOUT);
 543:Drivers/STM32F4xx_HAL_Driver/Src/stm32f4xx_ll_sdmmc.c **** 
 544:Drivers/STM32F4xx_HAL_Driver/Src/stm32f4xx_ll_sdmmc.c ****   return errorstate;
 545:Drivers/STM32F4xx_HAL_Driver/Src/stm32f4xx_ll_sdmmc.c **** }
 546:Drivers/STM32F4xx_HAL_Driver/Src/stm32f4xx_ll_sdmmc.c **** 
ARM GAS  C:\Users\pw705\AppData\Local\Temp\cceieKfF.s 			page 20


 547:Drivers/STM32F4xx_HAL_Driver/Src/stm32f4xx_ll_sdmmc.c **** /**
 548:Drivers/STM32F4xx_HAL_Driver/Src/stm32f4xx_ll_sdmmc.c ****  * @brief  Send the Read Multi Block command and check the response
 549:Drivers/STM32F4xx_HAL_Driver/Src/stm32f4xx_ll_sdmmc.c ****  * @param  SDIOx: Pointer to SDIO register base
 550:Drivers/STM32F4xx_HAL_Driver/Src/stm32f4xx_ll_sdmmc.c ****  * @retval HAL status
 551:Drivers/STM32F4xx_HAL_Driver/Src/stm32f4xx_ll_sdmmc.c ****  */
 552:Drivers/STM32F4xx_HAL_Driver/Src/stm32f4xx_ll_sdmmc.c **** uint32_t SDMMC_CmdReadMultiBlock(SDIO_TypeDef *SDIOx, uint32_t ReadAdd)
 553:Drivers/STM32F4xx_HAL_Driver/Src/stm32f4xx_ll_sdmmc.c **** {
 554:Drivers/STM32F4xx_HAL_Driver/Src/stm32f4xx_ll_sdmmc.c ****   SDIO_CmdInitTypeDef sdmmc_cmdinit;
 555:Drivers/STM32F4xx_HAL_Driver/Src/stm32f4xx_ll_sdmmc.c ****   uint32_t errorstate;
 556:Drivers/STM32F4xx_HAL_Driver/Src/stm32f4xx_ll_sdmmc.c **** 
 557:Drivers/STM32F4xx_HAL_Driver/Src/stm32f4xx_ll_sdmmc.c ****   /* Set Block Size for Card */
 558:Drivers/STM32F4xx_HAL_Driver/Src/stm32f4xx_ll_sdmmc.c ****   sdmmc_cmdinit.Argument = (uint32_t)ReadAdd;
 559:Drivers/STM32F4xx_HAL_Driver/Src/stm32f4xx_ll_sdmmc.c ****   sdmmc_cmdinit.CmdIndex = SDMMC_CMD_READ_MULT_BLOCK;
 560:Drivers/STM32F4xx_HAL_Driver/Src/stm32f4xx_ll_sdmmc.c ****   sdmmc_cmdinit.Response = SDIO_RESPONSE_SHORT;
 561:Drivers/STM32F4xx_HAL_Driver/Src/stm32f4xx_ll_sdmmc.c ****   sdmmc_cmdinit.WaitForInterrupt = SDIO_WAIT_NO;
 562:Drivers/STM32F4xx_HAL_Driver/Src/stm32f4xx_ll_sdmmc.c ****   sdmmc_cmdinit.CPSM = SDIO_CPSM_ENABLE;
 563:Drivers/STM32F4xx_HAL_Driver/Src/stm32f4xx_ll_sdmmc.c ****   (void)SDIO_SendCommand(SDIOx, &sdmmc_cmdinit);
 564:Drivers/STM32F4xx_HAL_Driver/Src/stm32f4xx_ll_sdmmc.c **** 
 565:Drivers/STM32F4xx_HAL_Driver/Src/stm32f4xx_ll_sdmmc.c ****   /* Check for error conditions */
 566:Drivers/STM32F4xx_HAL_Driver/Src/stm32f4xx_ll_sdmmc.c ****   errorstate = SDMMC_GetCmdResp1(SDIOx, SDMMC_CMD_READ_MULT_BLOCK, SDIO_CMDTIMEOUT);
 567:Drivers/STM32F4xx_HAL_Driver/Src/stm32f4xx_ll_sdmmc.c **** 
 568:Drivers/STM32F4xx_HAL_Driver/Src/stm32f4xx_ll_sdmmc.c ****   return errorstate;
 569:Drivers/STM32F4xx_HAL_Driver/Src/stm32f4xx_ll_sdmmc.c **** }
 570:Drivers/STM32F4xx_HAL_Driver/Src/stm32f4xx_ll_sdmmc.c **** 
 571:Drivers/STM32F4xx_HAL_Driver/Src/stm32f4xx_ll_sdmmc.c **** /**
 572:Drivers/STM32F4xx_HAL_Driver/Src/stm32f4xx_ll_sdmmc.c ****  * @brief  Send the Write Single Block command and check the response
 573:Drivers/STM32F4xx_HAL_Driver/Src/stm32f4xx_ll_sdmmc.c ****  * @param  SDIOx: Pointer to SDIO register base
 574:Drivers/STM32F4xx_HAL_Driver/Src/stm32f4xx_ll_sdmmc.c ****  * @retval HAL status
 575:Drivers/STM32F4xx_HAL_Driver/Src/stm32f4xx_ll_sdmmc.c ****  */
 576:Drivers/STM32F4xx_HAL_Driver/Src/stm32f4xx_ll_sdmmc.c **** uint32_t SDMMC_CmdWriteSingleBlock(SDIO_TypeDef *SDIOx, uint32_t WriteAdd)
 577:Drivers/STM32F4xx_HAL_Driver/Src/stm32f4xx_ll_sdmmc.c **** {
 578:Drivers/STM32F4xx_HAL_Driver/Src/stm32f4xx_ll_sdmmc.c ****   SDIO_CmdInitTypeDef sdmmc_cmdinit;
 579:Drivers/STM32F4xx_HAL_Driver/Src/stm32f4xx_ll_sdmmc.c ****   uint32_t errorstate;
 580:Drivers/STM32F4xx_HAL_Driver/Src/stm32f4xx_ll_sdmmc.c **** 
 581:Drivers/STM32F4xx_HAL_Driver/Src/stm32f4xx_ll_sdmmc.c ****   /* Set Block Size for Card */
 582:Drivers/STM32F4xx_HAL_Driver/Src/stm32f4xx_ll_sdmmc.c ****   sdmmc_cmdinit.Argument = (uint32_t)WriteAdd;
 583:Drivers/STM32F4xx_HAL_Driver/Src/stm32f4xx_ll_sdmmc.c ****   sdmmc_cmdinit.CmdIndex = SDMMC_CMD_WRITE_SINGLE_BLOCK;
 584:Drivers/STM32F4xx_HAL_Driver/Src/stm32f4xx_ll_sdmmc.c ****   sdmmc_cmdinit.Response = SDIO_RESPONSE_SHORT;
 585:Drivers/STM32F4xx_HAL_Driver/Src/stm32f4xx_ll_sdmmc.c ****   sdmmc_cmdinit.WaitForInterrupt = SDIO_WAIT_NO;
 586:Drivers/STM32F4xx_HAL_Driver/Src/stm32f4xx_ll_sdmmc.c ****   sdmmc_cmdinit.CPSM = SDIO_CPSM_ENABLE;
 587:Drivers/STM32F4xx_HAL_Driver/Src/stm32f4xx_ll_sdmmc.c ****   (void)SDIO_SendCommand(SDIOx, &sdmmc_cmdinit);
 588:Drivers/STM32F4xx_HAL_Driver/Src/stm32f4xx_ll_sdmmc.c **** 
 589:Drivers/STM32F4xx_HAL_Driver/Src/stm32f4xx_ll_sdmmc.c ****   /* Check for error conditions */
 590:Drivers/STM32F4xx_HAL_Driver/Src/stm32f4xx_ll_sdmmc.c ****   errorstate = SDMMC_GetCmdResp1(SDIOx, SDMMC_CMD_WRITE_SINGLE_BLOCK, SDIO_CMDTIMEOUT);
 591:Drivers/STM32F4xx_HAL_Driver/Src/stm32f4xx_ll_sdmmc.c **** 
 592:Drivers/STM32F4xx_HAL_Driver/Src/stm32f4xx_ll_sdmmc.c ****   return errorstate;
 593:Drivers/STM32F4xx_HAL_Driver/Src/stm32f4xx_ll_sdmmc.c **** }
 594:Drivers/STM32F4xx_HAL_Driver/Src/stm32f4xx_ll_sdmmc.c **** 
 595:Drivers/STM32F4xx_HAL_Driver/Src/stm32f4xx_ll_sdmmc.c **** /**
 596:Drivers/STM32F4xx_HAL_Driver/Src/stm32f4xx_ll_sdmmc.c ****  * @brief  Send the Write Multi Block command and check the response
 597:Drivers/STM32F4xx_HAL_Driver/Src/stm32f4xx_ll_sdmmc.c ****  * @param  SDIOx: Pointer to SDIO register base
 598:Drivers/STM32F4xx_HAL_Driver/Src/stm32f4xx_ll_sdmmc.c ****  * @retval HAL status
 599:Drivers/STM32F4xx_HAL_Driver/Src/stm32f4xx_ll_sdmmc.c ****  */
 600:Drivers/STM32F4xx_HAL_Driver/Src/stm32f4xx_ll_sdmmc.c **** uint32_t SDMMC_CmdWriteMultiBlock(SDIO_TypeDef *SDIOx, uint32_t WriteAdd)
 601:Drivers/STM32F4xx_HAL_Driver/Src/stm32f4xx_ll_sdmmc.c **** {
 602:Drivers/STM32F4xx_HAL_Driver/Src/stm32f4xx_ll_sdmmc.c ****   SDIO_CmdInitTypeDef sdmmc_cmdinit;
 603:Drivers/STM32F4xx_HAL_Driver/Src/stm32f4xx_ll_sdmmc.c ****   uint32_t errorstate;
ARM GAS  C:\Users\pw705\AppData\Local\Temp\cceieKfF.s 			page 21


 604:Drivers/STM32F4xx_HAL_Driver/Src/stm32f4xx_ll_sdmmc.c **** 
 605:Drivers/STM32F4xx_HAL_Driver/Src/stm32f4xx_ll_sdmmc.c ****   /* Set Block Size for Card */
 606:Drivers/STM32F4xx_HAL_Driver/Src/stm32f4xx_ll_sdmmc.c ****   sdmmc_cmdinit.Argument = (uint32_t)WriteAdd;
 607:Drivers/STM32F4xx_HAL_Driver/Src/stm32f4xx_ll_sdmmc.c ****   sdmmc_cmdinit.CmdIndex = SDMMC_CMD_WRITE_MULT_BLOCK;
 608:Drivers/STM32F4xx_HAL_Driver/Src/stm32f4xx_ll_sdmmc.c ****   sdmmc_cmdinit.Response = SDIO_RESPONSE_SHORT;
 609:Drivers/STM32F4xx_HAL_Driver/Src/stm32f4xx_ll_sdmmc.c ****   sdmmc_cmdinit.WaitForInterrupt = SDIO_WAIT_NO;
 610:Drivers/STM32F4xx_HAL_Driver/Src/stm32f4xx_ll_sdmmc.c ****   sdmmc_cmdinit.CPSM = SDIO_CPSM_ENABLE;
 611:Drivers/STM32F4xx_HAL_Driver/Src/stm32f4xx_ll_sdmmc.c ****   (void)SDIO_SendCommand(SDIOx, &sdmmc_cmdinit);
 612:Drivers/STM32F4xx_HAL_Driver/Src/stm32f4xx_ll_sdmmc.c **** 
 613:Drivers/STM32F4xx_HAL_Driver/Src/stm32f4xx_ll_sdmmc.c ****   /* Check for error conditions */
 614:Drivers/STM32F4xx_HAL_Driver/Src/stm32f4xx_ll_sdmmc.c ****   errorstate = SDMMC_GetCmdResp1(SDIOx, SDMMC_CMD_WRITE_MULT_BLOCK, SDIO_CMDTIMEOUT);
 615:Drivers/STM32F4xx_HAL_Driver/Src/stm32f4xx_ll_sdmmc.c **** 
 616:Drivers/STM32F4xx_HAL_Driver/Src/stm32f4xx_ll_sdmmc.c ****   return errorstate;
 617:Drivers/STM32F4xx_HAL_Driver/Src/stm32f4xx_ll_sdmmc.c **** }
 618:Drivers/STM32F4xx_HAL_Driver/Src/stm32f4xx_ll_sdmmc.c **** 
 619:Drivers/STM32F4xx_HAL_Driver/Src/stm32f4xx_ll_sdmmc.c **** /**
 620:Drivers/STM32F4xx_HAL_Driver/Src/stm32f4xx_ll_sdmmc.c ****  * @brief  Send the Start Address Erase command for SD and check the response
 621:Drivers/STM32F4xx_HAL_Driver/Src/stm32f4xx_ll_sdmmc.c ****  * @param  SDIOx: Pointer to SDIO register base
 622:Drivers/STM32F4xx_HAL_Driver/Src/stm32f4xx_ll_sdmmc.c ****  * @retval HAL status
 623:Drivers/STM32F4xx_HAL_Driver/Src/stm32f4xx_ll_sdmmc.c ****  */
 624:Drivers/STM32F4xx_HAL_Driver/Src/stm32f4xx_ll_sdmmc.c **** uint32_t SDMMC_CmdSDEraseStartAdd(SDIO_TypeDef *SDIOx, uint32_t StartAdd)
 625:Drivers/STM32F4xx_HAL_Driver/Src/stm32f4xx_ll_sdmmc.c **** {
 626:Drivers/STM32F4xx_HAL_Driver/Src/stm32f4xx_ll_sdmmc.c ****   SDIO_CmdInitTypeDef sdmmc_cmdinit;
 627:Drivers/STM32F4xx_HAL_Driver/Src/stm32f4xx_ll_sdmmc.c ****   uint32_t errorstate;
 628:Drivers/STM32F4xx_HAL_Driver/Src/stm32f4xx_ll_sdmmc.c **** 
 629:Drivers/STM32F4xx_HAL_Driver/Src/stm32f4xx_ll_sdmmc.c ****   /* Set Block Size for Card */
 630:Drivers/STM32F4xx_HAL_Driver/Src/stm32f4xx_ll_sdmmc.c ****   sdmmc_cmdinit.Argument = (uint32_t)StartAdd;
 631:Drivers/STM32F4xx_HAL_Driver/Src/stm32f4xx_ll_sdmmc.c ****   sdmmc_cmdinit.CmdIndex = SDMMC_CMD_SD_ERASE_GRP_START;
 632:Drivers/STM32F4xx_HAL_Driver/Src/stm32f4xx_ll_sdmmc.c ****   sdmmc_cmdinit.Response = SDIO_RESPONSE_SHORT;
 633:Drivers/STM32F4xx_HAL_Driver/Src/stm32f4xx_ll_sdmmc.c ****   sdmmc_cmdinit.WaitForInterrupt = SDIO_WAIT_NO;
 634:Drivers/STM32F4xx_HAL_Driver/Src/stm32f4xx_ll_sdmmc.c ****   sdmmc_cmdinit.CPSM = SDIO_CPSM_ENABLE;
 635:Drivers/STM32F4xx_HAL_Driver/Src/stm32f4xx_ll_sdmmc.c ****   (void)SDIO_SendCommand(SDIOx, &sdmmc_cmdinit);
 636:Drivers/STM32F4xx_HAL_Driver/Src/stm32f4xx_ll_sdmmc.c **** 
 637:Drivers/STM32F4xx_HAL_Driver/Src/stm32f4xx_ll_sdmmc.c ****   /* Check for error conditions */
 638:Drivers/STM32F4xx_HAL_Driver/Src/stm32f4xx_ll_sdmmc.c ****   errorstate = SDMMC_GetCmdResp1(SDIOx, SDMMC_CMD_SD_ERASE_GRP_START, SDIO_CMDTIMEOUT);
 639:Drivers/STM32F4xx_HAL_Driver/Src/stm32f4xx_ll_sdmmc.c **** 
 640:Drivers/STM32F4xx_HAL_Driver/Src/stm32f4xx_ll_sdmmc.c ****   return errorstate;
 641:Drivers/STM32F4xx_HAL_Driver/Src/stm32f4xx_ll_sdmmc.c **** }
 642:Drivers/STM32F4xx_HAL_Driver/Src/stm32f4xx_ll_sdmmc.c **** 
 643:Drivers/STM32F4xx_HAL_Driver/Src/stm32f4xx_ll_sdmmc.c **** /**
 644:Drivers/STM32F4xx_HAL_Driver/Src/stm32f4xx_ll_sdmmc.c ****  * @brief  Send the End Address Erase command for SD and check the response
 645:Drivers/STM32F4xx_HAL_Driver/Src/stm32f4xx_ll_sdmmc.c ****  * @param  SDIOx: Pointer to SDIO register base
 646:Drivers/STM32F4xx_HAL_Driver/Src/stm32f4xx_ll_sdmmc.c ****  * @retval HAL status
 647:Drivers/STM32F4xx_HAL_Driver/Src/stm32f4xx_ll_sdmmc.c ****  */
 648:Drivers/STM32F4xx_HAL_Driver/Src/stm32f4xx_ll_sdmmc.c **** uint32_t SDMMC_CmdSDEraseEndAdd(SDIO_TypeDef *SDIOx, uint32_t EndAdd)
 649:Drivers/STM32F4xx_HAL_Driver/Src/stm32f4xx_ll_sdmmc.c **** {
 650:Drivers/STM32F4xx_HAL_Driver/Src/stm32f4xx_ll_sdmmc.c ****   SDIO_CmdInitTypeDef sdmmc_cmdinit;
 651:Drivers/STM32F4xx_HAL_Driver/Src/stm32f4xx_ll_sdmmc.c ****   uint32_t errorstate;
 652:Drivers/STM32F4xx_HAL_Driver/Src/stm32f4xx_ll_sdmmc.c **** 
 653:Drivers/STM32F4xx_HAL_Driver/Src/stm32f4xx_ll_sdmmc.c ****   /* Set Block Size for Card */
 654:Drivers/STM32F4xx_HAL_Driver/Src/stm32f4xx_ll_sdmmc.c ****   sdmmc_cmdinit.Argument = (uint32_t)EndAdd;
 655:Drivers/STM32F4xx_HAL_Driver/Src/stm32f4xx_ll_sdmmc.c ****   sdmmc_cmdinit.CmdIndex = SDMMC_CMD_SD_ERASE_GRP_END;
 656:Drivers/STM32F4xx_HAL_Driver/Src/stm32f4xx_ll_sdmmc.c ****   sdmmc_cmdinit.Response = SDIO_RESPONSE_SHORT;
 657:Drivers/STM32F4xx_HAL_Driver/Src/stm32f4xx_ll_sdmmc.c ****   sdmmc_cmdinit.WaitForInterrupt = SDIO_WAIT_NO;
 658:Drivers/STM32F4xx_HAL_Driver/Src/stm32f4xx_ll_sdmmc.c ****   sdmmc_cmdinit.CPSM = SDIO_CPSM_ENABLE;
 659:Drivers/STM32F4xx_HAL_Driver/Src/stm32f4xx_ll_sdmmc.c ****   (void)SDIO_SendCommand(SDIOx, &sdmmc_cmdinit);
 660:Drivers/STM32F4xx_HAL_Driver/Src/stm32f4xx_ll_sdmmc.c **** 
ARM GAS  C:\Users\pw705\AppData\Local\Temp\cceieKfF.s 			page 22


 661:Drivers/STM32F4xx_HAL_Driver/Src/stm32f4xx_ll_sdmmc.c ****   /* Check for error conditions */
 662:Drivers/STM32F4xx_HAL_Driver/Src/stm32f4xx_ll_sdmmc.c ****   errorstate = SDMMC_GetCmdResp1(SDIOx, SDMMC_CMD_SD_ERASE_GRP_END, SDIO_CMDTIMEOUT);
 663:Drivers/STM32F4xx_HAL_Driver/Src/stm32f4xx_ll_sdmmc.c **** 
 664:Drivers/STM32F4xx_HAL_Driver/Src/stm32f4xx_ll_sdmmc.c ****   return errorstate;
 665:Drivers/STM32F4xx_HAL_Driver/Src/stm32f4xx_ll_sdmmc.c **** }
 666:Drivers/STM32F4xx_HAL_Driver/Src/stm32f4xx_ll_sdmmc.c **** 
 667:Drivers/STM32F4xx_HAL_Driver/Src/stm32f4xx_ll_sdmmc.c **** /**
 668:Drivers/STM32F4xx_HAL_Driver/Src/stm32f4xx_ll_sdmmc.c ****  * @brief  Send the Start Address Erase command and check the response
 669:Drivers/STM32F4xx_HAL_Driver/Src/stm32f4xx_ll_sdmmc.c ****  * @param  SDIOx: Pointer to SDIO register base
 670:Drivers/STM32F4xx_HAL_Driver/Src/stm32f4xx_ll_sdmmc.c ****  * @retval HAL status
 671:Drivers/STM32F4xx_HAL_Driver/Src/stm32f4xx_ll_sdmmc.c ****  */
 672:Drivers/STM32F4xx_HAL_Driver/Src/stm32f4xx_ll_sdmmc.c **** uint32_t SDMMC_CmdEraseStartAdd(SDIO_TypeDef *SDIOx, uint32_t StartAdd)
 673:Drivers/STM32F4xx_HAL_Driver/Src/stm32f4xx_ll_sdmmc.c **** {
 674:Drivers/STM32F4xx_HAL_Driver/Src/stm32f4xx_ll_sdmmc.c ****   SDIO_CmdInitTypeDef sdmmc_cmdinit;
 675:Drivers/STM32F4xx_HAL_Driver/Src/stm32f4xx_ll_sdmmc.c ****   uint32_t errorstate;
 676:Drivers/STM32F4xx_HAL_Driver/Src/stm32f4xx_ll_sdmmc.c **** 
 677:Drivers/STM32F4xx_HAL_Driver/Src/stm32f4xx_ll_sdmmc.c ****   /* Set Block Size for Card */
 678:Drivers/STM32F4xx_HAL_Driver/Src/stm32f4xx_ll_sdmmc.c ****   sdmmc_cmdinit.Argument = (uint32_t)StartAdd;
 679:Drivers/STM32F4xx_HAL_Driver/Src/stm32f4xx_ll_sdmmc.c ****   sdmmc_cmdinit.CmdIndex = SDMMC_CMD_ERASE_GRP_START;
 680:Drivers/STM32F4xx_HAL_Driver/Src/stm32f4xx_ll_sdmmc.c ****   sdmmc_cmdinit.Response = SDIO_RESPONSE_SHORT;
 681:Drivers/STM32F4xx_HAL_Driver/Src/stm32f4xx_ll_sdmmc.c ****   sdmmc_cmdinit.WaitForInterrupt = SDIO_WAIT_NO;
 682:Drivers/STM32F4xx_HAL_Driver/Src/stm32f4xx_ll_sdmmc.c ****   sdmmc_cmdinit.CPSM = SDIO_CPSM_ENABLE;
 683:Drivers/STM32F4xx_HAL_Driver/Src/stm32f4xx_ll_sdmmc.c ****   (void)SDIO_SendCommand(SDIOx, &sdmmc_cmdinit);
 684:Drivers/STM32F4xx_HAL_Driver/Src/stm32f4xx_ll_sdmmc.c **** 
 685:Drivers/STM32F4xx_HAL_Driver/Src/stm32f4xx_ll_sdmmc.c ****   /* Check for error conditions */
 686:Drivers/STM32F4xx_HAL_Driver/Src/stm32f4xx_ll_sdmmc.c ****   errorstate = SDMMC_GetCmdResp1(SDIOx, SDMMC_CMD_ERASE_GRP_START, SDIO_CMDTIMEOUT);
 687:Drivers/STM32F4xx_HAL_Driver/Src/stm32f4xx_ll_sdmmc.c **** 
 688:Drivers/STM32F4xx_HAL_Driver/Src/stm32f4xx_ll_sdmmc.c ****   return errorstate;
 689:Drivers/STM32F4xx_HAL_Driver/Src/stm32f4xx_ll_sdmmc.c **** }
 690:Drivers/STM32F4xx_HAL_Driver/Src/stm32f4xx_ll_sdmmc.c **** 
 691:Drivers/STM32F4xx_HAL_Driver/Src/stm32f4xx_ll_sdmmc.c **** /**
 692:Drivers/STM32F4xx_HAL_Driver/Src/stm32f4xx_ll_sdmmc.c ****  * @brief  Send the End Address Erase command and check the response
 693:Drivers/STM32F4xx_HAL_Driver/Src/stm32f4xx_ll_sdmmc.c ****  * @param  SDIOx: Pointer to SDIO register base
 694:Drivers/STM32F4xx_HAL_Driver/Src/stm32f4xx_ll_sdmmc.c ****  * @retval HAL status
 695:Drivers/STM32F4xx_HAL_Driver/Src/stm32f4xx_ll_sdmmc.c ****  */
 696:Drivers/STM32F4xx_HAL_Driver/Src/stm32f4xx_ll_sdmmc.c **** uint32_t SDMMC_CmdEraseEndAdd(SDIO_TypeDef *SDIOx, uint32_t EndAdd)
 697:Drivers/STM32F4xx_HAL_Driver/Src/stm32f4xx_ll_sdmmc.c **** {
 698:Drivers/STM32F4xx_HAL_Driver/Src/stm32f4xx_ll_sdmmc.c ****   SDIO_CmdInitTypeDef sdmmc_cmdinit;
 699:Drivers/STM32F4xx_HAL_Driver/Src/stm32f4xx_ll_sdmmc.c ****   uint32_t errorstate;
 700:Drivers/STM32F4xx_HAL_Driver/Src/stm32f4xx_ll_sdmmc.c **** 
 701:Drivers/STM32F4xx_HAL_Driver/Src/stm32f4xx_ll_sdmmc.c ****   /* Set Block Size for Card */
 702:Drivers/STM32F4xx_HAL_Driver/Src/stm32f4xx_ll_sdmmc.c ****   sdmmc_cmdinit.Argument = (uint32_t)EndAdd;
 703:Drivers/STM32F4xx_HAL_Driver/Src/stm32f4xx_ll_sdmmc.c ****   sdmmc_cmdinit.CmdIndex = SDMMC_CMD_ERASE_GRP_END;
 704:Drivers/STM32F4xx_HAL_Driver/Src/stm32f4xx_ll_sdmmc.c ****   sdmmc_cmdinit.Response = SDIO_RESPONSE_SHORT;
 705:Drivers/STM32F4xx_HAL_Driver/Src/stm32f4xx_ll_sdmmc.c ****   sdmmc_cmdinit.WaitForInterrupt = SDIO_WAIT_NO;
 706:Drivers/STM32F4xx_HAL_Driver/Src/stm32f4xx_ll_sdmmc.c ****   sdmmc_cmdinit.CPSM = SDIO_CPSM_ENABLE;
 707:Drivers/STM32F4xx_HAL_Driver/Src/stm32f4xx_ll_sdmmc.c ****   (void)SDIO_SendCommand(SDIOx, &sdmmc_cmdinit);
 708:Drivers/STM32F4xx_HAL_Driver/Src/stm32f4xx_ll_sdmmc.c **** 
 709:Drivers/STM32F4xx_HAL_Driver/Src/stm32f4xx_ll_sdmmc.c ****   /* Check for error conditions */
 710:Drivers/STM32F4xx_HAL_Driver/Src/stm32f4xx_ll_sdmmc.c ****   errorstate = SDMMC_GetCmdResp1(SDIOx, SDMMC_CMD_ERASE_GRP_END, SDIO_CMDTIMEOUT);
 711:Drivers/STM32F4xx_HAL_Driver/Src/stm32f4xx_ll_sdmmc.c **** 
 712:Drivers/STM32F4xx_HAL_Driver/Src/stm32f4xx_ll_sdmmc.c ****   return errorstate;
 713:Drivers/STM32F4xx_HAL_Driver/Src/stm32f4xx_ll_sdmmc.c **** }
 714:Drivers/STM32F4xx_HAL_Driver/Src/stm32f4xx_ll_sdmmc.c **** 
 715:Drivers/STM32F4xx_HAL_Driver/Src/stm32f4xx_ll_sdmmc.c **** /**
 716:Drivers/STM32F4xx_HAL_Driver/Src/stm32f4xx_ll_sdmmc.c ****  * @brief  Send the Erase command and check the response
 717:Drivers/STM32F4xx_HAL_Driver/Src/stm32f4xx_ll_sdmmc.c ****  * @param  SDIOx: Pointer to SDIO register base
ARM GAS  C:\Users\pw705\AppData\Local\Temp\cceieKfF.s 			page 23


 718:Drivers/STM32F4xx_HAL_Driver/Src/stm32f4xx_ll_sdmmc.c ****  * @retval HAL status
 719:Drivers/STM32F4xx_HAL_Driver/Src/stm32f4xx_ll_sdmmc.c ****  */
 720:Drivers/STM32F4xx_HAL_Driver/Src/stm32f4xx_ll_sdmmc.c **** uint32_t SDMMC_CmdErase(SDIO_TypeDef *SDIOx)
 721:Drivers/STM32F4xx_HAL_Driver/Src/stm32f4xx_ll_sdmmc.c **** {
 722:Drivers/STM32F4xx_HAL_Driver/Src/stm32f4xx_ll_sdmmc.c ****   SDIO_CmdInitTypeDef sdmmc_cmdinit;
 723:Drivers/STM32F4xx_HAL_Driver/Src/stm32f4xx_ll_sdmmc.c ****   uint32_t errorstate;
 724:Drivers/STM32F4xx_HAL_Driver/Src/stm32f4xx_ll_sdmmc.c **** 
 725:Drivers/STM32F4xx_HAL_Driver/Src/stm32f4xx_ll_sdmmc.c ****   /* Set Block Size for Card */
 726:Drivers/STM32F4xx_HAL_Driver/Src/stm32f4xx_ll_sdmmc.c ****   sdmmc_cmdinit.Argument = 0U;
 727:Drivers/STM32F4xx_HAL_Driver/Src/stm32f4xx_ll_sdmmc.c ****   sdmmc_cmdinit.CmdIndex = SDMMC_CMD_ERASE;
 728:Drivers/STM32F4xx_HAL_Driver/Src/stm32f4xx_ll_sdmmc.c ****   sdmmc_cmdinit.Response = SDIO_RESPONSE_SHORT;
 729:Drivers/STM32F4xx_HAL_Driver/Src/stm32f4xx_ll_sdmmc.c ****   sdmmc_cmdinit.WaitForInterrupt = SDIO_WAIT_NO;
 730:Drivers/STM32F4xx_HAL_Driver/Src/stm32f4xx_ll_sdmmc.c ****   sdmmc_cmdinit.CPSM = SDIO_CPSM_ENABLE;
 731:Drivers/STM32F4xx_HAL_Driver/Src/stm32f4xx_ll_sdmmc.c ****   (void)SDIO_SendCommand(SDIOx, &sdmmc_cmdinit);
 732:Drivers/STM32F4xx_HAL_Driver/Src/stm32f4xx_ll_sdmmc.c **** 
 733:Drivers/STM32F4xx_HAL_Driver/Src/stm32f4xx_ll_sdmmc.c ****   /* Check for error conditions */
 734:Drivers/STM32F4xx_HAL_Driver/Src/stm32f4xx_ll_sdmmc.c ****   errorstate = SDMMC_GetCmdResp1(SDIOx, SDMMC_CMD_ERASE, SDIO_MAXERASETIMEOUT);
 735:Drivers/STM32F4xx_HAL_Driver/Src/stm32f4xx_ll_sdmmc.c **** 
 736:Drivers/STM32F4xx_HAL_Driver/Src/stm32f4xx_ll_sdmmc.c ****   return errorstate;
 737:Drivers/STM32F4xx_HAL_Driver/Src/stm32f4xx_ll_sdmmc.c **** }
 738:Drivers/STM32F4xx_HAL_Driver/Src/stm32f4xx_ll_sdmmc.c **** 
 739:Drivers/STM32F4xx_HAL_Driver/Src/stm32f4xx_ll_sdmmc.c **** /**
 740:Drivers/STM32F4xx_HAL_Driver/Src/stm32f4xx_ll_sdmmc.c ****  * @brief  Send the Stop Transfer command and check the response.
 741:Drivers/STM32F4xx_HAL_Driver/Src/stm32f4xx_ll_sdmmc.c ****  * @param  SDIOx: Pointer to SDIO register base
 742:Drivers/STM32F4xx_HAL_Driver/Src/stm32f4xx_ll_sdmmc.c ****  * @retval HAL status
 743:Drivers/STM32F4xx_HAL_Driver/Src/stm32f4xx_ll_sdmmc.c ****  */
 744:Drivers/STM32F4xx_HAL_Driver/Src/stm32f4xx_ll_sdmmc.c **** uint32_t SDMMC_CmdStopTransfer(SDIO_TypeDef *SDIOx)
 745:Drivers/STM32F4xx_HAL_Driver/Src/stm32f4xx_ll_sdmmc.c **** {
 746:Drivers/STM32F4xx_HAL_Driver/Src/stm32f4xx_ll_sdmmc.c ****   SDIO_CmdInitTypeDef sdmmc_cmdinit;
 747:Drivers/STM32F4xx_HAL_Driver/Src/stm32f4xx_ll_sdmmc.c ****   uint32_t errorstate;
 748:Drivers/STM32F4xx_HAL_Driver/Src/stm32f4xx_ll_sdmmc.c **** 
 749:Drivers/STM32F4xx_HAL_Driver/Src/stm32f4xx_ll_sdmmc.c ****   /* Send CMD12 STOP_TRANSMISSION  */
 750:Drivers/STM32F4xx_HAL_Driver/Src/stm32f4xx_ll_sdmmc.c ****   sdmmc_cmdinit.Argument = 0U;
 751:Drivers/STM32F4xx_HAL_Driver/Src/stm32f4xx_ll_sdmmc.c ****   sdmmc_cmdinit.CmdIndex = SDMMC_CMD_STOP_TRANSMISSION;
 752:Drivers/STM32F4xx_HAL_Driver/Src/stm32f4xx_ll_sdmmc.c ****   sdmmc_cmdinit.Response = SDIO_RESPONSE_SHORT;
 753:Drivers/STM32F4xx_HAL_Driver/Src/stm32f4xx_ll_sdmmc.c ****   sdmmc_cmdinit.WaitForInterrupt = SDIO_WAIT_NO;
 754:Drivers/STM32F4xx_HAL_Driver/Src/stm32f4xx_ll_sdmmc.c ****   sdmmc_cmdinit.CPSM = SDIO_CPSM_ENABLE;
 755:Drivers/STM32F4xx_HAL_Driver/Src/stm32f4xx_ll_sdmmc.c ****   (void)SDIO_SendCommand(SDIOx, &sdmmc_cmdinit);
 756:Drivers/STM32F4xx_HAL_Driver/Src/stm32f4xx_ll_sdmmc.c **** 
 757:Drivers/STM32F4xx_HAL_Driver/Src/stm32f4xx_ll_sdmmc.c ****   /* Check for error conditions */
 758:Drivers/STM32F4xx_HAL_Driver/Src/stm32f4xx_ll_sdmmc.c ****   errorstate = SDMMC_GetCmdResp1(SDIOx, SDMMC_CMD_STOP_TRANSMISSION, SDIO_STOPTRANSFERTIMEOUT);
 759:Drivers/STM32F4xx_HAL_Driver/Src/stm32f4xx_ll_sdmmc.c **** 
 760:Drivers/STM32F4xx_HAL_Driver/Src/stm32f4xx_ll_sdmmc.c ****   return errorstate;
 761:Drivers/STM32F4xx_HAL_Driver/Src/stm32f4xx_ll_sdmmc.c **** }
 762:Drivers/STM32F4xx_HAL_Driver/Src/stm32f4xx_ll_sdmmc.c **** 
 763:Drivers/STM32F4xx_HAL_Driver/Src/stm32f4xx_ll_sdmmc.c **** /**
 764:Drivers/STM32F4xx_HAL_Driver/Src/stm32f4xx_ll_sdmmc.c ****  * @brief  Send the Select Deselect command and check the response.
 765:Drivers/STM32F4xx_HAL_Driver/Src/stm32f4xx_ll_sdmmc.c ****  * @param  SDIOx: Pointer to SDIO register base
 766:Drivers/STM32F4xx_HAL_Driver/Src/stm32f4xx_ll_sdmmc.c ****  * @param  addr: Address of the card to be selected
 767:Drivers/STM32F4xx_HAL_Driver/Src/stm32f4xx_ll_sdmmc.c ****  * @retval HAL status
 768:Drivers/STM32F4xx_HAL_Driver/Src/stm32f4xx_ll_sdmmc.c ****  */
 769:Drivers/STM32F4xx_HAL_Driver/Src/stm32f4xx_ll_sdmmc.c **** uint32_t SDMMC_CmdSelDesel(SDIO_TypeDef *SDIOx, uint64_t Addr)
 770:Drivers/STM32F4xx_HAL_Driver/Src/stm32f4xx_ll_sdmmc.c **** {
 771:Drivers/STM32F4xx_HAL_Driver/Src/stm32f4xx_ll_sdmmc.c ****   SDIO_CmdInitTypeDef sdmmc_cmdinit;
 772:Drivers/STM32F4xx_HAL_Driver/Src/stm32f4xx_ll_sdmmc.c ****   uint32_t errorstate;
 773:Drivers/STM32F4xx_HAL_Driver/Src/stm32f4xx_ll_sdmmc.c **** 
 774:Drivers/STM32F4xx_HAL_Driver/Src/stm32f4xx_ll_sdmmc.c ****   /* Send CMD7 SDMMC_SEL_DESEL_CARD */
ARM GAS  C:\Users\pw705\AppData\Local\Temp\cceieKfF.s 			page 24


 775:Drivers/STM32F4xx_HAL_Driver/Src/stm32f4xx_ll_sdmmc.c ****   sdmmc_cmdinit.Argument = (uint32_t)Addr;
 776:Drivers/STM32F4xx_HAL_Driver/Src/stm32f4xx_ll_sdmmc.c ****   sdmmc_cmdinit.CmdIndex = SDMMC_CMD_SEL_DESEL_CARD;
 777:Drivers/STM32F4xx_HAL_Driver/Src/stm32f4xx_ll_sdmmc.c ****   sdmmc_cmdinit.Response = SDIO_RESPONSE_SHORT;
 778:Drivers/STM32F4xx_HAL_Driver/Src/stm32f4xx_ll_sdmmc.c ****   sdmmc_cmdinit.WaitForInterrupt = SDIO_WAIT_NO;
 779:Drivers/STM32F4xx_HAL_Driver/Src/stm32f4xx_ll_sdmmc.c ****   sdmmc_cmdinit.CPSM = SDIO_CPSM_ENABLE;
 780:Drivers/STM32F4xx_HAL_Driver/Src/stm32f4xx_ll_sdmmc.c ****   (void)SDIO_SendCommand(SDIOx, &sdmmc_cmdinit);
 781:Drivers/STM32F4xx_HAL_Driver/Src/stm32f4xx_ll_sdmmc.c **** 
 782:Drivers/STM32F4xx_HAL_Driver/Src/stm32f4xx_ll_sdmmc.c ****   /* Check for error conditions */
 783:Drivers/STM32F4xx_HAL_Driver/Src/stm32f4xx_ll_sdmmc.c ****   errorstate = SDMMC_GetCmdResp1(SDIOx, SDMMC_CMD_SEL_DESEL_CARD, SDIO_CMDTIMEOUT);
 784:Drivers/STM32F4xx_HAL_Driver/Src/stm32f4xx_ll_sdmmc.c **** 
 785:Drivers/STM32F4xx_HAL_Driver/Src/stm32f4xx_ll_sdmmc.c ****   return errorstate;
 786:Drivers/STM32F4xx_HAL_Driver/Src/stm32f4xx_ll_sdmmc.c **** }
 787:Drivers/STM32F4xx_HAL_Driver/Src/stm32f4xx_ll_sdmmc.c **** 
 788:Drivers/STM32F4xx_HAL_Driver/Src/stm32f4xx_ll_sdmmc.c **** /**
 789:Drivers/STM32F4xx_HAL_Driver/Src/stm32f4xx_ll_sdmmc.c ****  * @brief  Send the Go Idle State command and check the response.
 790:Drivers/STM32F4xx_HAL_Driver/Src/stm32f4xx_ll_sdmmc.c ****  * @param  SDIOx: Pointer to SDIO register base
 791:Drivers/STM32F4xx_HAL_Driver/Src/stm32f4xx_ll_sdmmc.c ****  * @retval HAL status
 792:Drivers/STM32F4xx_HAL_Driver/Src/stm32f4xx_ll_sdmmc.c ****  */
 793:Drivers/STM32F4xx_HAL_Driver/Src/stm32f4xx_ll_sdmmc.c **** uint32_t SDMMC_CmdGoIdleState(SDIO_TypeDef *SDIOx)
 794:Drivers/STM32F4xx_HAL_Driver/Src/stm32f4xx_ll_sdmmc.c **** {
 795:Drivers/STM32F4xx_HAL_Driver/Src/stm32f4xx_ll_sdmmc.c ****   SDIO_CmdInitTypeDef sdmmc_cmdinit;
 796:Drivers/STM32F4xx_HAL_Driver/Src/stm32f4xx_ll_sdmmc.c ****   uint32_t errorstate;
 797:Drivers/STM32F4xx_HAL_Driver/Src/stm32f4xx_ll_sdmmc.c **** 
 798:Drivers/STM32F4xx_HAL_Driver/Src/stm32f4xx_ll_sdmmc.c ****   sdmmc_cmdinit.Argument = 0U;
 799:Drivers/STM32F4xx_HAL_Driver/Src/stm32f4xx_ll_sdmmc.c ****   sdmmc_cmdinit.CmdIndex = SDMMC_CMD_GO_IDLE_STATE;
 800:Drivers/STM32F4xx_HAL_Driver/Src/stm32f4xx_ll_sdmmc.c ****   sdmmc_cmdinit.Response = SDIO_RESPONSE_NO;
 801:Drivers/STM32F4xx_HAL_Driver/Src/stm32f4xx_ll_sdmmc.c ****   sdmmc_cmdinit.WaitForInterrupt = SDIO_WAIT_NO;
 802:Drivers/STM32F4xx_HAL_Driver/Src/stm32f4xx_ll_sdmmc.c ****   sdmmc_cmdinit.CPSM = SDIO_CPSM_ENABLE;
 803:Drivers/STM32F4xx_HAL_Driver/Src/stm32f4xx_ll_sdmmc.c ****   (void)SDIO_SendCommand(SDIOx, &sdmmc_cmdinit);
 804:Drivers/STM32F4xx_HAL_Driver/Src/stm32f4xx_ll_sdmmc.c **** 
 805:Drivers/STM32F4xx_HAL_Driver/Src/stm32f4xx_ll_sdmmc.c ****   /* Check for error conditions */
 806:Drivers/STM32F4xx_HAL_Driver/Src/stm32f4xx_ll_sdmmc.c ****   errorstate = SDMMC_GetCmdError(SDIOx);
 807:Drivers/STM32F4xx_HAL_Driver/Src/stm32f4xx_ll_sdmmc.c **** 
 808:Drivers/STM32F4xx_HAL_Driver/Src/stm32f4xx_ll_sdmmc.c ****   return errorstate;
 809:Drivers/STM32F4xx_HAL_Driver/Src/stm32f4xx_ll_sdmmc.c **** }
 810:Drivers/STM32F4xx_HAL_Driver/Src/stm32f4xx_ll_sdmmc.c **** 
 811:Drivers/STM32F4xx_HAL_Driver/Src/stm32f4xx_ll_sdmmc.c **** /**
 812:Drivers/STM32F4xx_HAL_Driver/Src/stm32f4xx_ll_sdmmc.c ****  * @brief  Send the Operating Condition command and check the response.
 813:Drivers/STM32F4xx_HAL_Driver/Src/stm32f4xx_ll_sdmmc.c ****  * @param  SDIOx: Pointer to SDIO register base
 814:Drivers/STM32F4xx_HAL_Driver/Src/stm32f4xx_ll_sdmmc.c ****  * @retval HAL status
 815:Drivers/STM32F4xx_HAL_Driver/Src/stm32f4xx_ll_sdmmc.c ****  */
 816:Drivers/STM32F4xx_HAL_Driver/Src/stm32f4xx_ll_sdmmc.c **** uint32_t SDMMC_CmdOperCond(SDIO_TypeDef *SDIOx)
 817:Drivers/STM32F4xx_HAL_Driver/Src/stm32f4xx_ll_sdmmc.c **** {
 818:Drivers/STM32F4xx_HAL_Driver/Src/stm32f4xx_ll_sdmmc.c ****   SDIO_CmdInitTypeDef sdmmc_cmdinit;
 819:Drivers/STM32F4xx_HAL_Driver/Src/stm32f4xx_ll_sdmmc.c ****   uint32_t errorstate;
 820:Drivers/STM32F4xx_HAL_Driver/Src/stm32f4xx_ll_sdmmc.c **** 
 821:Drivers/STM32F4xx_HAL_Driver/Src/stm32f4xx_ll_sdmmc.c ****   /* Send CMD8 to verify SD card interface operating condition */
 822:Drivers/STM32F4xx_HAL_Driver/Src/stm32f4xx_ll_sdmmc.c ****   /* Argument: - [31:12]: Reserved (shall be set to '0')
 823:Drivers/STM32F4xx_HAL_Driver/Src/stm32f4xx_ll_sdmmc.c ****   - [11:8]: Supply Voltage (VHS) 0x1 (Range: 2.7-3.6 V)
 824:Drivers/STM32F4xx_HAL_Driver/Src/stm32f4xx_ll_sdmmc.c ****   - [7:0]: Check Pattern (recommended 0xAA) */
 825:Drivers/STM32F4xx_HAL_Driver/Src/stm32f4xx_ll_sdmmc.c ****   /* CMD Response: R7 */
 826:Drivers/STM32F4xx_HAL_Driver/Src/stm32f4xx_ll_sdmmc.c ****   sdmmc_cmdinit.Argument = SDMMC_CHECK_PATTERN;
 827:Drivers/STM32F4xx_HAL_Driver/Src/stm32f4xx_ll_sdmmc.c ****   sdmmc_cmdinit.CmdIndex = SDMMC_CMD_HS_SEND_EXT_CSD;
 828:Drivers/STM32F4xx_HAL_Driver/Src/stm32f4xx_ll_sdmmc.c ****   sdmmc_cmdinit.Response = SDIO_RESPONSE_SHORT;
 829:Drivers/STM32F4xx_HAL_Driver/Src/stm32f4xx_ll_sdmmc.c ****   sdmmc_cmdinit.WaitForInterrupt = SDIO_WAIT_NO;
 830:Drivers/STM32F4xx_HAL_Driver/Src/stm32f4xx_ll_sdmmc.c ****   sdmmc_cmdinit.CPSM = SDIO_CPSM_ENABLE;
 831:Drivers/STM32F4xx_HAL_Driver/Src/stm32f4xx_ll_sdmmc.c ****   (void)SDIO_SendCommand(SDIOx, &sdmmc_cmdinit);
ARM GAS  C:\Users\pw705\AppData\Local\Temp\cceieKfF.s 			page 25


 832:Drivers/STM32F4xx_HAL_Driver/Src/stm32f4xx_ll_sdmmc.c **** 
 833:Drivers/STM32F4xx_HAL_Driver/Src/stm32f4xx_ll_sdmmc.c ****   /* Check for error conditions */
 834:Drivers/STM32F4xx_HAL_Driver/Src/stm32f4xx_ll_sdmmc.c ****   errorstate = SDMMC_GetCmdResp7(SDIOx);
 835:Drivers/STM32F4xx_HAL_Driver/Src/stm32f4xx_ll_sdmmc.c **** 
 836:Drivers/STM32F4xx_HAL_Driver/Src/stm32f4xx_ll_sdmmc.c ****   return errorstate;
 837:Drivers/STM32F4xx_HAL_Driver/Src/stm32f4xx_ll_sdmmc.c **** }
 838:Drivers/STM32F4xx_HAL_Driver/Src/stm32f4xx_ll_sdmmc.c **** 
 839:Drivers/STM32F4xx_HAL_Driver/Src/stm32f4xx_ll_sdmmc.c **** /**
 840:Drivers/STM32F4xx_HAL_Driver/Src/stm32f4xx_ll_sdmmc.c ****  * @brief  Send the Application command to verify that that the next command
 841:Drivers/STM32F4xx_HAL_Driver/Src/stm32f4xx_ll_sdmmc.c ****  *         is an application specific com-mand rather than a standard command
 842:Drivers/STM32F4xx_HAL_Driver/Src/stm32f4xx_ll_sdmmc.c ****  *         and check the response.
 843:Drivers/STM32F4xx_HAL_Driver/Src/stm32f4xx_ll_sdmmc.c ****  * @param  SDIOx: Pointer to SDIO register base
 844:Drivers/STM32F4xx_HAL_Driver/Src/stm32f4xx_ll_sdmmc.c ****  * @param  Argument: Command Argument
 845:Drivers/STM32F4xx_HAL_Driver/Src/stm32f4xx_ll_sdmmc.c ****  * @retval HAL status
 846:Drivers/STM32F4xx_HAL_Driver/Src/stm32f4xx_ll_sdmmc.c ****  */
 847:Drivers/STM32F4xx_HAL_Driver/Src/stm32f4xx_ll_sdmmc.c **** uint32_t SDMMC_CmdAppCommand(SDIO_TypeDef *SDIOx, uint32_t Argument)
 848:Drivers/STM32F4xx_HAL_Driver/Src/stm32f4xx_ll_sdmmc.c **** {
 849:Drivers/STM32F4xx_HAL_Driver/Src/stm32f4xx_ll_sdmmc.c ****   SDIO_CmdInitTypeDef sdmmc_cmdinit;
 850:Drivers/STM32F4xx_HAL_Driver/Src/stm32f4xx_ll_sdmmc.c ****   uint32_t errorstate;
 851:Drivers/STM32F4xx_HAL_Driver/Src/stm32f4xx_ll_sdmmc.c **** 
 852:Drivers/STM32F4xx_HAL_Driver/Src/stm32f4xx_ll_sdmmc.c ****   sdmmc_cmdinit.Argument = (uint32_t)Argument;
 853:Drivers/STM32F4xx_HAL_Driver/Src/stm32f4xx_ll_sdmmc.c ****   sdmmc_cmdinit.CmdIndex = SDMMC_CMD_APP_CMD;
 854:Drivers/STM32F4xx_HAL_Driver/Src/stm32f4xx_ll_sdmmc.c ****   sdmmc_cmdinit.Response = SDIO_RESPONSE_SHORT;
 855:Drivers/STM32F4xx_HAL_Driver/Src/stm32f4xx_ll_sdmmc.c ****   sdmmc_cmdinit.WaitForInterrupt = SDIO_WAIT_NO;
 856:Drivers/STM32F4xx_HAL_Driver/Src/stm32f4xx_ll_sdmmc.c ****   sdmmc_cmdinit.CPSM = SDIO_CPSM_ENABLE;
 857:Drivers/STM32F4xx_HAL_Driver/Src/stm32f4xx_ll_sdmmc.c ****   (void)SDIO_SendCommand(SDIOx, &sdmmc_cmdinit);
 858:Drivers/STM32F4xx_HAL_Driver/Src/stm32f4xx_ll_sdmmc.c **** 
 859:Drivers/STM32F4xx_HAL_Driver/Src/stm32f4xx_ll_sdmmc.c ****   /* Check for error conditions */
 860:Drivers/STM32F4xx_HAL_Driver/Src/stm32f4xx_ll_sdmmc.c ****   /* If there is a HAL_ERROR, it is a MMC card, else
 861:Drivers/STM32F4xx_HAL_Driver/Src/stm32f4xx_ll_sdmmc.c ****   it is a SD card: SD card 2.0 (voltage range mismatch)
 862:Drivers/STM32F4xx_HAL_Driver/Src/stm32f4xx_ll_sdmmc.c ****      or SD card 1.x */
 863:Drivers/STM32F4xx_HAL_Driver/Src/stm32f4xx_ll_sdmmc.c ****   errorstate = SDMMC_GetCmdResp1(SDIOx, SDMMC_CMD_APP_CMD, SDIO_CMDTIMEOUT);
 864:Drivers/STM32F4xx_HAL_Driver/Src/stm32f4xx_ll_sdmmc.c **** 
 865:Drivers/STM32F4xx_HAL_Driver/Src/stm32f4xx_ll_sdmmc.c ****   return errorstate;
 866:Drivers/STM32F4xx_HAL_Driver/Src/stm32f4xx_ll_sdmmc.c **** }
 867:Drivers/STM32F4xx_HAL_Driver/Src/stm32f4xx_ll_sdmmc.c **** 
 868:Drivers/STM32F4xx_HAL_Driver/Src/stm32f4xx_ll_sdmmc.c **** /**
 869:Drivers/STM32F4xx_HAL_Driver/Src/stm32f4xx_ll_sdmmc.c ****  * @brief  Send the command asking the accessed card to send its operating
 870:Drivers/STM32F4xx_HAL_Driver/Src/stm32f4xx_ll_sdmmc.c ****  *         condition register (OCR)
 871:Drivers/STM32F4xx_HAL_Driver/Src/stm32f4xx_ll_sdmmc.c ****  * @param  SDIOx: Pointer to SDIO register base
 872:Drivers/STM32F4xx_HAL_Driver/Src/stm32f4xx_ll_sdmmc.c ****  * @param  Argument: Command Argument
 873:Drivers/STM32F4xx_HAL_Driver/Src/stm32f4xx_ll_sdmmc.c ****  * @retval HAL status
 874:Drivers/STM32F4xx_HAL_Driver/Src/stm32f4xx_ll_sdmmc.c ****  */
 875:Drivers/STM32F4xx_HAL_Driver/Src/stm32f4xx_ll_sdmmc.c **** uint32_t SDMMC_CmdAppOperCommand(SDIO_TypeDef *SDIOx, uint32_t Argument)
 876:Drivers/STM32F4xx_HAL_Driver/Src/stm32f4xx_ll_sdmmc.c **** {
 877:Drivers/STM32F4xx_HAL_Driver/Src/stm32f4xx_ll_sdmmc.c ****   SDIO_CmdInitTypeDef sdmmc_cmdinit;
 878:Drivers/STM32F4xx_HAL_Driver/Src/stm32f4xx_ll_sdmmc.c ****   uint32_t errorstate;
 879:Drivers/STM32F4xx_HAL_Driver/Src/stm32f4xx_ll_sdmmc.c **** 
 880:Drivers/STM32F4xx_HAL_Driver/Src/stm32f4xx_ll_sdmmc.c ****   sdmmc_cmdinit.Argument = SDMMC_VOLTAGE_WINDOW_SD | Argument;
 881:Drivers/STM32F4xx_HAL_Driver/Src/stm32f4xx_ll_sdmmc.c ****   sdmmc_cmdinit.CmdIndex = SDMMC_CMD_SD_APP_OP_COND;
 882:Drivers/STM32F4xx_HAL_Driver/Src/stm32f4xx_ll_sdmmc.c ****   sdmmc_cmdinit.Response = SDIO_RESPONSE_SHORT;
 883:Drivers/STM32F4xx_HAL_Driver/Src/stm32f4xx_ll_sdmmc.c ****   sdmmc_cmdinit.WaitForInterrupt = SDIO_WAIT_NO;
 884:Drivers/STM32F4xx_HAL_Driver/Src/stm32f4xx_ll_sdmmc.c ****   sdmmc_cmdinit.CPSM = SDIO_CPSM_ENABLE;
 885:Drivers/STM32F4xx_HAL_Driver/Src/stm32f4xx_ll_sdmmc.c ****   (void)SDIO_SendCommand(SDIOx, &sdmmc_cmdinit);
 886:Drivers/STM32F4xx_HAL_Driver/Src/stm32f4xx_ll_sdmmc.c **** 
 887:Drivers/STM32F4xx_HAL_Driver/Src/stm32f4xx_ll_sdmmc.c ****   /* Check for error conditions */
 888:Drivers/STM32F4xx_HAL_Driver/Src/stm32f4xx_ll_sdmmc.c ****   errorstate = SDMMC_GetCmdResp3(SDIOx);
ARM GAS  C:\Users\pw705\AppData\Local\Temp\cceieKfF.s 			page 26


 889:Drivers/STM32F4xx_HAL_Driver/Src/stm32f4xx_ll_sdmmc.c **** 
 890:Drivers/STM32F4xx_HAL_Driver/Src/stm32f4xx_ll_sdmmc.c ****   return errorstate;
 891:Drivers/STM32F4xx_HAL_Driver/Src/stm32f4xx_ll_sdmmc.c **** }
 892:Drivers/STM32F4xx_HAL_Driver/Src/stm32f4xx_ll_sdmmc.c **** 
 893:Drivers/STM32F4xx_HAL_Driver/Src/stm32f4xx_ll_sdmmc.c **** /**
 894:Drivers/STM32F4xx_HAL_Driver/Src/stm32f4xx_ll_sdmmc.c ****  * @brief  Send the Bus Width command and check the response.
 895:Drivers/STM32F4xx_HAL_Driver/Src/stm32f4xx_ll_sdmmc.c ****  * @param  SDIOx: Pointer to SDIO register base
 896:Drivers/STM32F4xx_HAL_Driver/Src/stm32f4xx_ll_sdmmc.c ****  * @param  BusWidth: BusWidth
 897:Drivers/STM32F4xx_HAL_Driver/Src/stm32f4xx_ll_sdmmc.c ****  * @retval HAL status
 898:Drivers/STM32F4xx_HAL_Driver/Src/stm32f4xx_ll_sdmmc.c ****  */
 899:Drivers/STM32F4xx_HAL_Driver/Src/stm32f4xx_ll_sdmmc.c **** uint32_t SDMMC_CmdBusWidth(SDIO_TypeDef *SDIOx, uint32_t BusWidth)
 900:Drivers/STM32F4xx_HAL_Driver/Src/stm32f4xx_ll_sdmmc.c **** {
 901:Drivers/STM32F4xx_HAL_Driver/Src/stm32f4xx_ll_sdmmc.c ****   SDIO_CmdInitTypeDef sdmmc_cmdinit;
 902:Drivers/STM32F4xx_HAL_Driver/Src/stm32f4xx_ll_sdmmc.c ****   uint32_t errorstate;
 903:Drivers/STM32F4xx_HAL_Driver/Src/stm32f4xx_ll_sdmmc.c **** 
 904:Drivers/STM32F4xx_HAL_Driver/Src/stm32f4xx_ll_sdmmc.c ****   sdmmc_cmdinit.Argument = (uint32_t)BusWidth;
 905:Drivers/STM32F4xx_HAL_Driver/Src/stm32f4xx_ll_sdmmc.c ****   sdmmc_cmdinit.CmdIndex = SDMMC_CMD_APP_SD_SET_BUSWIDTH;
 906:Drivers/STM32F4xx_HAL_Driver/Src/stm32f4xx_ll_sdmmc.c ****   sdmmc_cmdinit.Response = SDIO_RESPONSE_SHORT;
 907:Drivers/STM32F4xx_HAL_Driver/Src/stm32f4xx_ll_sdmmc.c ****   sdmmc_cmdinit.WaitForInterrupt = SDIO_WAIT_NO;
 908:Drivers/STM32F4xx_HAL_Driver/Src/stm32f4xx_ll_sdmmc.c ****   sdmmc_cmdinit.CPSM = SDIO_CPSM_ENABLE;
 909:Drivers/STM32F4xx_HAL_Driver/Src/stm32f4xx_ll_sdmmc.c ****   (void)SDIO_SendCommand(SDIOx, &sdmmc_cmdinit);
 910:Drivers/STM32F4xx_HAL_Driver/Src/stm32f4xx_ll_sdmmc.c **** 
 911:Drivers/STM32F4xx_HAL_Driver/Src/stm32f4xx_ll_sdmmc.c ****   /* Check for error conditions */
 912:Drivers/STM32F4xx_HAL_Driver/Src/stm32f4xx_ll_sdmmc.c ****   errorstate = SDMMC_GetCmdResp1(SDIOx, SDMMC_CMD_APP_SD_SET_BUSWIDTH, SDIO_CMDTIMEOUT);
 913:Drivers/STM32F4xx_HAL_Driver/Src/stm32f4xx_ll_sdmmc.c **** 
 914:Drivers/STM32F4xx_HAL_Driver/Src/stm32f4xx_ll_sdmmc.c ****   return errorstate;
 915:Drivers/STM32F4xx_HAL_Driver/Src/stm32f4xx_ll_sdmmc.c **** }
 916:Drivers/STM32F4xx_HAL_Driver/Src/stm32f4xx_ll_sdmmc.c **** 
 917:Drivers/STM32F4xx_HAL_Driver/Src/stm32f4xx_ll_sdmmc.c **** /**
 918:Drivers/STM32F4xx_HAL_Driver/Src/stm32f4xx_ll_sdmmc.c ****  * @brief  Send the Send SCR command and check the response.
 919:Drivers/STM32F4xx_HAL_Driver/Src/stm32f4xx_ll_sdmmc.c ****  * @param  SDIOx: Pointer to SDIO register base
 920:Drivers/STM32F4xx_HAL_Driver/Src/stm32f4xx_ll_sdmmc.c ****  * @retval HAL status
 921:Drivers/STM32F4xx_HAL_Driver/Src/stm32f4xx_ll_sdmmc.c ****  */
 922:Drivers/STM32F4xx_HAL_Driver/Src/stm32f4xx_ll_sdmmc.c **** uint32_t SDMMC_CmdSendSCR(SDIO_TypeDef *SDIOx)
 923:Drivers/STM32F4xx_HAL_Driver/Src/stm32f4xx_ll_sdmmc.c **** {
 924:Drivers/STM32F4xx_HAL_Driver/Src/stm32f4xx_ll_sdmmc.c ****   SDIO_CmdInitTypeDef sdmmc_cmdinit;
 925:Drivers/STM32F4xx_HAL_Driver/Src/stm32f4xx_ll_sdmmc.c ****   uint32_t errorstate;
 926:Drivers/STM32F4xx_HAL_Driver/Src/stm32f4xx_ll_sdmmc.c **** 
 927:Drivers/STM32F4xx_HAL_Driver/Src/stm32f4xx_ll_sdmmc.c ****   /* Send CMD51 SD_APP_SEND_SCR */
 928:Drivers/STM32F4xx_HAL_Driver/Src/stm32f4xx_ll_sdmmc.c ****   sdmmc_cmdinit.Argument = 0U;
 929:Drivers/STM32F4xx_HAL_Driver/Src/stm32f4xx_ll_sdmmc.c ****   sdmmc_cmdinit.CmdIndex = SDMMC_CMD_SD_APP_SEND_SCR;
 930:Drivers/STM32F4xx_HAL_Driver/Src/stm32f4xx_ll_sdmmc.c ****   sdmmc_cmdinit.Response = SDIO_RESPONSE_SHORT;
 931:Drivers/STM32F4xx_HAL_Driver/Src/stm32f4xx_ll_sdmmc.c ****   sdmmc_cmdinit.WaitForInterrupt = SDIO_WAIT_NO;
 932:Drivers/STM32F4xx_HAL_Driver/Src/stm32f4xx_ll_sdmmc.c ****   sdmmc_cmdinit.CPSM = SDIO_CPSM_ENABLE;
 933:Drivers/STM32F4xx_HAL_Driver/Src/stm32f4xx_ll_sdmmc.c ****   (void)SDIO_SendCommand(SDIOx, &sdmmc_cmdinit);
 934:Drivers/STM32F4xx_HAL_Driver/Src/stm32f4xx_ll_sdmmc.c **** 
 935:Drivers/STM32F4xx_HAL_Driver/Src/stm32f4xx_ll_sdmmc.c ****   /* Check for error conditions */
 936:Drivers/STM32F4xx_HAL_Driver/Src/stm32f4xx_ll_sdmmc.c ****   errorstate = SDMMC_GetCmdResp1(SDIOx, SDMMC_CMD_SD_APP_SEND_SCR, SDIO_CMDTIMEOUT);
 937:Drivers/STM32F4xx_HAL_Driver/Src/stm32f4xx_ll_sdmmc.c **** 
 938:Drivers/STM32F4xx_HAL_Driver/Src/stm32f4xx_ll_sdmmc.c ****   return errorstate;
 939:Drivers/STM32F4xx_HAL_Driver/Src/stm32f4xx_ll_sdmmc.c **** }
 940:Drivers/STM32F4xx_HAL_Driver/Src/stm32f4xx_ll_sdmmc.c **** 
 941:Drivers/STM32F4xx_HAL_Driver/Src/stm32f4xx_ll_sdmmc.c **** /**
 942:Drivers/STM32F4xx_HAL_Driver/Src/stm32f4xx_ll_sdmmc.c ****  * @brief  Send the Send CID command and check the response.
 943:Drivers/STM32F4xx_HAL_Driver/Src/stm32f4xx_ll_sdmmc.c ****  * @param  SDIOx: Pointer to SDIO register base
 944:Drivers/STM32F4xx_HAL_Driver/Src/stm32f4xx_ll_sdmmc.c ****  * @retval HAL status
 945:Drivers/STM32F4xx_HAL_Driver/Src/stm32f4xx_ll_sdmmc.c ****  */
ARM GAS  C:\Users\pw705\AppData\Local\Temp\cceieKfF.s 			page 27


 946:Drivers/STM32F4xx_HAL_Driver/Src/stm32f4xx_ll_sdmmc.c **** uint32_t SDMMC_CmdSendCID(SDIO_TypeDef *SDIOx)
 947:Drivers/STM32F4xx_HAL_Driver/Src/stm32f4xx_ll_sdmmc.c **** {
 948:Drivers/STM32F4xx_HAL_Driver/Src/stm32f4xx_ll_sdmmc.c ****   SDIO_CmdInitTypeDef sdmmc_cmdinit;
 949:Drivers/STM32F4xx_HAL_Driver/Src/stm32f4xx_ll_sdmmc.c ****   uint32_t errorstate;
 950:Drivers/STM32F4xx_HAL_Driver/Src/stm32f4xx_ll_sdmmc.c **** 
 951:Drivers/STM32F4xx_HAL_Driver/Src/stm32f4xx_ll_sdmmc.c ****   /* Send CMD2 ALL_SEND_CID */
 952:Drivers/STM32F4xx_HAL_Driver/Src/stm32f4xx_ll_sdmmc.c ****   sdmmc_cmdinit.Argument = 0U;
 953:Drivers/STM32F4xx_HAL_Driver/Src/stm32f4xx_ll_sdmmc.c ****   sdmmc_cmdinit.CmdIndex = SDMMC_CMD_ALL_SEND_CID;
 954:Drivers/STM32F4xx_HAL_Driver/Src/stm32f4xx_ll_sdmmc.c ****   sdmmc_cmdinit.Response = SDIO_RESPONSE_LONG;
 955:Drivers/STM32F4xx_HAL_Driver/Src/stm32f4xx_ll_sdmmc.c ****   sdmmc_cmdinit.WaitForInterrupt = SDIO_WAIT_NO;
 956:Drivers/STM32F4xx_HAL_Driver/Src/stm32f4xx_ll_sdmmc.c ****   sdmmc_cmdinit.CPSM = SDIO_CPSM_ENABLE;
 957:Drivers/STM32F4xx_HAL_Driver/Src/stm32f4xx_ll_sdmmc.c ****   (void)SDIO_SendCommand(SDIOx, &sdmmc_cmdinit);
 958:Drivers/STM32F4xx_HAL_Driver/Src/stm32f4xx_ll_sdmmc.c **** 
 959:Drivers/STM32F4xx_HAL_Driver/Src/stm32f4xx_ll_sdmmc.c ****   /* Check for error conditions */
 960:Drivers/STM32F4xx_HAL_Driver/Src/stm32f4xx_ll_sdmmc.c ****   errorstate = SDMMC_GetCmdResp2(SDIOx);
 961:Drivers/STM32F4xx_HAL_Driver/Src/stm32f4xx_ll_sdmmc.c **** 
 962:Drivers/STM32F4xx_HAL_Driver/Src/stm32f4xx_ll_sdmmc.c ****   return errorstate;
 963:Drivers/STM32F4xx_HAL_Driver/Src/stm32f4xx_ll_sdmmc.c **** }
 964:Drivers/STM32F4xx_HAL_Driver/Src/stm32f4xx_ll_sdmmc.c **** 
 965:Drivers/STM32F4xx_HAL_Driver/Src/stm32f4xx_ll_sdmmc.c **** /**
 966:Drivers/STM32F4xx_HAL_Driver/Src/stm32f4xx_ll_sdmmc.c ****  * @brief  Send the Send CSD command and check the response.
 967:Drivers/STM32F4xx_HAL_Driver/Src/stm32f4xx_ll_sdmmc.c ****  * @param  SDIOx: Pointer to SDIO register base
 968:Drivers/STM32F4xx_HAL_Driver/Src/stm32f4xx_ll_sdmmc.c ****  * @param  Argument: Command Argument
 969:Drivers/STM32F4xx_HAL_Driver/Src/stm32f4xx_ll_sdmmc.c ****  * @retval HAL status
 970:Drivers/STM32F4xx_HAL_Driver/Src/stm32f4xx_ll_sdmmc.c ****  */
 971:Drivers/STM32F4xx_HAL_Driver/Src/stm32f4xx_ll_sdmmc.c **** uint32_t SDMMC_CmdSendCSD(SDIO_TypeDef *SDIOx, uint32_t Argument)
 972:Drivers/STM32F4xx_HAL_Driver/Src/stm32f4xx_ll_sdmmc.c **** {
 973:Drivers/STM32F4xx_HAL_Driver/Src/stm32f4xx_ll_sdmmc.c ****   SDIO_CmdInitTypeDef sdmmc_cmdinit;
 974:Drivers/STM32F4xx_HAL_Driver/Src/stm32f4xx_ll_sdmmc.c ****   uint32_t errorstate;
 975:Drivers/STM32F4xx_HAL_Driver/Src/stm32f4xx_ll_sdmmc.c **** 
 976:Drivers/STM32F4xx_HAL_Driver/Src/stm32f4xx_ll_sdmmc.c ****   /* Send CMD9 SEND_CSD */
 977:Drivers/STM32F4xx_HAL_Driver/Src/stm32f4xx_ll_sdmmc.c ****   sdmmc_cmdinit.Argument = Argument;
 978:Drivers/STM32F4xx_HAL_Driver/Src/stm32f4xx_ll_sdmmc.c ****   sdmmc_cmdinit.CmdIndex = SDMMC_CMD_SEND_CSD;
 979:Drivers/STM32F4xx_HAL_Driver/Src/stm32f4xx_ll_sdmmc.c ****   sdmmc_cmdinit.Response = SDIO_RESPONSE_LONG;
 980:Drivers/STM32F4xx_HAL_Driver/Src/stm32f4xx_ll_sdmmc.c ****   sdmmc_cmdinit.WaitForInterrupt = SDIO_WAIT_NO;
 981:Drivers/STM32F4xx_HAL_Driver/Src/stm32f4xx_ll_sdmmc.c ****   sdmmc_cmdinit.CPSM = SDIO_CPSM_ENABLE;
 982:Drivers/STM32F4xx_HAL_Driver/Src/stm32f4xx_ll_sdmmc.c ****   (void)SDIO_SendCommand(SDIOx, &sdmmc_cmdinit);
 983:Drivers/STM32F4xx_HAL_Driver/Src/stm32f4xx_ll_sdmmc.c **** 
 984:Drivers/STM32F4xx_HAL_Driver/Src/stm32f4xx_ll_sdmmc.c ****   /* Check for error conditions */
 985:Drivers/STM32F4xx_HAL_Driver/Src/stm32f4xx_ll_sdmmc.c ****   errorstate = SDMMC_GetCmdResp2(SDIOx);
 986:Drivers/STM32F4xx_HAL_Driver/Src/stm32f4xx_ll_sdmmc.c **** 
 987:Drivers/STM32F4xx_HAL_Driver/Src/stm32f4xx_ll_sdmmc.c ****   return errorstate;
 988:Drivers/STM32F4xx_HAL_Driver/Src/stm32f4xx_ll_sdmmc.c **** }
 989:Drivers/STM32F4xx_HAL_Driver/Src/stm32f4xx_ll_sdmmc.c **** 
 990:Drivers/STM32F4xx_HAL_Driver/Src/stm32f4xx_ll_sdmmc.c **** /**
 991:Drivers/STM32F4xx_HAL_Driver/Src/stm32f4xx_ll_sdmmc.c ****  * @brief  Send the Send CSD command and check the response.
 992:Drivers/STM32F4xx_HAL_Driver/Src/stm32f4xx_ll_sdmmc.c ****  * @param  SDIOx: Pointer to SDIO register base
 993:Drivers/STM32F4xx_HAL_Driver/Src/stm32f4xx_ll_sdmmc.c ****  * @param  pRCA: Card RCA
 994:Drivers/STM32F4xx_HAL_Driver/Src/stm32f4xx_ll_sdmmc.c ****  * @retval HAL status
 995:Drivers/STM32F4xx_HAL_Driver/Src/stm32f4xx_ll_sdmmc.c ****  */
 996:Drivers/STM32F4xx_HAL_Driver/Src/stm32f4xx_ll_sdmmc.c **** uint32_t SDMMC_CmdSetRelAdd(SDIO_TypeDef *SDIOx, uint16_t *pRCA)
 997:Drivers/STM32F4xx_HAL_Driver/Src/stm32f4xx_ll_sdmmc.c **** {
 998:Drivers/STM32F4xx_HAL_Driver/Src/stm32f4xx_ll_sdmmc.c ****   SDIO_CmdInitTypeDef sdmmc_cmdinit;
 999:Drivers/STM32F4xx_HAL_Driver/Src/stm32f4xx_ll_sdmmc.c ****   uint32_t errorstate;
1000:Drivers/STM32F4xx_HAL_Driver/Src/stm32f4xx_ll_sdmmc.c **** 
1001:Drivers/STM32F4xx_HAL_Driver/Src/stm32f4xx_ll_sdmmc.c ****   /* Send CMD3 SD_CMD_SET_REL_ADDR */
1002:Drivers/STM32F4xx_HAL_Driver/Src/stm32f4xx_ll_sdmmc.c ****   sdmmc_cmdinit.Argument = 0U;
ARM GAS  C:\Users\pw705\AppData\Local\Temp\cceieKfF.s 			page 28


1003:Drivers/STM32F4xx_HAL_Driver/Src/stm32f4xx_ll_sdmmc.c ****   sdmmc_cmdinit.CmdIndex = SDMMC_CMD_SET_REL_ADDR;
1004:Drivers/STM32F4xx_HAL_Driver/Src/stm32f4xx_ll_sdmmc.c ****   sdmmc_cmdinit.Response = SDIO_RESPONSE_SHORT;
1005:Drivers/STM32F4xx_HAL_Driver/Src/stm32f4xx_ll_sdmmc.c ****   sdmmc_cmdinit.WaitForInterrupt = SDIO_WAIT_NO;
1006:Drivers/STM32F4xx_HAL_Driver/Src/stm32f4xx_ll_sdmmc.c ****   sdmmc_cmdinit.CPSM = SDIO_CPSM_ENABLE;
1007:Drivers/STM32F4xx_HAL_Driver/Src/stm32f4xx_ll_sdmmc.c ****   (void)SDIO_SendCommand(SDIOx, &sdmmc_cmdinit);
1008:Drivers/STM32F4xx_HAL_Driver/Src/stm32f4xx_ll_sdmmc.c **** 
1009:Drivers/STM32F4xx_HAL_Driver/Src/stm32f4xx_ll_sdmmc.c ****   /* Check for error conditions */
1010:Drivers/STM32F4xx_HAL_Driver/Src/stm32f4xx_ll_sdmmc.c ****   errorstate = SDMMC_GetCmdResp6(SDIOx, SDMMC_CMD_SET_REL_ADDR, pRCA);
1011:Drivers/STM32F4xx_HAL_Driver/Src/stm32f4xx_ll_sdmmc.c **** 
1012:Drivers/STM32F4xx_HAL_Driver/Src/stm32f4xx_ll_sdmmc.c ****   return errorstate;
1013:Drivers/STM32F4xx_HAL_Driver/Src/stm32f4xx_ll_sdmmc.c **** }
1014:Drivers/STM32F4xx_HAL_Driver/Src/stm32f4xx_ll_sdmmc.c **** 
1015:Drivers/STM32F4xx_HAL_Driver/Src/stm32f4xx_ll_sdmmc.c **** /**
1016:Drivers/STM32F4xx_HAL_Driver/Src/stm32f4xx_ll_sdmmc.c ****  * @brief  Send the Set Relative Address command to MMC card (not SD card).
1017:Drivers/STM32F4xx_HAL_Driver/Src/stm32f4xx_ll_sdmmc.c ****  * @param  SDIOx Pointer to SDIO register base
1018:Drivers/STM32F4xx_HAL_Driver/Src/stm32f4xx_ll_sdmmc.c ****  * @param  RCA Card RCA
1019:Drivers/STM32F4xx_HAL_Driver/Src/stm32f4xx_ll_sdmmc.c ****  * @retval HAL status
1020:Drivers/STM32F4xx_HAL_Driver/Src/stm32f4xx_ll_sdmmc.c ****  */
1021:Drivers/STM32F4xx_HAL_Driver/Src/stm32f4xx_ll_sdmmc.c **** uint32_t SDMMC_CmdSetRelAddMmc(SDIO_TypeDef *SDIOx, uint16_t RCA)
1022:Drivers/STM32F4xx_HAL_Driver/Src/stm32f4xx_ll_sdmmc.c **** {
1023:Drivers/STM32F4xx_HAL_Driver/Src/stm32f4xx_ll_sdmmc.c ****   SDIO_CmdInitTypeDef sdmmc_cmdinit;
1024:Drivers/STM32F4xx_HAL_Driver/Src/stm32f4xx_ll_sdmmc.c ****   uint32_t errorstate;
1025:Drivers/STM32F4xx_HAL_Driver/Src/stm32f4xx_ll_sdmmc.c **** 
1026:Drivers/STM32F4xx_HAL_Driver/Src/stm32f4xx_ll_sdmmc.c ****   /* Send CMD3 SD_CMD_SET_REL_ADDR */
1027:Drivers/STM32F4xx_HAL_Driver/Src/stm32f4xx_ll_sdmmc.c ****   sdmmc_cmdinit.Argument = ((uint32_t)RCA << 16U);
1028:Drivers/STM32F4xx_HAL_Driver/Src/stm32f4xx_ll_sdmmc.c ****   sdmmc_cmdinit.CmdIndex = SDMMC_CMD_SET_REL_ADDR;
1029:Drivers/STM32F4xx_HAL_Driver/Src/stm32f4xx_ll_sdmmc.c ****   sdmmc_cmdinit.Response = SDIO_RESPONSE_SHORT;
1030:Drivers/STM32F4xx_HAL_Driver/Src/stm32f4xx_ll_sdmmc.c ****   sdmmc_cmdinit.WaitForInterrupt = SDIO_WAIT_NO;
1031:Drivers/STM32F4xx_HAL_Driver/Src/stm32f4xx_ll_sdmmc.c ****   sdmmc_cmdinit.CPSM = SDIO_CPSM_ENABLE;
1032:Drivers/STM32F4xx_HAL_Driver/Src/stm32f4xx_ll_sdmmc.c ****   (void)SDIO_SendCommand(SDIOx, &sdmmc_cmdinit);
1033:Drivers/STM32F4xx_HAL_Driver/Src/stm32f4xx_ll_sdmmc.c **** 
1034:Drivers/STM32F4xx_HAL_Driver/Src/stm32f4xx_ll_sdmmc.c ****   /* Check for error conditions */
1035:Drivers/STM32F4xx_HAL_Driver/Src/stm32f4xx_ll_sdmmc.c ****   errorstate = SDMMC_GetCmdResp1(SDIOx, SDMMC_CMD_SET_REL_ADDR, SDIO_CMDTIMEOUT);
1036:Drivers/STM32F4xx_HAL_Driver/Src/stm32f4xx_ll_sdmmc.c **** 
1037:Drivers/STM32F4xx_HAL_Driver/Src/stm32f4xx_ll_sdmmc.c ****   return errorstate;
1038:Drivers/STM32F4xx_HAL_Driver/Src/stm32f4xx_ll_sdmmc.c **** }
1039:Drivers/STM32F4xx_HAL_Driver/Src/stm32f4xx_ll_sdmmc.c **** 
1040:Drivers/STM32F4xx_HAL_Driver/Src/stm32f4xx_ll_sdmmc.c **** /**
1041:Drivers/STM32F4xx_HAL_Driver/Src/stm32f4xx_ll_sdmmc.c ****  * @brief  Send the Status command and check the response.
1042:Drivers/STM32F4xx_HAL_Driver/Src/stm32f4xx_ll_sdmmc.c ****  * @param  SDIOx: Pointer to SDIO register base
1043:Drivers/STM32F4xx_HAL_Driver/Src/stm32f4xx_ll_sdmmc.c ****  * @param  Argument: Command Argument
1044:Drivers/STM32F4xx_HAL_Driver/Src/stm32f4xx_ll_sdmmc.c ****  * @retval HAL status
1045:Drivers/STM32F4xx_HAL_Driver/Src/stm32f4xx_ll_sdmmc.c ****  */
1046:Drivers/STM32F4xx_HAL_Driver/Src/stm32f4xx_ll_sdmmc.c **** uint32_t SDMMC_CmdSendStatus(SDIO_TypeDef *SDIOx, uint32_t Argument)
1047:Drivers/STM32F4xx_HAL_Driver/Src/stm32f4xx_ll_sdmmc.c **** {
1048:Drivers/STM32F4xx_HAL_Driver/Src/stm32f4xx_ll_sdmmc.c ****   SDIO_CmdInitTypeDef sdmmc_cmdinit;
1049:Drivers/STM32F4xx_HAL_Driver/Src/stm32f4xx_ll_sdmmc.c ****   uint32_t errorstate;
1050:Drivers/STM32F4xx_HAL_Driver/Src/stm32f4xx_ll_sdmmc.c **** 
1051:Drivers/STM32F4xx_HAL_Driver/Src/stm32f4xx_ll_sdmmc.c ****   sdmmc_cmdinit.Argument = Argument;
1052:Drivers/STM32F4xx_HAL_Driver/Src/stm32f4xx_ll_sdmmc.c ****   sdmmc_cmdinit.CmdIndex = SDMMC_CMD_SEND_STATUS;
1053:Drivers/STM32F4xx_HAL_Driver/Src/stm32f4xx_ll_sdmmc.c ****   sdmmc_cmdinit.Response = SDIO_RESPONSE_SHORT;
1054:Drivers/STM32F4xx_HAL_Driver/Src/stm32f4xx_ll_sdmmc.c ****   sdmmc_cmdinit.WaitForInterrupt = SDIO_WAIT_NO;
1055:Drivers/STM32F4xx_HAL_Driver/Src/stm32f4xx_ll_sdmmc.c ****   sdmmc_cmdinit.CPSM = SDIO_CPSM_ENABLE;
1056:Drivers/STM32F4xx_HAL_Driver/Src/stm32f4xx_ll_sdmmc.c ****   (void)SDIO_SendCommand(SDIOx, &sdmmc_cmdinit);
1057:Drivers/STM32F4xx_HAL_Driver/Src/stm32f4xx_ll_sdmmc.c **** 
1058:Drivers/STM32F4xx_HAL_Driver/Src/stm32f4xx_ll_sdmmc.c ****   /* Check for error conditions */
1059:Drivers/STM32F4xx_HAL_Driver/Src/stm32f4xx_ll_sdmmc.c ****   errorstate = SDMMC_GetCmdResp1(SDIOx, SDMMC_CMD_SEND_STATUS, SDIO_CMDTIMEOUT);
ARM GAS  C:\Users\pw705\AppData\Local\Temp\cceieKfF.s 			page 29


1060:Drivers/STM32F4xx_HAL_Driver/Src/stm32f4xx_ll_sdmmc.c **** 
1061:Drivers/STM32F4xx_HAL_Driver/Src/stm32f4xx_ll_sdmmc.c ****   return errorstate;
1062:Drivers/STM32F4xx_HAL_Driver/Src/stm32f4xx_ll_sdmmc.c **** }
1063:Drivers/STM32F4xx_HAL_Driver/Src/stm32f4xx_ll_sdmmc.c **** 
1064:Drivers/STM32F4xx_HAL_Driver/Src/stm32f4xx_ll_sdmmc.c **** /**
1065:Drivers/STM32F4xx_HAL_Driver/Src/stm32f4xx_ll_sdmmc.c ****  * @brief  Send the Status register command and check the response.
1066:Drivers/STM32F4xx_HAL_Driver/Src/stm32f4xx_ll_sdmmc.c ****  * @param  SDIOx: Pointer to SDIO register base
1067:Drivers/STM32F4xx_HAL_Driver/Src/stm32f4xx_ll_sdmmc.c ****  * @retval HAL status
1068:Drivers/STM32F4xx_HAL_Driver/Src/stm32f4xx_ll_sdmmc.c ****  */
1069:Drivers/STM32F4xx_HAL_Driver/Src/stm32f4xx_ll_sdmmc.c **** uint32_t SDMMC_CmdStatusRegister(SDIO_TypeDef *SDIOx)
1070:Drivers/STM32F4xx_HAL_Driver/Src/stm32f4xx_ll_sdmmc.c **** {
1071:Drivers/STM32F4xx_HAL_Driver/Src/stm32f4xx_ll_sdmmc.c ****   SDIO_CmdInitTypeDef sdmmc_cmdinit;
1072:Drivers/STM32F4xx_HAL_Driver/Src/stm32f4xx_ll_sdmmc.c ****   uint32_t errorstate;
1073:Drivers/STM32F4xx_HAL_Driver/Src/stm32f4xx_ll_sdmmc.c **** 
1074:Drivers/STM32F4xx_HAL_Driver/Src/stm32f4xx_ll_sdmmc.c ****   sdmmc_cmdinit.Argument = 0U;
1075:Drivers/STM32F4xx_HAL_Driver/Src/stm32f4xx_ll_sdmmc.c ****   sdmmc_cmdinit.CmdIndex = SDMMC_CMD_SD_APP_STATUS;
1076:Drivers/STM32F4xx_HAL_Driver/Src/stm32f4xx_ll_sdmmc.c ****   sdmmc_cmdinit.Response = SDIO_RESPONSE_SHORT;
1077:Drivers/STM32F4xx_HAL_Driver/Src/stm32f4xx_ll_sdmmc.c ****   sdmmc_cmdinit.WaitForInterrupt = SDIO_WAIT_NO;
1078:Drivers/STM32F4xx_HAL_Driver/Src/stm32f4xx_ll_sdmmc.c ****   sdmmc_cmdinit.CPSM = SDIO_CPSM_ENABLE;
1079:Drivers/STM32F4xx_HAL_Driver/Src/stm32f4xx_ll_sdmmc.c ****   (void)SDIO_SendCommand(SDIOx, &sdmmc_cmdinit);
1080:Drivers/STM32F4xx_HAL_Driver/Src/stm32f4xx_ll_sdmmc.c **** 
1081:Drivers/STM32F4xx_HAL_Driver/Src/stm32f4xx_ll_sdmmc.c ****   /* Check for error conditions */
1082:Drivers/STM32F4xx_HAL_Driver/Src/stm32f4xx_ll_sdmmc.c ****   errorstate = SDMMC_GetCmdResp1(SDIOx, SDMMC_CMD_SD_APP_STATUS, SDIO_CMDTIMEOUT);
1083:Drivers/STM32F4xx_HAL_Driver/Src/stm32f4xx_ll_sdmmc.c **** 
1084:Drivers/STM32F4xx_HAL_Driver/Src/stm32f4xx_ll_sdmmc.c ****   return errorstate;
1085:Drivers/STM32F4xx_HAL_Driver/Src/stm32f4xx_ll_sdmmc.c **** }
1086:Drivers/STM32F4xx_HAL_Driver/Src/stm32f4xx_ll_sdmmc.c **** 
1087:Drivers/STM32F4xx_HAL_Driver/Src/stm32f4xx_ll_sdmmc.c **** /**
1088:Drivers/STM32F4xx_HAL_Driver/Src/stm32f4xx_ll_sdmmc.c ****  * @brief  Sends host capacity support information and activates the card's
1089:Drivers/STM32F4xx_HAL_Driver/Src/stm32f4xx_ll_sdmmc.c ****  *         initialization process. Send SDMMC_CMD_SEND_OP_COND command
1090:Drivers/STM32F4xx_HAL_Driver/Src/stm32f4xx_ll_sdmmc.c ****  * @param  SDIOx: Pointer to SDIO register base
1091:Drivers/STM32F4xx_HAL_Driver/Src/stm32f4xx_ll_sdmmc.c ****  * @parame Argument: Argument used for the command
1092:Drivers/STM32F4xx_HAL_Driver/Src/stm32f4xx_ll_sdmmc.c ****  * @retval HAL status
1093:Drivers/STM32F4xx_HAL_Driver/Src/stm32f4xx_ll_sdmmc.c ****  */
1094:Drivers/STM32F4xx_HAL_Driver/Src/stm32f4xx_ll_sdmmc.c **** uint32_t SDMMC_CmdOpCondition(SDIO_TypeDef *SDIOx, uint32_t Argument)
1095:Drivers/STM32F4xx_HAL_Driver/Src/stm32f4xx_ll_sdmmc.c **** {
1096:Drivers/STM32F4xx_HAL_Driver/Src/stm32f4xx_ll_sdmmc.c ****   SDIO_CmdInitTypeDef sdmmc_cmdinit;
1097:Drivers/STM32F4xx_HAL_Driver/Src/stm32f4xx_ll_sdmmc.c ****   uint32_t errorstate;
1098:Drivers/STM32F4xx_HAL_Driver/Src/stm32f4xx_ll_sdmmc.c **** 
1099:Drivers/STM32F4xx_HAL_Driver/Src/stm32f4xx_ll_sdmmc.c ****   sdmmc_cmdinit.Argument = Argument;
1100:Drivers/STM32F4xx_HAL_Driver/Src/stm32f4xx_ll_sdmmc.c ****   sdmmc_cmdinit.CmdIndex = SDMMC_CMD_SEND_OP_COND;
1101:Drivers/STM32F4xx_HAL_Driver/Src/stm32f4xx_ll_sdmmc.c ****   sdmmc_cmdinit.Response = SDIO_RESPONSE_SHORT;
1102:Drivers/STM32F4xx_HAL_Driver/Src/stm32f4xx_ll_sdmmc.c ****   sdmmc_cmdinit.WaitForInterrupt = SDIO_WAIT_NO;
1103:Drivers/STM32F4xx_HAL_Driver/Src/stm32f4xx_ll_sdmmc.c ****   sdmmc_cmdinit.CPSM = SDIO_CPSM_ENABLE;
1104:Drivers/STM32F4xx_HAL_Driver/Src/stm32f4xx_ll_sdmmc.c ****   (void)SDIO_SendCommand(SDIOx, &sdmmc_cmdinit);
1105:Drivers/STM32F4xx_HAL_Driver/Src/stm32f4xx_ll_sdmmc.c **** 
1106:Drivers/STM32F4xx_HAL_Driver/Src/stm32f4xx_ll_sdmmc.c ****   /* Check for error conditions */
1107:Drivers/STM32F4xx_HAL_Driver/Src/stm32f4xx_ll_sdmmc.c ****   errorstate = SDMMC_GetCmdResp3(SDIOx);
1108:Drivers/STM32F4xx_HAL_Driver/Src/stm32f4xx_ll_sdmmc.c **** 
1109:Drivers/STM32F4xx_HAL_Driver/Src/stm32f4xx_ll_sdmmc.c ****   return errorstate;
1110:Drivers/STM32F4xx_HAL_Driver/Src/stm32f4xx_ll_sdmmc.c **** }
1111:Drivers/STM32F4xx_HAL_Driver/Src/stm32f4xx_ll_sdmmc.c **** 
1112:Drivers/STM32F4xx_HAL_Driver/Src/stm32f4xx_ll_sdmmc.c **** /**
1113:Drivers/STM32F4xx_HAL_Driver/Src/stm32f4xx_ll_sdmmc.c ****  * @brief  Checks switchable function and switch card function. SDMMC_CMD_HS_SWITCH command
1114:Drivers/STM32F4xx_HAL_Driver/Src/stm32f4xx_ll_sdmmc.c ****  * @param  SDIOx: Pointer to SDIO register base
1115:Drivers/STM32F4xx_HAL_Driver/Src/stm32f4xx_ll_sdmmc.c ****  * @parame Argument: Argument used for the command
1116:Drivers/STM32F4xx_HAL_Driver/Src/stm32f4xx_ll_sdmmc.c ****  * @retval HAL status
ARM GAS  C:\Users\pw705\AppData\Local\Temp\cceieKfF.s 			page 30


1117:Drivers/STM32F4xx_HAL_Driver/Src/stm32f4xx_ll_sdmmc.c ****  */
1118:Drivers/STM32F4xx_HAL_Driver/Src/stm32f4xx_ll_sdmmc.c **** uint32_t SDMMC_CmdSwitch(SDIO_TypeDef *SDIOx, uint32_t Argument)
1119:Drivers/STM32F4xx_HAL_Driver/Src/stm32f4xx_ll_sdmmc.c **** {
1120:Drivers/STM32F4xx_HAL_Driver/Src/stm32f4xx_ll_sdmmc.c ****   SDIO_CmdInitTypeDef sdmmc_cmdinit;
1121:Drivers/STM32F4xx_HAL_Driver/Src/stm32f4xx_ll_sdmmc.c ****   uint32_t errorstate;
1122:Drivers/STM32F4xx_HAL_Driver/Src/stm32f4xx_ll_sdmmc.c **** 
1123:Drivers/STM32F4xx_HAL_Driver/Src/stm32f4xx_ll_sdmmc.c ****   /* Send CMD6 to activate SDR50 Mode and Power Limit 1.44W */
1124:Drivers/STM32F4xx_HAL_Driver/Src/stm32f4xx_ll_sdmmc.c ****   /* CMD Response: R1 */
1125:Drivers/STM32F4xx_HAL_Driver/Src/stm32f4xx_ll_sdmmc.c ****   sdmmc_cmdinit.Argument = Argument; /* SDMMC_SDR25_SWITCH_PATTERN */
1126:Drivers/STM32F4xx_HAL_Driver/Src/stm32f4xx_ll_sdmmc.c ****   sdmmc_cmdinit.CmdIndex = SDMMC_CMD_HS_SWITCH;
1127:Drivers/STM32F4xx_HAL_Driver/Src/stm32f4xx_ll_sdmmc.c ****   sdmmc_cmdinit.Response = SDIO_RESPONSE_SHORT;
1128:Drivers/STM32F4xx_HAL_Driver/Src/stm32f4xx_ll_sdmmc.c ****   sdmmc_cmdinit.WaitForInterrupt = SDIO_WAIT_NO;
1129:Drivers/STM32F4xx_HAL_Driver/Src/stm32f4xx_ll_sdmmc.c ****   sdmmc_cmdinit.CPSM = SDIO_CPSM_ENABLE;
1130:Drivers/STM32F4xx_HAL_Driver/Src/stm32f4xx_ll_sdmmc.c ****   (void)SDIO_SendCommand(SDIOx, &sdmmc_cmdinit);
1131:Drivers/STM32F4xx_HAL_Driver/Src/stm32f4xx_ll_sdmmc.c **** 
1132:Drivers/STM32F4xx_HAL_Driver/Src/stm32f4xx_ll_sdmmc.c ****   /* Check for error conditions */
1133:Drivers/STM32F4xx_HAL_Driver/Src/stm32f4xx_ll_sdmmc.c ****   errorstate = SDMMC_GetCmdResp1(SDIOx, SDMMC_CMD_HS_SWITCH, SDIO_CMDTIMEOUT);
1134:Drivers/STM32F4xx_HAL_Driver/Src/stm32f4xx_ll_sdmmc.c **** 
1135:Drivers/STM32F4xx_HAL_Driver/Src/stm32f4xx_ll_sdmmc.c ****   return errorstate;
1136:Drivers/STM32F4xx_HAL_Driver/Src/stm32f4xx_ll_sdmmc.c **** }
1137:Drivers/STM32F4xx_HAL_Driver/Src/stm32f4xx_ll_sdmmc.c **** 
1138:Drivers/STM32F4xx_HAL_Driver/Src/stm32f4xx_ll_sdmmc.c **** /**
1139:Drivers/STM32F4xx_HAL_Driver/Src/stm32f4xx_ll_sdmmc.c ****  * @brief  Send the Send EXT_CSD command and check the response.
1140:Drivers/STM32F4xx_HAL_Driver/Src/stm32f4xx_ll_sdmmc.c ****  * @param  SDIOx Pointer to SDMMC register base
1141:Drivers/STM32F4xx_HAL_Driver/Src/stm32f4xx_ll_sdmmc.c ****  * @param  Argument Command Argument
1142:Drivers/STM32F4xx_HAL_Driver/Src/stm32f4xx_ll_sdmmc.c ****  * @retval HAL status
1143:Drivers/STM32F4xx_HAL_Driver/Src/stm32f4xx_ll_sdmmc.c ****  */
1144:Drivers/STM32F4xx_HAL_Driver/Src/stm32f4xx_ll_sdmmc.c **** uint32_t SDMMC_CmdSendEXTCSD(SDIO_TypeDef *SDIOx, uint32_t Argument)
1145:Drivers/STM32F4xx_HAL_Driver/Src/stm32f4xx_ll_sdmmc.c **** {
1146:Drivers/STM32F4xx_HAL_Driver/Src/stm32f4xx_ll_sdmmc.c ****   SDIO_CmdInitTypeDef sdmmc_cmdinit;
1147:Drivers/STM32F4xx_HAL_Driver/Src/stm32f4xx_ll_sdmmc.c ****   uint32_t errorstate;
1148:Drivers/STM32F4xx_HAL_Driver/Src/stm32f4xx_ll_sdmmc.c **** 
1149:Drivers/STM32F4xx_HAL_Driver/Src/stm32f4xx_ll_sdmmc.c ****   /* Send CMD9 SEND_CSD */
1150:Drivers/STM32F4xx_HAL_Driver/Src/stm32f4xx_ll_sdmmc.c ****   sdmmc_cmdinit.Argument = Argument;
1151:Drivers/STM32F4xx_HAL_Driver/Src/stm32f4xx_ll_sdmmc.c ****   sdmmc_cmdinit.CmdIndex = SDMMC_CMD_HS_SEND_EXT_CSD;
1152:Drivers/STM32F4xx_HAL_Driver/Src/stm32f4xx_ll_sdmmc.c ****   sdmmc_cmdinit.Response = SDIO_RESPONSE_SHORT;
1153:Drivers/STM32F4xx_HAL_Driver/Src/stm32f4xx_ll_sdmmc.c ****   sdmmc_cmdinit.WaitForInterrupt = SDIO_WAIT_NO;
1154:Drivers/STM32F4xx_HAL_Driver/Src/stm32f4xx_ll_sdmmc.c ****   sdmmc_cmdinit.CPSM = SDIO_CPSM_ENABLE;
1155:Drivers/STM32F4xx_HAL_Driver/Src/stm32f4xx_ll_sdmmc.c ****   (void)SDIO_SendCommand(SDIOx, &sdmmc_cmdinit);
1156:Drivers/STM32F4xx_HAL_Driver/Src/stm32f4xx_ll_sdmmc.c **** 
1157:Drivers/STM32F4xx_HAL_Driver/Src/stm32f4xx_ll_sdmmc.c ****   /* Check for error conditions */
1158:Drivers/STM32F4xx_HAL_Driver/Src/stm32f4xx_ll_sdmmc.c ****   errorstate = SDMMC_GetCmdResp1(SDIOx, SDMMC_CMD_HS_SEND_EXT_CSD, SDIO_CMDTIMEOUT);
1159:Drivers/STM32F4xx_HAL_Driver/Src/stm32f4xx_ll_sdmmc.c **** 
1160:Drivers/STM32F4xx_HAL_Driver/Src/stm32f4xx_ll_sdmmc.c ****   return errorstate;
1161:Drivers/STM32F4xx_HAL_Driver/Src/stm32f4xx_ll_sdmmc.c **** }
1162:Drivers/STM32F4xx_HAL_Driver/Src/stm32f4xx_ll_sdmmc.c **** 
1163:Drivers/STM32F4xx_HAL_Driver/Src/stm32f4xx_ll_sdmmc.c **** /**
1164:Drivers/STM32F4xx_HAL_Driver/Src/stm32f4xx_ll_sdmmc.c ****  * @}
1165:Drivers/STM32F4xx_HAL_Driver/Src/stm32f4xx_ll_sdmmc.c ****  */
1166:Drivers/STM32F4xx_HAL_Driver/Src/stm32f4xx_ll_sdmmc.c **** 
1167:Drivers/STM32F4xx_HAL_Driver/Src/stm32f4xx_ll_sdmmc.c **** /** @defgroup HAL_SDMMC_LL_Group5 Responses management functions
1168:Drivers/STM32F4xx_HAL_Driver/Src/stm32f4xx_ll_sdmmc.c ****  *  @brief   Responses functions
1169:Drivers/STM32F4xx_HAL_Driver/Src/stm32f4xx_ll_sdmmc.c ****  *
1170:Drivers/STM32F4xx_HAL_Driver/Src/stm32f4xx_ll_sdmmc.c **** @verbatim
1171:Drivers/STM32F4xx_HAL_Driver/Src/stm32f4xx_ll_sdmmc.c ****  ===============================================================================
1172:Drivers/STM32F4xx_HAL_Driver/Src/stm32f4xx_ll_sdmmc.c ****                    ##### Responses management functions #####
1173:Drivers/STM32F4xx_HAL_Driver/Src/stm32f4xx_ll_sdmmc.c ****  ===============================================================================
ARM GAS  C:\Users\pw705\AppData\Local\Temp\cceieKfF.s 			page 31


1174:Drivers/STM32F4xx_HAL_Driver/Src/stm32f4xx_ll_sdmmc.c ****     [..]
1175:Drivers/STM32F4xx_HAL_Driver/Src/stm32f4xx_ll_sdmmc.c ****     This subsection provides a set of functions allowing to manage the needed responses.
1176:Drivers/STM32F4xx_HAL_Driver/Src/stm32f4xx_ll_sdmmc.c **** 
1177:Drivers/STM32F4xx_HAL_Driver/Src/stm32f4xx_ll_sdmmc.c **** @endverbatim
1178:Drivers/STM32F4xx_HAL_Driver/Src/stm32f4xx_ll_sdmmc.c ****   * @{
1179:Drivers/STM32F4xx_HAL_Driver/Src/stm32f4xx_ll_sdmmc.c ****   */
1180:Drivers/STM32F4xx_HAL_Driver/Src/stm32f4xx_ll_sdmmc.c **** /**
1181:Drivers/STM32F4xx_HAL_Driver/Src/stm32f4xx_ll_sdmmc.c ****  * @brief  Checks for error conditions for R1 response.
1182:Drivers/STM32F4xx_HAL_Driver/Src/stm32f4xx_ll_sdmmc.c ****  * @param  SDIOx Pointer to SDMMC register base
1183:Drivers/STM32F4xx_HAL_Driver/Src/stm32f4xx_ll_sdmmc.c ****  * @param  SD_CMD: The sent command index
1184:Drivers/STM32F4xx_HAL_Driver/Src/stm32f4xx_ll_sdmmc.c ****  * @retval SD Card error state
1185:Drivers/STM32F4xx_HAL_Driver/Src/stm32f4xx_ll_sdmmc.c ****  */
1186:Drivers/STM32F4xx_HAL_Driver/Src/stm32f4xx_ll_sdmmc.c **** uint32_t SDMMC_GetCmdResp1(SDIO_TypeDef *SDIOx, uint8_t SD_CMD, uint32_t Timeout)
1187:Drivers/STM32F4xx_HAL_Driver/Src/stm32f4xx_ll_sdmmc.c **** {
1188:Drivers/STM32F4xx_HAL_Driver/Src/stm32f4xx_ll_sdmmc.c ****   uint32_t response_r1;
1189:Drivers/STM32F4xx_HAL_Driver/Src/stm32f4xx_ll_sdmmc.c ****   uint32_t sta_reg;
1190:Drivers/STM32F4xx_HAL_Driver/Src/stm32f4xx_ll_sdmmc.c **** 
1191:Drivers/STM32F4xx_HAL_Driver/Src/stm32f4xx_ll_sdmmc.c ****   /* 8 is the number of required instructions cycles for the below loop statement.
1192:Drivers/STM32F4xx_HAL_Driver/Src/stm32f4xx_ll_sdmmc.c ****   The Timeout is expressed in ms */
1193:Drivers/STM32F4xx_HAL_Driver/Src/stm32f4xx_ll_sdmmc.c ****   uint32_t count = Timeout * (SystemCoreClock / 8U / 1000U);
 531              		.loc 1 1193 52 is_stmt 0 view .LVU138
 532 0000 4A4A     		ldr	r2, .L56
 533              	.LVL33:
 534              		.loc 1 1193 52 view .LVU139
 535              	.LBE87:
 536              	.LBE86:
 511:Drivers/STM32F4xx_HAL_Driver/Src/stm32f4xx_ll_sdmmc.c ****   sdmmc_cmdinit.CmdIndex = SDMMC_CMD_SET_BLOCKLEN;
 537              		.loc 1 511 3 is_stmt 1 view .LVU140
 512:Drivers/STM32F4xx_HAL_Driver/Src/stm32f4xx_ll_sdmmc.c ****   sdmmc_cmdinit.WaitForInterrupt = SDIO_WAIT_NO;
 538              		.loc 1 512 3 view .LVU141
 513:Drivers/STM32F4xx_HAL_Driver/Src/stm32f4xx_ll_sdmmc.c ****   sdmmc_cmdinit.CPSM = SDIO_CPSM_ENABLE;
 539              		.loc 1 513 3 view .LVU142
 514:Drivers/STM32F4xx_HAL_Driver/Src/stm32f4xx_ll_sdmmc.c ****   (void)SDIO_SendCommand(SDIOx, &sdmmc_cmdinit);
 540              		.loc 1 514 3 view .LVU143
 515:Drivers/STM32F4xx_HAL_Driver/Src/stm32f4xx_ll_sdmmc.c **** 
 541              		.loc 1 515 3 view .LVU144
 542              	.LBB102:
 543              	.LBI102:
 345:Drivers/STM32F4xx_HAL_Driver/Src/stm32f4xx_ll_sdmmc.c **** {
 544              		.loc 1 345 19 view .LVU145
 545              	.LBB103:
 347:Drivers/STM32F4xx_HAL_Driver/Src/stm32f4xx_ll_sdmmc.c **** 
 546              		.loc 1 347 3 view .LVU146
 350:Drivers/STM32F4xx_HAL_Driver/Src/stm32f4xx_ll_sdmmc.c ****   assert_param(IS_SDIO_RESPONSE(Command->Response));
 547              		.loc 1 350 3 view .LVU147
 351:Drivers/STM32F4xx_HAL_Driver/Src/stm32f4xx_ll_sdmmc.c ****   assert_param(IS_SDIO_WAIT(Command->WaitForInterrupt));
 548              		.loc 1 351 3 view .LVU148
 352:Drivers/STM32F4xx_HAL_Driver/Src/stm32f4xx_ll_sdmmc.c ****   assert_param(IS_SDIO_CPSM(Command->CPSM));
 549              		.loc 1 352 3 view .LVU149
 353:Drivers/STM32F4xx_HAL_Driver/Src/stm32f4xx_ll_sdmmc.c **** 
 550              		.loc 1 353 3 view .LVU150
 356:Drivers/STM32F4xx_HAL_Driver/Src/stm32f4xx_ll_sdmmc.c **** 
 551              		.loc 1 356 3 view .LVU151
 356:Drivers/STM32F4xx_HAL_Driver/Src/stm32f4xx_ll_sdmmc.c **** 
 552              		.loc 1 356 14 is_stmt 0 view .LVU152
 553 0002 8160     		str	r1, [r0, #8]
 359:Drivers/STM32F4xx_HAL_Driver/Src/stm32f4xx_ll_sdmmc.c ****                        Command->Response |
ARM GAS  C:\Users\pw705\AppData\Local\Temp\cceieKfF.s 			page 32


 554              		.loc 1 359 3 is_stmt 1 view .LVU153
 555              	.LVL34:
 365:Drivers/STM32F4xx_HAL_Driver/Src/stm32f4xx_ll_sdmmc.c **** 
 556              		.loc 1 365 3 view .LVU154
 557 0004 C368     		ldr	r3, [r0, #12]
 558              	.LBE103:
 559              	.LBE102:
 560              	.LBB108:
 561              	.LBB96:
 562              		.loc 1 1193 52 is_stmt 0 view .LVU155
 563 0006 4A49     		ldr	r1, .L56+4
 564              	.LVL35:
 565              		.loc 1 1193 52 view .LVU156
 566 0008 1268     		ldr	r2, [r2]
 567              	.LBE96:
 568              	.LBE108:
 569              	.LBB109:
 570              	.LBB104:
 365:Drivers/STM32F4xx_HAL_Driver/Src/stm32f4xx_ll_sdmmc.c **** 
 571              		.loc 1 365 3 view .LVU157
 572 000a 23F47F63 		bic	r3, r3, #4080
 573              	.LBE104:
 574              	.LBE109:
 575              	.LBB110:
 576              	.LBB97:
 577              		.loc 1 1193 52 view .LVU158
 578 000e A1FB0212 		umull	r1, r2, r1, r2
 579              	.LBE97:
 580              	.LBE110:
 581              	.LBB111:
 582              	.LBB105:
 365:Drivers/STM32F4xx_HAL_Driver/Src/stm32f4xx_ll_sdmmc.c **** 
 583              		.loc 1 365 3 view .LVU159
 584 0012 23F00F03 		bic	r3, r3, #15
 585              	.LBE105:
 586              	.LBE111:
 587              	.LBB112:
 588              	.LBB98:
 589              		.loc 1 1193 52 view .LVU160
 590 0016 520A     		lsrs	r2, r2, #9
 591              		.loc 1 1193 12 view .LVU161
 592 0018 41F28831 		movw	r1, #5000
 593              	.LBE98:
 594              	.LBE112:
 595              	.LBB113:
 596              	.LBB106:
 365:Drivers/STM32F4xx_HAL_Driver/Src/stm32f4xx_ll_sdmmc.c **** 
 597              		.loc 1 365 3 view .LVU162
 598 001c 43F48A63 		orr	r3, r3, #1104
 599              	.LBE106:
 600              	.LBE113:
 601              	.LBB114:
 602              	.LBB99:
 603              		.loc 1 1193 12 view .LVU163
 604 0020 01FB02F2 		mul	r2, r1, r2
 605              	.LBE99:
 606              	.LBE114:
ARM GAS  C:\Users\pw705\AppData\Local\Temp\cceieKfF.s 			page 33


 607              	.LBB115:
 608              	.LBB107:
 365:Drivers/STM32F4xx_HAL_Driver/Src/stm32f4xx_ll_sdmmc.c **** 
 609              		.loc 1 365 3 view .LVU164
 610 0024 C360     		str	r3, [r0, #12]
 611              	.LVL36:
 367:Drivers/STM32F4xx_HAL_Driver/Src/stm32f4xx_ll_sdmmc.c **** }
 612              		.loc 1 367 3 is_stmt 1 view .LVU165
 367:Drivers/STM32F4xx_HAL_Driver/Src/stm32f4xx_ll_sdmmc.c **** }
 613              		.loc 1 367 3 is_stmt 0 view .LVU166
 614              	.LBE107:
 615              	.LBE115:
 518:Drivers/STM32F4xx_HAL_Driver/Src/stm32f4xx_ll_sdmmc.c **** 
 616              		.loc 1 518 3 is_stmt 1 view .LVU167
 617              	.LBB116:
 618              	.LBI86:
1186:Drivers/STM32F4xx_HAL_Driver/Src/stm32f4xx_ll_sdmmc.c **** {
 619              		.loc 1 1186 10 view .LVU168
 620              	.LBB100:
1188:Drivers/STM32F4xx_HAL_Driver/Src/stm32f4xx_ll_sdmmc.c ****   uint32_t sta_reg;
 621              		.loc 1 1188 3 view .LVU169
1189:Drivers/STM32F4xx_HAL_Driver/Src/stm32f4xx_ll_sdmmc.c **** 
 622              		.loc 1 1189 3 view .LVU170
 623              		.loc 1 1193 3 view .LVU171
1194:Drivers/STM32F4xx_HAL_Driver/Src/stm32f4xx_ll_sdmmc.c **** 
1195:Drivers/STM32F4xx_HAL_Driver/Src/stm32f4xx_ll_sdmmc.c ****   do
 624              		.loc 1 1195 3 view .LVU172
1196:Drivers/STM32F4xx_HAL_Driver/Src/stm32f4xx_ll_sdmmc.c ****   {
1197:Drivers/STM32F4xx_HAL_Driver/Src/stm32f4xx_ll_sdmmc.c ****     if (count-- == 0U)
 625              		.loc 1 1197 5 view .LVU173
 626              		.loc 1 1197 14 is_stmt 0 view .LVU174
 627 0026 531E     		subs	r3, r2, #1
 628              	.LVL37:
 629              		.loc 1 1197 8 view .LVU175
 630 0028 4AB1     		cbz	r2, .L27
 631              	.L20:
1195:Drivers/STM32F4xx_HAL_Driver/Src/stm32f4xx_ll_sdmmc.c ****   {
 632              		.loc 1 1195 3 is_stmt 1 view .LVU176
 633              		.loc 1 1197 5 view .LVU177
1198:Drivers/STM32F4xx_HAL_Driver/Src/stm32f4xx_ll_sdmmc.c ****     {
1199:Drivers/STM32F4xx_HAL_Driver/Src/stm32f4xx_ll_sdmmc.c ****       return SDMMC_ERROR_TIMEOUT;
1200:Drivers/STM32F4xx_HAL_Driver/Src/stm32f4xx_ll_sdmmc.c ****     }
1201:Drivers/STM32F4xx_HAL_Driver/Src/stm32f4xx_ll_sdmmc.c ****     sta_reg = SDIOx->STA;
 634              		.loc 1 1201 5 view .LVU178
 635              		.loc 1 1201 13 is_stmt 0 view .LVU179
 636 002a 426B     		ldr	r2, [r0, #52]
 637              	.LVL38:
1202:Drivers/STM32F4xx_HAL_Driver/Src/stm32f4xx_ll_sdmmc.c ****   } while (((sta_reg & (SDIO_FLAG_CCRCFAIL | SDIO_FLAG_CMDREND | SDIO_FLAG_CTIMEOUT)) == 0U) ||
 638              		.loc 1 1202 94 is_stmt 1 view .LVU180
 639 002c 12F0450F 		tst	r2, #69
1197:Drivers/STM32F4xx_HAL_Driver/Src/stm32f4xx_ll_sdmmc.c ****     {
 640              		.loc 1 1197 14 is_stmt 0 view .LVU181
 641 0030 03F1FF33 		add	r3, r3, #-1
 642              	.LVL39:
 643              		.loc 1 1202 94 view .LVU182
 644 0034 01D0     		beq	.L21
 645 0036 1105     		lsls	r1, r2, #20
ARM GAS  C:\Users\pw705\AppData\Local\Temp\cceieKfF.s 			page 34


 646 0038 04D5     		bpl	.L53
 647              	.L21:
1197:Drivers/STM32F4xx_HAL_Driver/Src/stm32f4xx_ll_sdmmc.c ****     {
 648              		.loc 1 1197 8 view .LVU183
 649 003a 5A1C     		adds	r2, r3, #1
 650              	.LVL40:
1197:Drivers/STM32F4xx_HAL_Driver/Src/stm32f4xx_ll_sdmmc.c ****     {
 651              		.loc 1 1197 8 view .LVU184
 652 003c F5D1     		bne	.L20
 653              	.LVL41:
 654              	.L27:
1199:Drivers/STM32F4xx_HAL_Driver/Src/stm32f4xx_ll_sdmmc.c ****     }
 655              		.loc 1 1199 14 view .LVU185
 656 003e 4FF00040 		mov	r0, #-2147483648
 657              	.LVL42:
1199:Drivers/STM32F4xx_HAL_Driver/Src/stm32f4xx_ll_sdmmc.c ****     }
 658              		.loc 1 1199 14 view .LVU186
 659 0042 7047     		bx	lr
 660              	.LVL43:
 661              	.L53:
1203:Drivers/STM32F4xx_HAL_Driver/Src/stm32f4xx_ll_sdmmc.c ****            ((sta_reg & SDIO_FLAG_CMDACT) != 0U));
1204:Drivers/STM32F4xx_HAL_Driver/Src/stm32f4xx_ll_sdmmc.c **** 
1205:Drivers/STM32F4xx_HAL_Driver/Src/stm32f4xx_ll_sdmmc.c ****   if (__SDIO_GET_FLAG(SDIOx, SDIO_FLAG_CTIMEOUT))
 662              		.loc 1 1205 3 is_stmt 1 view .LVU187
 663              		.loc 1 1205 7 is_stmt 0 view .LVU188
 664 0044 436B     		ldr	r3, [r0, #52]
 665              	.LVL44:
 666              		.loc 1 1205 6 view .LVU189
 667 0046 5A07     		lsls	r2, r3, #29
 668              	.LVL45:
 669              		.loc 1 1205 6 view .LVU190
 670 0048 3ED4     		bmi	.L54
1206:Drivers/STM32F4xx_HAL_Driver/Src/stm32f4xx_ll_sdmmc.c ****   {
1207:Drivers/STM32F4xx_HAL_Driver/Src/stm32f4xx_ll_sdmmc.c ****     __SDIO_CLEAR_FLAG(SDIOx, SDIO_FLAG_CTIMEOUT);
1208:Drivers/STM32F4xx_HAL_Driver/Src/stm32f4xx_ll_sdmmc.c **** 
1209:Drivers/STM32F4xx_HAL_Driver/Src/stm32f4xx_ll_sdmmc.c ****     return SDMMC_ERROR_CMD_RSP_TIMEOUT;
1210:Drivers/STM32F4xx_HAL_Driver/Src/stm32f4xx_ll_sdmmc.c ****   }
1211:Drivers/STM32F4xx_HAL_Driver/Src/stm32f4xx_ll_sdmmc.c ****   else if (__SDIO_GET_FLAG(SDIOx, SDIO_FLAG_CCRCFAIL))
 671              		.loc 1 1211 8 is_stmt 1 view .LVU191
 672              		.loc 1 1211 12 is_stmt 0 view .LVU192
 673 004a 436B     		ldr	r3, [r0, #52]
 674              		.loc 1 1211 11 view .LVU193
 675 004c DB07     		lsls	r3, r3, #31
 676 004e 07D4     		bmi	.L55
1212:Drivers/STM32F4xx_HAL_Driver/Src/stm32f4xx_ll_sdmmc.c ****   {
1213:Drivers/STM32F4xx_HAL_Driver/Src/stm32f4xx_ll_sdmmc.c ****     __SDIO_CLEAR_FLAG(SDIOx, SDIO_FLAG_CCRCFAIL);
1214:Drivers/STM32F4xx_HAL_Driver/Src/stm32f4xx_ll_sdmmc.c **** 
1215:Drivers/STM32F4xx_HAL_Driver/Src/stm32f4xx_ll_sdmmc.c ****     return SDMMC_ERROR_CMD_CRC_FAIL;
1216:Drivers/STM32F4xx_HAL_Driver/Src/stm32f4xx_ll_sdmmc.c ****   }
1217:Drivers/STM32F4xx_HAL_Driver/Src/stm32f4xx_ll_sdmmc.c ****   else
1218:Drivers/STM32F4xx_HAL_Driver/Src/stm32f4xx_ll_sdmmc.c ****   {
1219:Drivers/STM32F4xx_HAL_Driver/Src/stm32f4xx_ll_sdmmc.c ****     /* Nothing to do */
1220:Drivers/STM32F4xx_HAL_Driver/Src/stm32f4xx_ll_sdmmc.c ****   }
 677              		.loc 1 1220 3 is_stmt 1 view .LVU194
1221:Drivers/STM32F4xx_HAL_Driver/Src/stm32f4xx_ll_sdmmc.c **** 
1222:Drivers/STM32F4xx_HAL_Driver/Src/stm32f4xx_ll_sdmmc.c ****   /* Clear all the static flags */
1223:Drivers/STM32F4xx_HAL_Driver/Src/stm32f4xx_ll_sdmmc.c ****   __SDIO_CLEAR_FLAG(SDIOx, SDIO_STATIC_CMD_FLAGS);
ARM GAS  C:\Users\pw705\AppData\Local\Temp\cceieKfF.s 			page 35


 678              		.loc 1 1223 3 view .LVU195
 679 0050 C523     		movs	r3, #197
 680 0052 8363     		str	r3, [r0, #56]
1224:Drivers/STM32F4xx_HAL_Driver/Src/stm32f4xx_ll_sdmmc.c **** 
1225:Drivers/STM32F4xx_HAL_Driver/Src/stm32f4xx_ll_sdmmc.c ****   /* Check response received is of desired command */
1226:Drivers/STM32F4xx_HAL_Driver/Src/stm32f4xx_ll_sdmmc.c ****   if (SDIO_GetCommandResponse(SDIOx) != SD_CMD)
 681              		.loc 1 1226 3 view .LVU196
 682              	.LVL46:
 683              	.LBB88:
 684              	.LBI88:
 375:Drivers/STM32F4xx_HAL_Driver/Src/stm32f4xx_ll_sdmmc.c **** {
 685              		.loc 1 375 9 view .LVU197
 686              	.LBB89:
 377:Drivers/STM32F4xx_HAL_Driver/Src/stm32f4xx_ll_sdmmc.c **** }
 687              		.loc 1 377 3 view .LVU198
 377:Drivers/STM32F4xx_HAL_Driver/Src/stm32f4xx_ll_sdmmc.c **** }
 688              		.loc 1 377 25 is_stmt 0 view .LVU199
 689 0054 0369     		ldr	r3, [r0, #16]
 690              	.LVL47:
 377:Drivers/STM32F4xx_HAL_Driver/Src/stm32f4xx_ll_sdmmc.c **** }
 691              		.loc 1 377 25 view .LVU200
 692              	.LBE89:
 693              	.LBE88:
 694              		.loc 1 1226 6 view .LVU201
 695 0056 DBB2     		uxtb	r3, r3
 696 0058 102B     		cmp	r3, #16
 697 005a 04D0     		beq	.L25
 698              	.L24:
1215:Drivers/STM32F4xx_HAL_Driver/Src/stm32f4xx_ll_sdmmc.c ****   }
 699              		.loc 1 1215 12 view .LVU202
 700 005c 0120     		movs	r0, #1
 701              	.LVL48:
1215:Drivers/STM32F4xx_HAL_Driver/Src/stm32f4xx_ll_sdmmc.c ****   }
 702              		.loc 1 1215 12 view .LVU203
 703 005e 7047     		bx	lr
 704              	.LVL49:
 705              	.L55:
1213:Drivers/STM32F4xx_HAL_Driver/Src/stm32f4xx_ll_sdmmc.c **** 
 706              		.loc 1 1213 5 is_stmt 1 view .LVU204
 707 0060 0123     		movs	r3, #1
 708 0062 8363     		str	r3, [r0, #56]
1215:Drivers/STM32F4xx_HAL_Driver/Src/stm32f4xx_ll_sdmmc.c ****   }
 709              		.loc 1 1215 5 view .LVU205
1215:Drivers/STM32F4xx_HAL_Driver/Src/stm32f4xx_ll_sdmmc.c ****   }
 710              		.loc 1 1215 12 is_stmt 0 view .LVU206
 711 0064 FAE7     		b	.L24
 712              	.L25:
 713              	.LVL50:
 714              	.LBB90:
 715              	.LBI90:
1186:Drivers/STM32F4xx_HAL_Driver/Src/stm32f4xx_ll_sdmmc.c **** {
 716              		.loc 1 1186 10 is_stmt 1 view .LVU207
 717              	.LBB91:
1227:Drivers/STM32F4xx_HAL_Driver/Src/stm32f4xx_ll_sdmmc.c ****   {
1228:Drivers/STM32F4xx_HAL_Driver/Src/stm32f4xx_ll_sdmmc.c ****     return SDMMC_ERROR_CMD_CRC_FAIL;
1229:Drivers/STM32F4xx_HAL_Driver/Src/stm32f4xx_ll_sdmmc.c ****   }
1230:Drivers/STM32F4xx_HAL_Driver/Src/stm32f4xx_ll_sdmmc.c **** 
ARM GAS  C:\Users\pw705\AppData\Local\Temp\cceieKfF.s 			page 36


1231:Drivers/STM32F4xx_HAL_Driver/Src/stm32f4xx_ll_sdmmc.c ****   /* We have received response, retrieve it for analysis  */
1232:Drivers/STM32F4xx_HAL_Driver/Src/stm32f4xx_ll_sdmmc.c ****   response_r1 = SDIO_GetResponse(SDIOx, SDIO_RESP1);
 718              		.loc 1 1232 3 view .LVU208
 719              	.LBB92:
 720              	.LBI92:
 391:Drivers/STM32F4xx_HAL_Driver/Src/stm32f4xx_ll_sdmmc.c **** {
 721              		.loc 1 391 10 view .LVU209
 722              	.LBB93:
 393:Drivers/STM32F4xx_HAL_Driver/Src/stm32f4xx_ll_sdmmc.c **** 
 723              		.loc 1 393 3 view .LVU210
 396:Drivers/STM32F4xx_HAL_Driver/Src/stm32f4xx_ll_sdmmc.c **** 
 724              		.loc 1 396 3 view .LVU211
 399:Drivers/STM32F4xx_HAL_Driver/Src/stm32f4xx_ll_sdmmc.c **** 
 725              		.loc 1 399 3 view .LVU212
 401:Drivers/STM32F4xx_HAL_Driver/Src/stm32f4xx_ll_sdmmc.c **** }
 726              		.loc 1 401 3 view .LVU213
 401:Drivers/STM32F4xx_HAL_Driver/Src/stm32f4xx_ll_sdmmc.c **** }
 727              		.loc 1 401 11 is_stmt 0 view .LVU214
 728 0066 4369     		ldr	r3, [r0, #20]
 729              	.LVL51:
 401:Drivers/STM32F4xx_HAL_Driver/Src/stm32f4xx_ll_sdmmc.c **** }
 730              		.loc 1 401 11 view .LVU215
 731              	.LBE93:
 732              	.LBE92:
1233:Drivers/STM32F4xx_HAL_Driver/Src/stm32f4xx_ll_sdmmc.c **** 
1234:Drivers/STM32F4xx_HAL_Driver/Src/stm32f4xx_ll_sdmmc.c ****   if ((response_r1 & SDMMC_OCR_ERRORBITS) == SDMMC_ALLZERO)
 733              		.loc 1 1234 3 is_stmt 1 view .LVU216
 734              		.loc 1 1234 20 is_stmt 0 view .LVU217
 735 0068 3248     		ldr	r0, .L56+8
 736              	.LVL52:
 737              		.loc 1 1234 20 view .LVU218
 738 006a 1840     		ands	r0, r0, r3
 739              		.loc 1 1234 6 view .LVU219
 740 006c 58B3     		cbz	r0, .L18
1235:Drivers/STM32F4xx_HAL_Driver/Src/stm32f4xx_ll_sdmmc.c ****   {
1236:Drivers/STM32F4xx_HAL_Driver/Src/stm32f4xx_ll_sdmmc.c ****     return SDMMC_ERROR_NONE;
1237:Drivers/STM32F4xx_HAL_Driver/Src/stm32f4xx_ll_sdmmc.c ****   }
1238:Drivers/STM32F4xx_HAL_Driver/Src/stm32f4xx_ll_sdmmc.c ****   else if ((response_r1 & SDMMC_OCR_ADDR_OUT_OF_RANGE) == SDMMC_OCR_ADDR_OUT_OF_RANGE)
 741              		.loc 1 1238 8 is_stmt 1 view .LVU220
 742              		.loc 1 1238 11 is_stmt 0 view .LVU221
 743 006e 002B     		cmp	r3, #0
 744 0070 2EDB     		blt	.L28
1239:Drivers/STM32F4xx_HAL_Driver/Src/stm32f4xx_ll_sdmmc.c ****   {
1240:Drivers/STM32F4xx_HAL_Driver/Src/stm32f4xx_ll_sdmmc.c ****     return SDMMC_ERROR_ADDR_OUT_OF_RANGE;
1241:Drivers/STM32F4xx_HAL_Driver/Src/stm32f4xx_ll_sdmmc.c ****   }
1242:Drivers/STM32F4xx_HAL_Driver/Src/stm32f4xx_ll_sdmmc.c ****   else if ((response_r1 & SDMMC_OCR_ADDR_MISALIGNED) == SDMMC_OCR_ADDR_MISALIGNED)
 745              		.loc 1 1242 8 is_stmt 1 view .LVU222
 746              		.loc 1 1242 11 is_stmt 0 view .LVU223
 747 0072 5900     		lsls	r1, r3, #1
 748 0074 2FD4     		bmi	.L29
1243:Drivers/STM32F4xx_HAL_Driver/Src/stm32f4xx_ll_sdmmc.c ****   {
1244:Drivers/STM32F4xx_HAL_Driver/Src/stm32f4xx_ll_sdmmc.c ****     return SDMMC_ERROR_ADDR_MISALIGNED;
1245:Drivers/STM32F4xx_HAL_Driver/Src/stm32f4xx_ll_sdmmc.c ****   }
1246:Drivers/STM32F4xx_HAL_Driver/Src/stm32f4xx_ll_sdmmc.c ****   else if ((response_r1 & SDMMC_OCR_BLOCK_LEN_ERR) == SDMMC_OCR_BLOCK_LEN_ERR)
 749              		.loc 1 1246 8 is_stmt 1 view .LVU224
 750              		.loc 1 1246 11 is_stmt 0 view .LVU225
 751 0076 9A00     		lsls	r2, r3, #2
ARM GAS  C:\Users\pw705\AppData\Local\Temp\cceieKfF.s 			page 37


 752 0078 2FD4     		bmi	.L30
1247:Drivers/STM32F4xx_HAL_Driver/Src/stm32f4xx_ll_sdmmc.c ****   {
1248:Drivers/STM32F4xx_HAL_Driver/Src/stm32f4xx_ll_sdmmc.c ****     return SDMMC_ERROR_BLOCK_LEN_ERR;
1249:Drivers/STM32F4xx_HAL_Driver/Src/stm32f4xx_ll_sdmmc.c ****   }
1250:Drivers/STM32F4xx_HAL_Driver/Src/stm32f4xx_ll_sdmmc.c ****   else if ((response_r1 & SDMMC_OCR_ERASE_SEQ_ERR) == SDMMC_OCR_ERASE_SEQ_ERR)
 753              		.loc 1 1250 8 is_stmt 1 view .LVU226
 754              		.loc 1 1250 11 is_stmt 0 view .LVU227
 755 007a D900     		lsls	r1, r3, #3
 756 007c 2FD4     		bmi	.L31
1251:Drivers/STM32F4xx_HAL_Driver/Src/stm32f4xx_ll_sdmmc.c ****   {
1252:Drivers/STM32F4xx_HAL_Driver/Src/stm32f4xx_ll_sdmmc.c ****     return SDMMC_ERROR_ERASE_SEQ_ERR;
1253:Drivers/STM32F4xx_HAL_Driver/Src/stm32f4xx_ll_sdmmc.c ****   }
1254:Drivers/STM32F4xx_HAL_Driver/Src/stm32f4xx_ll_sdmmc.c ****   else if ((response_r1 & SDMMC_OCR_BAD_ERASE_PARAM) == SDMMC_OCR_BAD_ERASE_PARAM)
 757              		.loc 1 1254 8 is_stmt 1 view .LVU228
 758              		.loc 1 1254 11 is_stmt 0 view .LVU229
 759 007e 1A01     		lsls	r2, r3, #4
 760 0080 30D4     		bmi	.L32
1255:Drivers/STM32F4xx_HAL_Driver/Src/stm32f4xx_ll_sdmmc.c ****   {
1256:Drivers/STM32F4xx_HAL_Driver/Src/stm32f4xx_ll_sdmmc.c ****     return SDMMC_ERROR_BAD_ERASE_PARAM;
1257:Drivers/STM32F4xx_HAL_Driver/Src/stm32f4xx_ll_sdmmc.c ****   }
1258:Drivers/STM32F4xx_HAL_Driver/Src/stm32f4xx_ll_sdmmc.c ****   else if ((response_r1 & SDMMC_OCR_WRITE_PROT_VIOLATION) == SDMMC_OCR_WRITE_PROT_VIOLATION)
 761              		.loc 1 1258 8 is_stmt 1 view .LVU230
 762              		.loc 1 1258 11 is_stmt 0 view .LVU231
 763 0082 5901     		lsls	r1, r3, #5
 764 0084 31D4     		bmi	.L33
1259:Drivers/STM32F4xx_HAL_Driver/Src/stm32f4xx_ll_sdmmc.c ****   {
1260:Drivers/STM32F4xx_HAL_Driver/Src/stm32f4xx_ll_sdmmc.c ****     return SDMMC_ERROR_WRITE_PROT_VIOLATION;
1261:Drivers/STM32F4xx_HAL_Driver/Src/stm32f4xx_ll_sdmmc.c ****   }
1262:Drivers/STM32F4xx_HAL_Driver/Src/stm32f4xx_ll_sdmmc.c ****   else if ((response_r1 & SDMMC_OCR_LOCK_UNLOCK_FAILED) == SDMMC_OCR_LOCK_UNLOCK_FAILED)
 765              		.loc 1 1262 8 is_stmt 1 view .LVU232
 766              		.loc 1 1262 11 is_stmt 0 view .LVU233
 767 0086 DA01     		lsls	r2, r3, #7
 768 0088 32D4     		bmi	.L34
1263:Drivers/STM32F4xx_HAL_Driver/Src/stm32f4xx_ll_sdmmc.c ****   {
1264:Drivers/STM32F4xx_HAL_Driver/Src/stm32f4xx_ll_sdmmc.c ****     return SDMMC_ERROR_LOCK_UNLOCK_FAILED;
1265:Drivers/STM32F4xx_HAL_Driver/Src/stm32f4xx_ll_sdmmc.c ****   }
1266:Drivers/STM32F4xx_HAL_Driver/Src/stm32f4xx_ll_sdmmc.c ****   else if ((response_r1 & SDMMC_OCR_COM_CRC_FAILED) == SDMMC_OCR_COM_CRC_FAILED)
 769              		.loc 1 1266 8 is_stmt 1 view .LVU234
 770              		.loc 1 1266 11 is_stmt 0 view .LVU235
 771 008a 1902     		lsls	r1, r3, #8
 772 008c 33D4     		bmi	.L35
1267:Drivers/STM32F4xx_HAL_Driver/Src/stm32f4xx_ll_sdmmc.c ****   {
1268:Drivers/STM32F4xx_HAL_Driver/Src/stm32f4xx_ll_sdmmc.c ****     return SDMMC_ERROR_COM_CRC_FAILED;
1269:Drivers/STM32F4xx_HAL_Driver/Src/stm32f4xx_ll_sdmmc.c ****   }
1270:Drivers/STM32F4xx_HAL_Driver/Src/stm32f4xx_ll_sdmmc.c ****   else if ((response_r1 & SDMMC_OCR_ILLEGAL_CMD) == SDMMC_OCR_ILLEGAL_CMD)
 773              		.loc 1 1270 8 is_stmt 1 view .LVU236
 774              		.loc 1 1270 11 is_stmt 0 view .LVU237
 775 008e 5A02     		lsls	r2, r3, #9
 776 0090 34D4     		bmi	.L36
1271:Drivers/STM32F4xx_HAL_Driver/Src/stm32f4xx_ll_sdmmc.c ****   {
1272:Drivers/STM32F4xx_HAL_Driver/Src/stm32f4xx_ll_sdmmc.c ****     return SDMMC_ERROR_ILLEGAL_CMD;
1273:Drivers/STM32F4xx_HAL_Driver/Src/stm32f4xx_ll_sdmmc.c ****   }
1274:Drivers/STM32F4xx_HAL_Driver/Src/stm32f4xx_ll_sdmmc.c ****   else if ((response_r1 & SDMMC_OCR_CARD_ECC_FAILED) == SDMMC_OCR_CARD_ECC_FAILED)
 777              		.loc 1 1274 8 is_stmt 1 view .LVU238
 778              		.loc 1 1274 11 is_stmt 0 view .LVU239
 779 0092 9902     		lsls	r1, r3, #10
 780 0094 3ED4     		bmi	.L37
ARM GAS  C:\Users\pw705\AppData\Local\Temp\cceieKfF.s 			page 38


1275:Drivers/STM32F4xx_HAL_Driver/Src/stm32f4xx_ll_sdmmc.c ****   {
1276:Drivers/STM32F4xx_HAL_Driver/Src/stm32f4xx_ll_sdmmc.c ****     return SDMMC_ERROR_CARD_ECC_FAILED;
1277:Drivers/STM32F4xx_HAL_Driver/Src/stm32f4xx_ll_sdmmc.c ****   }
1278:Drivers/STM32F4xx_HAL_Driver/Src/stm32f4xx_ll_sdmmc.c ****   else if ((response_r1 & SDMMC_OCR_CC_ERROR) == SDMMC_OCR_CC_ERROR)
 781              		.loc 1 1278 8 is_stmt 1 view .LVU240
 782              		.loc 1 1278 11 is_stmt 0 view .LVU241
 783 0096 DA02     		lsls	r2, r3, #11
 784 0098 39D4     		bmi	.L38
1279:Drivers/STM32F4xx_HAL_Driver/Src/stm32f4xx_ll_sdmmc.c ****   {
1280:Drivers/STM32F4xx_HAL_Driver/Src/stm32f4xx_ll_sdmmc.c ****     return SDMMC_ERROR_CC_ERR;
1281:Drivers/STM32F4xx_HAL_Driver/Src/stm32f4xx_ll_sdmmc.c ****   }
1282:Drivers/STM32F4xx_HAL_Driver/Src/stm32f4xx_ll_sdmmc.c ****   else if ((response_r1 & SDMMC_OCR_STREAM_READ_UNDERRUN) == SDMMC_OCR_STREAM_READ_UNDERRUN)
 785              		.loc 1 1282 8 is_stmt 1 view .LVU242
 786              		.loc 1 1282 11 is_stmt 0 view .LVU243
 787 009a 5903     		lsls	r1, r3, #13
 788 009c 34D4     		bmi	.L39
1283:Drivers/STM32F4xx_HAL_Driver/Src/stm32f4xx_ll_sdmmc.c ****   {
1284:Drivers/STM32F4xx_HAL_Driver/Src/stm32f4xx_ll_sdmmc.c ****     return SDMMC_ERROR_STREAM_READ_UNDERRUN;
1285:Drivers/STM32F4xx_HAL_Driver/Src/stm32f4xx_ll_sdmmc.c ****   }
1286:Drivers/STM32F4xx_HAL_Driver/Src/stm32f4xx_ll_sdmmc.c ****   else if ((response_r1 & SDMMC_OCR_STREAM_WRITE_OVERRUN) == SDMMC_OCR_STREAM_WRITE_OVERRUN)
 789              		.loc 1 1286 8 is_stmt 1 view .LVU244
 790              		.loc 1 1286 11 is_stmt 0 view .LVU245
 791 009e 9A03     		lsls	r2, r3, #14
 792 00a0 2FD4     		bmi	.L40
1287:Drivers/STM32F4xx_HAL_Driver/Src/stm32f4xx_ll_sdmmc.c ****   {
1288:Drivers/STM32F4xx_HAL_Driver/Src/stm32f4xx_ll_sdmmc.c ****     return SDMMC_ERROR_STREAM_WRITE_OVERRUN;
1289:Drivers/STM32F4xx_HAL_Driver/Src/stm32f4xx_ll_sdmmc.c ****   }
1290:Drivers/STM32F4xx_HAL_Driver/Src/stm32f4xx_ll_sdmmc.c ****   else if ((response_r1 & SDMMC_OCR_CID_CSD_OVERWRITE) == SDMMC_OCR_CID_CSD_OVERWRITE)
 793              		.loc 1 1290 8 is_stmt 1 view .LVU246
 794              		.loc 1 1290 11 is_stmt 0 view .LVU247
 795 00a2 D903     		lsls	r1, r3, #15
 796 00a4 3FD4     		bmi	.L41
1291:Drivers/STM32F4xx_HAL_Driver/Src/stm32f4xx_ll_sdmmc.c ****   {
1292:Drivers/STM32F4xx_HAL_Driver/Src/stm32f4xx_ll_sdmmc.c ****     return SDMMC_ERROR_CID_CSD_OVERWRITE;
1293:Drivers/STM32F4xx_HAL_Driver/Src/stm32f4xx_ll_sdmmc.c ****   }
1294:Drivers/STM32F4xx_HAL_Driver/Src/stm32f4xx_ll_sdmmc.c ****   else if ((response_r1 & SDMMC_OCR_WP_ERASE_SKIP) == SDMMC_OCR_WP_ERASE_SKIP)
 797              		.loc 1 1294 8 is_stmt 1 view .LVU248
 798              		.loc 1 1294 11 is_stmt 0 view .LVU249
 799 00a6 1A04     		lsls	r2, r3, #16
 800 00a8 3AD4     		bmi	.L42
1295:Drivers/STM32F4xx_HAL_Driver/Src/stm32f4xx_ll_sdmmc.c ****   {
1296:Drivers/STM32F4xx_HAL_Driver/Src/stm32f4xx_ll_sdmmc.c ****     return SDMMC_ERROR_WP_ERASE_SKIP;
1297:Drivers/STM32F4xx_HAL_Driver/Src/stm32f4xx_ll_sdmmc.c ****   }
1298:Drivers/STM32F4xx_HAL_Driver/Src/stm32f4xx_ll_sdmmc.c ****   else if ((response_r1 & SDMMC_OCR_CARD_ECC_DISABLED) == SDMMC_OCR_CARD_ECC_DISABLED)
 801              		.loc 1 1298 8 is_stmt 1 view .LVU250
 802              		.loc 1 1298 11 is_stmt 0 view .LVU251
 803 00aa 5904     		lsls	r1, r3, #17
 804 00ac 35D4     		bmi	.L43
1299:Drivers/STM32F4xx_HAL_Driver/Src/stm32f4xx_ll_sdmmc.c ****   {
1300:Drivers/STM32F4xx_HAL_Driver/Src/stm32f4xx_ll_sdmmc.c ****     return SDMMC_ERROR_CARD_ECC_DISABLED;
1301:Drivers/STM32F4xx_HAL_Driver/Src/stm32f4xx_ll_sdmmc.c ****   }
1302:Drivers/STM32F4xx_HAL_Driver/Src/stm32f4xx_ll_sdmmc.c ****   else if ((response_r1 & SDMMC_OCR_ERASE_RESET) == SDMMC_OCR_ERASE_RESET)
 805              		.loc 1 1302 8 is_stmt 1 view .LVU252
 806              		.loc 1 1302 11 is_stmt 0 view .LVU253
 807 00ae 9A04     		lsls	r2, r3, #18
 808 00b0 07D4     		bmi	.L44
1303:Drivers/STM32F4xx_HAL_Driver/Src/stm32f4xx_ll_sdmmc.c ****   {
ARM GAS  C:\Users\pw705\AppData\Local\Temp\cceieKfF.s 			page 39


1304:Drivers/STM32F4xx_HAL_Driver/Src/stm32f4xx_ll_sdmmc.c ****     return SDMMC_ERROR_ERASE_RESET;
1305:Drivers/STM32F4xx_HAL_Driver/Src/stm32f4xx_ll_sdmmc.c ****   }
1306:Drivers/STM32F4xx_HAL_Driver/Src/stm32f4xx_ll_sdmmc.c ****   else if ((response_r1 & SDMMC_OCR_AKE_SEQ_ERROR) == SDMMC_OCR_AKE_SEQ_ERROR)
 809              		.loc 1 1306 8 is_stmt 1 view .LVU254
1307:Drivers/STM32F4xx_HAL_Driver/Src/stm32f4xx_ll_sdmmc.c ****   {
1308:Drivers/STM32F4xx_HAL_Driver/Src/stm32f4xx_ll_sdmmc.c ****     return SDMMC_ERROR_AKE_SEQ_ERR;
 810              		.loc 1 1308 12 is_stmt 0 view .LVU255
 811 00b2 13F0080F 		tst	r3, #8
 812 00b6 0CBF     		ite	eq
 813 00b8 4FF48030 		moveq	r0, #65536
 814 00bc 4FF40000 		movne	r0, #8388608
 815 00c0 7047     		bx	lr
 816              	.L44:
1304:Drivers/STM32F4xx_HAL_Driver/Src/stm32f4xx_ll_sdmmc.c ****   }
 817              		.loc 1 1304 12 view .LVU256
 818 00c2 4FF48000 		mov	r0, #4194304
 819              	.L18:
1304:Drivers/STM32F4xx_HAL_Driver/Src/stm32f4xx_ll_sdmmc.c ****   }
 820              		.loc 1 1304 12 view .LVU257
 821              	.LBE91:
 822              	.LBE90:
 823              	.LBE100:
 824              	.LBE116:
 521:Drivers/STM32F4xx_HAL_Driver/Src/stm32f4xx_ll_sdmmc.c **** 
 825              		.loc 1 521 1 view .LVU258
 826 00c6 7047     		bx	lr
 827              	.LVL53:
 828              	.L54:
 829              	.LBB117:
 830              	.LBB101:
1207:Drivers/STM32F4xx_HAL_Driver/Src/stm32f4xx_ll_sdmmc.c **** 
 831              		.loc 1 1207 5 is_stmt 1 view .LVU259
 832 00c8 0423     		movs	r3, #4
 833 00ca 8363     		str	r3, [r0, #56]
1209:Drivers/STM32F4xx_HAL_Driver/Src/stm32f4xx_ll_sdmmc.c ****   }
 834              		.loc 1 1209 5 view .LVU260
1209:Drivers/STM32F4xx_HAL_Driver/Src/stm32f4xx_ll_sdmmc.c ****   }
 835              		.loc 1 1209 12 is_stmt 0 view .LVU261
 836 00cc 1846     		mov	r0, r3
 837              	.LVL54:
1209:Drivers/STM32F4xx_HAL_Driver/Src/stm32f4xx_ll_sdmmc.c ****   }
 838              		.loc 1 1209 12 view .LVU262
 839 00ce 7047     		bx	lr
 840              	.LVL55:
 841              	.L28:
 842              	.LBB95:
 843              	.LBB94:
1240:Drivers/STM32F4xx_HAL_Driver/Src/stm32f4xx_ll_sdmmc.c ****   }
 844              		.loc 1 1240 12 view .LVU263
 845 00d0 4FF00070 		mov	r0, #33554432
 846 00d4 7047     		bx	lr
 847              	.L29:
1244:Drivers/STM32F4xx_HAL_Driver/Src/stm32f4xx_ll_sdmmc.c ****   }
 848              		.loc 1 1244 12 view .LVU264
 849 00d6 4020     		movs	r0, #64
 850 00d8 7047     		bx	lr
 851              	.L30:
ARM GAS  C:\Users\pw705\AppData\Local\Temp\cceieKfF.s 			page 40


1248:Drivers/STM32F4xx_HAL_Driver/Src/stm32f4xx_ll_sdmmc.c ****   }
 852              		.loc 1 1248 12 view .LVU265
 853 00da 8020     		movs	r0, #128
 854 00dc 7047     		bx	lr
 855              	.L31:
1252:Drivers/STM32F4xx_HAL_Driver/Src/stm32f4xx_ll_sdmmc.c ****   }
 856              		.loc 1 1252 12 view .LVU266
 857 00de 4FF48070 		mov	r0, #256
 858 00e2 7047     		bx	lr
 859              	.L32:
1256:Drivers/STM32F4xx_HAL_Driver/Src/stm32f4xx_ll_sdmmc.c ****   }
 860              		.loc 1 1256 12 view .LVU267
 861 00e4 4FF40070 		mov	r0, #512
 862 00e8 7047     		bx	lr
 863              	.L33:
1260:Drivers/STM32F4xx_HAL_Driver/Src/stm32f4xx_ll_sdmmc.c ****   }
 864              		.loc 1 1260 12 view .LVU268
 865 00ea 4FF48060 		mov	r0, #1024
 866 00ee 7047     		bx	lr
 867              	.L34:
1264:Drivers/STM32F4xx_HAL_Driver/Src/stm32f4xx_ll_sdmmc.c ****   }
 868              		.loc 1 1264 12 view .LVU269
 869 00f0 4FF40060 		mov	r0, #2048
 870 00f4 7047     		bx	lr
 871              	.L35:
1268:Drivers/STM32F4xx_HAL_Driver/Src/stm32f4xx_ll_sdmmc.c ****   }
 872              		.loc 1 1268 12 view .LVU270
 873 00f6 4FF48050 		mov	r0, #4096
 874 00fa 7047     		bx	lr
 875              	.L36:
1272:Drivers/STM32F4xx_HAL_Driver/Src/stm32f4xx_ll_sdmmc.c ****   }
 876              		.loc 1 1272 12 view .LVU271
 877 00fc 4FF40050 		mov	r0, #8192
 878 0100 7047     		bx	lr
 879              	.L40:
1288:Drivers/STM32F4xx_HAL_Driver/Src/stm32f4xx_ll_sdmmc.c ****   }
 880              		.loc 1 1288 12 view .LVU272
 881 0102 4FF48020 		mov	r0, #262144
 882 0106 7047     		bx	lr
 883              	.L39:
1284:Drivers/STM32F4xx_HAL_Driver/Src/stm32f4xx_ll_sdmmc.c ****   }
 884              		.loc 1 1284 12 view .LVU273
 885 0108 4FF40030 		mov	r0, #131072
 886 010c 7047     		bx	lr
 887              	.L38:
1280:Drivers/STM32F4xx_HAL_Driver/Src/stm32f4xx_ll_sdmmc.c ****   }
 888              		.loc 1 1280 12 view .LVU274
 889 010e 4FF40040 		mov	r0, #32768
 890 0112 7047     		bx	lr
 891              	.L37:
1276:Drivers/STM32F4xx_HAL_Driver/Src/stm32f4xx_ll_sdmmc.c ****   }
 892              		.loc 1 1276 12 view .LVU275
 893 0114 4FF48040 		mov	r0, #16384
 894 0118 7047     		bx	lr
 895              	.L43:
1300:Drivers/STM32F4xx_HAL_Driver/Src/stm32f4xx_ll_sdmmc.c ****   }
 896              		.loc 1 1300 12 view .LVU276
ARM GAS  C:\Users\pw705\AppData\Local\Temp\cceieKfF.s 			page 41


 897 011a 4FF40010 		mov	r0, #2097152
 898 011e 7047     		bx	lr
 899              	.L42:
1296:Drivers/STM32F4xx_HAL_Driver/Src/stm32f4xx_ll_sdmmc.c ****   }
 900              		.loc 1 1296 12 view .LVU277
 901 0120 4FF48010 		mov	r0, #1048576
 902 0124 7047     		bx	lr
 903              	.L41:
1292:Drivers/STM32F4xx_HAL_Driver/Src/stm32f4xx_ll_sdmmc.c ****   }
 904              		.loc 1 1292 12 view .LVU278
 905 0126 4FF40020 		mov	r0, #524288
 906 012a 7047     		bx	lr
 907              	.L57:
 908              		.align	2
 909              	.L56:
 910 012c 00000000 		.word	SystemCoreClock
 911 0130 D34D6210 		.word	274877907
 912 0134 08E0FFFD 		.word	-33562616
 913              	.LBE94:
 914              	.LBE95:
 915              	.LBE101:
 916              	.LBE117:
 917              		.cfi_endproc
 918              	.LFE143:
 920              		.section	.text.SDMMC_CmdReadSingleBlock,"ax",%progbits
 921              		.align	1
 922              		.p2align 2,,3
 923              		.global	SDMMC_CmdReadSingleBlock
 924              		.syntax unified
 925              		.thumb
 926              		.thumb_func
 928              	SDMMC_CmdReadSingleBlock:
 929              	.LVL56:
 930              	.LFB144:
 529:Drivers/STM32F4xx_HAL_Driver/Src/stm32f4xx_ll_sdmmc.c ****   SDIO_CmdInitTypeDef sdmmc_cmdinit;
 931              		.loc 1 529 1 is_stmt 1 view -0
 932              		.cfi_startproc
 933              		@ args = 0, pretend = 0, frame = 0
 934              		@ frame_needed = 0, uses_anonymous_args = 0
 935              		@ link register save eliminated.
 530:Drivers/STM32F4xx_HAL_Driver/Src/stm32f4xx_ll_sdmmc.c ****   uint32_t errorstate;
 936              		.loc 1 530 3 view .LVU280
 531:Drivers/STM32F4xx_HAL_Driver/Src/stm32f4xx_ll_sdmmc.c **** 
 937              		.loc 1 531 3 view .LVU281
 534:Drivers/STM32F4xx_HAL_Driver/Src/stm32f4xx_ll_sdmmc.c ****   sdmmc_cmdinit.CmdIndex = SDMMC_CMD_READ_SINGLE_BLOCK;
 938              		.loc 1 534 3 view .LVU282
 535:Drivers/STM32F4xx_HAL_Driver/Src/stm32f4xx_ll_sdmmc.c ****   sdmmc_cmdinit.Response = SDIO_RESPONSE_SHORT;
 939              		.loc 1 535 3 view .LVU283
 536:Drivers/STM32F4xx_HAL_Driver/Src/stm32f4xx_ll_sdmmc.c ****   sdmmc_cmdinit.WaitForInterrupt = SDIO_WAIT_NO;
 940              		.loc 1 536 3 view .LVU284
 537:Drivers/STM32F4xx_HAL_Driver/Src/stm32f4xx_ll_sdmmc.c ****   sdmmc_cmdinit.CPSM = SDIO_CPSM_ENABLE;
 941              		.loc 1 537 3 view .LVU285
 538:Drivers/STM32F4xx_HAL_Driver/Src/stm32f4xx_ll_sdmmc.c ****   (void)SDIO_SendCommand(SDIOx, &sdmmc_cmdinit);
 942              		.loc 1 538 3 view .LVU286
 539:Drivers/STM32F4xx_HAL_Driver/Src/stm32f4xx_ll_sdmmc.c **** 
 943              		.loc 1 539 3 view .LVU287
 944              	.LBB130:
ARM GAS  C:\Users\pw705\AppData\Local\Temp\cceieKfF.s 			page 42


 945              	.LBI130:
 345:Drivers/STM32F4xx_HAL_Driver/Src/stm32f4xx_ll_sdmmc.c **** {
 946              		.loc 1 345 19 view .LVU288
 947              	.LBB131:
 347:Drivers/STM32F4xx_HAL_Driver/Src/stm32f4xx_ll_sdmmc.c **** 
 948              		.loc 1 347 3 view .LVU289
 350:Drivers/STM32F4xx_HAL_Driver/Src/stm32f4xx_ll_sdmmc.c ****   assert_param(IS_SDIO_RESPONSE(Command->Response));
 949              		.loc 1 350 3 view .LVU290
 351:Drivers/STM32F4xx_HAL_Driver/Src/stm32f4xx_ll_sdmmc.c ****   assert_param(IS_SDIO_WAIT(Command->WaitForInterrupt));
 950              		.loc 1 351 3 view .LVU291
 352:Drivers/STM32F4xx_HAL_Driver/Src/stm32f4xx_ll_sdmmc.c ****   assert_param(IS_SDIO_CPSM(Command->CPSM));
 951              		.loc 1 352 3 view .LVU292
 353:Drivers/STM32F4xx_HAL_Driver/Src/stm32f4xx_ll_sdmmc.c **** 
 952              		.loc 1 353 3 view .LVU293
 356:Drivers/STM32F4xx_HAL_Driver/Src/stm32f4xx_ll_sdmmc.c **** 
 953              		.loc 1 356 3 view .LVU294
 356:Drivers/STM32F4xx_HAL_Driver/Src/stm32f4xx_ll_sdmmc.c **** 
 954              		.loc 1 356 14 is_stmt 0 view .LVU295
 955 0000 8160     		str	r1, [r0, #8]
 359:Drivers/STM32F4xx_HAL_Driver/Src/stm32f4xx_ll_sdmmc.c ****                        Command->Response |
 956              		.loc 1 359 3 is_stmt 1 view .LVU296
 957              	.LVL57:
 365:Drivers/STM32F4xx_HAL_Driver/Src/stm32f4xx_ll_sdmmc.c **** 
 958              		.loc 1 365 3 view .LVU297
 959              	.LBE131:
 960              	.LBE130:
 961              	.LBB137:
 962              	.LBB138:
1193:Drivers/STM32F4xx_HAL_Driver/Src/stm32f4xx_ll_sdmmc.c **** 
 963              		.loc 1 1193 52 is_stmt 0 view .LVU298
 964 0002 4B4A     		ldr	r2, .L96
 965              	.LBE138:
 966              	.LBE137:
 967              	.LBB153:
 968              	.LBB132:
 365:Drivers/STM32F4xx_HAL_Driver/Src/stm32f4xx_ll_sdmmc.c **** 
 969              		.loc 1 365 3 view .LVU299
 970 0004 C368     		ldr	r3, [r0, #12]
 971              	.LBE132:
 972              	.LBE153:
 973              	.LBB154:
 974              	.LBB147:
1193:Drivers/STM32F4xx_HAL_Driver/Src/stm32f4xx_ll_sdmmc.c **** 
 975              		.loc 1 1193 52 view .LVU300
 976 0006 4B49     		ldr	r1, .L96+4
 977              	.LVL58:
1193:Drivers/STM32F4xx_HAL_Driver/Src/stm32f4xx_ll_sdmmc.c **** 
 978              		.loc 1 1193 52 view .LVU301
 979 0008 1268     		ldr	r2, [r2]
 980              	.LBE147:
 981              	.LBE154:
 982              	.LBB155:
 983              	.LBB133:
 365:Drivers/STM32F4xx_HAL_Driver/Src/stm32f4xx_ll_sdmmc.c **** 
 984              		.loc 1 365 3 view .LVU302
 985 000a 23F47F63 		bic	r3, r3, #4080
 986              	.LBE133:
ARM GAS  C:\Users\pw705\AppData\Local\Temp\cceieKfF.s 			page 43


 987              	.LBE155:
 988              	.LBB156:
 989              	.LBB148:
1193:Drivers/STM32F4xx_HAL_Driver/Src/stm32f4xx_ll_sdmmc.c **** 
 990              		.loc 1 1193 52 view .LVU303
 991 000e A1FB0212 		umull	r1, r2, r1, r2
 992              	.LBE148:
 993              	.LBE156:
 994              	.LBB157:
 995              	.LBB134:
 365:Drivers/STM32F4xx_HAL_Driver/Src/stm32f4xx_ll_sdmmc.c **** 
 996              		.loc 1 365 3 view .LVU304
 997 0012 23F00F03 		bic	r3, r3, #15
 998 0016 43F48A63 		orr	r3, r3, #1104
 999              	.LBE134:
 1000              	.LBE157:
 1001              	.LBB158:
 1002              	.LBB149:
1193:Drivers/STM32F4xx_HAL_Driver/Src/stm32f4xx_ll_sdmmc.c **** 
 1003              		.loc 1 1193 52 view .LVU305
 1004 001a 520A     		lsrs	r2, r2, #9
1193:Drivers/STM32F4xx_HAL_Driver/Src/stm32f4xx_ll_sdmmc.c **** 
 1005              		.loc 1 1193 12 view .LVU306
 1006 001c 41F28831 		movw	r1, #5000
 1007              	.LBE149:
 1008              	.LBE158:
 1009              	.LBB159:
 1010              	.LBB135:
 365:Drivers/STM32F4xx_HAL_Driver/Src/stm32f4xx_ll_sdmmc.c **** 
 1011              		.loc 1 365 3 view .LVU307
 1012 0020 43F00103 		orr	r3, r3, #1
 1013              	.LBE135:
 1014              	.LBE159:
 1015              	.LBB160:
 1016              	.LBB150:
1193:Drivers/STM32F4xx_HAL_Driver/Src/stm32f4xx_ll_sdmmc.c **** 
 1017              		.loc 1 1193 12 view .LVU308
 1018 0024 01FB02F2 		mul	r2, r1, r2
 1019              	.LBE150:
 1020              	.LBE160:
 1021              	.LBB161:
 1022              	.LBB136:
 365:Drivers/STM32F4xx_HAL_Driver/Src/stm32f4xx_ll_sdmmc.c **** 
 1023              		.loc 1 365 3 view .LVU309
 1024 0028 C360     		str	r3, [r0, #12]
 1025              	.LVL59:
 367:Drivers/STM32F4xx_HAL_Driver/Src/stm32f4xx_ll_sdmmc.c **** }
 1026              		.loc 1 367 3 is_stmt 1 view .LVU310
 367:Drivers/STM32F4xx_HAL_Driver/Src/stm32f4xx_ll_sdmmc.c **** }
 1027              		.loc 1 367 3 is_stmt 0 view .LVU311
 1028              	.LBE136:
 1029              	.LBE161:
 542:Drivers/STM32F4xx_HAL_Driver/Src/stm32f4xx_ll_sdmmc.c **** 
 1030              		.loc 1 542 3 is_stmt 1 view .LVU312
 1031              	.LBB162:
 1032              	.LBI137:
1186:Drivers/STM32F4xx_HAL_Driver/Src/stm32f4xx_ll_sdmmc.c **** {
ARM GAS  C:\Users\pw705\AppData\Local\Temp\cceieKfF.s 			page 44


 1033              		.loc 1 1186 10 view .LVU313
 1034              	.LBB151:
1188:Drivers/STM32F4xx_HAL_Driver/Src/stm32f4xx_ll_sdmmc.c ****   uint32_t sta_reg;
 1035              		.loc 1 1188 3 view .LVU314
1189:Drivers/STM32F4xx_HAL_Driver/Src/stm32f4xx_ll_sdmmc.c **** 
 1036              		.loc 1 1189 3 view .LVU315
1193:Drivers/STM32F4xx_HAL_Driver/Src/stm32f4xx_ll_sdmmc.c **** 
 1037              		.loc 1 1193 3 view .LVU316
1195:Drivers/STM32F4xx_HAL_Driver/Src/stm32f4xx_ll_sdmmc.c ****   {
 1038              		.loc 1 1195 3 view .LVU317
1197:Drivers/STM32F4xx_HAL_Driver/Src/stm32f4xx_ll_sdmmc.c ****     {
 1039              		.loc 1 1197 5 view .LVU318
1197:Drivers/STM32F4xx_HAL_Driver/Src/stm32f4xx_ll_sdmmc.c ****     {
 1040              		.loc 1 1197 14 is_stmt 0 view .LVU319
 1041 002a 531E     		subs	r3, r2, #1
 1042              	.LVL60:
1197:Drivers/STM32F4xx_HAL_Driver/Src/stm32f4xx_ll_sdmmc.c ****     {
 1043              		.loc 1 1197 8 view .LVU320
 1044 002c 4AB1     		cbz	r2, .L67
 1045              	.L60:
1195:Drivers/STM32F4xx_HAL_Driver/Src/stm32f4xx_ll_sdmmc.c ****   {
 1046              		.loc 1 1195 3 is_stmt 1 view .LVU321
1197:Drivers/STM32F4xx_HAL_Driver/Src/stm32f4xx_ll_sdmmc.c ****     {
 1047              		.loc 1 1197 5 view .LVU322
1201:Drivers/STM32F4xx_HAL_Driver/Src/stm32f4xx_ll_sdmmc.c ****   } while (((sta_reg & (SDIO_FLAG_CCRCFAIL | SDIO_FLAG_CMDREND | SDIO_FLAG_CTIMEOUT)) == 0U) ||
 1048              		.loc 1 1201 5 view .LVU323
1201:Drivers/STM32F4xx_HAL_Driver/Src/stm32f4xx_ll_sdmmc.c ****   } while (((sta_reg & (SDIO_FLAG_CCRCFAIL | SDIO_FLAG_CMDREND | SDIO_FLAG_CTIMEOUT)) == 0U) ||
 1049              		.loc 1 1201 13 is_stmt 0 view .LVU324
 1050 002e 426B     		ldr	r2, [r0, #52]
 1051              	.LVL61:
1202:Drivers/STM32F4xx_HAL_Driver/Src/stm32f4xx_ll_sdmmc.c ****            ((sta_reg & SDIO_FLAG_CMDACT) != 0U));
 1052              		.loc 1 1202 94 is_stmt 1 view .LVU325
 1053 0030 12F0450F 		tst	r2, #69
1197:Drivers/STM32F4xx_HAL_Driver/Src/stm32f4xx_ll_sdmmc.c ****     {
 1054              		.loc 1 1197 14 is_stmt 0 view .LVU326
 1055 0034 03F1FF33 		add	r3, r3, #-1
 1056              	.LVL62:
1202:Drivers/STM32F4xx_HAL_Driver/Src/stm32f4xx_ll_sdmmc.c ****            ((sta_reg & SDIO_FLAG_CMDACT) != 0U));
 1057              		.loc 1 1202 94 view .LVU327
 1058 0038 01D0     		beq	.L61
 1059 003a 1105     		lsls	r1, r2, #20
 1060 003c 04D5     		bpl	.L93
 1061              	.L61:
1197:Drivers/STM32F4xx_HAL_Driver/Src/stm32f4xx_ll_sdmmc.c ****     {
 1062              		.loc 1 1197 8 view .LVU328
 1063 003e 5A1C     		adds	r2, r3, #1
 1064              	.LVL63:
1197:Drivers/STM32F4xx_HAL_Driver/Src/stm32f4xx_ll_sdmmc.c ****     {
 1065              		.loc 1 1197 8 view .LVU329
 1066 0040 F5D1     		bne	.L60
 1067              	.LVL64:
 1068              	.L67:
1199:Drivers/STM32F4xx_HAL_Driver/Src/stm32f4xx_ll_sdmmc.c ****     }
 1069              		.loc 1 1199 14 view .LVU330
 1070 0042 4FF00040 		mov	r0, #-2147483648
 1071              	.LVL65:
1199:Drivers/STM32F4xx_HAL_Driver/Src/stm32f4xx_ll_sdmmc.c ****     }
ARM GAS  C:\Users\pw705\AppData\Local\Temp\cceieKfF.s 			page 45


 1072              		.loc 1 1199 14 view .LVU331
 1073 0046 7047     		bx	lr
 1074              	.LVL66:
 1075              	.L93:
1205:Drivers/STM32F4xx_HAL_Driver/Src/stm32f4xx_ll_sdmmc.c ****   {
 1076              		.loc 1 1205 3 is_stmt 1 view .LVU332
1205:Drivers/STM32F4xx_HAL_Driver/Src/stm32f4xx_ll_sdmmc.c ****   {
 1077              		.loc 1 1205 7 is_stmt 0 view .LVU333
 1078 0048 436B     		ldr	r3, [r0, #52]
 1079              	.LVL67:
1205:Drivers/STM32F4xx_HAL_Driver/Src/stm32f4xx_ll_sdmmc.c ****   {
 1080              		.loc 1 1205 6 view .LVU334
 1081 004a 5A07     		lsls	r2, r3, #29
 1082              	.LVL68:
1205:Drivers/STM32F4xx_HAL_Driver/Src/stm32f4xx_ll_sdmmc.c ****   {
 1083              		.loc 1 1205 6 view .LVU335
 1084 004c 3ED4     		bmi	.L94
1211:Drivers/STM32F4xx_HAL_Driver/Src/stm32f4xx_ll_sdmmc.c ****   {
 1085              		.loc 1 1211 8 is_stmt 1 view .LVU336
1211:Drivers/STM32F4xx_HAL_Driver/Src/stm32f4xx_ll_sdmmc.c ****   {
 1086              		.loc 1 1211 12 is_stmt 0 view .LVU337
 1087 004e 436B     		ldr	r3, [r0, #52]
1211:Drivers/STM32F4xx_HAL_Driver/Src/stm32f4xx_ll_sdmmc.c ****   {
 1088              		.loc 1 1211 11 view .LVU338
 1089 0050 DB07     		lsls	r3, r3, #31
 1090 0052 07D4     		bmi	.L95
1220:Drivers/STM32F4xx_HAL_Driver/Src/stm32f4xx_ll_sdmmc.c **** 
 1091              		.loc 1 1220 3 is_stmt 1 view .LVU339
1223:Drivers/STM32F4xx_HAL_Driver/Src/stm32f4xx_ll_sdmmc.c **** 
 1092              		.loc 1 1223 3 view .LVU340
 1093 0054 C523     		movs	r3, #197
 1094 0056 8363     		str	r3, [r0, #56]
1226:Drivers/STM32F4xx_HAL_Driver/Src/stm32f4xx_ll_sdmmc.c ****   {
 1095              		.loc 1 1226 3 view .LVU341
 1096              	.LVL69:
 1097              	.LBB139:
 1098              	.LBI139:
 375:Drivers/STM32F4xx_HAL_Driver/Src/stm32f4xx_ll_sdmmc.c **** {
 1099              		.loc 1 375 9 view .LVU342
 1100              	.LBB140:
 377:Drivers/STM32F4xx_HAL_Driver/Src/stm32f4xx_ll_sdmmc.c **** }
 1101              		.loc 1 377 3 view .LVU343
 377:Drivers/STM32F4xx_HAL_Driver/Src/stm32f4xx_ll_sdmmc.c **** }
 1102              		.loc 1 377 25 is_stmt 0 view .LVU344
 1103 0058 0369     		ldr	r3, [r0, #16]
 1104              	.LVL70:
 377:Drivers/STM32F4xx_HAL_Driver/Src/stm32f4xx_ll_sdmmc.c **** }
 1105              		.loc 1 377 25 view .LVU345
 1106              	.LBE140:
 1107              	.LBE139:
1226:Drivers/STM32F4xx_HAL_Driver/Src/stm32f4xx_ll_sdmmc.c ****   {
 1108              		.loc 1 1226 6 view .LVU346
 1109 005a DBB2     		uxtb	r3, r3
 1110 005c 112B     		cmp	r3, #17
 1111 005e 04D0     		beq	.L65
 1112              	.L64:
1215:Drivers/STM32F4xx_HAL_Driver/Src/stm32f4xx_ll_sdmmc.c ****   }
ARM GAS  C:\Users\pw705\AppData\Local\Temp\cceieKfF.s 			page 46


 1113              		.loc 1 1215 12 view .LVU347
 1114 0060 0120     		movs	r0, #1
 1115              	.LVL71:
1215:Drivers/STM32F4xx_HAL_Driver/Src/stm32f4xx_ll_sdmmc.c ****   }
 1116              		.loc 1 1215 12 view .LVU348
 1117 0062 7047     		bx	lr
 1118              	.LVL72:
 1119              	.L95:
1213:Drivers/STM32F4xx_HAL_Driver/Src/stm32f4xx_ll_sdmmc.c **** 
 1120              		.loc 1 1213 5 is_stmt 1 view .LVU349
 1121 0064 0123     		movs	r3, #1
 1122 0066 8363     		str	r3, [r0, #56]
1215:Drivers/STM32F4xx_HAL_Driver/Src/stm32f4xx_ll_sdmmc.c ****   }
 1123              		.loc 1 1215 5 view .LVU350
1215:Drivers/STM32F4xx_HAL_Driver/Src/stm32f4xx_ll_sdmmc.c ****   }
 1124              		.loc 1 1215 12 is_stmt 0 view .LVU351
 1125 0068 FAE7     		b	.L64
 1126              	.L65:
 1127              	.LVL73:
 1128              	.LBB141:
 1129              	.LBI141:
1186:Drivers/STM32F4xx_HAL_Driver/Src/stm32f4xx_ll_sdmmc.c **** {
 1130              		.loc 1 1186 10 is_stmt 1 view .LVU352
 1131              	.LBB142:
1232:Drivers/STM32F4xx_HAL_Driver/Src/stm32f4xx_ll_sdmmc.c **** 
 1132              		.loc 1 1232 3 view .LVU353
 1133              	.LBB143:
 1134              	.LBI143:
 391:Drivers/STM32F4xx_HAL_Driver/Src/stm32f4xx_ll_sdmmc.c **** {
 1135              		.loc 1 391 10 view .LVU354
 1136              	.LBB144:
 393:Drivers/STM32F4xx_HAL_Driver/Src/stm32f4xx_ll_sdmmc.c **** 
 1137              		.loc 1 393 3 view .LVU355
 396:Drivers/STM32F4xx_HAL_Driver/Src/stm32f4xx_ll_sdmmc.c **** 
 1138              		.loc 1 396 3 view .LVU356
 399:Drivers/STM32F4xx_HAL_Driver/Src/stm32f4xx_ll_sdmmc.c **** 
 1139              		.loc 1 399 3 view .LVU357
 401:Drivers/STM32F4xx_HAL_Driver/Src/stm32f4xx_ll_sdmmc.c **** }
 1140              		.loc 1 401 3 view .LVU358
 401:Drivers/STM32F4xx_HAL_Driver/Src/stm32f4xx_ll_sdmmc.c **** }
 1141              		.loc 1 401 11 is_stmt 0 view .LVU359
 1142 006a 4369     		ldr	r3, [r0, #20]
 1143              	.LVL74:
 401:Drivers/STM32F4xx_HAL_Driver/Src/stm32f4xx_ll_sdmmc.c **** }
 1144              		.loc 1 401 11 view .LVU360
 1145              	.LBE144:
 1146              	.LBE143:
1234:Drivers/STM32F4xx_HAL_Driver/Src/stm32f4xx_ll_sdmmc.c ****   {
 1147              		.loc 1 1234 3 is_stmt 1 view .LVU361
1234:Drivers/STM32F4xx_HAL_Driver/Src/stm32f4xx_ll_sdmmc.c ****   {
 1148              		.loc 1 1234 20 is_stmt 0 view .LVU362
 1149 006c 3248     		ldr	r0, .L96+8
 1150              	.LVL75:
1234:Drivers/STM32F4xx_HAL_Driver/Src/stm32f4xx_ll_sdmmc.c ****   {
 1151              		.loc 1 1234 20 view .LVU363
 1152 006e 1840     		ands	r0, r0, r3
1234:Drivers/STM32F4xx_HAL_Driver/Src/stm32f4xx_ll_sdmmc.c ****   {
ARM GAS  C:\Users\pw705\AppData\Local\Temp\cceieKfF.s 			page 47


 1153              		.loc 1 1234 6 view .LVU364
 1154 0070 58B3     		cbz	r0, .L58
1238:Drivers/STM32F4xx_HAL_Driver/Src/stm32f4xx_ll_sdmmc.c ****   {
 1155              		.loc 1 1238 8 is_stmt 1 view .LVU365
1238:Drivers/STM32F4xx_HAL_Driver/Src/stm32f4xx_ll_sdmmc.c ****   {
 1156              		.loc 1 1238 11 is_stmt 0 view .LVU366
 1157 0072 002B     		cmp	r3, #0
 1158 0074 2EDB     		blt	.L68
1242:Drivers/STM32F4xx_HAL_Driver/Src/stm32f4xx_ll_sdmmc.c ****   {
 1159              		.loc 1 1242 8 is_stmt 1 view .LVU367
1242:Drivers/STM32F4xx_HAL_Driver/Src/stm32f4xx_ll_sdmmc.c ****   {
 1160              		.loc 1 1242 11 is_stmt 0 view .LVU368
 1161 0076 5900     		lsls	r1, r3, #1
 1162 0078 2FD4     		bmi	.L69
1246:Drivers/STM32F4xx_HAL_Driver/Src/stm32f4xx_ll_sdmmc.c ****   {
 1163              		.loc 1 1246 8 is_stmt 1 view .LVU369
1246:Drivers/STM32F4xx_HAL_Driver/Src/stm32f4xx_ll_sdmmc.c ****   {
 1164              		.loc 1 1246 11 is_stmt 0 view .LVU370
 1165 007a 9A00     		lsls	r2, r3, #2
 1166 007c 2FD4     		bmi	.L70
1250:Drivers/STM32F4xx_HAL_Driver/Src/stm32f4xx_ll_sdmmc.c ****   {
 1167              		.loc 1 1250 8 is_stmt 1 view .LVU371
1250:Drivers/STM32F4xx_HAL_Driver/Src/stm32f4xx_ll_sdmmc.c ****   {
 1168              		.loc 1 1250 11 is_stmt 0 view .LVU372
 1169 007e D900     		lsls	r1, r3, #3
 1170 0080 2FD4     		bmi	.L71
1254:Drivers/STM32F4xx_HAL_Driver/Src/stm32f4xx_ll_sdmmc.c ****   {
 1171              		.loc 1 1254 8 is_stmt 1 view .LVU373
1254:Drivers/STM32F4xx_HAL_Driver/Src/stm32f4xx_ll_sdmmc.c ****   {
 1172              		.loc 1 1254 11 is_stmt 0 view .LVU374
 1173 0082 1A01     		lsls	r2, r3, #4
 1174 0084 30D4     		bmi	.L72
1258:Drivers/STM32F4xx_HAL_Driver/Src/stm32f4xx_ll_sdmmc.c ****   {
 1175              		.loc 1 1258 8 is_stmt 1 view .LVU375
1258:Drivers/STM32F4xx_HAL_Driver/Src/stm32f4xx_ll_sdmmc.c ****   {
 1176              		.loc 1 1258 11 is_stmt 0 view .LVU376
 1177 0086 5901     		lsls	r1, r3, #5
 1178 0088 31D4     		bmi	.L73
1262:Drivers/STM32F4xx_HAL_Driver/Src/stm32f4xx_ll_sdmmc.c ****   {
 1179              		.loc 1 1262 8 is_stmt 1 view .LVU377
1262:Drivers/STM32F4xx_HAL_Driver/Src/stm32f4xx_ll_sdmmc.c ****   {
 1180              		.loc 1 1262 11 is_stmt 0 view .LVU378
 1181 008a DA01     		lsls	r2, r3, #7
 1182 008c 32D4     		bmi	.L74
1266:Drivers/STM32F4xx_HAL_Driver/Src/stm32f4xx_ll_sdmmc.c ****   {
 1183              		.loc 1 1266 8 is_stmt 1 view .LVU379
1266:Drivers/STM32F4xx_HAL_Driver/Src/stm32f4xx_ll_sdmmc.c ****   {
 1184              		.loc 1 1266 11 is_stmt 0 view .LVU380
 1185 008e 1902     		lsls	r1, r3, #8
 1186 0090 33D4     		bmi	.L75
1270:Drivers/STM32F4xx_HAL_Driver/Src/stm32f4xx_ll_sdmmc.c ****   {
 1187              		.loc 1 1270 8 is_stmt 1 view .LVU381
1270:Drivers/STM32F4xx_HAL_Driver/Src/stm32f4xx_ll_sdmmc.c ****   {
 1188              		.loc 1 1270 11 is_stmt 0 view .LVU382
 1189 0092 5A02     		lsls	r2, r3, #9
 1190 0094 34D4     		bmi	.L76
1274:Drivers/STM32F4xx_HAL_Driver/Src/stm32f4xx_ll_sdmmc.c ****   {
ARM GAS  C:\Users\pw705\AppData\Local\Temp\cceieKfF.s 			page 48


 1191              		.loc 1 1274 8 is_stmt 1 view .LVU383
1274:Drivers/STM32F4xx_HAL_Driver/Src/stm32f4xx_ll_sdmmc.c ****   {
 1192              		.loc 1 1274 11 is_stmt 0 view .LVU384
 1193 0096 9902     		lsls	r1, r3, #10
 1194 0098 3ED4     		bmi	.L77
1278:Drivers/STM32F4xx_HAL_Driver/Src/stm32f4xx_ll_sdmmc.c ****   {
 1195              		.loc 1 1278 8 is_stmt 1 view .LVU385
1278:Drivers/STM32F4xx_HAL_Driver/Src/stm32f4xx_ll_sdmmc.c ****   {
 1196              		.loc 1 1278 11 is_stmt 0 view .LVU386
 1197 009a DA02     		lsls	r2, r3, #11
 1198 009c 39D4     		bmi	.L78
1282:Drivers/STM32F4xx_HAL_Driver/Src/stm32f4xx_ll_sdmmc.c ****   {
 1199              		.loc 1 1282 8 is_stmt 1 view .LVU387
1282:Drivers/STM32F4xx_HAL_Driver/Src/stm32f4xx_ll_sdmmc.c ****   {
 1200              		.loc 1 1282 11 is_stmt 0 view .LVU388
 1201 009e 5903     		lsls	r1, r3, #13
 1202 00a0 34D4     		bmi	.L79
1286:Drivers/STM32F4xx_HAL_Driver/Src/stm32f4xx_ll_sdmmc.c ****   {
 1203              		.loc 1 1286 8 is_stmt 1 view .LVU389
1286:Drivers/STM32F4xx_HAL_Driver/Src/stm32f4xx_ll_sdmmc.c ****   {
 1204              		.loc 1 1286 11 is_stmt 0 view .LVU390
 1205 00a2 9A03     		lsls	r2, r3, #14
 1206 00a4 2FD4     		bmi	.L80
1290:Drivers/STM32F4xx_HAL_Driver/Src/stm32f4xx_ll_sdmmc.c ****   {
 1207              		.loc 1 1290 8 is_stmt 1 view .LVU391
1290:Drivers/STM32F4xx_HAL_Driver/Src/stm32f4xx_ll_sdmmc.c ****   {
 1208              		.loc 1 1290 11 is_stmt 0 view .LVU392
 1209 00a6 D903     		lsls	r1, r3, #15
 1210 00a8 3FD4     		bmi	.L81
1294:Drivers/STM32F4xx_HAL_Driver/Src/stm32f4xx_ll_sdmmc.c ****   {
 1211              		.loc 1 1294 8 is_stmt 1 view .LVU393
1294:Drivers/STM32F4xx_HAL_Driver/Src/stm32f4xx_ll_sdmmc.c ****   {
 1212              		.loc 1 1294 11 is_stmt 0 view .LVU394
 1213 00aa 1A04     		lsls	r2, r3, #16
 1214 00ac 3AD4     		bmi	.L82
1298:Drivers/STM32F4xx_HAL_Driver/Src/stm32f4xx_ll_sdmmc.c ****   {
 1215              		.loc 1 1298 8 is_stmt 1 view .LVU395
1298:Drivers/STM32F4xx_HAL_Driver/Src/stm32f4xx_ll_sdmmc.c ****   {
 1216              		.loc 1 1298 11 is_stmt 0 view .LVU396
 1217 00ae 5904     		lsls	r1, r3, #17
 1218 00b0 35D4     		bmi	.L83
1302:Drivers/STM32F4xx_HAL_Driver/Src/stm32f4xx_ll_sdmmc.c ****   {
 1219              		.loc 1 1302 8 is_stmt 1 view .LVU397
1302:Drivers/STM32F4xx_HAL_Driver/Src/stm32f4xx_ll_sdmmc.c ****   {
 1220              		.loc 1 1302 11 is_stmt 0 view .LVU398
 1221 00b2 9A04     		lsls	r2, r3, #18
 1222 00b4 07D4     		bmi	.L84
1306:Drivers/STM32F4xx_HAL_Driver/Src/stm32f4xx_ll_sdmmc.c ****   {
 1223              		.loc 1 1306 8 is_stmt 1 view .LVU399
 1224              		.loc 1 1308 12 is_stmt 0 view .LVU400
 1225 00b6 13F0080F 		tst	r3, #8
 1226 00ba 0CBF     		ite	eq
 1227 00bc 4FF48030 		moveq	r0, #65536
 1228 00c0 4FF40000 		movne	r0, #8388608
 1229 00c4 7047     		bx	lr
 1230              	.L84:
1304:Drivers/STM32F4xx_HAL_Driver/Src/stm32f4xx_ll_sdmmc.c ****   }
ARM GAS  C:\Users\pw705\AppData\Local\Temp\cceieKfF.s 			page 49


 1231              		.loc 1 1304 12 view .LVU401
 1232 00c6 4FF48000 		mov	r0, #4194304
 1233              	.L58:
1304:Drivers/STM32F4xx_HAL_Driver/Src/stm32f4xx_ll_sdmmc.c ****   }
 1234              		.loc 1 1304 12 view .LVU402
 1235              	.LBE142:
 1236              	.LBE141:
 1237              	.LBE151:
 1238              	.LBE162:
 545:Drivers/STM32F4xx_HAL_Driver/Src/stm32f4xx_ll_sdmmc.c **** 
 1239              		.loc 1 545 1 view .LVU403
 1240 00ca 7047     		bx	lr
 1241              	.LVL76:
 1242              	.L94:
 1243              	.LBB163:
 1244              	.LBB152:
1207:Drivers/STM32F4xx_HAL_Driver/Src/stm32f4xx_ll_sdmmc.c **** 
 1245              		.loc 1 1207 5 is_stmt 1 view .LVU404
 1246 00cc 0423     		movs	r3, #4
 1247 00ce 8363     		str	r3, [r0, #56]
1209:Drivers/STM32F4xx_HAL_Driver/Src/stm32f4xx_ll_sdmmc.c ****   }
 1248              		.loc 1 1209 5 view .LVU405
1209:Drivers/STM32F4xx_HAL_Driver/Src/stm32f4xx_ll_sdmmc.c ****   }
 1249              		.loc 1 1209 12 is_stmt 0 view .LVU406
 1250 00d0 1846     		mov	r0, r3
 1251              	.LVL77:
1209:Drivers/STM32F4xx_HAL_Driver/Src/stm32f4xx_ll_sdmmc.c ****   }
 1252              		.loc 1 1209 12 view .LVU407
 1253 00d2 7047     		bx	lr
 1254              	.LVL78:
 1255              	.L68:
 1256              	.LBB146:
 1257              	.LBB145:
1240:Drivers/STM32F4xx_HAL_Driver/Src/stm32f4xx_ll_sdmmc.c ****   }
 1258              		.loc 1 1240 12 view .LVU408
 1259 00d4 4FF00070 		mov	r0, #33554432
 1260 00d8 7047     		bx	lr
 1261              	.L69:
1244:Drivers/STM32F4xx_HAL_Driver/Src/stm32f4xx_ll_sdmmc.c ****   }
 1262              		.loc 1 1244 12 view .LVU409
 1263 00da 4020     		movs	r0, #64
 1264 00dc 7047     		bx	lr
 1265              	.L70:
1248:Drivers/STM32F4xx_HAL_Driver/Src/stm32f4xx_ll_sdmmc.c ****   }
 1266              		.loc 1 1248 12 view .LVU410
 1267 00de 8020     		movs	r0, #128
 1268 00e0 7047     		bx	lr
 1269              	.L71:
1252:Drivers/STM32F4xx_HAL_Driver/Src/stm32f4xx_ll_sdmmc.c ****   }
 1270              		.loc 1 1252 12 view .LVU411
 1271 00e2 4FF48070 		mov	r0, #256
 1272 00e6 7047     		bx	lr
 1273              	.L72:
1256:Drivers/STM32F4xx_HAL_Driver/Src/stm32f4xx_ll_sdmmc.c ****   }
 1274              		.loc 1 1256 12 view .LVU412
 1275 00e8 4FF40070 		mov	r0, #512
 1276 00ec 7047     		bx	lr
ARM GAS  C:\Users\pw705\AppData\Local\Temp\cceieKfF.s 			page 50


 1277              	.L73:
1260:Drivers/STM32F4xx_HAL_Driver/Src/stm32f4xx_ll_sdmmc.c ****   }
 1278              		.loc 1 1260 12 view .LVU413
 1279 00ee 4FF48060 		mov	r0, #1024
 1280 00f2 7047     		bx	lr
 1281              	.L74:
1264:Drivers/STM32F4xx_HAL_Driver/Src/stm32f4xx_ll_sdmmc.c ****   }
 1282              		.loc 1 1264 12 view .LVU414
 1283 00f4 4FF40060 		mov	r0, #2048
 1284 00f8 7047     		bx	lr
 1285              	.L75:
1268:Drivers/STM32F4xx_HAL_Driver/Src/stm32f4xx_ll_sdmmc.c ****   }
 1286              		.loc 1 1268 12 view .LVU415
 1287 00fa 4FF48050 		mov	r0, #4096
 1288 00fe 7047     		bx	lr
 1289              	.L76:
1272:Drivers/STM32F4xx_HAL_Driver/Src/stm32f4xx_ll_sdmmc.c ****   }
 1290              		.loc 1 1272 12 view .LVU416
 1291 0100 4FF40050 		mov	r0, #8192
 1292 0104 7047     		bx	lr
 1293              	.L80:
1288:Drivers/STM32F4xx_HAL_Driver/Src/stm32f4xx_ll_sdmmc.c ****   }
 1294              		.loc 1 1288 12 view .LVU417
 1295 0106 4FF48020 		mov	r0, #262144
 1296 010a 7047     		bx	lr
 1297              	.L79:
1284:Drivers/STM32F4xx_HAL_Driver/Src/stm32f4xx_ll_sdmmc.c ****   }
 1298              		.loc 1 1284 12 view .LVU418
 1299 010c 4FF40030 		mov	r0, #131072
 1300 0110 7047     		bx	lr
 1301              	.L78:
1280:Drivers/STM32F4xx_HAL_Driver/Src/stm32f4xx_ll_sdmmc.c ****   }
 1302              		.loc 1 1280 12 view .LVU419
 1303 0112 4FF40040 		mov	r0, #32768
 1304 0116 7047     		bx	lr
 1305              	.L77:
1276:Drivers/STM32F4xx_HAL_Driver/Src/stm32f4xx_ll_sdmmc.c ****   }
 1306              		.loc 1 1276 12 view .LVU420
 1307 0118 4FF48040 		mov	r0, #16384
 1308 011c 7047     		bx	lr
 1309              	.L83:
1300:Drivers/STM32F4xx_HAL_Driver/Src/stm32f4xx_ll_sdmmc.c ****   }
 1310              		.loc 1 1300 12 view .LVU421
 1311 011e 4FF40010 		mov	r0, #2097152
 1312 0122 7047     		bx	lr
 1313              	.L82:
1296:Drivers/STM32F4xx_HAL_Driver/Src/stm32f4xx_ll_sdmmc.c ****   }
 1314              		.loc 1 1296 12 view .LVU422
 1315 0124 4FF48010 		mov	r0, #1048576
 1316 0128 7047     		bx	lr
 1317              	.L81:
1292:Drivers/STM32F4xx_HAL_Driver/Src/stm32f4xx_ll_sdmmc.c ****   }
 1318              		.loc 1 1292 12 view .LVU423
 1319 012a 4FF40020 		mov	r0, #524288
 1320 012e 7047     		bx	lr
 1321              	.L97:
 1322              		.align	2
ARM GAS  C:\Users\pw705\AppData\Local\Temp\cceieKfF.s 			page 51


 1323              	.L96:
 1324 0130 00000000 		.word	SystemCoreClock
 1325 0134 D34D6210 		.word	274877907
 1326 0138 08E0FFFD 		.word	-33562616
 1327              	.LBE145:
 1328              	.LBE146:
 1329              	.LBE152:
 1330              	.LBE163:
 1331              		.cfi_endproc
 1332              	.LFE144:
 1334              		.section	.text.SDMMC_CmdReadMultiBlock,"ax",%progbits
 1335              		.align	1
 1336              		.p2align 2,,3
 1337              		.global	SDMMC_CmdReadMultiBlock
 1338              		.syntax unified
 1339              		.thumb
 1340              		.thumb_func
 1342              	SDMMC_CmdReadMultiBlock:
 1343              	.LVL79:
 1344              	.LFB145:
 553:Drivers/STM32F4xx_HAL_Driver/Src/stm32f4xx_ll_sdmmc.c ****   SDIO_CmdInitTypeDef sdmmc_cmdinit;
 1345              		.loc 1 553 1 is_stmt 1 view -0
 1346              		.cfi_startproc
 1347              		@ args = 0, pretend = 0, frame = 0
 1348              		@ frame_needed = 0, uses_anonymous_args = 0
 1349              		@ link register save eliminated.
 554:Drivers/STM32F4xx_HAL_Driver/Src/stm32f4xx_ll_sdmmc.c ****   uint32_t errorstate;
 1350              		.loc 1 554 3 view .LVU425
 555:Drivers/STM32F4xx_HAL_Driver/Src/stm32f4xx_ll_sdmmc.c **** 
 1351              		.loc 1 555 3 view .LVU426
 558:Drivers/STM32F4xx_HAL_Driver/Src/stm32f4xx_ll_sdmmc.c ****   sdmmc_cmdinit.CmdIndex = SDMMC_CMD_READ_MULT_BLOCK;
 1352              		.loc 1 558 3 view .LVU427
 559:Drivers/STM32F4xx_HAL_Driver/Src/stm32f4xx_ll_sdmmc.c ****   sdmmc_cmdinit.Response = SDIO_RESPONSE_SHORT;
 1353              		.loc 1 559 3 view .LVU428
 560:Drivers/STM32F4xx_HAL_Driver/Src/stm32f4xx_ll_sdmmc.c ****   sdmmc_cmdinit.WaitForInterrupt = SDIO_WAIT_NO;
 1354              		.loc 1 560 3 view .LVU429
 561:Drivers/STM32F4xx_HAL_Driver/Src/stm32f4xx_ll_sdmmc.c ****   sdmmc_cmdinit.CPSM = SDIO_CPSM_ENABLE;
 1355              		.loc 1 561 3 view .LVU430
 562:Drivers/STM32F4xx_HAL_Driver/Src/stm32f4xx_ll_sdmmc.c ****   (void)SDIO_SendCommand(SDIOx, &sdmmc_cmdinit);
 1356              		.loc 1 562 3 view .LVU431
 563:Drivers/STM32F4xx_HAL_Driver/Src/stm32f4xx_ll_sdmmc.c **** 
 1357              		.loc 1 563 3 view .LVU432
 1358              	.LBB176:
 1359              	.LBI176:
 345:Drivers/STM32F4xx_HAL_Driver/Src/stm32f4xx_ll_sdmmc.c **** {
 1360              		.loc 1 345 19 view .LVU433
 1361              	.LBB177:
 347:Drivers/STM32F4xx_HAL_Driver/Src/stm32f4xx_ll_sdmmc.c **** 
 1362              		.loc 1 347 3 view .LVU434
 350:Drivers/STM32F4xx_HAL_Driver/Src/stm32f4xx_ll_sdmmc.c ****   assert_param(IS_SDIO_RESPONSE(Command->Response));
 1363              		.loc 1 350 3 view .LVU435
 351:Drivers/STM32F4xx_HAL_Driver/Src/stm32f4xx_ll_sdmmc.c ****   assert_param(IS_SDIO_WAIT(Command->WaitForInterrupt));
 1364              		.loc 1 351 3 view .LVU436
 352:Drivers/STM32F4xx_HAL_Driver/Src/stm32f4xx_ll_sdmmc.c ****   assert_param(IS_SDIO_CPSM(Command->CPSM));
 1365              		.loc 1 352 3 view .LVU437
 353:Drivers/STM32F4xx_HAL_Driver/Src/stm32f4xx_ll_sdmmc.c **** 
 1366              		.loc 1 353 3 view .LVU438
ARM GAS  C:\Users\pw705\AppData\Local\Temp\cceieKfF.s 			page 52


 356:Drivers/STM32F4xx_HAL_Driver/Src/stm32f4xx_ll_sdmmc.c **** 
 1367              		.loc 1 356 3 view .LVU439
 356:Drivers/STM32F4xx_HAL_Driver/Src/stm32f4xx_ll_sdmmc.c **** 
 1368              		.loc 1 356 14 is_stmt 0 view .LVU440
 1369 0000 8160     		str	r1, [r0, #8]
 359:Drivers/STM32F4xx_HAL_Driver/Src/stm32f4xx_ll_sdmmc.c ****                        Command->Response |
 1370              		.loc 1 359 3 is_stmt 1 view .LVU441
 1371              	.LVL80:
 365:Drivers/STM32F4xx_HAL_Driver/Src/stm32f4xx_ll_sdmmc.c **** 
 1372              		.loc 1 365 3 view .LVU442
 1373              	.LBE177:
 1374              	.LBE176:
 1375              	.LBB183:
 1376              	.LBB184:
1193:Drivers/STM32F4xx_HAL_Driver/Src/stm32f4xx_ll_sdmmc.c **** 
 1377              		.loc 1 1193 52 is_stmt 0 view .LVU443
 1378 0002 4B4A     		ldr	r2, .L136
 1379              	.LBE184:
 1380              	.LBE183:
 1381              	.LBB199:
 1382              	.LBB178:
 365:Drivers/STM32F4xx_HAL_Driver/Src/stm32f4xx_ll_sdmmc.c **** 
 1383              		.loc 1 365 3 view .LVU444
 1384 0004 C368     		ldr	r3, [r0, #12]
 1385              	.LBE178:
 1386              	.LBE199:
 1387              	.LBB200:
 1388              	.LBB193:
1193:Drivers/STM32F4xx_HAL_Driver/Src/stm32f4xx_ll_sdmmc.c **** 
 1389              		.loc 1 1193 52 view .LVU445
 1390 0006 4B49     		ldr	r1, .L136+4
 1391              	.LVL81:
1193:Drivers/STM32F4xx_HAL_Driver/Src/stm32f4xx_ll_sdmmc.c **** 
 1392              		.loc 1 1193 52 view .LVU446
 1393 0008 1268     		ldr	r2, [r2]
 1394              	.LBE193:
 1395              	.LBE200:
 1396              	.LBB201:
 1397              	.LBB179:
 365:Drivers/STM32F4xx_HAL_Driver/Src/stm32f4xx_ll_sdmmc.c **** 
 1398              		.loc 1 365 3 view .LVU447
 1399 000a 23F47F63 		bic	r3, r3, #4080
 1400              	.LBE179:
 1401              	.LBE201:
 1402              	.LBB202:
 1403              	.LBB194:
1193:Drivers/STM32F4xx_HAL_Driver/Src/stm32f4xx_ll_sdmmc.c **** 
 1404              		.loc 1 1193 52 view .LVU448
 1405 000e A1FB0212 		umull	r1, r2, r1, r2
 1406              	.LBE194:
 1407              	.LBE202:
 1408              	.LBB203:
 1409              	.LBB180:
 365:Drivers/STM32F4xx_HAL_Driver/Src/stm32f4xx_ll_sdmmc.c **** 
 1410              		.loc 1 365 3 view .LVU449
 1411 0012 23F00F03 		bic	r3, r3, #15
 1412 0016 43F48A63 		orr	r3, r3, #1104
ARM GAS  C:\Users\pw705\AppData\Local\Temp\cceieKfF.s 			page 53


 1413              	.LBE180:
 1414              	.LBE203:
 1415              	.LBB204:
 1416              	.LBB195:
1193:Drivers/STM32F4xx_HAL_Driver/Src/stm32f4xx_ll_sdmmc.c **** 
 1417              		.loc 1 1193 52 view .LVU450
 1418 001a 520A     		lsrs	r2, r2, #9
1193:Drivers/STM32F4xx_HAL_Driver/Src/stm32f4xx_ll_sdmmc.c **** 
 1419              		.loc 1 1193 12 view .LVU451
 1420 001c 41F28831 		movw	r1, #5000
 1421              	.LBE195:
 1422              	.LBE204:
 1423              	.LBB205:
 1424              	.LBB181:
 365:Drivers/STM32F4xx_HAL_Driver/Src/stm32f4xx_ll_sdmmc.c **** 
 1425              		.loc 1 365 3 view .LVU452
 1426 0020 43F00203 		orr	r3, r3, #2
 1427              	.LBE181:
 1428              	.LBE205:
 1429              	.LBB206:
 1430              	.LBB196:
1193:Drivers/STM32F4xx_HAL_Driver/Src/stm32f4xx_ll_sdmmc.c **** 
 1431              		.loc 1 1193 12 view .LVU453
 1432 0024 01FB02F2 		mul	r2, r1, r2
 1433              	.LBE196:
 1434              	.LBE206:
 1435              	.LBB207:
 1436              	.LBB182:
 365:Drivers/STM32F4xx_HAL_Driver/Src/stm32f4xx_ll_sdmmc.c **** 
 1437              		.loc 1 365 3 view .LVU454
 1438 0028 C360     		str	r3, [r0, #12]
 1439              	.LVL82:
 367:Drivers/STM32F4xx_HAL_Driver/Src/stm32f4xx_ll_sdmmc.c **** }
 1440              		.loc 1 367 3 is_stmt 1 view .LVU455
 367:Drivers/STM32F4xx_HAL_Driver/Src/stm32f4xx_ll_sdmmc.c **** }
 1441              		.loc 1 367 3 is_stmt 0 view .LVU456
 1442              	.LBE182:
 1443              	.LBE207:
 566:Drivers/STM32F4xx_HAL_Driver/Src/stm32f4xx_ll_sdmmc.c **** 
 1444              		.loc 1 566 3 is_stmt 1 view .LVU457
 1445              	.LBB208:
 1446              	.LBI183:
1186:Drivers/STM32F4xx_HAL_Driver/Src/stm32f4xx_ll_sdmmc.c **** {
 1447              		.loc 1 1186 10 view .LVU458
 1448              	.LBB197:
1188:Drivers/STM32F4xx_HAL_Driver/Src/stm32f4xx_ll_sdmmc.c ****   uint32_t sta_reg;
 1449              		.loc 1 1188 3 view .LVU459
1189:Drivers/STM32F4xx_HAL_Driver/Src/stm32f4xx_ll_sdmmc.c **** 
 1450              		.loc 1 1189 3 view .LVU460
1193:Drivers/STM32F4xx_HAL_Driver/Src/stm32f4xx_ll_sdmmc.c **** 
 1451              		.loc 1 1193 3 view .LVU461
1195:Drivers/STM32F4xx_HAL_Driver/Src/stm32f4xx_ll_sdmmc.c ****   {
 1452              		.loc 1 1195 3 view .LVU462
1197:Drivers/STM32F4xx_HAL_Driver/Src/stm32f4xx_ll_sdmmc.c ****     {
 1453              		.loc 1 1197 5 view .LVU463
1197:Drivers/STM32F4xx_HAL_Driver/Src/stm32f4xx_ll_sdmmc.c ****     {
 1454              		.loc 1 1197 14 is_stmt 0 view .LVU464
ARM GAS  C:\Users\pw705\AppData\Local\Temp\cceieKfF.s 			page 54


 1455 002a 531E     		subs	r3, r2, #1
 1456              	.LVL83:
1197:Drivers/STM32F4xx_HAL_Driver/Src/stm32f4xx_ll_sdmmc.c ****     {
 1457              		.loc 1 1197 8 view .LVU465
 1458 002c 4AB1     		cbz	r2, .L107
 1459              	.L100:
1195:Drivers/STM32F4xx_HAL_Driver/Src/stm32f4xx_ll_sdmmc.c ****   {
 1460              		.loc 1 1195 3 is_stmt 1 view .LVU466
1197:Drivers/STM32F4xx_HAL_Driver/Src/stm32f4xx_ll_sdmmc.c ****     {
 1461              		.loc 1 1197 5 view .LVU467
1201:Drivers/STM32F4xx_HAL_Driver/Src/stm32f4xx_ll_sdmmc.c ****   } while (((sta_reg & (SDIO_FLAG_CCRCFAIL | SDIO_FLAG_CMDREND | SDIO_FLAG_CTIMEOUT)) == 0U) ||
 1462              		.loc 1 1201 5 view .LVU468
1201:Drivers/STM32F4xx_HAL_Driver/Src/stm32f4xx_ll_sdmmc.c ****   } while (((sta_reg & (SDIO_FLAG_CCRCFAIL | SDIO_FLAG_CMDREND | SDIO_FLAG_CTIMEOUT)) == 0U) ||
 1463              		.loc 1 1201 13 is_stmt 0 view .LVU469
 1464 002e 426B     		ldr	r2, [r0, #52]
 1465              	.LVL84:
1202:Drivers/STM32F4xx_HAL_Driver/Src/stm32f4xx_ll_sdmmc.c ****            ((sta_reg & SDIO_FLAG_CMDACT) != 0U));
 1466              		.loc 1 1202 94 is_stmt 1 view .LVU470
 1467 0030 12F0450F 		tst	r2, #69
1197:Drivers/STM32F4xx_HAL_Driver/Src/stm32f4xx_ll_sdmmc.c ****     {
 1468              		.loc 1 1197 14 is_stmt 0 view .LVU471
 1469 0034 03F1FF33 		add	r3, r3, #-1
 1470              	.LVL85:
1202:Drivers/STM32F4xx_HAL_Driver/Src/stm32f4xx_ll_sdmmc.c ****            ((sta_reg & SDIO_FLAG_CMDACT) != 0U));
 1471              		.loc 1 1202 94 view .LVU472
 1472 0038 01D0     		beq	.L101
 1473 003a 1105     		lsls	r1, r2, #20
 1474 003c 04D5     		bpl	.L133
 1475              	.L101:
1197:Drivers/STM32F4xx_HAL_Driver/Src/stm32f4xx_ll_sdmmc.c ****     {
 1476              		.loc 1 1197 8 view .LVU473
 1477 003e 5A1C     		adds	r2, r3, #1
 1478              	.LVL86:
1197:Drivers/STM32F4xx_HAL_Driver/Src/stm32f4xx_ll_sdmmc.c ****     {
 1479              		.loc 1 1197 8 view .LVU474
 1480 0040 F5D1     		bne	.L100
 1481              	.LVL87:
 1482              	.L107:
1199:Drivers/STM32F4xx_HAL_Driver/Src/stm32f4xx_ll_sdmmc.c ****     }
 1483              		.loc 1 1199 14 view .LVU475
 1484 0042 4FF00040 		mov	r0, #-2147483648
 1485              	.LVL88:
1199:Drivers/STM32F4xx_HAL_Driver/Src/stm32f4xx_ll_sdmmc.c ****     }
 1486              		.loc 1 1199 14 view .LVU476
 1487 0046 7047     		bx	lr
 1488              	.LVL89:
 1489              	.L133:
1205:Drivers/STM32F4xx_HAL_Driver/Src/stm32f4xx_ll_sdmmc.c ****   {
 1490              		.loc 1 1205 3 is_stmt 1 view .LVU477
1205:Drivers/STM32F4xx_HAL_Driver/Src/stm32f4xx_ll_sdmmc.c ****   {
 1491              		.loc 1 1205 7 is_stmt 0 view .LVU478
 1492 0048 436B     		ldr	r3, [r0, #52]
 1493              	.LVL90:
1205:Drivers/STM32F4xx_HAL_Driver/Src/stm32f4xx_ll_sdmmc.c ****   {
 1494              		.loc 1 1205 6 view .LVU479
 1495 004a 5A07     		lsls	r2, r3, #29
 1496              	.LVL91:
ARM GAS  C:\Users\pw705\AppData\Local\Temp\cceieKfF.s 			page 55


1205:Drivers/STM32F4xx_HAL_Driver/Src/stm32f4xx_ll_sdmmc.c ****   {
 1497              		.loc 1 1205 6 view .LVU480
 1498 004c 3ED4     		bmi	.L134
1211:Drivers/STM32F4xx_HAL_Driver/Src/stm32f4xx_ll_sdmmc.c ****   {
 1499              		.loc 1 1211 8 is_stmt 1 view .LVU481
1211:Drivers/STM32F4xx_HAL_Driver/Src/stm32f4xx_ll_sdmmc.c ****   {
 1500              		.loc 1 1211 12 is_stmt 0 view .LVU482
 1501 004e 436B     		ldr	r3, [r0, #52]
1211:Drivers/STM32F4xx_HAL_Driver/Src/stm32f4xx_ll_sdmmc.c ****   {
 1502              		.loc 1 1211 11 view .LVU483
 1503 0050 DB07     		lsls	r3, r3, #31
 1504 0052 07D4     		bmi	.L135
1220:Drivers/STM32F4xx_HAL_Driver/Src/stm32f4xx_ll_sdmmc.c **** 
 1505              		.loc 1 1220 3 is_stmt 1 view .LVU484
1223:Drivers/STM32F4xx_HAL_Driver/Src/stm32f4xx_ll_sdmmc.c **** 
 1506              		.loc 1 1223 3 view .LVU485
 1507 0054 C523     		movs	r3, #197
 1508 0056 8363     		str	r3, [r0, #56]
1226:Drivers/STM32F4xx_HAL_Driver/Src/stm32f4xx_ll_sdmmc.c ****   {
 1509              		.loc 1 1226 3 view .LVU486
 1510              	.LVL92:
 1511              	.LBB185:
 1512              	.LBI185:
 375:Drivers/STM32F4xx_HAL_Driver/Src/stm32f4xx_ll_sdmmc.c **** {
 1513              		.loc 1 375 9 view .LVU487
 1514              	.LBB186:
 377:Drivers/STM32F4xx_HAL_Driver/Src/stm32f4xx_ll_sdmmc.c **** }
 1515              		.loc 1 377 3 view .LVU488
 377:Drivers/STM32F4xx_HAL_Driver/Src/stm32f4xx_ll_sdmmc.c **** }
 1516              		.loc 1 377 25 is_stmt 0 view .LVU489
 1517 0058 0369     		ldr	r3, [r0, #16]
 1518              	.LVL93:
 377:Drivers/STM32F4xx_HAL_Driver/Src/stm32f4xx_ll_sdmmc.c **** }
 1519              		.loc 1 377 25 view .LVU490
 1520              	.LBE186:
 1521              	.LBE185:
1226:Drivers/STM32F4xx_HAL_Driver/Src/stm32f4xx_ll_sdmmc.c ****   {
 1522              		.loc 1 1226 6 view .LVU491
 1523 005a DBB2     		uxtb	r3, r3
 1524 005c 122B     		cmp	r3, #18
 1525 005e 04D0     		beq	.L105
 1526              	.L104:
1215:Drivers/STM32F4xx_HAL_Driver/Src/stm32f4xx_ll_sdmmc.c ****   }
 1527              		.loc 1 1215 12 view .LVU492
 1528 0060 0120     		movs	r0, #1
 1529              	.LVL94:
1215:Drivers/STM32F4xx_HAL_Driver/Src/stm32f4xx_ll_sdmmc.c ****   }
 1530              		.loc 1 1215 12 view .LVU493
 1531 0062 7047     		bx	lr
 1532              	.LVL95:
 1533              	.L135:
1213:Drivers/STM32F4xx_HAL_Driver/Src/stm32f4xx_ll_sdmmc.c **** 
 1534              		.loc 1 1213 5 is_stmt 1 view .LVU494
 1535 0064 0123     		movs	r3, #1
 1536 0066 8363     		str	r3, [r0, #56]
1215:Drivers/STM32F4xx_HAL_Driver/Src/stm32f4xx_ll_sdmmc.c ****   }
 1537              		.loc 1 1215 5 view .LVU495
ARM GAS  C:\Users\pw705\AppData\Local\Temp\cceieKfF.s 			page 56


1215:Drivers/STM32F4xx_HAL_Driver/Src/stm32f4xx_ll_sdmmc.c ****   }
 1538              		.loc 1 1215 12 is_stmt 0 view .LVU496
 1539 0068 FAE7     		b	.L104
 1540              	.L105:
 1541              	.LVL96:
 1542              	.LBB187:
 1543              	.LBI187:
1186:Drivers/STM32F4xx_HAL_Driver/Src/stm32f4xx_ll_sdmmc.c **** {
 1544              		.loc 1 1186 10 is_stmt 1 view .LVU497
 1545              	.LBB188:
1232:Drivers/STM32F4xx_HAL_Driver/Src/stm32f4xx_ll_sdmmc.c **** 
 1546              		.loc 1 1232 3 view .LVU498
 1547              	.LBB189:
 1548              	.LBI189:
 391:Drivers/STM32F4xx_HAL_Driver/Src/stm32f4xx_ll_sdmmc.c **** {
 1549              		.loc 1 391 10 view .LVU499
 1550              	.LBB190:
 393:Drivers/STM32F4xx_HAL_Driver/Src/stm32f4xx_ll_sdmmc.c **** 
 1551              		.loc 1 393 3 view .LVU500
 396:Drivers/STM32F4xx_HAL_Driver/Src/stm32f4xx_ll_sdmmc.c **** 
 1552              		.loc 1 396 3 view .LVU501
 399:Drivers/STM32F4xx_HAL_Driver/Src/stm32f4xx_ll_sdmmc.c **** 
 1553              		.loc 1 399 3 view .LVU502
 401:Drivers/STM32F4xx_HAL_Driver/Src/stm32f4xx_ll_sdmmc.c **** }
 1554              		.loc 1 401 3 view .LVU503
 401:Drivers/STM32F4xx_HAL_Driver/Src/stm32f4xx_ll_sdmmc.c **** }
 1555              		.loc 1 401 11 is_stmt 0 view .LVU504
 1556 006a 4369     		ldr	r3, [r0, #20]
 1557              	.LVL97:
 401:Drivers/STM32F4xx_HAL_Driver/Src/stm32f4xx_ll_sdmmc.c **** }
 1558              		.loc 1 401 11 view .LVU505
 1559              	.LBE190:
 1560              	.LBE189:
1234:Drivers/STM32F4xx_HAL_Driver/Src/stm32f4xx_ll_sdmmc.c ****   {
 1561              		.loc 1 1234 3 is_stmt 1 view .LVU506
1234:Drivers/STM32F4xx_HAL_Driver/Src/stm32f4xx_ll_sdmmc.c ****   {
 1562              		.loc 1 1234 20 is_stmt 0 view .LVU507
 1563 006c 3248     		ldr	r0, .L136+8
 1564              	.LVL98:
1234:Drivers/STM32F4xx_HAL_Driver/Src/stm32f4xx_ll_sdmmc.c ****   {
 1565              		.loc 1 1234 20 view .LVU508
 1566 006e 1840     		ands	r0, r0, r3
1234:Drivers/STM32F4xx_HAL_Driver/Src/stm32f4xx_ll_sdmmc.c ****   {
 1567              		.loc 1 1234 6 view .LVU509
 1568 0070 58B3     		cbz	r0, .L98
1238:Drivers/STM32F4xx_HAL_Driver/Src/stm32f4xx_ll_sdmmc.c ****   {
 1569              		.loc 1 1238 8 is_stmt 1 view .LVU510
1238:Drivers/STM32F4xx_HAL_Driver/Src/stm32f4xx_ll_sdmmc.c ****   {
 1570              		.loc 1 1238 11 is_stmt 0 view .LVU511
 1571 0072 002B     		cmp	r3, #0
 1572 0074 2EDB     		blt	.L108
1242:Drivers/STM32F4xx_HAL_Driver/Src/stm32f4xx_ll_sdmmc.c ****   {
 1573              		.loc 1 1242 8 is_stmt 1 view .LVU512
1242:Drivers/STM32F4xx_HAL_Driver/Src/stm32f4xx_ll_sdmmc.c ****   {
 1574              		.loc 1 1242 11 is_stmt 0 view .LVU513
 1575 0076 5900     		lsls	r1, r3, #1
 1576 0078 2FD4     		bmi	.L109
ARM GAS  C:\Users\pw705\AppData\Local\Temp\cceieKfF.s 			page 57


1246:Drivers/STM32F4xx_HAL_Driver/Src/stm32f4xx_ll_sdmmc.c ****   {
 1577              		.loc 1 1246 8 is_stmt 1 view .LVU514
1246:Drivers/STM32F4xx_HAL_Driver/Src/stm32f4xx_ll_sdmmc.c ****   {
 1578              		.loc 1 1246 11 is_stmt 0 view .LVU515
 1579 007a 9A00     		lsls	r2, r3, #2
 1580 007c 2FD4     		bmi	.L110
1250:Drivers/STM32F4xx_HAL_Driver/Src/stm32f4xx_ll_sdmmc.c ****   {
 1581              		.loc 1 1250 8 is_stmt 1 view .LVU516
1250:Drivers/STM32F4xx_HAL_Driver/Src/stm32f4xx_ll_sdmmc.c ****   {
 1582              		.loc 1 1250 11 is_stmt 0 view .LVU517
 1583 007e D900     		lsls	r1, r3, #3
 1584 0080 2FD4     		bmi	.L111
1254:Drivers/STM32F4xx_HAL_Driver/Src/stm32f4xx_ll_sdmmc.c ****   {
 1585              		.loc 1 1254 8 is_stmt 1 view .LVU518
1254:Drivers/STM32F4xx_HAL_Driver/Src/stm32f4xx_ll_sdmmc.c ****   {
 1586              		.loc 1 1254 11 is_stmt 0 view .LVU519
 1587 0082 1A01     		lsls	r2, r3, #4
 1588 0084 30D4     		bmi	.L112
1258:Drivers/STM32F4xx_HAL_Driver/Src/stm32f4xx_ll_sdmmc.c ****   {
 1589              		.loc 1 1258 8 is_stmt 1 view .LVU520
1258:Drivers/STM32F4xx_HAL_Driver/Src/stm32f4xx_ll_sdmmc.c ****   {
 1590              		.loc 1 1258 11 is_stmt 0 view .LVU521
 1591 0086 5901     		lsls	r1, r3, #5
 1592 0088 31D4     		bmi	.L113
1262:Drivers/STM32F4xx_HAL_Driver/Src/stm32f4xx_ll_sdmmc.c ****   {
 1593              		.loc 1 1262 8 is_stmt 1 view .LVU522
1262:Drivers/STM32F4xx_HAL_Driver/Src/stm32f4xx_ll_sdmmc.c ****   {
 1594              		.loc 1 1262 11 is_stmt 0 view .LVU523
 1595 008a DA01     		lsls	r2, r3, #7
 1596 008c 32D4     		bmi	.L114
1266:Drivers/STM32F4xx_HAL_Driver/Src/stm32f4xx_ll_sdmmc.c ****   {
 1597              		.loc 1 1266 8 is_stmt 1 view .LVU524
1266:Drivers/STM32F4xx_HAL_Driver/Src/stm32f4xx_ll_sdmmc.c ****   {
 1598              		.loc 1 1266 11 is_stmt 0 view .LVU525
 1599 008e 1902     		lsls	r1, r3, #8
 1600 0090 33D4     		bmi	.L115
1270:Drivers/STM32F4xx_HAL_Driver/Src/stm32f4xx_ll_sdmmc.c ****   {
 1601              		.loc 1 1270 8 is_stmt 1 view .LVU526
1270:Drivers/STM32F4xx_HAL_Driver/Src/stm32f4xx_ll_sdmmc.c ****   {
 1602              		.loc 1 1270 11 is_stmt 0 view .LVU527
 1603 0092 5A02     		lsls	r2, r3, #9
 1604 0094 34D4     		bmi	.L116
1274:Drivers/STM32F4xx_HAL_Driver/Src/stm32f4xx_ll_sdmmc.c ****   {
 1605              		.loc 1 1274 8 is_stmt 1 view .LVU528
1274:Drivers/STM32F4xx_HAL_Driver/Src/stm32f4xx_ll_sdmmc.c ****   {
 1606              		.loc 1 1274 11 is_stmt 0 view .LVU529
 1607 0096 9902     		lsls	r1, r3, #10
 1608 0098 3ED4     		bmi	.L117
1278:Drivers/STM32F4xx_HAL_Driver/Src/stm32f4xx_ll_sdmmc.c ****   {
 1609              		.loc 1 1278 8 is_stmt 1 view .LVU530
1278:Drivers/STM32F4xx_HAL_Driver/Src/stm32f4xx_ll_sdmmc.c ****   {
 1610              		.loc 1 1278 11 is_stmt 0 view .LVU531
 1611 009a DA02     		lsls	r2, r3, #11
 1612 009c 39D4     		bmi	.L118
1282:Drivers/STM32F4xx_HAL_Driver/Src/stm32f4xx_ll_sdmmc.c ****   {
 1613              		.loc 1 1282 8 is_stmt 1 view .LVU532
1282:Drivers/STM32F4xx_HAL_Driver/Src/stm32f4xx_ll_sdmmc.c ****   {
ARM GAS  C:\Users\pw705\AppData\Local\Temp\cceieKfF.s 			page 58


 1614              		.loc 1 1282 11 is_stmt 0 view .LVU533
 1615 009e 5903     		lsls	r1, r3, #13
 1616 00a0 34D4     		bmi	.L119
1286:Drivers/STM32F4xx_HAL_Driver/Src/stm32f4xx_ll_sdmmc.c ****   {
 1617              		.loc 1 1286 8 is_stmt 1 view .LVU534
1286:Drivers/STM32F4xx_HAL_Driver/Src/stm32f4xx_ll_sdmmc.c ****   {
 1618              		.loc 1 1286 11 is_stmt 0 view .LVU535
 1619 00a2 9A03     		lsls	r2, r3, #14
 1620 00a4 2FD4     		bmi	.L120
1290:Drivers/STM32F4xx_HAL_Driver/Src/stm32f4xx_ll_sdmmc.c ****   {
 1621              		.loc 1 1290 8 is_stmt 1 view .LVU536
1290:Drivers/STM32F4xx_HAL_Driver/Src/stm32f4xx_ll_sdmmc.c ****   {
 1622              		.loc 1 1290 11 is_stmt 0 view .LVU537
 1623 00a6 D903     		lsls	r1, r3, #15
 1624 00a8 3FD4     		bmi	.L121
1294:Drivers/STM32F4xx_HAL_Driver/Src/stm32f4xx_ll_sdmmc.c ****   {
 1625              		.loc 1 1294 8 is_stmt 1 view .LVU538
1294:Drivers/STM32F4xx_HAL_Driver/Src/stm32f4xx_ll_sdmmc.c ****   {
 1626              		.loc 1 1294 11 is_stmt 0 view .LVU539
 1627 00aa 1A04     		lsls	r2, r3, #16
 1628 00ac 3AD4     		bmi	.L122
1298:Drivers/STM32F4xx_HAL_Driver/Src/stm32f4xx_ll_sdmmc.c ****   {
 1629              		.loc 1 1298 8 is_stmt 1 view .LVU540
1298:Drivers/STM32F4xx_HAL_Driver/Src/stm32f4xx_ll_sdmmc.c ****   {
 1630              		.loc 1 1298 11 is_stmt 0 view .LVU541
 1631 00ae 5904     		lsls	r1, r3, #17
 1632 00b0 35D4     		bmi	.L123
1302:Drivers/STM32F4xx_HAL_Driver/Src/stm32f4xx_ll_sdmmc.c ****   {
 1633              		.loc 1 1302 8 is_stmt 1 view .LVU542
1302:Drivers/STM32F4xx_HAL_Driver/Src/stm32f4xx_ll_sdmmc.c ****   {
 1634              		.loc 1 1302 11 is_stmt 0 view .LVU543
 1635 00b2 9A04     		lsls	r2, r3, #18
 1636 00b4 07D4     		bmi	.L124
1306:Drivers/STM32F4xx_HAL_Driver/Src/stm32f4xx_ll_sdmmc.c ****   {
 1637              		.loc 1 1306 8 is_stmt 1 view .LVU544
 1638              		.loc 1 1308 12 is_stmt 0 view .LVU545
 1639 00b6 13F0080F 		tst	r3, #8
 1640 00ba 0CBF     		ite	eq
 1641 00bc 4FF48030 		moveq	r0, #65536
 1642 00c0 4FF40000 		movne	r0, #8388608
 1643 00c4 7047     		bx	lr
 1644              	.L124:
1304:Drivers/STM32F4xx_HAL_Driver/Src/stm32f4xx_ll_sdmmc.c ****   }
 1645              		.loc 1 1304 12 view .LVU546
 1646 00c6 4FF48000 		mov	r0, #4194304
 1647              	.L98:
1304:Drivers/STM32F4xx_HAL_Driver/Src/stm32f4xx_ll_sdmmc.c ****   }
 1648              		.loc 1 1304 12 view .LVU547
 1649              	.LBE188:
 1650              	.LBE187:
 1651              	.LBE197:
 1652              	.LBE208:
 569:Drivers/STM32F4xx_HAL_Driver/Src/stm32f4xx_ll_sdmmc.c **** 
 1653              		.loc 1 569 1 view .LVU548
 1654 00ca 7047     		bx	lr
 1655              	.LVL99:
 1656              	.L134:
ARM GAS  C:\Users\pw705\AppData\Local\Temp\cceieKfF.s 			page 59


 1657              	.LBB209:
 1658              	.LBB198:
1207:Drivers/STM32F4xx_HAL_Driver/Src/stm32f4xx_ll_sdmmc.c **** 
 1659              		.loc 1 1207 5 is_stmt 1 view .LVU549
 1660 00cc 0423     		movs	r3, #4
 1661 00ce 8363     		str	r3, [r0, #56]
1209:Drivers/STM32F4xx_HAL_Driver/Src/stm32f4xx_ll_sdmmc.c ****   }
 1662              		.loc 1 1209 5 view .LVU550
1209:Drivers/STM32F4xx_HAL_Driver/Src/stm32f4xx_ll_sdmmc.c ****   }
 1663              		.loc 1 1209 12 is_stmt 0 view .LVU551
 1664 00d0 1846     		mov	r0, r3
 1665              	.LVL100:
1209:Drivers/STM32F4xx_HAL_Driver/Src/stm32f4xx_ll_sdmmc.c ****   }
 1666              		.loc 1 1209 12 view .LVU552
 1667 00d2 7047     		bx	lr
 1668              	.LVL101:
 1669              	.L108:
 1670              	.LBB192:
 1671              	.LBB191:
1240:Drivers/STM32F4xx_HAL_Driver/Src/stm32f4xx_ll_sdmmc.c ****   }
 1672              		.loc 1 1240 12 view .LVU553
 1673 00d4 4FF00070 		mov	r0, #33554432
 1674 00d8 7047     		bx	lr
 1675              	.L109:
1244:Drivers/STM32F4xx_HAL_Driver/Src/stm32f4xx_ll_sdmmc.c ****   }
 1676              		.loc 1 1244 12 view .LVU554
 1677 00da 4020     		movs	r0, #64
 1678 00dc 7047     		bx	lr
 1679              	.L110:
1248:Drivers/STM32F4xx_HAL_Driver/Src/stm32f4xx_ll_sdmmc.c ****   }
 1680              		.loc 1 1248 12 view .LVU555
 1681 00de 8020     		movs	r0, #128
 1682 00e0 7047     		bx	lr
 1683              	.L111:
1252:Drivers/STM32F4xx_HAL_Driver/Src/stm32f4xx_ll_sdmmc.c ****   }
 1684              		.loc 1 1252 12 view .LVU556
 1685 00e2 4FF48070 		mov	r0, #256
 1686 00e6 7047     		bx	lr
 1687              	.L112:
1256:Drivers/STM32F4xx_HAL_Driver/Src/stm32f4xx_ll_sdmmc.c ****   }
 1688              		.loc 1 1256 12 view .LVU557
 1689 00e8 4FF40070 		mov	r0, #512
 1690 00ec 7047     		bx	lr
 1691              	.L113:
1260:Drivers/STM32F4xx_HAL_Driver/Src/stm32f4xx_ll_sdmmc.c ****   }
 1692              		.loc 1 1260 12 view .LVU558
 1693 00ee 4FF48060 		mov	r0, #1024
 1694 00f2 7047     		bx	lr
 1695              	.L114:
1264:Drivers/STM32F4xx_HAL_Driver/Src/stm32f4xx_ll_sdmmc.c ****   }
 1696              		.loc 1 1264 12 view .LVU559
 1697 00f4 4FF40060 		mov	r0, #2048
 1698 00f8 7047     		bx	lr
 1699              	.L115:
1268:Drivers/STM32F4xx_HAL_Driver/Src/stm32f4xx_ll_sdmmc.c ****   }
 1700              		.loc 1 1268 12 view .LVU560
 1701 00fa 4FF48050 		mov	r0, #4096
ARM GAS  C:\Users\pw705\AppData\Local\Temp\cceieKfF.s 			page 60


 1702 00fe 7047     		bx	lr
 1703              	.L116:
1272:Drivers/STM32F4xx_HAL_Driver/Src/stm32f4xx_ll_sdmmc.c ****   }
 1704              		.loc 1 1272 12 view .LVU561
 1705 0100 4FF40050 		mov	r0, #8192
 1706 0104 7047     		bx	lr
 1707              	.L120:
1288:Drivers/STM32F4xx_HAL_Driver/Src/stm32f4xx_ll_sdmmc.c ****   }
 1708              		.loc 1 1288 12 view .LVU562
 1709 0106 4FF48020 		mov	r0, #262144
 1710 010a 7047     		bx	lr
 1711              	.L119:
1284:Drivers/STM32F4xx_HAL_Driver/Src/stm32f4xx_ll_sdmmc.c ****   }
 1712              		.loc 1 1284 12 view .LVU563
 1713 010c 4FF40030 		mov	r0, #131072
 1714 0110 7047     		bx	lr
 1715              	.L118:
1280:Drivers/STM32F4xx_HAL_Driver/Src/stm32f4xx_ll_sdmmc.c ****   }
 1716              		.loc 1 1280 12 view .LVU564
 1717 0112 4FF40040 		mov	r0, #32768
 1718 0116 7047     		bx	lr
 1719              	.L117:
1276:Drivers/STM32F4xx_HAL_Driver/Src/stm32f4xx_ll_sdmmc.c ****   }
 1720              		.loc 1 1276 12 view .LVU565
 1721 0118 4FF48040 		mov	r0, #16384
 1722 011c 7047     		bx	lr
 1723              	.L123:
1300:Drivers/STM32F4xx_HAL_Driver/Src/stm32f4xx_ll_sdmmc.c ****   }
 1724              		.loc 1 1300 12 view .LVU566
 1725 011e 4FF40010 		mov	r0, #2097152
 1726 0122 7047     		bx	lr
 1727              	.L122:
1296:Drivers/STM32F4xx_HAL_Driver/Src/stm32f4xx_ll_sdmmc.c ****   }
 1728              		.loc 1 1296 12 view .LVU567
 1729 0124 4FF48010 		mov	r0, #1048576
 1730 0128 7047     		bx	lr
 1731              	.L121:
1292:Drivers/STM32F4xx_HAL_Driver/Src/stm32f4xx_ll_sdmmc.c ****   }
 1732              		.loc 1 1292 12 view .LVU568
 1733 012a 4FF40020 		mov	r0, #524288
 1734 012e 7047     		bx	lr
 1735              	.L137:
 1736              		.align	2
 1737              	.L136:
 1738 0130 00000000 		.word	SystemCoreClock
 1739 0134 D34D6210 		.word	274877907
 1740 0138 08E0FFFD 		.word	-33562616
 1741              	.LBE191:
 1742              	.LBE192:
 1743              	.LBE198:
 1744              	.LBE209:
 1745              		.cfi_endproc
 1746              	.LFE145:
 1748              		.section	.text.SDMMC_CmdWriteSingleBlock,"ax",%progbits
 1749              		.align	1
 1750              		.p2align 2,,3
 1751              		.global	SDMMC_CmdWriteSingleBlock
ARM GAS  C:\Users\pw705\AppData\Local\Temp\cceieKfF.s 			page 61


 1752              		.syntax unified
 1753              		.thumb
 1754              		.thumb_func
 1756              	SDMMC_CmdWriteSingleBlock:
 1757              	.LVL102:
 1758              	.LFB146:
 577:Drivers/STM32F4xx_HAL_Driver/Src/stm32f4xx_ll_sdmmc.c ****   SDIO_CmdInitTypeDef sdmmc_cmdinit;
 1759              		.loc 1 577 1 is_stmt 1 view -0
 1760              		.cfi_startproc
 1761              		@ args = 0, pretend = 0, frame = 0
 1762              		@ frame_needed = 0, uses_anonymous_args = 0
 1763              		@ link register save eliminated.
 578:Drivers/STM32F4xx_HAL_Driver/Src/stm32f4xx_ll_sdmmc.c ****   uint32_t errorstate;
 1764              		.loc 1 578 3 view .LVU570
 579:Drivers/STM32F4xx_HAL_Driver/Src/stm32f4xx_ll_sdmmc.c **** 
 1765              		.loc 1 579 3 view .LVU571
 582:Drivers/STM32F4xx_HAL_Driver/Src/stm32f4xx_ll_sdmmc.c ****   sdmmc_cmdinit.CmdIndex = SDMMC_CMD_WRITE_SINGLE_BLOCK;
 1766              		.loc 1 582 3 view .LVU572
 1767              	.LBB222:
 1768              	.LBB223:
1193:Drivers/STM32F4xx_HAL_Driver/Src/stm32f4xx_ll_sdmmc.c **** 
 1769              		.loc 1 1193 52 is_stmt 0 view .LVU573
 1770 0000 4A4A     		ldr	r2, .L176
 1771              	.LVL103:
1193:Drivers/STM32F4xx_HAL_Driver/Src/stm32f4xx_ll_sdmmc.c **** 
 1772              		.loc 1 1193 52 view .LVU574
 1773              	.LBE223:
 1774              	.LBE222:
 583:Drivers/STM32F4xx_HAL_Driver/Src/stm32f4xx_ll_sdmmc.c ****   sdmmc_cmdinit.Response = SDIO_RESPONSE_SHORT;
 1775              		.loc 1 583 3 is_stmt 1 view .LVU575
 584:Drivers/STM32F4xx_HAL_Driver/Src/stm32f4xx_ll_sdmmc.c ****   sdmmc_cmdinit.WaitForInterrupt = SDIO_WAIT_NO;
 1776              		.loc 1 584 3 view .LVU576
 585:Drivers/STM32F4xx_HAL_Driver/Src/stm32f4xx_ll_sdmmc.c ****   sdmmc_cmdinit.CPSM = SDIO_CPSM_ENABLE;
 1777              		.loc 1 585 3 view .LVU577
 586:Drivers/STM32F4xx_HAL_Driver/Src/stm32f4xx_ll_sdmmc.c ****   (void)SDIO_SendCommand(SDIOx, &sdmmc_cmdinit);
 1778              		.loc 1 586 3 view .LVU578
 587:Drivers/STM32F4xx_HAL_Driver/Src/stm32f4xx_ll_sdmmc.c **** 
 1779              		.loc 1 587 3 view .LVU579
 1780              	.LBB238:
 1781              	.LBI238:
 345:Drivers/STM32F4xx_HAL_Driver/Src/stm32f4xx_ll_sdmmc.c **** {
 1782              		.loc 1 345 19 view .LVU580
 1783              	.LBB239:
 347:Drivers/STM32F4xx_HAL_Driver/Src/stm32f4xx_ll_sdmmc.c **** 
 1784              		.loc 1 347 3 view .LVU581
 350:Drivers/STM32F4xx_HAL_Driver/Src/stm32f4xx_ll_sdmmc.c ****   assert_param(IS_SDIO_RESPONSE(Command->Response));
 1785              		.loc 1 350 3 view .LVU582
 351:Drivers/STM32F4xx_HAL_Driver/Src/stm32f4xx_ll_sdmmc.c ****   assert_param(IS_SDIO_WAIT(Command->WaitForInterrupt));
 1786              		.loc 1 351 3 view .LVU583
 352:Drivers/STM32F4xx_HAL_Driver/Src/stm32f4xx_ll_sdmmc.c ****   assert_param(IS_SDIO_CPSM(Command->CPSM));
 1787              		.loc 1 352 3 view .LVU584
 353:Drivers/STM32F4xx_HAL_Driver/Src/stm32f4xx_ll_sdmmc.c **** 
 1788              		.loc 1 353 3 view .LVU585
 356:Drivers/STM32F4xx_HAL_Driver/Src/stm32f4xx_ll_sdmmc.c **** 
 1789              		.loc 1 356 3 view .LVU586
 356:Drivers/STM32F4xx_HAL_Driver/Src/stm32f4xx_ll_sdmmc.c **** 
 1790              		.loc 1 356 14 is_stmt 0 view .LVU587
ARM GAS  C:\Users\pw705\AppData\Local\Temp\cceieKfF.s 			page 62


 1791 0002 8160     		str	r1, [r0, #8]
 359:Drivers/STM32F4xx_HAL_Driver/Src/stm32f4xx_ll_sdmmc.c ****                        Command->Response |
 1792              		.loc 1 359 3 is_stmt 1 view .LVU588
 1793              	.LVL104:
 365:Drivers/STM32F4xx_HAL_Driver/Src/stm32f4xx_ll_sdmmc.c **** 
 1794              		.loc 1 365 3 view .LVU589
 1795 0004 C368     		ldr	r3, [r0, #12]
 1796              	.LBE239:
 1797              	.LBE238:
 1798              	.LBB244:
 1799              	.LBB232:
1193:Drivers/STM32F4xx_HAL_Driver/Src/stm32f4xx_ll_sdmmc.c **** 
 1800              		.loc 1 1193 52 is_stmt 0 view .LVU590
 1801 0006 4A49     		ldr	r1, .L176+4
 1802              	.LVL105:
1193:Drivers/STM32F4xx_HAL_Driver/Src/stm32f4xx_ll_sdmmc.c **** 
 1803              		.loc 1 1193 52 view .LVU591
 1804 0008 1268     		ldr	r2, [r2]
 1805              	.LBE232:
 1806              	.LBE244:
 1807              	.LBB245:
 1808              	.LBB240:
 365:Drivers/STM32F4xx_HAL_Driver/Src/stm32f4xx_ll_sdmmc.c **** 
 1809              		.loc 1 365 3 view .LVU592
 1810 000a 23F47F63 		bic	r3, r3, #4080
 1811              	.LBE240:
 1812              	.LBE245:
 1813              	.LBB246:
 1814              	.LBB233:
1193:Drivers/STM32F4xx_HAL_Driver/Src/stm32f4xx_ll_sdmmc.c **** 
 1815              		.loc 1 1193 52 view .LVU593
 1816 000e A1FB0212 		umull	r1, r2, r1, r2
 1817              	.LBE233:
 1818              	.LBE246:
 1819              	.LBB247:
 1820              	.LBB241:
 365:Drivers/STM32F4xx_HAL_Driver/Src/stm32f4xx_ll_sdmmc.c **** 
 1821              		.loc 1 365 3 view .LVU594
 1822 0012 23F00F03 		bic	r3, r3, #15
 1823              	.LBE241:
 1824              	.LBE247:
 1825              	.LBB248:
 1826              	.LBB234:
1193:Drivers/STM32F4xx_HAL_Driver/Src/stm32f4xx_ll_sdmmc.c **** 
 1827              		.loc 1 1193 52 view .LVU595
 1828 0016 520A     		lsrs	r2, r2, #9
1193:Drivers/STM32F4xx_HAL_Driver/Src/stm32f4xx_ll_sdmmc.c **** 
 1829              		.loc 1 1193 12 view .LVU596
 1830 0018 41F28831 		movw	r1, #5000
 1831              	.LBE234:
 1832              	.LBE248:
 1833              	.LBB249:
 1834              	.LBB242:
 365:Drivers/STM32F4xx_HAL_Driver/Src/stm32f4xx_ll_sdmmc.c **** 
 1835              		.loc 1 365 3 view .LVU597
 1836 001c 43F48B63 		orr	r3, r3, #1112
 1837              	.LBE242:
ARM GAS  C:\Users\pw705\AppData\Local\Temp\cceieKfF.s 			page 63


 1838              	.LBE249:
 1839              	.LBB250:
 1840              	.LBB235:
1193:Drivers/STM32F4xx_HAL_Driver/Src/stm32f4xx_ll_sdmmc.c **** 
 1841              		.loc 1 1193 12 view .LVU598
 1842 0020 01FB02F2 		mul	r2, r1, r2
 1843              	.LBE235:
 1844              	.LBE250:
 1845              	.LBB251:
 1846              	.LBB243:
 365:Drivers/STM32F4xx_HAL_Driver/Src/stm32f4xx_ll_sdmmc.c **** 
 1847              		.loc 1 365 3 view .LVU599
 1848 0024 C360     		str	r3, [r0, #12]
 1849              	.LVL106:
 367:Drivers/STM32F4xx_HAL_Driver/Src/stm32f4xx_ll_sdmmc.c **** }
 1850              		.loc 1 367 3 is_stmt 1 view .LVU600
 367:Drivers/STM32F4xx_HAL_Driver/Src/stm32f4xx_ll_sdmmc.c **** }
 1851              		.loc 1 367 3 is_stmt 0 view .LVU601
 1852              	.LBE243:
 1853              	.LBE251:
 590:Drivers/STM32F4xx_HAL_Driver/Src/stm32f4xx_ll_sdmmc.c **** 
 1854              		.loc 1 590 3 is_stmt 1 view .LVU602
 1855              	.LBB252:
 1856              	.LBI222:
1186:Drivers/STM32F4xx_HAL_Driver/Src/stm32f4xx_ll_sdmmc.c **** {
 1857              		.loc 1 1186 10 view .LVU603
 1858              	.LBB236:
1188:Drivers/STM32F4xx_HAL_Driver/Src/stm32f4xx_ll_sdmmc.c ****   uint32_t sta_reg;
 1859              		.loc 1 1188 3 view .LVU604
1189:Drivers/STM32F4xx_HAL_Driver/Src/stm32f4xx_ll_sdmmc.c **** 
 1860              		.loc 1 1189 3 view .LVU605
1193:Drivers/STM32F4xx_HAL_Driver/Src/stm32f4xx_ll_sdmmc.c **** 
 1861              		.loc 1 1193 3 view .LVU606
1195:Drivers/STM32F4xx_HAL_Driver/Src/stm32f4xx_ll_sdmmc.c ****   {
 1862              		.loc 1 1195 3 view .LVU607
1197:Drivers/STM32F4xx_HAL_Driver/Src/stm32f4xx_ll_sdmmc.c ****     {
 1863              		.loc 1 1197 5 view .LVU608
1197:Drivers/STM32F4xx_HAL_Driver/Src/stm32f4xx_ll_sdmmc.c ****     {
 1864              		.loc 1 1197 14 is_stmt 0 view .LVU609
 1865 0026 531E     		subs	r3, r2, #1
 1866              	.LVL107:
1197:Drivers/STM32F4xx_HAL_Driver/Src/stm32f4xx_ll_sdmmc.c ****     {
 1867              		.loc 1 1197 8 view .LVU610
 1868 0028 4AB1     		cbz	r2, .L147
 1869              	.L140:
1195:Drivers/STM32F4xx_HAL_Driver/Src/stm32f4xx_ll_sdmmc.c ****   {
 1870              		.loc 1 1195 3 is_stmt 1 view .LVU611
1197:Drivers/STM32F4xx_HAL_Driver/Src/stm32f4xx_ll_sdmmc.c ****     {
 1871              		.loc 1 1197 5 view .LVU612
1201:Drivers/STM32F4xx_HAL_Driver/Src/stm32f4xx_ll_sdmmc.c ****   } while (((sta_reg & (SDIO_FLAG_CCRCFAIL | SDIO_FLAG_CMDREND | SDIO_FLAG_CTIMEOUT)) == 0U) ||
 1872              		.loc 1 1201 5 view .LVU613
1201:Drivers/STM32F4xx_HAL_Driver/Src/stm32f4xx_ll_sdmmc.c ****   } while (((sta_reg & (SDIO_FLAG_CCRCFAIL | SDIO_FLAG_CMDREND | SDIO_FLAG_CTIMEOUT)) == 0U) ||
 1873              		.loc 1 1201 13 is_stmt 0 view .LVU614
 1874 002a 426B     		ldr	r2, [r0, #52]
 1875              	.LVL108:
1202:Drivers/STM32F4xx_HAL_Driver/Src/stm32f4xx_ll_sdmmc.c ****            ((sta_reg & SDIO_FLAG_CMDACT) != 0U));
 1876              		.loc 1 1202 94 is_stmt 1 view .LVU615
ARM GAS  C:\Users\pw705\AppData\Local\Temp\cceieKfF.s 			page 64


 1877 002c 12F0450F 		tst	r2, #69
1197:Drivers/STM32F4xx_HAL_Driver/Src/stm32f4xx_ll_sdmmc.c ****     {
 1878              		.loc 1 1197 14 is_stmt 0 view .LVU616
 1879 0030 03F1FF33 		add	r3, r3, #-1
 1880              	.LVL109:
1202:Drivers/STM32F4xx_HAL_Driver/Src/stm32f4xx_ll_sdmmc.c ****            ((sta_reg & SDIO_FLAG_CMDACT) != 0U));
 1881              		.loc 1 1202 94 view .LVU617
 1882 0034 01D0     		beq	.L141
 1883 0036 1105     		lsls	r1, r2, #20
 1884 0038 04D5     		bpl	.L173
 1885              	.L141:
1197:Drivers/STM32F4xx_HAL_Driver/Src/stm32f4xx_ll_sdmmc.c ****     {
 1886              		.loc 1 1197 8 view .LVU618
 1887 003a 5A1C     		adds	r2, r3, #1
 1888              	.LVL110:
1197:Drivers/STM32F4xx_HAL_Driver/Src/stm32f4xx_ll_sdmmc.c ****     {
 1889              		.loc 1 1197 8 view .LVU619
 1890 003c F5D1     		bne	.L140
 1891              	.LVL111:
 1892              	.L147:
1199:Drivers/STM32F4xx_HAL_Driver/Src/stm32f4xx_ll_sdmmc.c ****     }
 1893              		.loc 1 1199 14 view .LVU620
 1894 003e 4FF00040 		mov	r0, #-2147483648
 1895              	.LVL112:
1199:Drivers/STM32F4xx_HAL_Driver/Src/stm32f4xx_ll_sdmmc.c ****     }
 1896              		.loc 1 1199 14 view .LVU621
 1897 0042 7047     		bx	lr
 1898              	.LVL113:
 1899              	.L173:
1205:Drivers/STM32F4xx_HAL_Driver/Src/stm32f4xx_ll_sdmmc.c ****   {
 1900              		.loc 1 1205 3 is_stmt 1 view .LVU622
1205:Drivers/STM32F4xx_HAL_Driver/Src/stm32f4xx_ll_sdmmc.c ****   {
 1901              		.loc 1 1205 7 is_stmt 0 view .LVU623
 1902 0044 436B     		ldr	r3, [r0, #52]
 1903              	.LVL114:
1205:Drivers/STM32F4xx_HAL_Driver/Src/stm32f4xx_ll_sdmmc.c ****   {
 1904              		.loc 1 1205 6 view .LVU624
 1905 0046 5A07     		lsls	r2, r3, #29
 1906              	.LVL115:
1205:Drivers/STM32F4xx_HAL_Driver/Src/stm32f4xx_ll_sdmmc.c ****   {
 1907              		.loc 1 1205 6 view .LVU625
 1908 0048 3ED4     		bmi	.L174
1211:Drivers/STM32F4xx_HAL_Driver/Src/stm32f4xx_ll_sdmmc.c ****   {
 1909              		.loc 1 1211 8 is_stmt 1 view .LVU626
1211:Drivers/STM32F4xx_HAL_Driver/Src/stm32f4xx_ll_sdmmc.c ****   {
 1910              		.loc 1 1211 12 is_stmt 0 view .LVU627
 1911 004a 436B     		ldr	r3, [r0, #52]
1211:Drivers/STM32F4xx_HAL_Driver/Src/stm32f4xx_ll_sdmmc.c ****   {
 1912              		.loc 1 1211 11 view .LVU628
 1913 004c DB07     		lsls	r3, r3, #31
 1914 004e 07D4     		bmi	.L175
1220:Drivers/STM32F4xx_HAL_Driver/Src/stm32f4xx_ll_sdmmc.c **** 
 1915              		.loc 1 1220 3 is_stmt 1 view .LVU629
1223:Drivers/STM32F4xx_HAL_Driver/Src/stm32f4xx_ll_sdmmc.c **** 
 1916              		.loc 1 1223 3 view .LVU630
 1917 0050 C523     		movs	r3, #197
 1918 0052 8363     		str	r3, [r0, #56]
ARM GAS  C:\Users\pw705\AppData\Local\Temp\cceieKfF.s 			page 65


1226:Drivers/STM32F4xx_HAL_Driver/Src/stm32f4xx_ll_sdmmc.c ****   {
 1919              		.loc 1 1226 3 view .LVU631
 1920              	.LVL116:
 1921              	.LBB224:
 1922              	.LBI224:
 375:Drivers/STM32F4xx_HAL_Driver/Src/stm32f4xx_ll_sdmmc.c **** {
 1923              		.loc 1 375 9 view .LVU632
 1924              	.LBB225:
 377:Drivers/STM32F4xx_HAL_Driver/Src/stm32f4xx_ll_sdmmc.c **** }
 1925              		.loc 1 377 3 view .LVU633
 377:Drivers/STM32F4xx_HAL_Driver/Src/stm32f4xx_ll_sdmmc.c **** }
 1926              		.loc 1 377 25 is_stmt 0 view .LVU634
 1927 0054 0369     		ldr	r3, [r0, #16]
 1928              	.LVL117:
 377:Drivers/STM32F4xx_HAL_Driver/Src/stm32f4xx_ll_sdmmc.c **** }
 1929              		.loc 1 377 25 view .LVU635
 1930              	.LBE225:
 1931              	.LBE224:
1226:Drivers/STM32F4xx_HAL_Driver/Src/stm32f4xx_ll_sdmmc.c ****   {
 1932              		.loc 1 1226 6 view .LVU636
 1933 0056 DBB2     		uxtb	r3, r3
 1934 0058 182B     		cmp	r3, #24
 1935 005a 04D0     		beq	.L145
 1936              	.L144:
1215:Drivers/STM32F4xx_HAL_Driver/Src/stm32f4xx_ll_sdmmc.c ****   }
 1937              		.loc 1 1215 12 view .LVU637
 1938 005c 0120     		movs	r0, #1
 1939              	.LVL118:
1215:Drivers/STM32F4xx_HAL_Driver/Src/stm32f4xx_ll_sdmmc.c ****   }
 1940              		.loc 1 1215 12 view .LVU638
 1941 005e 7047     		bx	lr
 1942              	.LVL119:
 1943              	.L175:
1213:Drivers/STM32F4xx_HAL_Driver/Src/stm32f4xx_ll_sdmmc.c **** 
 1944              		.loc 1 1213 5 is_stmt 1 view .LVU639
 1945 0060 0123     		movs	r3, #1
 1946 0062 8363     		str	r3, [r0, #56]
1215:Drivers/STM32F4xx_HAL_Driver/Src/stm32f4xx_ll_sdmmc.c ****   }
 1947              		.loc 1 1215 5 view .LVU640
1215:Drivers/STM32F4xx_HAL_Driver/Src/stm32f4xx_ll_sdmmc.c ****   }
 1948              		.loc 1 1215 12 is_stmt 0 view .LVU641
 1949 0064 FAE7     		b	.L144
 1950              	.L145:
 1951              	.LVL120:
 1952              	.LBB226:
 1953              	.LBI226:
1186:Drivers/STM32F4xx_HAL_Driver/Src/stm32f4xx_ll_sdmmc.c **** {
 1954              		.loc 1 1186 10 is_stmt 1 view .LVU642
 1955              	.LBB227:
1232:Drivers/STM32F4xx_HAL_Driver/Src/stm32f4xx_ll_sdmmc.c **** 
 1956              		.loc 1 1232 3 view .LVU643
 1957              	.LBB228:
 1958              	.LBI228:
 391:Drivers/STM32F4xx_HAL_Driver/Src/stm32f4xx_ll_sdmmc.c **** {
 1959              		.loc 1 391 10 view .LVU644
 1960              	.LBB229:
 393:Drivers/STM32F4xx_HAL_Driver/Src/stm32f4xx_ll_sdmmc.c **** 
ARM GAS  C:\Users\pw705\AppData\Local\Temp\cceieKfF.s 			page 66


 1961              		.loc 1 393 3 view .LVU645
 396:Drivers/STM32F4xx_HAL_Driver/Src/stm32f4xx_ll_sdmmc.c **** 
 1962              		.loc 1 396 3 view .LVU646
 399:Drivers/STM32F4xx_HAL_Driver/Src/stm32f4xx_ll_sdmmc.c **** 
 1963              		.loc 1 399 3 view .LVU647
 401:Drivers/STM32F4xx_HAL_Driver/Src/stm32f4xx_ll_sdmmc.c **** }
 1964              		.loc 1 401 3 view .LVU648
 401:Drivers/STM32F4xx_HAL_Driver/Src/stm32f4xx_ll_sdmmc.c **** }
 1965              		.loc 1 401 11 is_stmt 0 view .LVU649
 1966 0066 4369     		ldr	r3, [r0, #20]
 1967              	.LVL121:
 401:Drivers/STM32F4xx_HAL_Driver/Src/stm32f4xx_ll_sdmmc.c **** }
 1968              		.loc 1 401 11 view .LVU650
 1969              	.LBE229:
 1970              	.LBE228:
1234:Drivers/STM32F4xx_HAL_Driver/Src/stm32f4xx_ll_sdmmc.c ****   {
 1971              		.loc 1 1234 3 is_stmt 1 view .LVU651
1234:Drivers/STM32F4xx_HAL_Driver/Src/stm32f4xx_ll_sdmmc.c ****   {
 1972              		.loc 1 1234 20 is_stmt 0 view .LVU652
 1973 0068 3248     		ldr	r0, .L176+8
 1974              	.LVL122:
1234:Drivers/STM32F4xx_HAL_Driver/Src/stm32f4xx_ll_sdmmc.c ****   {
 1975              		.loc 1 1234 20 view .LVU653
 1976 006a 1840     		ands	r0, r0, r3
1234:Drivers/STM32F4xx_HAL_Driver/Src/stm32f4xx_ll_sdmmc.c ****   {
 1977              		.loc 1 1234 6 view .LVU654
 1978 006c 58B3     		cbz	r0, .L138
1238:Drivers/STM32F4xx_HAL_Driver/Src/stm32f4xx_ll_sdmmc.c ****   {
 1979              		.loc 1 1238 8 is_stmt 1 view .LVU655
1238:Drivers/STM32F4xx_HAL_Driver/Src/stm32f4xx_ll_sdmmc.c ****   {
 1980              		.loc 1 1238 11 is_stmt 0 view .LVU656
 1981 006e 002B     		cmp	r3, #0
 1982 0070 2EDB     		blt	.L148
1242:Drivers/STM32F4xx_HAL_Driver/Src/stm32f4xx_ll_sdmmc.c ****   {
 1983              		.loc 1 1242 8 is_stmt 1 view .LVU657
1242:Drivers/STM32F4xx_HAL_Driver/Src/stm32f4xx_ll_sdmmc.c ****   {
 1984              		.loc 1 1242 11 is_stmt 0 view .LVU658
 1985 0072 5900     		lsls	r1, r3, #1
 1986 0074 2FD4     		bmi	.L149
1246:Drivers/STM32F4xx_HAL_Driver/Src/stm32f4xx_ll_sdmmc.c ****   {
 1987              		.loc 1 1246 8 is_stmt 1 view .LVU659
1246:Drivers/STM32F4xx_HAL_Driver/Src/stm32f4xx_ll_sdmmc.c ****   {
 1988              		.loc 1 1246 11 is_stmt 0 view .LVU660
 1989 0076 9A00     		lsls	r2, r3, #2
 1990 0078 2FD4     		bmi	.L150
1250:Drivers/STM32F4xx_HAL_Driver/Src/stm32f4xx_ll_sdmmc.c ****   {
 1991              		.loc 1 1250 8 is_stmt 1 view .LVU661
1250:Drivers/STM32F4xx_HAL_Driver/Src/stm32f4xx_ll_sdmmc.c ****   {
 1992              		.loc 1 1250 11 is_stmt 0 view .LVU662
 1993 007a D900     		lsls	r1, r3, #3
 1994 007c 2FD4     		bmi	.L151
1254:Drivers/STM32F4xx_HAL_Driver/Src/stm32f4xx_ll_sdmmc.c ****   {
 1995              		.loc 1 1254 8 is_stmt 1 view .LVU663
1254:Drivers/STM32F4xx_HAL_Driver/Src/stm32f4xx_ll_sdmmc.c ****   {
 1996              		.loc 1 1254 11 is_stmt 0 view .LVU664
 1997 007e 1A01     		lsls	r2, r3, #4
 1998 0080 30D4     		bmi	.L152
ARM GAS  C:\Users\pw705\AppData\Local\Temp\cceieKfF.s 			page 67


1258:Drivers/STM32F4xx_HAL_Driver/Src/stm32f4xx_ll_sdmmc.c ****   {
 1999              		.loc 1 1258 8 is_stmt 1 view .LVU665
1258:Drivers/STM32F4xx_HAL_Driver/Src/stm32f4xx_ll_sdmmc.c ****   {
 2000              		.loc 1 1258 11 is_stmt 0 view .LVU666
 2001 0082 5901     		lsls	r1, r3, #5
 2002 0084 31D4     		bmi	.L153
1262:Drivers/STM32F4xx_HAL_Driver/Src/stm32f4xx_ll_sdmmc.c ****   {
 2003              		.loc 1 1262 8 is_stmt 1 view .LVU667
1262:Drivers/STM32F4xx_HAL_Driver/Src/stm32f4xx_ll_sdmmc.c ****   {
 2004              		.loc 1 1262 11 is_stmt 0 view .LVU668
 2005 0086 DA01     		lsls	r2, r3, #7
 2006 0088 32D4     		bmi	.L154
1266:Drivers/STM32F4xx_HAL_Driver/Src/stm32f4xx_ll_sdmmc.c ****   {
 2007              		.loc 1 1266 8 is_stmt 1 view .LVU669
1266:Drivers/STM32F4xx_HAL_Driver/Src/stm32f4xx_ll_sdmmc.c ****   {
 2008              		.loc 1 1266 11 is_stmt 0 view .LVU670
 2009 008a 1902     		lsls	r1, r3, #8
 2010 008c 33D4     		bmi	.L155
1270:Drivers/STM32F4xx_HAL_Driver/Src/stm32f4xx_ll_sdmmc.c ****   {
 2011              		.loc 1 1270 8 is_stmt 1 view .LVU671
1270:Drivers/STM32F4xx_HAL_Driver/Src/stm32f4xx_ll_sdmmc.c ****   {
 2012              		.loc 1 1270 11 is_stmt 0 view .LVU672
 2013 008e 5A02     		lsls	r2, r3, #9
 2014 0090 34D4     		bmi	.L156
1274:Drivers/STM32F4xx_HAL_Driver/Src/stm32f4xx_ll_sdmmc.c ****   {
 2015              		.loc 1 1274 8 is_stmt 1 view .LVU673
1274:Drivers/STM32F4xx_HAL_Driver/Src/stm32f4xx_ll_sdmmc.c ****   {
 2016              		.loc 1 1274 11 is_stmt 0 view .LVU674
 2017 0092 9902     		lsls	r1, r3, #10
 2018 0094 3ED4     		bmi	.L157
1278:Drivers/STM32F4xx_HAL_Driver/Src/stm32f4xx_ll_sdmmc.c ****   {
 2019              		.loc 1 1278 8 is_stmt 1 view .LVU675
1278:Drivers/STM32F4xx_HAL_Driver/Src/stm32f4xx_ll_sdmmc.c ****   {
 2020              		.loc 1 1278 11 is_stmt 0 view .LVU676
 2021 0096 DA02     		lsls	r2, r3, #11
 2022 0098 39D4     		bmi	.L158
1282:Drivers/STM32F4xx_HAL_Driver/Src/stm32f4xx_ll_sdmmc.c ****   {
 2023              		.loc 1 1282 8 is_stmt 1 view .LVU677
1282:Drivers/STM32F4xx_HAL_Driver/Src/stm32f4xx_ll_sdmmc.c ****   {
 2024              		.loc 1 1282 11 is_stmt 0 view .LVU678
 2025 009a 5903     		lsls	r1, r3, #13
 2026 009c 34D4     		bmi	.L159
1286:Drivers/STM32F4xx_HAL_Driver/Src/stm32f4xx_ll_sdmmc.c ****   {
 2027              		.loc 1 1286 8 is_stmt 1 view .LVU679
1286:Drivers/STM32F4xx_HAL_Driver/Src/stm32f4xx_ll_sdmmc.c ****   {
 2028              		.loc 1 1286 11 is_stmt 0 view .LVU680
 2029 009e 9A03     		lsls	r2, r3, #14
 2030 00a0 2FD4     		bmi	.L160
1290:Drivers/STM32F4xx_HAL_Driver/Src/stm32f4xx_ll_sdmmc.c ****   {
 2031              		.loc 1 1290 8 is_stmt 1 view .LVU681
1290:Drivers/STM32F4xx_HAL_Driver/Src/stm32f4xx_ll_sdmmc.c ****   {
 2032              		.loc 1 1290 11 is_stmt 0 view .LVU682
 2033 00a2 D903     		lsls	r1, r3, #15
 2034 00a4 3FD4     		bmi	.L161
1294:Drivers/STM32F4xx_HAL_Driver/Src/stm32f4xx_ll_sdmmc.c ****   {
 2035              		.loc 1 1294 8 is_stmt 1 view .LVU683
1294:Drivers/STM32F4xx_HAL_Driver/Src/stm32f4xx_ll_sdmmc.c ****   {
ARM GAS  C:\Users\pw705\AppData\Local\Temp\cceieKfF.s 			page 68


 2036              		.loc 1 1294 11 is_stmt 0 view .LVU684
 2037 00a6 1A04     		lsls	r2, r3, #16
 2038 00a8 3AD4     		bmi	.L162
1298:Drivers/STM32F4xx_HAL_Driver/Src/stm32f4xx_ll_sdmmc.c ****   {
 2039              		.loc 1 1298 8 is_stmt 1 view .LVU685
1298:Drivers/STM32F4xx_HAL_Driver/Src/stm32f4xx_ll_sdmmc.c ****   {
 2040              		.loc 1 1298 11 is_stmt 0 view .LVU686
 2041 00aa 5904     		lsls	r1, r3, #17
 2042 00ac 35D4     		bmi	.L163
1302:Drivers/STM32F4xx_HAL_Driver/Src/stm32f4xx_ll_sdmmc.c ****   {
 2043              		.loc 1 1302 8 is_stmt 1 view .LVU687
1302:Drivers/STM32F4xx_HAL_Driver/Src/stm32f4xx_ll_sdmmc.c ****   {
 2044              		.loc 1 1302 11 is_stmt 0 view .LVU688
 2045 00ae 9A04     		lsls	r2, r3, #18
 2046 00b0 07D4     		bmi	.L164
1306:Drivers/STM32F4xx_HAL_Driver/Src/stm32f4xx_ll_sdmmc.c ****   {
 2047              		.loc 1 1306 8 is_stmt 1 view .LVU689
 2048              		.loc 1 1308 12 is_stmt 0 view .LVU690
 2049 00b2 13F0080F 		tst	r3, #8
 2050 00b6 0CBF     		ite	eq
 2051 00b8 4FF48030 		moveq	r0, #65536
 2052 00bc 4FF40000 		movne	r0, #8388608
 2053 00c0 7047     		bx	lr
 2054              	.L164:
1304:Drivers/STM32F4xx_HAL_Driver/Src/stm32f4xx_ll_sdmmc.c ****   }
 2055              		.loc 1 1304 12 view .LVU691
 2056 00c2 4FF48000 		mov	r0, #4194304
 2057              	.L138:
1304:Drivers/STM32F4xx_HAL_Driver/Src/stm32f4xx_ll_sdmmc.c ****   }
 2058              		.loc 1 1304 12 view .LVU692
 2059              	.LBE227:
 2060              	.LBE226:
 2061              	.LBE236:
 2062              	.LBE252:
 593:Drivers/STM32F4xx_HAL_Driver/Src/stm32f4xx_ll_sdmmc.c **** 
 2063              		.loc 1 593 1 view .LVU693
 2064 00c6 7047     		bx	lr
 2065              	.LVL123:
 2066              	.L174:
 2067              	.LBB253:
 2068              	.LBB237:
1207:Drivers/STM32F4xx_HAL_Driver/Src/stm32f4xx_ll_sdmmc.c **** 
 2069              		.loc 1 1207 5 is_stmt 1 view .LVU694
 2070 00c8 0423     		movs	r3, #4
 2071 00ca 8363     		str	r3, [r0, #56]
1209:Drivers/STM32F4xx_HAL_Driver/Src/stm32f4xx_ll_sdmmc.c ****   }
 2072              		.loc 1 1209 5 view .LVU695
1209:Drivers/STM32F4xx_HAL_Driver/Src/stm32f4xx_ll_sdmmc.c ****   }
 2073              		.loc 1 1209 12 is_stmt 0 view .LVU696
 2074 00cc 1846     		mov	r0, r3
 2075              	.LVL124:
1209:Drivers/STM32F4xx_HAL_Driver/Src/stm32f4xx_ll_sdmmc.c ****   }
 2076              		.loc 1 1209 12 view .LVU697
 2077 00ce 7047     		bx	lr
 2078              	.LVL125:
 2079              	.L148:
 2080              	.LBB231:
